
res/firmware.elf:     file format elf32-littlearm


Disassembly of section .isr_vector:

08000000 <g_pfnVectors>:
 8000000:	20005000 	andcs	r5, r0, r0
 8000004:	08000af9 	stmdaeq	r0, {r0, r3, r4, r5, r6, r7, r9, fp}
 8000008:	08000b3d 	stmdaeq	r0, {r0, r2, r3, r4, r5, r8, r9, fp}
 800000c:	08000b3d 	stmdaeq	r0, {r0, r2, r3, r4, r5, r8, r9, fp}
 8000010:	08000b3d 	stmdaeq	r0, {r0, r2, r3, r4, r5, r8, r9, fp}
 8000014:	08000b3d 	stmdaeq	r0, {r0, r2, r3, r4, r5, r8, r9, fp}
 8000018:	08000b3d 	stmdaeq	r0, {r0, r2, r3, r4, r5, r8, r9, fp}
	...
 800002c:	08000b3d 	stmdaeq	r0, {r0, r2, r3, r4, r5, r8, r9, fp}
 8000030:	08000b3d 	stmdaeq	r0, {r0, r2, r3, r4, r5, r8, r9, fp}
 8000034:	00000000 	andeq	r0, r0, r0
 8000038:	08000b3d 	stmdaeq	r0, {r0, r2, r3, r4, r5, r8, r9, fp}
 800003c:	08000b3d 	stmdaeq	r0, {r0, r2, r3, r4, r5, r8, r9, fp}
 8000040:	08000b3d 	stmdaeq	r0, {r0, r2, r3, r4, r5, r8, r9, fp}
 8000044:	08000b3d 	stmdaeq	r0, {r0, r2, r3, r4, r5, r8, r9, fp}
 8000048:	08000b3d 	stmdaeq	r0, {r0, r2, r3, r4, r5, r8, r9, fp}
 800004c:	08000b3d 	stmdaeq	r0, {r0, r2, r3, r4, r5, r8, r9, fp}
 8000050:	08000b3d 	stmdaeq	r0, {r0, r2, r3, r4, r5, r8, r9, fp}
 8000054:	08000b3d 	stmdaeq	r0, {r0, r2, r3, r4, r5, r8, r9, fp}
 8000058:	08000b3d 	stmdaeq	r0, {r0, r2, r3, r4, r5, r8, r9, fp}
 800005c:	08000b3d 	stmdaeq	r0, {r0, r2, r3, r4, r5, r8, r9, fp}
 8000060:	08000b3d 	stmdaeq	r0, {r0, r2, r3, r4, r5, r8, r9, fp}
 8000064:	08000b3d 	stmdaeq	r0, {r0, r2, r3, r4, r5, r8, r9, fp}
 8000068:	08000b3d 	stmdaeq	r0, {r0, r2, r3, r4, r5, r8, r9, fp}
 800006c:	08000b3d 	stmdaeq	r0, {r0, r2, r3, r4, r5, r8, r9, fp}
 8000070:	08000b3d 	stmdaeq	r0, {r0, r2, r3, r4, r5, r8, r9, fp}
 8000074:	08000b3d 	stmdaeq	r0, {r0, r2, r3, r4, r5, r8, r9, fp}
 8000078:	08000b3d 	stmdaeq	r0, {r0, r2, r3, r4, r5, r8, r9, fp}
 800007c:	08000b3d 	stmdaeq	r0, {r0, r2, r3, r4, r5, r8, r9, fp}
 8000080:	08000b3d 	stmdaeq	r0, {r0, r2, r3, r4, r5, r8, r9, fp}
 8000084:	08000b3d 	stmdaeq	r0, {r0, r2, r3, r4, r5, r8, r9, fp}
 8000088:	08000b3d 	stmdaeq	r0, {r0, r2, r3, r4, r5, r8, r9, fp}
 800008c:	08000b3d 	stmdaeq	r0, {r0, r2, r3, r4, r5, r8, r9, fp}
 8000090:	0800048d 	stmdaeq	r0, {r0, r2, r3, r7, sl}
 8000094:	08000b3d 	stmdaeq	r0, {r0, r2, r3, r4, r5, r8, r9, fp}
 8000098:	08000b3d 	stmdaeq	r0, {r0, r2, r3, r4, r5, r8, r9, fp}
 800009c:	08000b3d 	stmdaeq	r0, {r0, r2, r3, r4, r5, r8, r9, fp}
 80000a0:	08000b3d 	stmdaeq	r0, {r0, r2, r3, r4, r5, r8, r9, fp}
 80000a4:	08000b3d 	stmdaeq	r0, {r0, r2, r3, r4, r5, r8, r9, fp}
 80000a8:	08000b3d 	stmdaeq	r0, {r0, r2, r3, r4, r5, r8, r9, fp}
 80000ac:	08000b3d 	stmdaeq	r0, {r0, r2, r3, r4, r5, r8, r9, fp}
 80000b0:	08000b3d 	stmdaeq	r0, {r0, r2, r3, r4, r5, r8, r9, fp}
 80000b4:	08000b3d 	stmdaeq	r0, {r0, r2, r3, r4, r5, r8, r9, fp}
 80000b8:	08000979 	stmdaeq	r0, {r0, r3, r4, r5, r6, r8, fp}
 80000bc:	08000b3d 	stmdaeq	r0, {r0, r2, r3, r4, r5, r8, r9, fp}
 80000c0:	08000b3d 	stmdaeq	r0, {r0, r2, r3, r4, r5, r8, r9, fp}
 80000c4:	08000b3d 	stmdaeq	r0, {r0, r2, r3, r4, r5, r8, r9, fp}
 80000c8:	08000b3d 	stmdaeq	r0, {r0, r2, r3, r4, r5, r8, r9, fp}
 80000cc:	08000b3d 	stmdaeq	r0, {r0, r2, r3, r4, r5, r8, r9, fp}
 80000d0:	08000b3d 	stmdaeq	r0, {r0, r2, r3, r4, r5, r8, r9, fp}
 80000d4:	08000b3d 	stmdaeq	r0, {r0, r2, r3, r4, r5, r8, r9, fp}
 80000d8:	08000b3d 	stmdaeq	r0, {r0, r2, r3, r4, r5, r8, r9, fp}
 80000dc:	08000b3d 	stmdaeq	r0, {r0, r2, r3, r4, r5, r8, r9, fp}
 80000e0:	08000b3d 	stmdaeq	r0, {r0, r2, r3, r4, r5, r8, r9, fp}
 80000e4:	08000b3d 	stmdaeq	r0, {r0, r2, r3, r4, r5, r8, r9, fp}
 80000e8:	08000b3d 	stmdaeq	r0, {r0, r2, r3, r4, r5, r8, r9, fp}
	...
 8000108:	f108f85f 			; <UNDEFINED> instruction: 0xf108f85f

Disassembly of section .text:

0800010c <SysClockMax-0x14>:
 800010c:	08000ecc 	stmdaeq	r0, {r2, r3, r6, r7, r9, sl, fp}
 8000110:	20000000 	andcs	r0, r0, r0
 8000114:	20000004 	andcs	r0, r0, r4
 8000118:	20000004 	andcs	r0, r0, r4
 800011c:	20000064 	andcs	r0, r0, r4, rrx

08000120 <SysClockMax>:
#define F_CPU 72000000
//F_HSE = 8 MHz
int8_t SysClockMax(){
  int i;
  uint32_t tmp;
  RCC->CR &=~RCC_CR_HSEON;
 8000120:	4b27      	ldr	r3, [pc, #156]	; (80001c0 <SysClockMax+0xa0>)
 8000122:	681a      	ldr	r2, [r3, #0]
 8000124:	f422 3280 	bic.w	r2, r2, #65536	; 0x10000
 8000128:	601a      	str	r2, [r3, #0]
  RCC->CR &=~RCC_CR_HSEBYP;
 800012a:	681a      	ldr	r2, [r3, #0]
 800012c:	f422 2280 	bic.w	r2, r2, #262144	; 0x40000
 8000130:	601a      	str	r2, [r3, #0]
  RCC->CR |= RCC_CR_HSEON;
 8000132:	681a      	ldr	r2, [r3, #0]
 8000134:	f442 3280 	orr.w	r2, r2, #65536	; 0x10000
 8000138:	601a      	str	r2, [r3, #0]
 800013a:	f640 72ff 	movw	r2, #4095	; 0xfff
  for(i=0;i<0x0FFF;i++){
    if(RCC->CR & RCC_CR_HSERDY){i=0x1FFF; break;}
 800013e:	6819      	ldr	r1, [r3, #0]
 8000140:	0388      	lsls	r0, r1, #14
 8000142:	d416      	bmi.n	8000172 <SysClockMax+0x52>
  for(i=0;i<0x0FFF;i++){
 8000144:	3a01      	subs	r2, #1
 8000146:	d1fa      	bne.n	800013e <SysClockMax+0x1e>
  }
  if(i != 0x1FFF)return SCME_HSE; //can not start HSE
 8000148:	2001      	movs	r0, #1
 800014a:	4770      	bx	lr
  RCC->CFGR = tmp;
  for(i=0;i<0x0FFF;i++){
    if((RCC->CFGR & RCC_CFGR_SWS)==RCC_CFGR_SWS_PLL){i=0x1FFF; break;}
  }
  if(i != 0x1FFF)return SCME_SW;
  return SCME_OK;
 800014c:	2000      	movs	r0, #0
}
 800014e:	4770      	bx	lr
  tmp = RCC->CFGR;
 8000150:	685a      	ldr	r2, [r3, #4]
  tmp &=~RCC_CFGR_SW;
 8000152:	f022 0203 	bic.w	r2, r2, #3
  tmp |= RCC_CFGR_SW_PLL;
 8000156:	f042 0202 	orr.w	r2, r2, #2
  RCC->CFGR = tmp;
 800015a:	605a      	str	r2, [r3, #4]
 800015c:	f640 72ff 	movw	r2, #4095	; 0xfff
    if((RCC->CFGR & RCC_CFGR_SWS)==RCC_CFGR_SWS_PLL){i=0x1FFF; break;}
 8000160:	6859      	ldr	r1, [r3, #4]
 8000162:	f001 010c 	and.w	r1, r1, #12
 8000166:	2908      	cmp	r1, #8
 8000168:	d0f0      	beq.n	800014c <SysClockMax+0x2c>
  for(i=0;i<0x0FFF;i++){
 800016a:	3a01      	subs	r2, #1
 800016c:	d1f8      	bne.n	8000160 <SysClockMax+0x40>
  if(i != 0x1FFF)return SCME_SW;
 800016e:	2003      	movs	r0, #3
 8000170:	4770      	bx	lr
  FLASH->ACR &=~FLASH_ACR_PRFTBE;
 8000172:	4a14      	ldr	r2, [pc, #80]	; (80001c4 <SysClockMax+0xa4>)
 8000174:	6811      	ldr	r1, [r2, #0]
 8000176:	f021 0110 	bic.w	r1, r1, #16
 800017a:	6011      	str	r1, [r2, #0]
  FLASH->ACR |= FLASH_ACR_PRFTBE;
 800017c:	6811      	ldr	r1, [r2, #0]
 800017e:	f041 0110 	orr.w	r1, r1, #16
 8000182:	6011      	str	r1, [r2, #0]
  FLASH->ACR &=~FLASH_ACR_LATENCY;
 8000184:	6811      	ldr	r1, [r2, #0]
 8000186:	f021 0107 	bic.w	r1, r1, #7
 800018a:	6011      	str	r1, [r2, #0]
  FLASH->ACR |= FLASH_ACR_LATENCY_2;
 800018c:	6811      	ldr	r1, [r2, #0]
 800018e:	f041 0104 	orr.w	r1, r1, #4
 8000192:	6011      	str	r1, [r2, #0]
  tmp = RCC->CFGR;
 8000194:	6859      	ldr	r1, [r3, #4]
  tmp &=~RCC_CFGR_PPRE1;
 8000196:	4a0c      	ldr	r2, [pc, #48]	; (80001c8 <SysClockMax+0xa8>)
 8000198:	400a      	ands	r2, r1
  tmp |= RCC_CFGR_PPRE1_DIV2;
 800019a:	f442 12e8 	orr.w	r2, r2, #1900544	; 0x1d0000
 800019e:	f442 6280 	orr.w	r2, r2, #1024	; 0x400
  RCC->CFGR = tmp;
 80001a2:	605a      	str	r2, [r3, #4]
  RCC->CR |= RCC_CR_PLLON;
 80001a4:	681a      	ldr	r2, [r3, #0]
 80001a6:	f042 7280 	orr.w	r2, r2, #16777216	; 0x1000000
 80001aa:	601a      	str	r2, [r3, #0]
 80001ac:	f640 72ff 	movw	r2, #4095	; 0xfff
    if(RCC->CR & RCC_CR_PLLRDY){i=0x1FFF; break;}
 80001b0:	6819      	ldr	r1, [r3, #0]
 80001b2:	0189      	lsls	r1, r1, #6
 80001b4:	d4cc      	bmi.n	8000150 <SysClockMax+0x30>
  for(i=0;i<0x0FFF;i++){
 80001b6:	3a01      	subs	r2, #1
 80001b8:	d1fa      	bne.n	80001b0 <SysClockMax+0x90>
  if(i != 0x1FFF)return SCME_PLL; //can not enable PLL
 80001ba:	2002      	movs	r0, #2
 80001bc:	4770      	bx	lr
 80001be:	bf00      	nop
 80001c0:	40021000 	andmi	r1, r2, r0
 80001c4:	40022000 	andmi	r2, r2, r0
 80001c8:	ffc2c00f 			; <UNDEFINED> instruction: 0xffc2c00f

080001cc <_init>:
 80001cc:	4770      	bx	lr

080001ce <SystemInit>:
#include "hardware.h"
#include "usb_lib.h"
#include "clock.h"

void __attribute__((weak)) _init(void){}
void __attribute__((weak)) SystemInit(void){}
 80001ce:	4770      	bx	lr

080001d0 <sleep>:

void sleep(uint32_t time){
  while(time--)asm volatile("nop");
 80001d0:	f110 30ff 	adds.w	r0, r0, #4294967295	; 0xffffffff
 80001d4:	d200      	bcs.n	80001d8 <sleep+0x8>
}
 80001d6:	4770      	bx	lr
  while(time--)asm volatile("nop");
 80001d8:	bf00      	nop
 80001da:	e7f9      	b.n	80001d0 <sleep>

#define STM32ENDPOINTS          8
#define usb_epdata   ((volatile usb_epdata_t*)(USB_PMAADDR))
#define LASTADDR_DEFAULT                (STM32ENDPOINTS * 8)

__attribute__((weak))void usb_class_init(){}
 80001dc:	4770      	bx	lr

080001de <usb_class_disconnect>:
 80001de:	4770      	bx	lr
 80001e0:	4770      	bx	lr
__attribute__((weak))void usb_class_disconnect(){}
__attribute__((weak))void usb_class_poll(){}
__attribute__((weak))char usb_class_ep0_in(config_pack_t *req, void **data, uint16_t *size){return 0;}
 80001e2:	2000      	movs	r0, #0
 80001e4:	4770      	bx	lr
__attribute__((weak))char usb_class_ep0_out(config_pack_t *req, uint16_t offset, uint16_t rx_size){return 0;}
 80001e6:	2000      	movs	r0, #0
 80001e8:	4770      	bx	lr

080001ea <USB_setup>:
epfunc_t epfunc_out[STM32ENDPOINTS];

static config_pack_t setup_packet;

void USB_setup(){
  RCC->APB1ENR |= RCC_APB1ENR_USBEN;
 80001ea:	4a15      	ldr	r2, [pc, #84]	; (8000240 <USB_setup+0x56>)
  GPIO_config( USB_PULLUP );
 80001ec:	4915      	ldr	r1, [pc, #84]	; (8000244 <USB_setup+0x5a>)
  RCC->APB1ENR |= RCC_APB1ENR_USBEN;
 80001ee:	69d3      	ldr	r3, [r2, #28]
 80001f0:	f443 0300 	orr.w	r3, r3, #8388608	; 0x800000
 80001f4:	61d3      	str	r3, [r2, #28]
  GPIO_config( USB_PULLUP );
 80001f6:	684b      	ldr	r3, [r1, #4]

  GPO_OFF( USB_PULLUP );
  USB->CNTR   = USB_CNTR_FRES; // Force USB Reset
 80001f8:	2201      	movs	r2, #1
  GPIO_config( USB_PULLUP );
 80001fa:	f423 6370 	bic.w	r3, r3, #3840	; 0xf00
 80001fe:	f443 7340 	orr.w	r3, r3, #768	; 0x300
 8000202:	604b      	str	r3, [r1, #4]
  GPO_OFF( USB_PULLUP );
 8000204:	f04f 6380 	mov.w	r3, #67108864	; 0x4000000
 8000208:	610b      	str	r3, [r1, #16]
  USB->CNTR   = USB_CNTR_FRES; // Force USB Reset
 800020a:	4b0f      	ldr	r3, [pc, #60]	; (8000248 <USB_setup+0x5e>)
 800020c:	f8a3 2040 	strh.w	r2, [r3, #64]	; 0x40
 8000210:	4a0e      	ldr	r2, [pc, #56]	; (800024c <USB_setup+0x62>)
  for(uint32_t ctr = 0; ctr < 100000; ++ctr) asm volatile("nop"); // wait >1ms
 8000212:	bf00      	nop
 8000214:	3a01      	subs	r2, #1
 8000216:	d1fc      	bne.n	8000212 <USB_setup+0x28>
  USB->CNTR   = 0;
 8000218:	f8a3 2040 	strh.w	r2, [r3, #64]	; 0x40
  USB->BTABLE = 0;
 800021c:	f8a3 2050 	strh.w	r2, [r3, #80]	; 0x50
  USB->DADDR  = 0;
 8000220:	f8a3 204c 	strh.w	r2, [r3, #76]	; 0x4c
  USB->ISTR   = 0;
 8000224:	f8a3 2044 	strh.w	r2, [r3, #68]	; 0x44
  USB->CNTR   = USB_CNTR_RESETM | USB_CNTR_WKUPM;
 8000228:	f44f 52a0 	mov.w	r2, #5120	; 0x1400
 800022c:	f8a3 2040 	strh.w	r2, [r3, #64]	; 0x40
 * Enable a device specific interupt in the NVIC interrupt controller.
 * The interrupt number cannot be a negative value.
 */
static __INLINE void NVIC_EnableIRQ(IRQn_Type IRQn)
{
  NVIC->ISER[((uint32_t)(IRQn) >> 5)] = (1 << ((uint32_t)(IRQn) & 0x1F)); /* enable interrupt */
 8000230:	f44f 1280 	mov.w	r2, #1048576	; 0x100000
 8000234:	4b06      	ldr	r3, [pc, #24]	; (8000250 <USB_setup+0x66>)
 8000236:	601a      	str	r2, [r3, #0]
  NVIC_EnableIRQ(USB_LP_IRQn);
  GPO_ON( USB_PULLUP );
 8000238:	f44f 6380 	mov.w	r3, #1024	; 0x400
 800023c:	610b      	str	r3, [r1, #16]
}
 800023e:	4770      	bx	lr
 8000240:	40021000 	andmi	r1, r2, r0
 8000244:	40010800 	andmi	r0, r1, r0, lsl #16
 8000248:	40005c00 	andmi	r5, r0, r0, lsl #24
 800024c:	000186a0 	andeq	r8, r1, r0, lsr #13
 8000250:	e000e100 	and	lr, r0, r0, lsl #2

08000254 <usb_ep_init>:
    if( bytesread >= setup_packet.wLength )usb_ep_write(0, NULL, 0);
  }
}

static uint16_t lastaddr = LASTADDR_DEFAULT;
void usb_ep_init(uint8_t epnum, uint8_t ep_type, uint16_t size, epfunc_t func){
 8000254:	b5f0      	push	{r4, r5, r6, r7, lr}
  uint8_t dir_in = (epnum & 0x80);
  epnum &= 0x0F;
 8000256:	f000 060f 	and.w	r6, r0, #15
  
  if(dir_in){
 800025a:	00b5      	lsls	r5, r6, #2
 800025c:	f105 4580 	add.w	r5, r5, #1073741824	; 0x40000000
 8000260:	f505 45b8 	add.w	r5, r5, #23552	; 0x5c00
    ENDP_STAT_TX(epnum, USB_EP_TX_DIS);
 8000264:	882c      	ldrh	r4, [r5, #0]
 8000266:	b240      	sxtb	r0, r0
  if(dir_in){
 8000268:	2800      	cmp	r0, #0
    ENDP_STAT_TX(epnum, USB_EP_TX_DIS);
 800026a:	bfb5      	itete	lt
 800026c:	f024 04c0 	biclt.w	r4, r4, #192	; 0xc0
  }else{
    ENDP_STAT_RX(epnum, USB_EP_RX_DIS);
 8000270:	f024 04f0 	bicge.w	r4, r4, #240	; 0xf0
    ENDP_STAT_TX(epnum, USB_EP_TX_DIS);
 8000274:	0524      	lsllt	r4, r4, #20
    ENDP_STAT_RX(epnum, USB_EP_RX_DIS);
 8000276:	04a4      	lslge	r4, r4, #18
    ENDP_STAT_TX(epnum, USB_EP_TX_DIS);
 8000278:	bfb4      	ite	lt
 800027a:	0d24      	lsrlt	r4, r4, #20
    ENDP_STAT_RX(epnum, USB_EP_RX_DIS);
 800027c:	0ca4      	lsrge	r4, r4, #18
 800027e:	f444 4400 	orr.w	r4, r4, #32768	; 0x8000
 8000282:	f044 0480 	orr.w	r4, r4, #128	; 0x80
 8000286:	802c      	strh	r4, [r5, #0]
  }
  
  uint16_t buf = USB_EPx(epnum);
 8000288:	882c      	ldrh	r4, [r5, #0]
  buf = (buf & ~(USB_EP_DTOG_RX | USB_EP_DTOG_TX | USB_EPTX_STAT | USB_EPRX_STAT)) | USB_EP_CTR_RX | USB_EP_CTR_TX;
  buf = (buf & ~USB_EPADDR_FIELD) | epnum;
  //buf = (buf & ~USB_EP_T_FIELD) | ep_type;
  buf &=~ USB_EP_T_FIELD;
  switch(ep_type){
 800028a:	2902      	cmp	r1, #2
 800028c:	f404 6410 	and.w	r4, r4, #2304	; 0x900
 8000290:	ea44 0406 	orr.w	r4, r4, r6
 8000294:	d005      	beq.n	80002a2 <usb_ep_init+0x4e>
 8000296:	2903      	cmp	r1, #3
 8000298:	d023      	beq.n	80002e2 <usb_ep_init+0x8e>
 800029a:	bb29      	cbnz	r1, 80002e8 <usb_ep_init+0x94>
    case USB_ENDP_CTRL: buf |= USB_EP_CONTROL; break;
 800029c:	f444 4102 	orr.w	r1, r4, #33280	; 0x8200
 80002a0:	e001      	b.n	80002a6 <usb_ep_init+0x52>
  buf &=~ USB_EP_T_FIELD;
 80002a2:	f444 4100 	orr.w	r1, r4, #32768	; 0x8000
    case USB_ENDP_BULK: buf |= USB_EP_BULK; break;
    case USB_ENDP_INTR: buf |= USB_EP_INTERRUPT; break;
    default: buf |= USB_EP_ISOCHRONOUS; //в дескрипторах изохронные точки могут иметь расширенные настройки
 80002a6:	f041 0180 	orr.w	r1, r1, #128	; 0x80
  }
  USB_EPx(epnum) = buf;
 80002aa:	4f22      	ldr	r7, [pc, #136]	; (8000334 <usb_ep_init+0xe0>)
 80002ac:	8029      	strh	r1, [r5, #0]
  
  if( dir_in ){
 80002ae:	0131      	lsls	r1, r6, #4
 80002b0:	f101 4180 	add.w	r1, r1, #1073741824	; 0x40000000
 80002b4:	2800      	cmp	r0, #0
 80002b6:	883c      	ldrh	r4, [r7, #0]
 80002b8:	f501 41c0 	add.w	r1, r1, #24576	; 0x6000
 80002bc:	4638      	mov	r0, r7
 80002be:	da16      	bge.n	80002ee <usb_ep_init+0x9a>
    usb_epdata[epnum].usb_tx_addr = lastaddr;
 80002c0:	600c      	str	r4, [r1, #0]
    epfunc_in[epnum] = func;
 80002c2:	491d      	ldr	r1, [pc, #116]	; (8000338 <usb_ep_init+0xe4>)
 80002c4:	f841 3026 	str.w	r3, [r1, r6, lsl #2]
    ENDP_STAT_TX(epnum, USB_EP_TX_NAK);
 80002c8:	882b      	ldrh	r3, [r5, #0]
 80002ca:	f023 03c0 	bic.w	r3, r3, #192	; 0xc0
 80002ce:	051b      	lsls	r3, r3, #20
 80002d0:	0d1b      	lsrs	r3, r3, #20
 80002d2:	f483 4300 	eor.w	r3, r3, #32768	; 0x8000
 80002d6:	f083 03a0 	eor.w	r3, r3, #160	; 0xa0
      usb_epdata[epnum].rx_num_blocks = size / 32 - 1;
    }
    epfunc_out[epnum] = func;
    ENDP_STAT_RX(epnum, USB_EP_RX_VALID);
  }
  lastaddr += size;
 80002da:	4422      	add	r2, r4
    ENDP_STAT_RX(epnum, USB_EP_RX_VALID);
 80002dc:	802b      	strh	r3, [r5, #0]
  lastaddr += size;
 80002de:	8002      	strh	r2, [r0, #0]
}
 80002e0:	bdf0      	pop	{r4, r5, r6, r7, pc}
    case USB_ENDP_INTR: buf |= USB_EP_INTERRUPT; break;
 80002e2:	f444 4106 	orr.w	r1, r4, #34304	; 0x8600
 80002e6:	e7de      	b.n	80002a6 <usb_ep_init+0x52>
    default: buf |= USB_EP_ISOCHRONOUS; //в дескрипторах изохронные точки могут иметь расширенные настройки
 80002e8:	f444 4104 	orr.w	r1, r4, #33792	; 0x8400
 80002ec:	e7db      	b.n	80002a6 <usb_ep_init+0x52>
    usb_epdata[epnum].usb_rx_addr = lastaddr;
 80002ee:	608c      	str	r4, [r1, #8]
      usb_epdata[epnum].rx_blocksize = 0;
 80002f0:	898f      	ldrh	r7, [r1, #12]
    if(size < 64){
 80002f2:	2a3f      	cmp	r2, #63	; 0x3f
      usb_epdata[epnum].rx_blocksize = 1;
 80002f4:	bf8b      	itete	hi
 80002f6:	f447 4700 	orrhi.w	r7, r7, #32768	; 0x8000
      usb_epdata[epnum].rx_blocksize = 0;
 80002fa:	f36f 37cf 	bfcls	r7, #15, #1
      usb_epdata[epnum].rx_blocksize = 1;
 80002fe:	818f      	strhhi	r7, [r1, #12]
      usb_epdata[epnum].rx_blocksize = 0;
 8000300:	818f      	strhls	r7, [r1, #12]
      usb_epdata[epnum].rx_num_blocks = size / 32 - 1;
 8000302:	f8b1 c00c 	ldrh.w	ip, [r1, #12]
 8000306:	bf8a      	itet	hi
 8000308:	0957      	lsrhi	r7, r2, #5
      usb_epdata[epnum].rx_num_blocks = size / 2;
 800030a:	f3c2 0744 	ubfxls	r7, r2, #1, #5
      usb_epdata[epnum].rx_num_blocks = size / 32 - 1;
 800030e:	f107 37ff 	addhi.w	r7, r7, #4294967295	; 0xffffffff
 8000312:	f367 2c8e 	bfi	ip, r7, #10, #5
 8000316:	f8a1 c00c 	strh.w	ip, [r1, #12]
    epfunc_out[epnum] = func;
 800031a:	4908      	ldr	r1, [pc, #32]	; (800033c <usb_ep_init+0xe8>)
 800031c:	f841 3026 	str.w	r3, [r1, r6, lsl #2]
    ENDP_STAT_RX(epnum, USB_EP_RX_VALID);
 8000320:	882b      	ldrh	r3, [r5, #0]
 8000322:	f023 03f0 	bic.w	r3, r3, #240	; 0xf0
 8000326:	049b      	lsls	r3, r3, #18
 8000328:	0c9b      	lsrs	r3, r3, #18
 800032a:	f483 4330 	eor.w	r3, r3, #45056	; 0xb000
 800032e:	f083 0380 	eor.w	r3, r3, #128	; 0x80
 8000332:	e7d2      	b.n	80002da <usb_ep_init+0x86>
 8000334:	20000000 	andcs	r0, r0, r0
 8000338:	20000024 	andcs	r0, r0, r4, lsr #32
 800033c:	20000044 	andcs	r0, r0, r4, asr #32

08000340 <usb_ep_init_double>:

void usb_ep_init_double(uint8_t epnum, uint8_t ep_type, uint16_t size, epfunc_t func){
 8000340:	b5f0      	push	{r4, r5, r6, r7, lr}
  uint8_t dir_in = (epnum & 0x80);
  epnum &= 0x0F;
  
  ENDP_STAT_TX(epnum, USB_EP_TX_DIS);
 8000342:	f248 0780 	movw	r7, #32896	; 0x8080
  epnum &= 0x0F;
 8000346:	f000 060f 	and.w	r6, r0, #15
  ENDP_STAT_TX(epnum, USB_EP_TX_DIS);
 800034a:	00b5      	lsls	r5, r6, #2
 800034c:	f105 4580 	add.w	r5, r5, #1073741824	; 0x40000000
 8000350:	f505 45b8 	add.w	r5, r5, #23552	; 0x5c00
 8000354:	882c      	ldrh	r4, [r5, #0]
  uint16_t buf = USB_EPx(epnum);
  buf = (buf & ~(USB_EP_DTOG_RX | USB_EP_DTOG_TX | USB_EPTX_STAT | USB_EPRX_STAT)) | USB_EP_CTR_RX | USB_EP_CTR_TX;
  buf = (buf & ~USB_EPADDR_FIELD) | epnum;
  
  buf &=~ USB_EP_T_FIELD;
  switch(ep_type){
 8000356:	2902      	cmp	r1, #2
  ENDP_STAT_TX(epnum, USB_EP_TX_DIS);
 8000358:	f024 04c0 	bic.w	r4, r4, #192	; 0xc0
 800035c:	ea4f 5404 	mov.w	r4, r4, lsl #20
 8000360:	ea4f 5414 	mov.w	r4, r4, lsr #20
 8000364:	ea44 0407 	orr.w	r4, r4, r7
 8000368:	802c      	strh	r4, [r5, #0]
  ENDP_STAT_RX(epnum, USB_EP_RX_DIS);
 800036a:	882c      	ldrh	r4, [r5, #0]
 800036c:	f024 04f0 	bic.w	r4, r4, #240	; 0xf0
 8000370:	ea4f 4484 	mov.w	r4, r4, lsl #18
 8000374:	ea4f 4494 	mov.w	r4, r4, lsr #18
 8000378:	ea44 0407 	orr.w	r4, r4, r7
 800037c:	802c      	strh	r4, [r5, #0]
  uint16_t buf = USB_EPx(epnum);
 800037e:	882c      	ldrh	r4, [r5, #0]
  buf &=~ USB_EP_T_FIELD;
 8000380:	f404 6410 	and.w	r4, r4, #2304	; 0x900
 8000384:	ea44 0406 	orr.w	r4, r4, r6
  switch(ep_type){
 8000388:	d008      	beq.n	800039c <usb_ep_init_double+0x5c>
 800038a:	2903      	cmp	r1, #3
 800038c:	d038      	beq.n	8000400 <usb_ep_init_double+0xc0>
 800038e:	2900      	cmp	r1, #0
 8000390:	d139      	bne.n	8000406 <usb_ep_init_double+0xc6>
    case USB_ENDP_CTRL: buf |= USB_EP_CONTROL; break;
 8000392:	f444 4102 	orr.w	r1, r4, #33280	; 0x8200
    case USB_ENDP_BULK: buf |= USB_EP_BULK; break;
    case USB_ENDP_INTR: buf |= USB_EP_INTERRUPT; break;
    default: buf |= USB_EP_ISOCHRONOUS; //в дескрипторах изохронные точки могут иметь расширенные настройки
 8000396:	f041 0180 	orr.w	r1, r1, #128	; 0x80
 800039a:	e001      	b.n	80003a0 <usb_ep_init_double+0x60>
  buf &=~ USB_EP_T_FIELD;
 800039c:	ea44 0107 	orr.w	r1, r4, r7
  }
  USB_EPx(epnum) = buf;
 80003a0:	f8df c0e4 	ldr.w	ip, [pc, #228]	; 8000488 <usb_ep_init_double+0x148>
 80003a4:	8029      	strh	r1, [r5, #0]
  
  if( dir_in ){
 80003a6:	f8bc 4000 	ldrh.w	r4, [ip]
 80003aa:	0131      	lsls	r1, r6, #4
 80003ac:	f101 4180 	add.w	r1, r1, #1073741824	; 0x40000000
 80003b0:	f010 0f80 	tst.w	r0, #128	; 0x80
 80003b4:	f501 41c0 	add.w	r1, r1, #24576	; 0x6000
 80003b8:	eb02 0704 	add.w	r7, r2, r4
 80003bc:	4660      	mov	r0, ip
 80003be:	d025      	beq.n	800040c <usb_ep_init_double+0xcc>
    usb_epdata[epnum].usb_tx_addr = lastaddr;
 80003c0:	600c      	str	r4, [r1, #0]
    usb_epdata[epnum].usb_rx_addr = lastaddr + size;
 80003c2:	608f      	str	r7, [r1, #8]
    ENDP_STAT_TX(epnum, USB_EP_TX_NAK);
 80003c4:	8829      	ldrh	r1, [r5, #0]
 80003c6:	f021 01c0 	bic.w	r1, r1, #192	; 0xc0
 80003ca:	0509      	lsls	r1, r1, #20
 80003cc:	0d09      	lsrs	r1, r1, #20
 80003ce:	f481 4100 	eor.w	r1, r1, #32768	; 0x8000
 80003d2:	f081 01a0 	eor.w	r1, r1, #160	; 0xa0
 80003d6:	8029      	strh	r1, [r5, #0]
    ENDP_STAT_RX(epnum, USB_EP_RX_NAK);
 80003d8:	8829      	ldrh	r1, [r5, #0]
 80003da:	f021 01f0 	bic.w	r1, r1, #240	; 0xf0
 80003de:	0489      	lsls	r1, r1, #18
 80003e0:	0c89      	lsrs	r1, r1, #18
 80003e2:	f481 4120 	eor.w	r1, r1, #40960	; 0xa000
 80003e6:	f081 0180 	eor.w	r1, r1, #128	; 0x80
      usb_epdata[epnum].rx_blocksize = usb_epdata[epnum].tx_blocksize = 1;
      if(size < 32)size = 32;
      usb_epdata[epnum].rx_num_blocks = usb_epdata[epnum].tx_num_blocks = size / 32 - 1;
    }
    ENDP_STAT_RX(epnum, USB_EP_RX_VALID);
    ENDP_STAT_TX(epnum, USB_EP_TX_VALID);
 80003ea:	8029      	strh	r1, [r5, #0]
  }
  epfunc_in[epnum] = func;
 80003ec:	4924      	ldr	r1, [pc, #144]	; (8000480 <usb_ep_init_double+0x140>)
  epfunc_out[epnum]= func;
    
  lastaddr += 2*size;
 80003ee:	eb04 0242 	add.w	r2, r4, r2, lsl #1
  epfunc_in[epnum] = func;
 80003f2:	f841 3026 	str.w	r3, [r1, r6, lsl #2]
  epfunc_out[epnum]= func;
 80003f6:	4923      	ldr	r1, [pc, #140]	; (8000484 <usb_ep_init_double+0x144>)
  lastaddr += 2*size;
 80003f8:	8002      	strh	r2, [r0, #0]
  epfunc_out[epnum]= func;
 80003fa:	f841 3026 	str.w	r3, [r1, r6, lsl #2]
}
 80003fe:	bdf0      	pop	{r4, r5, r6, r7, pc}
    case USB_ENDP_INTR: buf |= USB_EP_INTERRUPT; break;
 8000400:	f444 4106 	orr.w	r1, r4, #34304	; 0x8600
 8000404:	e7c7      	b.n	8000396 <usb_ep_init_double+0x56>
    default: buf |= USB_EP_ISOCHRONOUS; //в дескрипторах изохронные точки могут иметь расширенные настройки
 8000406:	f444 4104 	orr.w	r1, r4, #33792	; 0x8400
 800040a:	e7c4      	b.n	8000396 <usb_ep_init_double+0x56>
    usb_epdata[epnum].usb_rx_addr = lastaddr;
 800040c:	608c      	str	r4, [r1, #8]
    if(size < 64){
 800040e:	2a3f      	cmp	r2, #63	; 0x3f
    usb_epdata[epnum].usb_tx_addr = lastaddr + size;
 8000410:	600f      	str	r7, [r1, #0]
      usb_epdata[epnum].rx_blocksize = usb_epdata[epnum].tx_blocksize = 0;
 8000412:	888f      	ldrh	r7, [r1, #4]
    if(size < 64){
 8000414:	d828      	bhi.n	8000468 <usb_ep_init_double+0x128>
      usb_epdata[epnum].rx_blocksize = usb_epdata[epnum].tx_blocksize = 0;
 8000416:	f36f 37cf 	bfc	r7, #15, #1
 800041a:	808f      	strh	r7, [r1, #4]
 800041c:	898f      	ldrh	r7, [r1, #12]
 800041e:	f36f 37cf 	bfc	r7, #15, #1
 8000422:	818f      	strh	r7, [r1, #12]
      usb_epdata[epnum].rx_num_blocks = usb_epdata[epnum].tx_num_blocks = size / 2;
 8000424:	f3c2 0744 	ubfx	r7, r2, #1, #5
      usb_epdata[epnum].rx_num_blocks = usb_epdata[epnum].tx_num_blocks = size / 32 - 1;
 8000428:	f8b1 c004 	ldrh.w	ip, [r1, #4]
 800042c:	f367 2c8e 	bfi	ip, r7, #10, #5
 8000430:	f8a1 c004 	strh.w	ip, [r1, #4]
 8000434:	f8b1 c00c 	ldrh.w	ip, [r1, #12]
 8000438:	f367 2c8e 	bfi	ip, r7, #10, #5
 800043c:	f8a1 c00c 	strh.w	ip, [r1, #12]
    ENDP_STAT_RX(epnum, USB_EP_RX_VALID);
 8000440:	8829      	ldrh	r1, [r5, #0]
 8000442:	f021 01f0 	bic.w	r1, r1, #240	; 0xf0
 8000446:	0489      	lsls	r1, r1, #18
 8000448:	0c89      	lsrs	r1, r1, #18
 800044a:	f481 4130 	eor.w	r1, r1, #45056	; 0xb000
 800044e:	f081 0180 	eor.w	r1, r1, #128	; 0x80
 8000452:	8029      	strh	r1, [r5, #0]
    ENDP_STAT_TX(epnum, USB_EP_TX_VALID);
 8000454:	8829      	ldrh	r1, [r5, #0]
 8000456:	f021 01c0 	bic.w	r1, r1, #192	; 0xc0
 800045a:	0509      	lsls	r1, r1, #20
 800045c:	0d09      	lsrs	r1, r1, #20
 800045e:	f481 4100 	eor.w	r1, r1, #32768	; 0x8000
 8000462:	f081 01b0 	eor.w	r1, r1, #176	; 0xb0
 8000466:	e7c0      	b.n	80003ea <usb_ep_init_double+0xaa>
      usb_epdata[epnum].rx_blocksize = usb_epdata[epnum].tx_blocksize = 1;
 8000468:	f447 4700 	orr.w	r7, r7, #32768	; 0x8000
 800046c:	808f      	strh	r7, [r1, #4]
 800046e:	898f      	ldrh	r7, [r1, #12]
 8000470:	f447 4700 	orr.w	r7, r7, #32768	; 0x8000
 8000474:	818f      	strh	r7, [r1, #12]
      usb_epdata[epnum].rx_num_blocks = usb_epdata[epnum].tx_num_blocks = size / 32 - 1;
 8000476:	0957      	lsrs	r7, r2, #5
 8000478:	3f01      	subs	r7, #1
 800047a:	f007 071f 	and.w	r7, r7, #31
 800047e:	e7d3      	b.n	8000428 <usb_ep_init_double+0xe8>
 8000480:	20000024 	andcs	r0, r0, r4, lsr #32
 8000484:	20000044 	andcs	r0, r0, r4, asr #32
 8000488:	20000000 	andcs	r0, r0, r0

0800048c <USB_LP_CAN1_RX0_IRQHandler>:

// standard IRQ handler
void USB_LP_IRQHandler(){
 800048c:	b538      	push	{r3, r4, r5, lr}
  if(USB->ISTR & USB_ISTR_RESET){
 800048e:	4c42      	ldr	r4, [pc, #264]	; (8000598 <USB_LP_CAN1_RX0_IRQHandler+0x10c>)
 8000490:	f8b4 3044 	ldrh.w	r3, [r4, #68]	; 0x44
 8000494:	055d      	lsls	r5, r3, #21
 8000496:	d52c      	bpl.n	80004f2 <USB_LP_CAN1_RX0_IRQHandler+0x66>
    usb_class_disconnect();
 8000498:	f7ff fea1 	bl	80001de <usb_class_disconnect>
    USB->CNTR = USB_CNTR_RESETM | USB_CNTR_CTRM | USB_CNTR_SUSPM | USB_CNTR_WKUPM;
 800049c:	f44f 431c 	mov.w	r3, #39936	; 0x9c00
    lastaddr = LASTADDR_DEFAULT;
 80004a0:	2240      	movs	r2, #64	; 0x40
    USB->CNTR = USB_CNTR_RESETM | USB_CNTR_CTRM | USB_CNTR_SUSPM | USB_CNTR_WKUPM;
 80004a2:	f8a4 3040 	strh.w	r3, [r4, #64]	; 0x40
    lastaddr = LASTADDR_DEFAULT;
 80004a6:	4b3d      	ldr	r3, [pc, #244]	; (800059c <USB_LP_CAN1_RX0_IRQHandler+0x110>)
 80004a8:	493d      	ldr	r1, [pc, #244]	; (80005a0 <USB_LP_CAN1_RX0_IRQHandler+0x114>)
 80004aa:	801a      	strh	r2, [r3, #0]
    USB->DADDR = USB_DADDR_EF;
 80004ac:	2380      	movs	r3, #128	; 0x80
    for(uint8_t i=0; i<STM32ENDPOINTS; i++){
      epfunc_in[i] = epfunc_out[i] = NULL;
 80004ae:	2200      	movs	r2, #0
    USB->DADDR = USB_DADDR_EF;
 80004b0:	f8a4 304c 	strh.w	r3, [r4, #76]	; 0x4c
 80004b4:	2408      	movs	r4, #8
 80004b6:	4b3b      	ldr	r3, [pc, #236]	; (80005a4 <USB_LP_CAN1_RX0_IRQHandler+0x118>)
      epfunc_in[i] = epfunc_out[i] = NULL;
 80004b8:	3c01      	subs	r4, #1
    for(uint8_t i=0; i<STM32ENDPOINTS; i++){
 80004ba:	f014 04ff 	ands.w	r4, r4, #255	; 0xff
      epfunc_in[i] = epfunc_out[i] = NULL;
 80004be:	f841 2b04 	str.w	r2, [r1], #4
 80004c2:	f843 2b04 	str.w	r2, [r3], #4
    for(uint8_t i=0; i<STM32ENDPOINTS; i++){
 80004c6:	d1f7      	bne.n	80004b8 <USB_LP_CAN1_RX0_IRQHandler+0x2c>
    }
    // state is default - wait for enumeration
    USB->ISTR = (uint16_t)~USB_ISTR_RESET;
 80004c8:	f64f 32ff 	movw	r2, #64511	; 0xfbff
 80004cc:	4b32      	ldr	r3, [pc, #200]	; (8000598 <USB_LP_CAN1_RX0_IRQHandler+0x10c>)
    usb_ep_init(0x00, USB_ENDP_CTRL, USB_EP0_BUFSZ, ep0_out);
 80004ce:	4621      	mov	r1, r4
    USB->ISTR = (uint16_t)~USB_ISTR_RESET;
 80004d0:	f8a3 2044 	strh.w	r2, [r3, #68]	; 0x44
    usb_ep_init(0x00, USB_ENDP_CTRL, USB_EP0_BUFSZ, ep0_out);
 80004d4:	4620      	mov	r0, r4
 80004d6:	4b34      	ldr	r3, [pc, #208]	; (80005a8 <USB_LP_CAN1_RX0_IRQHandler+0x11c>)
 80004d8:	2208      	movs	r2, #8
 80004da:	f7ff febb 	bl	8000254 <usb_ep_init>
    usb_ep_init(0x80, USB_ENDP_CTRL, USB_EP0_BUFSZ, ep0_in);
 80004de:	4b33      	ldr	r3, [pc, #204]	; (80005ac <USB_LP_CAN1_RX0_IRQHandler+0x120>)
 80004e0:	2208      	movs	r2, #8
 80004e2:	4621      	mov	r1, r4
 80004e4:	2080      	movs	r0, #128	; 0x80
 80004e6:	f7ff feb5 	bl	8000254 <usb_ep_init>
    ep0_buf = NULL;
 80004ea:	4b31      	ldr	r3, [pc, #196]	; (80005b0 <USB_LP_CAN1_RX0_IRQHandler+0x124>)
 80004ec:	601c      	str	r4, [r3, #0]
    usb_class_init();
 80004ee:	f000 fa5d 	bl	80009ac <usb_class_init>
  }
  
  if(USB->ISTR & USB_ISTR_CTR){
 80004f2:	4b29      	ldr	r3, [pc, #164]	; (8000598 <USB_LP_CAN1_RX0_IRQHandler+0x10c>)
 80004f4:	f8b3 2044 	ldrh.w	r2, [r3, #68]	; 0x44
 80004f8:	0414      	lsls	r4, r2, #16
 80004fa:	d529      	bpl.n	8000550 <USB_LP_CAN1_RX0_IRQHandler+0xc4>
    uint8_t epnum = USB->ISTR & USB_ISTR_EP_ID;
 80004fc:	f8b3 5044 	ldrh.w	r5, [r3, #68]	; 0x44
 8000500:	f005 050f 	and.w	r5, r5, #15
    if(USB_EPx(epnum) & USB_EP_CTR_RX){ //OUT
 8000504:	00ac      	lsls	r4, r5, #2
 8000506:	f104 4480 	add.w	r4, r4, #1073741824	; 0x40000000
 800050a:	f504 44b8 	add.w	r4, r4, #23552	; 0x5c00
 800050e:	8823      	ldrh	r3, [r4, #0]
 8000510:	0418      	lsls	r0, r3, #16
 8000512:	d50c      	bpl.n	800052e <USB_LP_CAN1_RX0_IRQHandler+0xa2>
      epfunc_out[epnum](epnum);
 8000514:	4b22      	ldr	r3, [pc, #136]	; (80005a0 <USB_LP_CAN1_RX0_IRQHandler+0x114>)
 8000516:	4628      	mov	r0, r5
 8000518:	f853 3025 	ldr.w	r3, [r3, r5, lsl #2]
 800051c:	4798      	blx	r3
      ENDP_CTR_RX_CLR(epnum);
 800051e:	8823      	ldrh	r3, [r4, #0]
 8000520:	f023 03f0 	bic.w	r3, r3, #240	; 0xf0
 8000524:	051b      	lsls	r3, r3, #20
 8000526:	0d1b      	lsrs	r3, r3, #20
 8000528:	f043 0380 	orr.w	r3, r3, #128	; 0x80
 800052c:	8023      	strh	r3, [r4, #0]
    }
    if(USB_EPx(epnum) & USB_EP_CTR_TX){//IN
 800052e:	8823      	ldrh	r3, [r4, #0]
 8000530:	0619      	lsls	r1, r3, #24
 8000532:	d50d      	bpl.n	8000550 <USB_LP_CAN1_RX0_IRQHandler+0xc4>
      epfunc_in[epnum](epnum | 0x80);
 8000534:	4b1b      	ldr	r3, [pc, #108]	; (80005a4 <USB_LP_CAN1_RX0_IRQHandler+0x118>)
 8000536:	f045 0080 	orr.w	r0, r5, #128	; 0x80
 800053a:	f853 3025 	ldr.w	r3, [r3, r5, lsl #2]
 800053e:	4798      	blx	r3
      ENDP_CTR_TX_CLR(epnum);
 8000540:	8823      	ldrh	r3, [r4, #0]
 8000542:	f023 03f0 	bic.w	r3, r3, #240	; 0xf0
 8000546:	051b      	lsls	r3, r3, #20
 8000548:	0d1b      	lsrs	r3, r3, #20
 800054a:	f443 4300 	orr.w	r3, r3, #32768	; 0x8000
 800054e:	8023      	strh	r3, [r4, #0]
    }
  }
  
  if(USB->ISTR & USB_ISTR_SUSP){ // suspend -> still no connection, may sleep
 8000550:	4c11      	ldr	r4, [pc, #68]	; (8000598 <USB_LP_CAN1_RX0_IRQHandler+0x10c>)
 8000552:	f8b4 3044 	ldrh.w	r3, [r4, #68]	; 0x44
 8000556:	051a      	lsls	r2, r3, #20
 8000558:	d50b      	bpl.n	8000572 <USB_LP_CAN1_RX0_IRQHandler+0xe6>
    usb_class_disconnect();
 800055a:	f7ff fe40 	bl	80001de <usb_class_disconnect>
    USB->CNTR |= USB_CNTR_FSUSP | USB_CNTR_LP_MODE;
 800055e:	f8b4 3040 	ldrh.w	r3, [r4, #64]	; 0x40
 8000562:	f043 030c 	orr.w	r3, r3, #12
 8000566:	f8a4 3040 	strh.w	r3, [r4, #64]	; 0x40
    USB->ISTR = (uint16_t)~USB_ISTR_SUSP;
 800056a:	f24f 73ff 	movw	r3, #63487	; 0xf7ff
 800056e:	f8a4 3044 	strh.w	r3, [r4, #68]	; 0x44
  }
  
  if(USB->ISTR & USB_ISTR_WKUP){ // wakeup
 8000572:	4a09      	ldr	r2, [pc, #36]	; (8000598 <USB_LP_CAN1_RX0_IRQHandler+0x10c>)
 8000574:	f8b2 3044 	ldrh.w	r3, [r2, #68]	; 0x44
 8000578:	04db      	lsls	r3, r3, #19
 800057a:	d50b      	bpl.n	8000594 <USB_LP_CAN1_RX0_IRQHandler+0x108>
    USB->CNTR &= ~(USB_CNTR_FSUSP | USB_CNTR_LP_MODE); // clear suspend flags
 800057c:	f8b2 3040 	ldrh.w	r3, [r2, #64]	; 0x40
 8000580:	f023 030c 	bic.w	r3, r3, #12
 8000584:	041b      	lsls	r3, r3, #16
 8000586:	0c1b      	lsrs	r3, r3, #16
 8000588:	f8a2 3040 	strh.w	r3, [r2, #64]	; 0x40
    USB->ISTR = (uint16_t)~USB_ISTR_WKUP;
 800058c:	f64e 73ff 	movw	r3, #61439	; 0xefff
 8000590:	f8a2 3044 	strh.w	r3, [r2, #68]	; 0x44
  }
}
 8000594:	bd38      	pop	{r3, r4, r5, pc}
 8000596:	bf00      	nop
 8000598:	40005c00 	andmi	r5, r0, r0, lsl #24
 800059c:	20000000 	andcs	r0, r0, r0
 80005a0:	20000044 	andcs	r0, r0, r4, asr #32
 80005a4:	20000024 	andcs	r0, r0, r4, lsr #32
 80005a8:	080006bf 	stmdaeq	r0, {r0, r1, r2, r3, r4, r5, r7, r9, sl}
 80005ac:	08000609 	stmdaeq	r0, {r0, r3, r9, sl}
 80005b0:	20000004 	andcs	r0, r0, r4

080005b4 <_usb_ep_write>:
      uint32_t rx_blocksize:1;
    };
  };
}pma_descr_t;

void _usb_ep_write(uint8_t idx, const uint8_t *buf, uint16_t size){
 80005b4:	b5f0      	push	{r4, r5, r6, r7, lr}
  pma_descr_t *descr = &((pma_descr_t*)usb_epdata)[idx];
  uint16_t N2 = (size + 1) >> 1;
  // the buffer is 16-bit, so we should copy data as it would be uint16_t
  uint16_t *buf16 = (uint16_t *)buf;
  uint32_t *out = (uint32_t*)((uint16_t *)(USB_PMAADDR + descr->addr*2));
  for(uint16_t i = 0; i < N2; ++i, ++out){
 80005b6:	2500      	movs	r5, #0
  pma_descr_t *descr = &((pma_descr_t*)usb_epdata)[idx];
 80005b8:	00c4      	lsls	r4, r0, #3
 80005ba:	f104 4480 	add.w	r4, r4, #1073741824	; 0x40000000
 80005be:	f504 44c0 	add.w	r4, r4, #24576	; 0x6000
  uint32_t *out = (uint32_t*)((uint16_t *)(USB_PMAADDR + descr->addr*2));
 80005c2:	6823      	ldr	r3, [r4, #0]
  uint16_t N2 = (size + 1) >> 1;
 80005c4:	1c56      	adds	r6, r2, #1
  uint32_t *out = (uint32_t*)((uint16_t *)(USB_PMAADDR + descr->addr*2));
 80005c6:	f103 5300 	add.w	r3, r3, #536870912	; 0x20000000
 80005ca:	f503 5340 	add.w	r3, r3, #12288	; 0x3000
  uint16_t N2 = (size + 1) >> 1;
 80005ce:	0876      	lsrs	r6, r6, #1
  uint32_t *out = (uint32_t*)((uint16_t *)(USB_PMAADDR + descr->addr*2));
 80005d0:	005b      	lsls	r3, r3, #1
  for(uint16_t i = 0; i < N2; ++i, ++out){
 80005d2:	b2af      	uxth	r7, r5
 80005d4:	42be      	cmp	r6, r7
 80005d6:	d811      	bhi.n	80005fc <_usb_ep_write+0x48>
    *out = buf16[i];
  }
  descr->count = size;
  
  ENDP_STAT_TX((idx/2), USB_EP_TX_VALID);
 80005d8:	0840      	lsrs	r0, r0, #1
 80005da:	0080      	lsls	r0, r0, #2
 80005dc:	f100 4080 	add.w	r0, r0, #1073741824	; 0x40000000
  descr->count = size;
 80005e0:	6062      	str	r2, [r4, #4]
  ENDP_STAT_TX((idx/2), USB_EP_TX_VALID);
 80005e2:	f500 40b8 	add.w	r0, r0, #23552	; 0x5c00
 80005e6:	8803      	ldrh	r3, [r0, #0]
 80005e8:	f023 03c0 	bic.w	r3, r3, #192	; 0xc0
 80005ec:	051b      	lsls	r3, r3, #20
 80005ee:	0d1b      	lsrs	r3, r3, #20
 80005f0:	f483 4300 	eor.w	r3, r3, #32768	; 0x8000
 80005f4:	f083 03b0 	eor.w	r3, r3, #176	; 0xb0
 80005f8:	8003      	strh	r3, [r0, #0]
}
 80005fa:	bdf0      	pop	{r4, r5, r6, r7, pc}
    *out = buf16[i];
 80005fc:	f831 7015 	ldrh.w	r7, [r1, r5, lsl #1]
 8000600:	f843 7025 	str.w	r7, [r3, r5, lsl #2]
 8000604:	3501      	adds	r5, #1
 8000606:	e7e4      	b.n	80005d2 <_usb_ep_write+0x1e>

08000608 <ep0_in>:
static void ep0_in(uint8_t epnum){
 8000608:	b5f8      	push	{r3, r4, r5, r6, r7, lr}
  if( (USB->DADDR & USB_DADDR_ADD) != USB_Addr ){
 800060a:	4b14      	ldr	r3, [pc, #80]	; (800065c <ep0_in+0x54>)
 800060c:	4c14      	ldr	r4, [pc, #80]	; (8000660 <ep0_in+0x58>)
 800060e:	f8b3 104c 	ldrh.w	r1, [r3, #76]	; 0x4c
 8000612:	7922      	ldrb	r2, [r4, #4]
 8000614:	f001 017f 	and.w	r1, r1, #127	; 0x7f
 8000618:	4291      	cmp	r1, r2
    USB->DADDR = USB_DADDR_EF | USB_Addr;
 800061a:	bf1c      	itt	ne
 800061c:	f042 0280 	orrne.w	r2, r2, #128	; 0x80
 8000620:	f8a3 204c 	strhne.w	r2, [r3, #76]	; 0x4c
  if( (USB_EPx(0) & USB_EPTX_STAT) == USB_EP_TX_VALID )return;
 8000624:	881b      	ldrh	r3, [r3, #0]
 8000626:	f003 0330 	and.w	r3, r3, #48	; 0x30
 800062a:	2b30      	cmp	r3, #48	; 0x30
 800062c:	d014      	beq.n	8000658 <ep0_in+0x50>
  if(ep0_buf == NULL)return;
 800062e:	6825      	ldr	r5, [r4, #0]
 8000630:	b195      	cbz	r5, 8000658 <ep0_in+0x50>
  uint16_t left = ep0_count;
 8000632:	88e7      	ldrh	r7, [r4, #6]
#define bLENGTH 0
#define wTOTALLENGTH 0,0

void _usb_ep_write(uint8_t idx, const uint8_t *buf, uint16_t size);
static inline void usb_ep_write(uint8_t epnum, const uint8_t *buf, uint16_t size){
  _usb_ep_write((epnum & 0x0F)*2, buf, size);
 8000634:	4629      	mov	r1, r5
 8000636:	2f08      	cmp	r7, #8
 8000638:	463e      	mov	r6, r7
 800063a:	bf28      	it	cs
 800063c:	2608      	movcs	r6, #8
 800063e:	2000      	movs	r0, #0
 8000640:	4632      	mov	r2, r6
 8000642:	f7ff ffb7 	bl	80005b4 <_usb_ep_write>
  if(left < USB_EP0_BUFSZ){
 8000646:	2f07      	cmp	r7, #7
  ep0_count -= left;
 8000648:	eba7 0306 	sub.w	r3, r7, r6
 800064c:	80e3      	strh	r3, [r4, #6]
    ep0_buf = NULL;
 800064e:	bf93      	iteet	ls
 8000650:	2300      	movls	r3, #0
  ep0_buf += left;
 8000652:	19ad      	addhi	r5, r5, r6
 8000654:	6025      	strhi	r5, [r4, #0]
    ep0_buf = NULL;
 8000656:	6023      	strls	r3, [r4, #0]
}
 8000658:	bdf8      	pop	{r3, r4, r5, r6, r7, pc}
 800065a:	bf00      	nop
 800065c:	40005c00 	andmi	r5, r0, r0, lsl #24
 8000660:	20000004 	andcs	r0, r0, r4

08000664 <_usb_ep_read>:

int _usb_ep_read(uint8_t idx, uint16_t *buf){
 8000664:	b530      	push	{r4, r5, lr}
  pma_descr_t *descr = &((pma_descr_t*)usb_epdata)[idx];
 8000666:	00c2      	lsls	r2, r0, #3
 8000668:	f102 4280 	add.w	r2, r2, #1073741824	; 0x40000000
 800066c:	f502 42c0 	add.w	r2, r2, #24576	; 0x6000
int _usb_ep_read(uint8_t idx, uint16_t *buf){
 8000670:	4603      	mov	r3, r0
  int sz = descr->rx_count;
 8000672:	6850      	ldr	r0, [r2, #4]
 8000674:	f3c0 0009 	ubfx	r0, r0, #0, #10
  if(!sz) return 0;
 8000678:	b300      	cbz	r0, 80006bc <_usb_ep_read+0x58>
  int n = (sz + 1) >> 1;
  uint32_t *in = (uint32_t*)((uint16_t *)(USB_PMAADDR + descr->addr*2));
 800067a:	6812      	ldr	r2, [r2, #0]
  int n = (sz + 1) >> 1;
 800067c:	1c44      	adds	r4, r0, #1
  uint32_t *in = (uint32_t*)((uint16_t *)(USB_PMAADDR + descr->addr*2));
 800067e:	f102 5200 	add.w	r2, r2, #536870912	; 0x20000000
 8000682:	f502 5240 	add.w	r2, r2, #12288	; 0x3000
 8000686:	0052      	lsls	r2, r2, #1
  int n = (sz + 1) >> 1;
 8000688:	1064      	asrs	r4, r4, #1
 800068a:	3902      	subs	r1, #2
 800068c:	eb02 0484 	add.w	r4, r2, r4, lsl #2
  for(int i = 0; i < n; ++i, ++in)
    buf[i] = *(uint16_t*)in;
 8000690:	f832 5b04 	ldrh.w	r5, [r2], #4
  for(int i = 0; i < n; ++i, ++in)
 8000694:	42a2      	cmp	r2, r4
    buf[i] = *(uint16_t*)in;
 8000696:	f821 5f02 	strh.w	r5, [r1, #2]!
  for(int i = 0; i < n; ++i, ++in)
 800069a:	d1f9      	bne.n	8000690 <_usb_ep_read+0x2c>
  
  ENDP_STAT_RX((idx/2), USB_EP_RX_VALID);
 800069c:	085b      	lsrs	r3, r3, #1
 800069e:	009b      	lsls	r3, r3, #2
 80006a0:	f103 4380 	add.w	r3, r3, #1073741824	; 0x40000000
 80006a4:	f503 43b8 	add.w	r3, r3, #23552	; 0x5c00
 80006a8:	881a      	ldrh	r2, [r3, #0]
 80006aa:	f022 02f0 	bic.w	r2, r2, #240	; 0xf0
 80006ae:	0492      	lsls	r2, r2, #18
 80006b0:	0c92      	lsrs	r2, r2, #18
 80006b2:	f482 4230 	eor.w	r2, r2, #45056	; 0xb000
 80006b6:	f082 0280 	eor.w	r2, r2, #128	; 0x80
 80006ba:	801a      	strh	r2, [r3, #0]
  return sz;
}
 80006bc:	bd30      	pop	{r4, r5, pc}

080006be <ep0_out>:
static void ep0_out(uint8_t epnum){
 80006be:	b573      	push	{r0, r1, r4, r5, r6, lr}
  uint16_t rxcount = usb_epdata[0].rx_count;
 80006c0:	4b3f      	ldr	r3, [pc, #252]	; (80007c0 <ep0_out+0x102>)
 80006c2:	4c40      	ldr	r4, [pc, #256]	; (80007c4 <ep0_out+0x106>)
 80006c4:	68dd      	ldr	r5, [r3, #12]
  uint8_t setup = !!(USB_EPx(0) & USB_EP_SETUP);
 80006c6:	f5a3 6380 	sub.w	r3, r3, #1024	; 0x400
 80006ca:	881b      	ldrh	r3, [r3, #0]
  uint16_t rxcount = usb_epdata[0].rx_count;
 80006cc:	f3c5 0509 	ubfx	r5, r5, #0, #10
  if( setup ){
 80006d0:	f413 6600 	ands.w	r6, r3, #2048	; 0x800
 80006d4:	d009      	beq.n	80006ea <ep0_out+0x2c>
    if( setup_packet.bmRequestType & 0x80 ){ //предыдущий пакет=IN, этот точно будет запросом
 80006d6:	f994 3008 	ldrsb.w	r3, [r4, #8]
 80006da:	2b00      	cmp	r3, #0
 80006dc:	da17      	bge.n	800070e <ep0_out+0x50>
      bytesread = 0;
 80006de:	2500      	movs	r5, #0
  _usb_ep_write((epnum & 0x0F)*2 + idx, buf, size);
}

int _usb_ep_read(uint8_t idx, uint16_t *buf);
static inline int usb_ep_read(uint8_t epnum, uint16_t *buf){
  return _usb_ep_read((epnum & 0x0F)*2 + 1, buf);
 80006e0:	4939      	ldr	r1, [pc, #228]	; (80007c8 <ep0_out+0x10a>)
 80006e2:	2001      	movs	r0, #1
 80006e4:	f7ff ffbe 	bl	8000664 <_usb_ep_read>
 80006e8:	8225      	strh	r5, [r4, #16]
  uint8_t req = setup_packet.bmRequestType & 0x7F;
 80006ea:	7a22      	ldrb	r2, [r4, #8]
 80006ec:	f002 037f 	and.w	r3, r2, #127	; 0x7f
  if(setup_packet.bmRequestType & 0x80){
 80006f0:	0612      	lsls	r2, r2, #24
 80006f2:	d53c      	bpl.n	800076e <ep0_out+0xb0>
    if( !setup )return; //какой-то костыль. Иначе вызывается два раза
 80006f4:	b34e      	cbz	r6, 800074a <ep0_out+0x8c>
    if(req == (USB_REQ_STANDARD | USB_REQ_DEVICE)){
 80006f6:	bb73      	cbnz	r3, 8000756 <ep0_out+0x98>
      switch(setup_packet.bRequest){
 80006f8:	7a60      	ldrb	r0, [r4, #9]
 80006fa:	2806      	cmp	r0, #6
 80006fc:	d00c      	beq.n	8000718 <ep0_out+0x5a>
 80006fe:	2808      	cmp	r0, #8
 8000700:	d025      	beq.n	800074e <ep0_out+0x90>
 8000702:	bb40      	cbnz	r0, 8000756 <ep0_out+0x98>
  _usb_ep_write((epnum & 0x0F)*2, buf, size);
 8000704:	2202      	movs	r2, #2
 8000706:	4931      	ldr	r1, [pc, #196]	; (80007cc <ep0_out+0x10e>)
 8000708:	f7ff ff54 	bl	80005b4 <_usb_ep_write>
 800070c:	e01d      	b.n	800074a <ep0_out+0x8c>
      if( bytesread >= setup_packet.wLength ){
 800070e:	89e2      	ldrh	r2, [r4, #14]
 8000710:	8a23      	ldrh	r3, [r4, #16]
 8000712:	429a      	cmp	r2, r3
 8000714:	d8e9      	bhi.n	80006ea <ep0_out+0x2c>
 8000716:	e7e2      	b.n	80006de <ep0_out+0x20>
          const void *data = ZLPP;
 8000718:	2201      	movs	r2, #1
          usb_class_get_std_descr(setup_packet.wValue, &data, &size);
 800071a:	a901      	add	r1, sp, #4
          const void *data = ZLPP;
 800071c:	9201      	str	r2, [sp, #4]
          usb_class_get_std_descr(setup_packet.wValue, &data, &size);
 800071e:	8960      	ldrh	r0, [r4, #10]
 8000720:	f10d 0202 	add.w	r2, sp, #2
          uint16_t size = 0;
 8000724:	f8ad 3002 	strh.w	r3, [sp, #2]
          usb_class_get_std_descr(setup_packet.wValue, &data, &size);
 8000728:	f000 f87c 	bl	8000824 <usb_class_get_std_descr>
    if(setup_packet.wLength < size) size = setup_packet.wLength;
 800072c:	89e3      	ldrh	r3, [r4, #14]
 800072e:	f8bd 2002 	ldrh.w	r2, [sp, #2]
  ep0_in(0x80);
 8000732:	2080      	movs	r0, #128	; 0x80
    if(setup_packet.wLength < size) size = setup_packet.wLength;
 8000734:	429a      	cmp	r2, r3
 8000736:	bf88      	it	hi
 8000738:	f8ad 3002 	strhhi.w	r3, [sp, #2]
  ep0_count = size;
 800073c:	f8bd 3002 	ldrh.w	r3, [sp, #2]
 8000740:	80e3      	strh	r3, [r4, #6]
  ep0_buf = buf;
 8000742:	9b01      	ldr	r3, [sp, #4]
 8000744:	6023      	str	r3, [r4, #0]
  ep0_in(0x80);
 8000746:	f7ff ff5f 	bl	8000608 <ep0_in>
}
 800074a:	b002      	add	sp, #8
 800074c:	bd70      	pop	{r4, r5, r6, pc}
 800074e:	2201      	movs	r2, #1
 8000750:	491f      	ldr	r1, [pc, #124]	; (80007d0 <ep0_out+0x112>)
 8000752:	4618      	mov	r0, r3
 8000754:	e7d8      	b.n	8000708 <ep0_out+0x4a>
    void *data = ZLPP;
 8000756:	2301      	movs	r3, #1
 8000758:	9301      	str	r3, [sp, #4]
    uint16_t size = 0;
 800075a:	2300      	movs	r3, #0
    usb_class_ep0_in( &setup_packet, &data, &size );
 800075c:	f10d 0202 	add.w	r2, sp, #2
 8000760:	a901      	add	r1, sp, #4
 8000762:	4819      	ldr	r0, [pc, #100]	; (80007c8 <ep0_out+0x10a>)
    uint16_t size = 0;
 8000764:	f8ad 3002 	strh.w	r3, [sp, #2]
    usb_class_ep0_in( &setup_packet, &data, &size );
 8000768:	f000 f89a 	bl	80008a0 <usb_class_ep0_in>
 800076c:	e7de      	b.n	800072c <ep0_out+0x6e>
    if(req == (USB_REQ_STANDARD | USB_REQ_DEVICE)){
 800076e:	b96b      	cbnz	r3, 800078c <ep0_out+0xce>
      if(setup_packet.bRequest == SET_ADDRESS){
 8000770:	7a62      	ldrb	r2, [r4, #9]
 8000772:	2a05      	cmp	r2, #5
 8000774:	d105      	bne.n	8000782 <ep0_out+0xc4>
        USB_Addr = setup_packet.wValue;
 8000776:	8962      	ldrh	r2, [r4, #10]
 8000778:	7122      	strb	r2, [r4, #4]
 800077a:	2200      	movs	r2, #0
 800077c:	4611      	mov	r1, r2
 800077e:	4610      	mov	r0, r2
 8000780:	e7c2      	b.n	8000708 <ep0_out+0x4a>
      }else if(setup_packet.bRequest == SET_CONFIGURATION){
 8000782:	2a09      	cmp	r2, #9
 8000784:	d102      	bne.n	800078c <ep0_out+0xce>
        configuration = setup_packet.wValue;
 8000786:	8962      	ldrh	r2, [r4, #10]
 8000788:	74a2      	strb	r2, [r4, #18]
 800078a:	e7f6      	b.n	800077a <ep0_out+0xbc>
    if(!usb_class_ep0_out( &setup_packet, bytesread, rxcount )){
 800078c:	462a      	mov	r2, r5
 800078e:	8a21      	ldrh	r1, [r4, #16]
 8000790:	480d      	ldr	r0, [pc, #52]	; (80007c8 <ep0_out+0x10a>)
 8000792:	f000 f887 	bl	80008a4 <usb_class_ep0_out>
 8000796:	b950      	cbnz	r0, 80007ae <ep0_out+0xf0>
      ENDP_STAT_RX(0, USB_EP_RX_VALID);
 8000798:	4a0e      	ldr	r2, [pc, #56]	; (80007d4 <ep0_out+0x116>)
 800079a:	8813      	ldrh	r3, [r2, #0]
 800079c:	f023 03f0 	bic.w	r3, r3, #240	; 0xf0
 80007a0:	049b      	lsls	r3, r3, #18
 80007a2:	0c9b      	lsrs	r3, r3, #18
 80007a4:	f483 4330 	eor.w	r3, r3, #45056	; 0xb000
 80007a8:	f083 0380 	eor.w	r3, r3, #128	; 0x80
 80007ac:	8013      	strh	r3, [r2, #0]
    bytesread += rxcount;
 80007ae:	8a23      	ldrh	r3, [r4, #16]
 80007b0:	441d      	add	r5, r3
    if( bytesread >= setup_packet.wLength )usb_ep_write(0, NULL, 0);
 80007b2:	89e3      	ldrh	r3, [r4, #14]
    bytesread += rxcount;
 80007b4:	b2ad      	uxth	r5, r5
    if( bytesread >= setup_packet.wLength )usb_ep_write(0, NULL, 0);
 80007b6:	42ab      	cmp	r3, r5
    bytesread += rxcount;
 80007b8:	8225      	strh	r5, [r4, #16]
    if( bytesread >= setup_packet.wLength )usb_ep_write(0, NULL, 0);
 80007ba:	d8c6      	bhi.n	800074a <ep0_out+0x8c>
 80007bc:	e7dd      	b.n	800077a <ep0_out+0xbc>
 80007be:	bf00      	nop
 80007c0:	40006000 	andmi	r6, r0, r0
 80007c4:	20000004 	andcs	r0, r0, r4
 80007c8:	2000000c 	andcs	r0, r0, ip
 80007cc:	08000bbc 	stmdaeq	r0, {r2, r3, r4, r5, r7, r8, r9, fp}
 80007d0:	20000016 	andcs	r0, r0, r6, lsl r0
 80007d4:	40005c00 	andmi	r5, r0, r0, lsl #24

080007d8 <data_out_callback>:

#define INTR_FREQ_HZ 1000
#define SAMPLE_COUNT ((F_SAMPLE / INTR_FREQ_HZ))
#define RES_FREQ_HZ 1000

void data_out_callback(uint8_t epnum){
 80007d8:	b530      	push	{r4, r5, lr}
}
static inline int usb_ep_read_double(uint8_t epnum, uint16_t *buf){
  uint8_t idx = !(USB_EPx(epnum) & USB_EP_DTOG_TX);
 80007da:	4b10      	ldr	r3, [pc, #64]	; (800081c <data_out_callback+0x44>)
 80007dc:	b091      	sub	sp, #68	; 0x44
 80007de:	8818      	ldrh	r0, [r3, #0]
  return _usb_ep_read((epnum & 0x0F)*2 + idx, buf);
 80007e0:	4669      	mov	r1, sp
  uint8_t idx = !(USB_EPx(epnum) & USB_EP_DTOG_TX);
 80007e2:	f080 0040 	eor.w	r0, r0, #64	; 0x40
 80007e6:	f3c0 1080 	ubfx	r0, r0, #6, #1
  return _usb_ep_read((epnum & 0x0F)*2 + idx, buf);
 80007ea:	3002      	adds	r0, #2
 80007ec:	f7ff ff3a 	bl	8000664 <_usb_ep_read>
  int cnt;
  int16_t buf[ENDP_DATA_SIZE/2];
  cnt = usb_ep_read_double(ENDP_DATA_NUM, (void*)buf);
  cnt /= 2;
  GPO_OFF(GLED);
 80007f0:	f44f 0380 	mov.w	r3, #4194304	; 0x400000
 80007f4:	4a0a      	ldr	r2, [pc, #40]	; (8000820 <data_out_callback+0x48>)
  for(int i=0; i<cnt; i++){
    if(buf[i] > 10000)GPO_ON(GLED);
 80007f6:	f242 7110 	movw	r1, #10000	; 0x2710
  GPO_OFF(GLED);
 80007fa:	6113      	str	r3, [r2, #16]
    if(buf[i] > 10000)GPO_ON(GLED);
 80007fc:	2440      	movs	r4, #64	; 0x40
  for(int i=0; i<cnt; i++){
 80007fe:	2300      	movs	r3, #0
  cnt /= 2;
 8000800:	eb00 70d0 	add.w	r0, r0, r0, lsr #31
 8000804:	1040      	asrs	r0, r0, #1
  for(int i=0; i<cnt; i++){
 8000806:	4283      	cmp	r3, r0
 8000808:	db01      	blt.n	800080e <data_out_callback+0x36>
  }
}
 800080a:	b011      	add	sp, #68	; 0x44
 800080c:	bd30      	pop	{r4, r5, pc}
    if(buf[i] > 10000)GPO_ON(GLED);
 800080e:	f93d 5013 	ldrsh.w	r5, [sp, r3, lsl #1]
  for(int i=0; i<cnt; i++){
 8000812:	3301      	adds	r3, #1
    if(buf[i] > 10000)GPO_ON(GLED);
 8000814:	428d      	cmp	r5, r1
 8000816:	bfc8      	it	gt
 8000818:	6114      	strgt	r4, [r2, #16]
 800081a:	e7f4      	b.n	8000806 <data_out_callback+0x2e>
 800081c:	40005c04 	andmi	r5, r0, r4, lsl #24
 8000820:	40010c00 	andmi	r0, r1, r0, lsl #24

08000824 <usb_class_get_std_descr>:
  switch(descr & 0xFF00){
 8000824:	f400 437f 	and.w	r3, r0, #65280	; 0xff00
 8000828:	f5b3 7f00 	cmp.w	r3, #512	; 0x200
 800082c:	d010      	beq.n	8000850 <usb_class_get_std_descr+0x2c>
 800082e:	d803      	bhi.n	8000838 <usb_class_get_std_descr+0x14>
 8000830:	f5b3 7f80 	cmp.w	r3, #256	; 0x100
 8000834:	d007      	beq.n	8000846 <usb_class_get_std_descr+0x22>
 8000836:	4770      	bx	lr
 8000838:	f5b3 7f40 	cmp.w	r3, #768	; 0x300
 800083c:	d010      	beq.n	8000860 <usb_class_get_std_descr+0x3c>
 800083e:	f5b3 6fc0 	cmp.w	r3, #1536	; 0x600
 8000842:	d009      	beq.n	8000858 <usb_class_get_std_descr+0x34>
 8000844:	4770      	bx	lr
      *data = &USB_DeviceDescriptor;
 8000846:	4b0f      	ldr	r3, [pc, #60]	; (8000884 <usb_class_get_std_descr+0x60>)
 8000848:	600b      	str	r3, [r1, #0]
      *size = sizeof(USB_DeviceDescriptor);
 800084a:	2312      	movs	r3, #18
      *size = ((uint8_t*)*data)[0]; //data->bLength
 800084c:	8013      	strh	r3, [r2, #0]
}
 800084e:	4770      	bx	lr
      *data = &USB_ConfigDescriptor;
 8000850:	4b0d      	ldr	r3, [pc, #52]	; (8000888 <usb_class_get_std_descr+0x64>)
 8000852:	600b      	str	r3, [r1, #0]
      *size = sizeof(USB_ConfigDescriptor);
 8000854:	23c0      	movs	r3, #192	; 0xc0
 8000856:	e7f9      	b.n	800084c <usb_class_get_std_descr+0x28>
      *data = &USB_DeviceQualifierDescriptor;
 8000858:	4b0c      	ldr	r3, [pc, #48]	; (800088c <usb_class_get_std_descr+0x68>)
 800085a:	600b      	str	r3, [r1, #0]
      *size = USB_DeviceQualifierDescriptor[0];
 800085c:	230a      	movs	r3, #10
 800085e:	e7f5      	b.n	800084c <usb_class_get_std_descr+0x28>
      switch(descr & 0xFF){
 8000860:	b2c0      	uxtb	r0, r0
 8000862:	2803      	cmp	r0, #3
 8000864:	d8f3      	bhi.n	800084e <usb_class_get_std_descr+0x2a>
 8000866:	e8df f000 	tbb	[pc, r0]
 800086a:	0b090702 	bleq	824247a <_etext+0x2415ae>
          *data = &USB_StringLangDescriptor;
 800086e:	4b08      	ldr	r3, [pc, #32]	; (8000890 <usb_class_get_std_descr+0x6c>)
          *data = &USB_StringSerialDescriptor;
 8000870:	600b      	str	r3, [r1, #0]
      *size = ((uint8_t*)*data)[0]; //data->bLength
 8000872:	680b      	ldr	r3, [r1, #0]
 8000874:	781b      	ldrb	r3, [r3, #0]
 8000876:	e7e9      	b.n	800084c <usb_class_get_std_descr+0x28>
          *data = &USB_StringManufacturingDescriptor;
 8000878:	4b06      	ldr	r3, [pc, #24]	; (8000894 <usb_class_get_std_descr+0x70>)
 800087a:	e7f9      	b.n	8000870 <usb_class_get_std_descr+0x4c>
          *data = &USB_StringProdDescriptor;
 800087c:	4b06      	ldr	r3, [pc, #24]	; (8000898 <usb_class_get_std_descr+0x74>)
 800087e:	e7f7      	b.n	8000870 <usb_class_get_std_descr+0x4c>
          *data = &USB_StringSerialDescriptor;
 8000880:	4b06      	ldr	r3, [pc, #24]	; (800089c <usb_class_get_std_descr+0x78>)
 8000882:	e7f5      	b.n	8000870 <usb_class_get_std_descr+0x4c>
 8000884:	08000bbe 	stmdaeq	r0, {r1, r2, r3, r4, r5, r7, r8, r9, fp}
 8000888:	08000bd0 	stmdaeq	r0, {r4, r6, r7, r8, r9, fp}
 800088c:	08000c90 	stmdaeq	r0, {r4, r7, sl, fp}
 8000890:	08000c9a 	stmdaeq	r0, {r1, r3, r4, r7, sl, fp}
 8000894:	08000c9e 	stmdaeq	r0, {r1, r2, r3, r4, r7, sl, fp}
 8000898:	08000cb4 	stmdaeq	r0, {r2, r4, r5, r7, sl, fp}
 800089c:	08000cc8 	stmdaeq	r0, {r3, r6, r7, sl, fp}

080008a0 <usb_class_ep0_in>:
}
 80008a0:	2000      	movs	r0, #0
 80008a2:	4770      	bx	lr

080008a4 <usb_class_ep0_out>:
char usb_class_ep0_out(config_pack_t *req, uint16_t offset, uint16_t rx_size){
 80008a4:	b510      	push	{r4, lr}
  if(req->bmRequestType == 0x01){
 80008a6:	7804      	ldrb	r4, [r0, #0]
 80008a8:	2c01      	cmp	r4, #1
 80008aa:	d10d      	bne.n	80008c8 <usb_class_ep0_out+0x24>
    if(req->bRequest == 0x0B){
 80008ac:	7843      	ldrb	r3, [r0, #1]
 80008ae:	2b0b      	cmp	r3, #11
 80008b0:	d10a      	bne.n	80008c8 <usb_class_ep0_out+0x24>
      interface[req->wIndex] = req->wValue;
 80008b2:	8841      	ldrh	r1, [r0, #2]
 80008b4:	8883      	ldrh	r3, [r0, #4]
 80008b6:	4a05      	ldr	r2, [pc, #20]	; (80008cc <usb_class_ep0_out+0x28>)
 80008b8:	54d1      	strb	r1, [r2, r3]
  _usb_ep_write((epnum & 0x0F)*2, buf, size);
 80008ba:	2200      	movs	r2, #0
 80008bc:	4611      	mov	r1, r2
 80008be:	4610      	mov	r0, r2
 80008c0:	f7ff fe78 	bl	80005b4 <_usb_ep_write>
}
 80008c4:	4620      	mov	r0, r4
 80008c6:	bd10      	pop	{r4, pc}
  return 0;
 80008c8:	2400      	movs	r4, #0
 80008ca:	e7fb      	b.n	80008c4 <usb_class_ep0_out+0x20>
 80008cc:	20000018 	andcs	r0, r0, r8, lsl r0

080008d0 <dsin>:
int16_t dsin(uint8_t x){
 80008d0:	b510      	push	{r4, lr}
 80008d2:	4604      	mov	r4, r0
 80008d4:	f5ad 7d00 	sub.w	sp, sp, #512	; 0x200
  const int16_t arr[256] = {
 80008d8:	f44f 7200 	mov.w	r2, #512	; 0x200
 80008dc:	4904      	ldr	r1, [pc, #16]	; (80008f0 <dsin+0x20>)
 80008de:	4668      	mov	r0, sp
 80008e0:	f000 f894 	bl	8000a0c <memcpy>
}
 80008e4:	f93d 0014 	ldrsh.w	r0, [sp, r4, lsl #1]
 80008e8:	f50d 7d00 	add.w	sp, sp, #512	; 0x200
 80008ec:	bd10      	pop	{r4, pc}
 80008ee:	bf00      	nop
 80008f0:	08000ccc 	stmdaeq	r0, {r2, r3, r6, r7, sl, fp}

080008f4 <data_in_callback>:

volatile uint16_t count = 0;
void data_in_callback(uint8_t epnum){
 80008f4:	e92d 43f0 	stmdb	sp!, {r4, r5, r6, r7, r8, r9, lr}
  if(count > (ENDP_DATA_SIZE/2)){
    txsize = (ENDP_DATA_SIZE/2);
  }
  
  static int32_t cnt = 0;
  for(uint8_t i=0; i<txsize; i++){
 80008f8:	2700      	movs	r7, #0
  uint8_t txsize = count;
 80008fa:	4d1d      	ldr	r5, [pc, #116]	; (8000970 <data_in_callback+0x7c>)
  for(uint8_t i=0; i<txsize; i++){
 80008fc:	463a      	mov	r2, r7
  uint8_t txsize = count;
 80008fe:	88ac      	ldrh	r4, [r5, #4]
  if(count > (ENDP_DATA_SIZE/2)){
 8000900:	88ab      	ldrh	r3, [r5, #4]
    buf[i] = dsin( (uint32_t)cnt * RES_FREQ_HZ * 256 / F_SAMPLE );
 8000902:	f44f 387a 	mov.w	r8, #256000	; 0x3e800
  if(count > (ENDP_DATA_SIZE/2)){
 8000906:	2b20      	cmp	r3, #32
 8000908:	bf88      	it	hi
 800090a:	2420      	movhi	r4, #32
    buf[i] = dsin( (uint32_t)cnt * RES_FREQ_HZ * 256 / F_SAMPLE );
 800090c:	f44f 597a 	mov.w	r9, #16000	; 0x3e80
 8000910:	68ae      	ldr	r6, [r5, #8]
void data_in_callback(uint8_t epnum){
 8000912:	b0a1      	sub	sp, #132	; 0x84
 8000914:	b2e4      	uxtb	r4, r4
  for(uint8_t i=0; i<txsize; i++){
 8000916:	b2fb      	uxtb	r3, r7
 8000918:	429c      	cmp	r4, r3
 800091a:	d814      	bhi.n	8000946 <data_in_callback+0x52>
 800091c:	b102      	cbz	r2, 8000920 <data_in_callback+0x2c>
 800091e:	60ae      	str	r6, [r5, #8]
  uint8_t idx = !(USB_EPx(epnum) & USB_EP_DTOG_TX);
 8000920:	4b14      	ldr	r3, [pc, #80]	; (8000974 <data_in_callback+0x80>)
    cnt++;
    if(cnt >= F_SAMPLE)cnt -= F_SAMPLE;
  }
  usb_ep_write_double(ENDP_IN_NUM, (void*)buf, txsize*2);
 8000922:	b2a4      	uxth	r4, r4
 8000924:	8818      	ldrh	r0, [r3, #0]
  _usb_ep_write((epnum & 0x0F)*2 + idx, buf, size);
 8000926:	0062      	lsls	r2, r4, #1
  uint8_t idx = !(USB_EPx(epnum) & USB_EP_DTOG_TX);
 8000928:	f080 0040 	eor.w	r0, r0, #64	; 0x40
 800092c:	f3c0 1080 	ubfx	r0, r0, #6, #1
  _usb_ep_write((epnum & 0x0F)*2 + idx, buf, size);
 8000930:	4669      	mov	r1, sp
 8000932:	3004      	adds	r0, #4
 8000934:	f7ff fe3e 	bl	80005b4 <_usb_ep_write>

  count -= txsize;
 8000938:	88ab      	ldrh	r3, [r5, #4]
 800093a:	1b1c      	subs	r4, r3, r4
 800093c:	b2a4      	uxth	r4, r4
 800093e:	80ac      	strh	r4, [r5, #4]
}
 8000940:	b021      	add	sp, #132	; 0x84
 8000942:	e8bd 83f0 	ldmia.w	sp!, {r4, r5, r6, r7, r8, r9, pc}
    buf[i] = dsin( (uint32_t)cnt * RES_FREQ_HZ * 256 / F_SAMPLE );
 8000946:	fb08 f006 	mul.w	r0, r8, r6
 800094a:	fbb0 f0f9 	udiv	r0, r0, r9
 800094e:	b2c0      	uxtb	r0, r0
 8000950:	f7ff ffbe 	bl	80008d0 <dsin>
    cnt++;
 8000954:	1c73      	adds	r3, r6, #1
    if(cnt >= F_SAMPLE)cnt -= F_SAMPLE;
 8000956:	f5b3 5f7a 	cmp.w	r3, #16000	; 0x3e80
 800095a:	bfa4      	itt	ge
 800095c:	f5a6 5379 	subge.w	r3, r6, #15936	; 0x3e40
 8000960:	3b3f      	subge	r3, #63	; 0x3f
    buf[i] = dsin( (uint32_t)cnt * RES_FREQ_HZ * 256 / F_SAMPLE );
 8000962:	f82d 0017 	strh.w	r0, [sp, r7, lsl #1]
    if(cnt >= F_SAMPLE)cnt -= F_SAMPLE;
 8000966:	2201      	movs	r2, #1
 8000968:	3701      	adds	r7, #1
  for(uint8_t i=0; i<txsize; i++){
 800096a:	461e      	mov	r6, r3
 800096c:	e7d3      	b.n	8000916 <data_in_callback+0x22>
 800096e:	bf00      	nop
 8000970:	20000018 	andcs	r0, r0, r8, lsl r0
 8000974:	40005c08 	andmi	r5, r0, r8, lsl #24

08000978 <TIM4_IRQHandler>:

void TIM4_IRQHandler(){
  TIM4->SR = ~TIM_SR_UIF;
 8000978:	f06f 0201 	mvn.w	r2, #1
 800097c:	4b08      	ldr	r3, [pc, #32]	; (80009a0 <TIM4_IRQHandler+0x28>)
 800097e:	611a      	str	r2, [r3, #16]
  
  count += SAMPLE_COUNT;
 8000980:	4a08      	ldr	r2, [pc, #32]	; (80009a4 <TIM4_IRQHandler+0x2c>)
 8000982:	8893      	ldrh	r3, [r2, #4]
 8000984:	3310      	adds	r3, #16
 8000986:	b29b      	uxth	r3, r3
 8000988:	8093      	strh	r3, [r2, #4]
  if(count > 0x8FFF){
 800098a:	8893      	ldrh	r3, [r2, #4]
 800098c:	f5b3 4f10 	cmp.w	r3, #36864	; 0x9000
 8000990:	d304      	bcc.n	800099c <TIM4_IRQHandler+0x24>
    GPO_ON(RLED);
 8000992:	2180      	movs	r1, #128	; 0x80
 8000994:	4b04      	ldr	r3, [pc, #16]	; (80009a8 <TIM4_IRQHandler+0x30>)
 8000996:	6119      	str	r1, [r3, #16]
    count = 0;
 8000998:	2300      	movs	r3, #0
 800099a:	8093      	strh	r3, [r2, #4]
  }
}
 800099c:	4770      	bx	lr
 800099e:	bf00      	nop
 80009a0:	40000800 	andmi	r0, r0, r0, lsl #16
 80009a4:	20000018 	andcs	r0, r0, r8, lsl r0
 80009a8:	40010c00 	andmi	r0, r1, r0, lsl #24

080009ac <usb_class_init>:

void usb_class_init(){
  usb_ep_init_double( ENDP_DATA_NUM, USB_ENDP_ISO, ENDP_DATA_SIZE, data_out_callback);
 80009ac:	2101      	movs	r1, #1
void usb_class_init(){
 80009ae:	b508      	push	{r3, lr}
  usb_ep_init_double( ENDP_DATA_NUM, USB_ENDP_ISO, ENDP_DATA_SIZE, data_out_callback);
 80009b0:	4608      	mov	r0, r1
 80009b2:	4b10      	ldr	r3, [pc, #64]	; (80009f4 <usb_class_init+0x48>)
 80009b4:	2240      	movs	r2, #64	; 0x40
 80009b6:	f7ff fcc3 	bl	8000340 <usb_ep_init_double>
  usb_ep_init_double( ENDP_IN_NUM | 0x80, USB_ENDP_ISO, ENDP_DATA_SIZE, data_in_callback);
 80009ba:	4b0f      	ldr	r3, [pc, #60]	; (80009f8 <usb_class_init+0x4c>)
 80009bc:	2240      	movs	r2, #64	; 0x40
 80009be:	2101      	movs	r1, #1
 80009c0:	2082      	movs	r0, #130	; 0x82
 80009c2:	f7ff fcbd 	bl	8000340 <usb_ep_init_double>
  
  
  RCC->APB1ENR |= RCC_APB1ENR_TIM4EN; //F_APB1=32MHz
 80009c6:	4a0d      	ldr	r2, [pc, #52]	; (80009fc <usb_class_init+0x50>)
 80009c8:	f04f 4080 	mov.w	r0, #1073741824	; 0x40000000
 80009cc:	69d3      	ldr	r3, [r2, #28]
 80009ce:	490c      	ldr	r1, [pc, #48]	; (8000a00 <usb_class_init+0x54>)
 80009d0:	f043 0304 	orr.w	r3, r3, #4
 80009d4:	61d3      	str	r3, [r2, #28]
  TIM4->PSC = 71; //1 MHz
 80009d6:	2247      	movs	r2, #71	; 0x47
 80009d8:	4b0a      	ldr	r3, [pc, #40]	; (8000a04 <usb_class_init+0x58>)
 80009da:	629a      	str	r2, [r3, #40]	; 0x28
  TIM4->ARR = (1000000 / INTR_FREQ_HZ)-1;
 80009dc:	f240 32e7 	movw	r2, #999	; 0x3e7
 80009e0:	62da      	str	r2, [r3, #44]	; 0x2c
  TIM4->CR1 |= (TIM_CR1_ARPE);
 80009e2:	681a      	ldr	r2, [r3, #0]
 80009e4:	f042 0280 	orr.w	r2, r2, #128	; 0x80
 80009e8:	601a      	str	r2, [r3, #0]
  TIM4->DIER = (TIM_DIER_UIE);
 80009ea:	2201      	movs	r2, #1
 80009ec:	60da      	str	r2, [r3, #12]
 80009ee:	6008      	str	r0, [r1, #0]
  NVIC_EnableIRQ(TIM4_IRQn);
  TIM4->CR1 = (TIM_CR1_CEN);
 80009f0:	601a      	str	r2, [r3, #0]
}
 80009f2:	bd08      	pop	{r3, pc}
 80009f4:	080007d9 	stmdaeq	r0, {r0, r3, r4, r6, r7, r8, r9, sl}
 80009f8:	080008f5 	stmdaeq	r0, {r0, r2, r4, r5, r6, r7, fp}
 80009fc:	40021000 	andmi	r1, r2, r0
 8000a00:	e000e100 	and	lr, r0, r0, lsl #2
 8000a04:	40000800 	andmi	r0, r0, r0, lsl #16

08000a08 <usb_class_poll>:

void usb_class_poll(){
  //if(GPI_ON(LBTN)){GPO_OFF(RLED); GPO_OFF(GLED);}
}
 8000a08:	4770      	bx	lr
 8000a0a:	bf00      	nop

08000a0c <memcpy>:
 8000a0c:	4684      	mov	ip, r0
 8000a0e:	ea41 0300 	orr.w	r3, r1, r0
 8000a12:	f013 0303 	ands.w	r3, r3, #3
 8000a16:	d149      	bne.n	8000aac <memcpy+0xa0>
 8000a18:	3a40      	subs	r2, #64	; 0x40
 8000a1a:	d323      	bcc.n	8000a64 <memcpy+0x58>
 8000a1c:	680b      	ldr	r3, [r1, #0]
 8000a1e:	6003      	str	r3, [r0, #0]
 8000a20:	684b      	ldr	r3, [r1, #4]
 8000a22:	6043      	str	r3, [r0, #4]
 8000a24:	688b      	ldr	r3, [r1, #8]
 8000a26:	6083      	str	r3, [r0, #8]
 8000a28:	68cb      	ldr	r3, [r1, #12]
 8000a2a:	60c3      	str	r3, [r0, #12]
 8000a2c:	690b      	ldr	r3, [r1, #16]
 8000a2e:	6103      	str	r3, [r0, #16]
 8000a30:	694b      	ldr	r3, [r1, #20]
 8000a32:	6143      	str	r3, [r0, #20]
 8000a34:	698b      	ldr	r3, [r1, #24]
 8000a36:	6183      	str	r3, [r0, #24]
 8000a38:	69cb      	ldr	r3, [r1, #28]
 8000a3a:	61c3      	str	r3, [r0, #28]
 8000a3c:	6a0b      	ldr	r3, [r1, #32]
 8000a3e:	6203      	str	r3, [r0, #32]
 8000a40:	6a4b      	ldr	r3, [r1, #36]	; 0x24
 8000a42:	6243      	str	r3, [r0, #36]	; 0x24
 8000a44:	6a8b      	ldr	r3, [r1, #40]	; 0x28
 8000a46:	6283      	str	r3, [r0, #40]	; 0x28
 8000a48:	6acb      	ldr	r3, [r1, #44]	; 0x2c
 8000a4a:	62c3      	str	r3, [r0, #44]	; 0x2c
 8000a4c:	6b0b      	ldr	r3, [r1, #48]	; 0x30
 8000a4e:	6303      	str	r3, [r0, #48]	; 0x30
 8000a50:	6b4b      	ldr	r3, [r1, #52]	; 0x34
 8000a52:	6343      	str	r3, [r0, #52]	; 0x34
 8000a54:	6b8b      	ldr	r3, [r1, #56]	; 0x38
 8000a56:	6383      	str	r3, [r0, #56]	; 0x38
 8000a58:	6bcb      	ldr	r3, [r1, #60]	; 0x3c
 8000a5a:	63c3      	str	r3, [r0, #60]	; 0x3c
 8000a5c:	3040      	adds	r0, #64	; 0x40
 8000a5e:	3140      	adds	r1, #64	; 0x40
 8000a60:	3a40      	subs	r2, #64	; 0x40
 8000a62:	d2db      	bcs.n	8000a1c <memcpy+0x10>
 8000a64:	3230      	adds	r2, #48	; 0x30
 8000a66:	d30b      	bcc.n	8000a80 <memcpy+0x74>
 8000a68:	680b      	ldr	r3, [r1, #0]
 8000a6a:	6003      	str	r3, [r0, #0]
 8000a6c:	684b      	ldr	r3, [r1, #4]
 8000a6e:	6043      	str	r3, [r0, #4]
 8000a70:	688b      	ldr	r3, [r1, #8]
 8000a72:	6083      	str	r3, [r0, #8]
 8000a74:	68cb      	ldr	r3, [r1, #12]
 8000a76:	60c3      	str	r3, [r0, #12]
 8000a78:	3010      	adds	r0, #16
 8000a7a:	3110      	adds	r1, #16
 8000a7c:	3a10      	subs	r2, #16
 8000a7e:	d2f3      	bcs.n	8000a68 <memcpy+0x5c>
 8000a80:	320c      	adds	r2, #12
 8000a82:	d305      	bcc.n	8000a90 <memcpy+0x84>
 8000a84:	f851 3b04 	ldr.w	r3, [r1], #4
 8000a88:	f840 3b04 	str.w	r3, [r0], #4
 8000a8c:	3a04      	subs	r2, #4
 8000a8e:	d2f9      	bcs.n	8000a84 <memcpy+0x78>
 8000a90:	3204      	adds	r2, #4
 8000a92:	d008      	beq.n	8000aa6 <memcpy+0x9a>
 8000a94:	07d2      	lsls	r2, r2, #31
 8000a96:	bf1c      	itt	ne
 8000a98:	f811 3b01 	ldrbne.w	r3, [r1], #1
 8000a9c:	f800 3b01 	strbne.w	r3, [r0], #1
 8000aa0:	d301      	bcc.n	8000aa6 <memcpy+0x9a>
 8000aa2:	880b      	ldrh	r3, [r1, #0]
 8000aa4:	8003      	strh	r3, [r0, #0]
 8000aa6:	4660      	mov	r0, ip
 8000aa8:	4770      	bx	lr
 8000aaa:	bf00      	nop
 8000aac:	2a08      	cmp	r2, #8
 8000aae:	d313      	bcc.n	8000ad8 <memcpy+0xcc>
 8000ab0:	078b      	lsls	r3, r1, #30
 8000ab2:	d0b1      	beq.n	8000a18 <memcpy+0xc>
 8000ab4:	f010 0303 	ands.w	r3, r0, #3
 8000ab8:	d0ae      	beq.n	8000a18 <memcpy+0xc>
 8000aba:	f1c3 0304 	rsb	r3, r3, #4
 8000abe:	1ad2      	subs	r2, r2, r3
 8000ac0:	07db      	lsls	r3, r3, #31
 8000ac2:	bf1c      	itt	ne
 8000ac4:	f811 3b01 	ldrbne.w	r3, [r1], #1
 8000ac8:	f800 3b01 	strbne.w	r3, [r0], #1
 8000acc:	d3a4      	bcc.n	8000a18 <memcpy+0xc>
 8000ace:	f831 3b02 	ldrh.w	r3, [r1], #2
 8000ad2:	f820 3b02 	strh.w	r3, [r0], #2
 8000ad6:	e79f      	b.n	8000a18 <memcpy+0xc>
 8000ad8:	3a04      	subs	r2, #4
 8000ada:	d3d9      	bcc.n	8000a90 <memcpy+0x84>
 8000adc:	3a01      	subs	r2, #1
 8000ade:	f811 3b01 	ldrb.w	r3, [r1], #1
 8000ae2:	f800 3b01 	strb.w	r3, [r0], #1
 8000ae6:	d2f9      	bcs.n	8000adc <memcpy+0xd0>
 8000ae8:	780b      	ldrb	r3, [r1, #0]
 8000aea:	7003      	strb	r3, [r0, #0]
 8000aec:	784b      	ldrb	r3, [r1, #1]
 8000aee:	7043      	strb	r3, [r0, #1]
 8000af0:	788b      	ldrb	r3, [r1, #2]
 8000af2:	7083      	strb	r3, [r0, #2]
 8000af4:	4660      	mov	r0, ip
 8000af6:	4770      	bx	lr

08000af8 <Reset_Handler>:
 8000af8:	2100      	movs	r1, #0
 8000afa:	e003      	b.n	8000b04 <LoopCopyDataInit>

08000afc <CopyDataInit>:
 8000afc:	4b0a      	ldr	r3, [pc, #40]	; (8000b28 <LoopFillZerobss+0x10>)
 8000afe:	585b      	ldr	r3, [r3, r1]
 8000b00:	5043      	str	r3, [r0, r1]
 8000b02:	3104      	adds	r1, #4

08000b04 <LoopCopyDataInit>:
 8000b04:	4809      	ldr	r0, [pc, #36]	; (8000b2c <LoopFillZerobss+0x14>)
 8000b06:	4b0a      	ldr	r3, [pc, #40]	; (8000b30 <LoopFillZerobss+0x18>)
 8000b08:	1842      	adds	r2, r0, r1
 8000b0a:	429a      	cmp	r2, r3
 8000b0c:	d3f6      	bcc.n	8000afc <CopyDataInit>
 8000b0e:	4a09      	ldr	r2, [pc, #36]	; (8000b34 <LoopFillZerobss+0x1c>)
 8000b10:	e002      	b.n	8000b18 <LoopFillZerobss>

08000b12 <FillZerobss>:
 8000b12:	2300      	movs	r3, #0
 8000b14:	f842 3b04 	str.w	r3, [r2], #4

08000b18 <LoopFillZerobss>:
 8000b18:	4b07      	ldr	r3, [pc, #28]	; (8000b38 <LoopFillZerobss+0x20>)
 8000b1a:	429a      	cmp	r2, r3
 8000b1c:	d3f9      	bcc.n	8000b12 <FillZerobss>
 8000b1e:	f7ff fb56 	bl	80001ce <SystemInit>
 8000b22:	f000 f80d 	bl	8000b40 <main>
 8000b26:	4770      	bx	lr
 8000b28:	08000ecc 	stmdaeq	r0, {r2, r3, r6, r7, r9, sl, fp}
 8000b2c:	20000000 	andcs	r0, r0, r0
 8000b30:	20000004 	andcs	r0, r0, r4
 8000b34:	20000004 	andcs	r0, r0, r4
 8000b38:	20000064 	andcs	r0, r0, r4, rrx

08000b3c <ADC1_2_IRQHandler>:
 8000b3c:	e7fe      	b.n	8000b3c <ADC1_2_IRQHandler>
	...

08000b40 <main>:

int main(void){
 8000b40:	b538      	push	{r3, r4, r5, lr}
  SysClockMax();
 8000b42:	f7ff faed 	bl	8000120 <SysClockMax>
  RCC->APB2ENR |= RCC_APB2ENR_IOPBEN | RCC_APB2ENR_IOPAEN;
 8000b46:	4a1a      	ldr	r2, [pc, #104]	; (8000bb0 <main+0x70>)

  GPIO_config(RLED); GPIO_config(GLED); GPIO_config(YLED);
 8000b48:	4c1a      	ldr	r4, [pc, #104]	; (8000bb4 <main+0x74>)
  RCC->APB2ENR |= RCC_APB2ENR_IOPBEN | RCC_APB2ENR_IOPAEN;
 8000b4a:	6993      	ldr	r3, [r2, #24]
 8000b4c:	f043 030c 	orr.w	r3, r3, #12
 8000b50:	6193      	str	r3, [r2, #24]
  GPIO_config(RLED); GPIO_config(GLED); GPIO_config(YLED);
 8000b52:	6823      	ldr	r3, [r4, #0]
  GPIO_config(BTN1); GPIO_config(BTN2);
 8000b54:	f5a2 3284 	sub.w	r2, r2, #67584	; 0x10800
  GPIO_config(RLED); GPIO_config(GLED); GPIO_config(YLED);
 8000b58:	f023 4370 	bic.w	r3, r3, #4026531840	; 0xf0000000
 8000b5c:	f043 5340 	orr.w	r3, r3, #805306368	; 0x30000000
 8000b60:	6023      	str	r3, [r4, #0]
 8000b62:	6823      	ldr	r3, [r4, #0]
 8000b64:	f023 6370 	bic.w	r3, r3, #251658240	; 0xf000000
 8000b68:	f043 7340 	orr.w	r3, r3, #50331648	; 0x3000000
 8000b6c:	6023      	str	r3, [r4, #0]
 8000b6e:	6823      	ldr	r3, [r4, #0]
 8000b70:	f423 0370 	bic.w	r3, r3, #15728640	; 0xf00000
 8000b74:	f443 1340 	orr.w	r3, r3, #3145728	; 0x300000
 8000b78:	6023      	str	r3, [r4, #0]
  GPIO_config(BTN1); GPIO_config(BTN2);
 8000b7a:	6853      	ldr	r3, [r2, #4]
 8000b7c:	f023 030f 	bic.w	r3, r3, #15
 8000b80:	f043 0304 	orr.w	r3, r3, #4
 8000b84:	6053      	str	r3, [r2, #4]
 8000b86:	6853      	ldr	r3, [r2, #4]
 8000b88:	f023 03f0 	bic.w	r3, r3, #240	; 0xf0
 8000b8c:	f043 0340 	orr.w	r3, r3, #64	; 0x40
 8000b90:	6053      	str	r3, [r2, #4]
  
  USB_setup();
 8000b92:	f7ff fb2a 	bl	80001ea <USB_setup>
static __INLINE void __enable_irq()               { __ASM volatile ("cpsie i"); }
 8000b96:	b662      	cpsie	i
  __enable_irq();

  while(1){
    usb_class_poll();
    GPO_T(YLED);
    sleep(100000);
 8000b98:	4d07      	ldr	r5, [pc, #28]	; (8000bb8 <main+0x78>)
    usb_class_poll();
 8000b9a:	f7ff ff35 	bl	8000a08 <usb_class_poll>
    GPO_T(YLED);
 8000b9e:	68e3      	ldr	r3, [r4, #12]
    sleep(100000);
 8000ba0:	4628      	mov	r0, r5
    GPO_T(YLED);
 8000ba2:	f083 0320 	eor.w	r3, r3, #32
 8000ba6:	60e3      	str	r3, [r4, #12]
    sleep(100000);
 8000ba8:	f7ff fb12 	bl	80001d0 <sleep>
 8000bac:	e7f5      	b.n	8000b9a <main+0x5a>
 8000bae:	bf00      	nop
 8000bb0:	40021000 	andmi	r1, r2, r0
 8000bb4:	40010c00 	andmi	r0, r1, r0, lsl #24
 8000bb8:	000186a0 	andeq	r8, r1, r0, lsr #13
	...

08000bbe <USB_DeviceDescriptor>:
 8000bbe:	01100112 	tsteq	r0, r2, lsl r1
 8000bc2:	08000000 	stmdaeq	r0, {}	; <UNPREDICTABLE>
 8000bc6:	05df16c0 	ldrbeq	r1, [pc, #1728]	; 800128e <_etext+0x3c2>
 8000bca:	02010001 	andeq	r0, r1, #1
 8000bce:	 	andeq	r0, r9, #-1073741824	; 0xc0000000

08000bd0 <USB_ConfigDescriptor>:
 8000bd0:	00c00209 	sbceq	r0, r0, r9, lsl #4
 8000bd4:	80000103 	andhi	r0, r0, r3, lsl #2
 8000bd8:	00040932 	andeq	r0, r4, r2, lsr r9
 8000bdc:	01010000 	mrseq	r0, (UNDEF: 1)
 8000be0:	240a0000 	strcs	r0, [sl], #-0
 8000be4:	46010001 	strmi	r0, [r1], -r1
 8000be8:	02010200 	andeq	r0, r1, #0, 4
 8000bec:	0102240c 	tsteq	r2, ip, lsl #8
 8000bf0:	01000101 	tsteq	r0, r1, lsl #2
 8000bf4:	00000000 	andeq	r0, r0, r0
 8000bf8:	0202240c 	andeq	r2, r2, #12, 8	; 0xc000000
 8000bfc:	01000201 	tsteq	r0, r1, lsl #4
 8000c00:	00000000 	andeq	r0, r0, r0
 8000c04:	05032409 	streq	r2, [r3, #-1033]	; 0xfffffbf7
 8000c08:	03000301 	movweq	r0, #769	; 0x301
 8000c0c:	03240900 			; <UNDEFINED> instruction: 0x03240900
 8000c10:	00010106 	andeq	r0, r1, r6, lsl #2
 8000c14:	24090004 	strcs	r0, [r9], #-4
 8000c18:	01010306 	tsteq	r1, r6, lsl #6
 8000c1c:	09000001 	stmdbeq	r0, {r0}
 8000c20:	02040624 	andeq	r0, r4, #36, 12	; 0x2400000
 8000c24:	00000101 	andeq	r0, r0, r1, lsl #2
 8000c28:	00010409 	andeq	r0, r1, r9, lsl #8
 8000c2c:	00020100 	andeq	r0, r2, r0, lsl #2
 8000c30:	01040900 	tsteq	r4, r0, lsl #18
 8000c34:	02010101 	andeq	r0, r1, #1073741824	; 0x40000000
 8000c38:	24070000 	strcs	r0, [r7], #-0
 8000c3c:	01010601 	tsteq	r1, r1, lsl #12
 8000c40:	02240b00 	eoreq	r0, r4, #0, 22
 8000c44:	10020101 	andne	r0, r2, r1, lsl #2
 8000c48:	003e8001 	eorseq	r8, lr, r1
 8000c4c:	01820509 	orreq	r0, r2, r9, lsl #10
 8000c50:	00010040 	andeq	r0, r1, r0, asr #32
 8000c54:	01250700 			; <UNDEFINED> instruction: 0x01250700
 8000c58:	00000000 	andeq	r0, r0, r0
 8000c5c:	00020409 	andeq	r0, r2, r9, lsl #8
 8000c60:	00020100 	andeq	r0, r2, r0, lsl #2
 8000c64:	02040900 	andeq	r0, r4, #0, 18
 8000c68:	02010101 	andeq	r0, r1, #1073741824	; 0x40000000
 8000c6c:	24070000 	strcs	r0, [r7], #-0
 8000c70:	01010101 	tsteq	r1, r1, lsl #2
 8000c74:	02240b00 	eoreq	r0, r4, #0, 22
 8000c78:	10020101 	andne	r0, r2, r1, lsl #2
 8000c7c:	003e8001 	eorseq	r8, lr, r1
 8000c80:	01010509 	tsteq	r1, r9, lsl #10
 8000c84:	00010040 	andeq	r0, r1, r0, asr #32
 8000c88:	01250700 			; <UNDEFINED> instruction: 0x01250700
 8000c8c:	00000000 	andeq	r0, r0, r0

08000c90 <USB_DeviceQualifierDescriptor>:
 8000c90:	0200060a 	andeq	r0, r0, #10485760	; 0xa00000
 8000c94:	08000000 	stmdaeq	r0, {}	; <UNPREDICTABLE>
 8000c98:	 	movweq	r0, #16385	; 0x4001

08000c9a <USB_StringLangDescriptor>:
 8000c9a:	04090304 	streq	r0, [r9], #-772	; 0xfffffcfc

08000c9e <USB_StringManufacturingDescriptor>:
 8000c9e:	00430316 	subeq	r0, r3, r6, lsl r3
 8000ca2:	004b004f 	subeq	r0, fp, pc, asr #32
 8000ca6:	004f0050 	subeq	r0, pc, r0, asr r0	; <UNPREDICTABLE>
 8000caa:	00450057 	subeq	r0, r5, r7, asr r0
 8000cae:	00450048 	subeq	r0, r5, r8, asr #32
 8000cb2:	 	tsteq	r4, #85	; 0x55

08000cb4 <USB_StringProdDescriptor>:
 8000cb4:	00550314 	subseq	r0, r5, r4, lsl r3
 8000cb8:	00420053 	subeq	r0, r2, r3, asr r0
 8000cbc:	00410020 	subeq	r0, r1, r0, lsr #32
 8000cc0:	00640075 	rsbeq	r0, r4, r5, ror r0
 8000cc4:	006f0069 	rsbeq	r0, pc, r9, rrx

08000cc8 <USB_StringSerialDescriptor>:
 8000cc8:	00310304 	eorseq	r0, r1, r4, lsl #6
 8000ccc:	03110000 	tsteq	r1, #0
 8000cd0:	09320622 	ldmdbeq	r2!, {r1, r5, r9, sl}
 8000cd4:	0f4d0c40 	svceq	0x004d0c40
 8000cd8:	155e1257 	ldrbne	r1, [lr, #-599]	; 0xfffffda9
 8000cdc:	1b631862 	blne	98c6e6c <_etext+0x18c5fa0>
 8000ce0:	21561e5f 	cmpcs	r6, pc, asr lr
 8000ce4:	27352449 	ldrcs	r2, [r5, -r9, asr #8]!
 8000ce8:	2cfc2a1c 	vldmiacs	ip!, {s5-s32}
 8000cec:	32a72fd5 	adccc	r2, r7, #852	; 0x354
 8000cf0:	38333571 	ldmdacc	r3!, {r0, r4, r5, r6, r8, sl, ip, sp}
 8000cf4:	3d9c3aec 	vldrcc	s6, [ip, #944]	; 0x3b0
 8000cf8:	42df4043 	sbcsmi	r4, pc, #67	; 0x43
 8000cfc:	47f94572 			; <UNDEFINED> instruction: 0x47f94572
 8000d00:	4ce74a76 	vstmiami	r7!, {s9-s126}
 8000d04:	51a54f4c 			; <UNDEFINED> instruction: 0x51a54f4c
 8000d08:	563153f1 			; <UNDEFINED> instruction: 0x563153f1
 8000d0c:	5a875863 	bpl	61d6ea0 <__Stack_Size+0x61d6aa0>
 8000d10:	5ea65c9e 	mcrpl	12, 5, r5, cr6, cr14, {4}
 8000d14:	628b60a0 	addvs	r6, fp, #160	; 0xa0
 8000d18:	66326466 	ldrtvs	r6, [r2], -r6, ror #8
 8000d1c:	699b67ef 	ldmibvs	fp, {r0, r1, r2, r3, r5, r6, r7, r8, r9, sl, sp, lr}
 8000d20:	6cc26b37 	fstmiaxvs	r2, {d22-d48}	;@ Deprecated
 8000d24:	6fa76e3d 	svcvs	0x00a76e3d
 8000d28:	724670ff 	subvc	r7, r6, #255	; 0xff
 8000d2c:	749f737c 	ldrvc	r7, [pc], #892	; 8000d34 <USB_StringSerialDescriptor+0x6c>
 8000d30:	76b075b1 			; <UNDEFINED> instruction: 0x76b075b1
 8000d34:	7878779e 	ldmdavc	r8!, {r1, r2, r3, r4, r7, r8, r9, sl, ip, sp, lr}^
 8000d38:	79f67941 	ldmibvc	r6!, {r0, r6, r8, fp, ip, sp, lr}^
 8000d3c:	7b287a99 	blvc	8a1f7a8 <_etext+0xa1e8dc>
 8000d40:	7c0f7ba5 			; <UNDEFINED> instruction: 0x7c0f7ba5
 8000d44:	7ca97c65 	stcvc	12, cr7, [r9], #404	; 0x194
 8000d48:	7cf67cd9 	ldclvc	12, cr7, [r6], #868	; 0x364
 8000d4c:	7cf67d00 	ldclvc	13, cr7, [r6]
 8000d50:	7ca97cd9 	stcvc	12, cr7, [r9], #868	; 0x364
 8000d54:	7c0f7c65 	stcvc	12, cr7, [pc], {101}	; 0x65
 8000d58:	7b287ba5 	blvc	8a1fbf4 <_etext+0xa1ed28>
 8000d5c:	79f67a99 	ldmibvc	r6!, {r0, r3, r4, r7, r9, fp, ip, sp, lr}^
 8000d60:	78787941 	ldmdavc	r8!, {r0, r6, r8, fp, ip, sp, lr}^
 8000d64:	76b0779e 	ssatvc	r7, #17, lr, lsl #15
 8000d68:	749f75b1 	ldrvc	r7, [pc], #1457	; 8000d70 <USB_StringSerialDescriptor+0xa8>
 8000d6c:	7246737c 	subvc	r7, r6, #124, 6	; 0xf0000001
 8000d70:	6fa770ff 	svcvs	0x00a770ff
 8000d74:	6cc26e3d 	stclvs	14, cr6, [r2], {61}	; 0x3d
 8000d78:	699b6b37 	ldmibvs	fp, {r0, r1, r2, r4, r5, r8, r9, fp, sp, lr}
 8000d7c:	663267ef 	ldrtvs	r6, [r2], -pc, ror #15
 8000d80:	628b6466 	addvs	r6, fp, #1711276032	; 0x66000000
 8000d84:	5ea660a0 	cdppl	0, 10, cr6, cr6, cr0, {5}
 8000d88:	5a875c9e 	bpl	61d8008 <__Stack_Size+0x61d7c08>
 8000d8c:	56315863 	ldrtpl	r5, [r1], -r3, ror #16
 8000d90:	51a553f1 	strdpl	r5, [r5, r1]!
 8000d94:	4ce74f4c 	stclmi	15, cr4, [r7], #304	; 0x130
 8000d98:	47f94a76 			; <UNDEFINED> instruction: 0x47f94a76
 8000d9c:	42df4572 	sbcsmi	r4, pc, #478150656	; 0x1c800000
 8000da0:	3d9c4043 	ldccc	0, cr4, [ip, #268]	; 0x10c
 8000da4:	38333aec 	ldmdacc	r3!, {r2, r3, r5, r6, r7, r9, fp, ip, sp}
 8000da8:	32a73571 	adccc	r3, r7, #473956352	; 0x1c400000
 8000dac:	2cfc2fd5 	ldclcs	15, cr2, [ip], #852	; 0x354
 8000db0:	27352a1c 			; <UNDEFINED> instruction: 0x27352a1c
 8000db4:	21562449 	cmpcs	r6, r9, asr #8
 8000db8:	1b631e5f 	blne	98c873c <_etext+0x18c7870>
 8000dbc:	155e1862 	ldrbne	r1, [lr, #-2146]	; 0xfffff79e
 8000dc0:	0f4d1257 	svceq	0x004d1257
 8000dc4:	09320c40 	ldmdbeq	r2!, {r6, sl, fp}
 8000dc8:	03110622 	tsteq	r1, #35651584	; 0x2200000
 8000dcc:	fcef0000 	stc2l	0, cr0, [pc]	; 8000dd4 <USB_StringSerialDescriptor+0x10c>
 8000dd0:	f6cef9de 			; <UNDEFINED> instruction: 0xf6cef9de
 8000dd4:	f0b3f3c0 			; <UNDEFINED> instruction: 0xf0b3f3c0
 8000dd8:	eaa2eda9 	b	68bc484 <__Stack_Size+0x68bc084>
 8000ddc:	e49de79e 	ldr	lr, [sp], #1950	; 0x79e
 8000de0:	deaae1a1 	tanle<illegal precision>p	f6, f1
 8000de4:	d8cbdbb7 	stmiale	fp, {r0, r1, r2, r4, r5, r7, r8, r9, fp, ip, lr, pc}^
 8000de8:	d304d5e4 	movwle	sp, #17892	; 0x45e4
 8000dec:	cd59d02b 	ldclgt	0, cr13, [r9, #-172]	; 0xffffff54
 8000df0:	c7cdca8f 	strbgt	ip, [sp, pc, lsl #21]
 8000df4:	c264c514 	rsbgt	ip, r4, #20, 10	; 0x5000000
 8000df8:	bd21bfbd 	stclt	15, cr11, [r1, #-756]!	; 0xfffffd0c
 8000dfc:	b807ba8e 	stmdalt	r7, {r1, r2, r3, r7, r9, fp, ip, sp, pc}
 8000e00:	b319b58a 	tstlt	r9, #578813952	; 0x22800000
 8000e04:	ae5bb0b4 	mrcge	0, 2, fp, cr11, cr4, {5}
 8000e08:	a9cfac0f 	stmibge	pc, {r0, r1, r2, r3, sl, fp, sp, pc}^	; <UNPREDICTABLE>
 8000e0c:	a579a79d 	ldrbge	sl, [r9, #-1949]!	; 0xfffff863
 8000e10:	a15aa362 	cmpge	sl, r2, ror #6
 8000e14:	9d759f60 	ldclls	15, cr9, [r5, #-384]!	; 0xfffffe80
 8000e18:	99ce9b9a 	stmibls	lr, {r1, r3, r4, r7, r8, r9, fp, ip, pc}^
 8000e1c:	96659811 			; <UNDEFINED> instruction: 0x96659811
 8000e20:	933e94c9 	teqls	lr, #-922746880	; 0xc9000000
 8000e24:	905991c3 	subsls	r9, r9, r3, asr #3
 8000e28:	8dba8f01 	ldchi	15, cr8, [sl, #4]!
 8000e2c:	8b618c84 	blhi	9864044 <_etext+0x1863178>
 8000e30:	89508a4f 	ldmdbhi	r0, {r0, r1, r2, r3, r6, r9, fp, pc}^
 8000e34:	87888862 	strhi	r8, [r8, r2, ror #16]
 8000e38:	860a86bf 			; <UNDEFINED> instruction: 0x860a86bf
 8000e3c:	84d88567 	ldrbhi	r8, [r8], #1383	; 0x567
 8000e40:	83f1845b 	mvnshi	r8, #1526726656	; 0x5b000000
 8000e44:	8357839b 	cmphi	r7, #1811939330	; 0x6c000002
 8000e48:	830a8327 	movwhi	r8, #41767	; 0xa327
 8000e4c:	830a8300 	movwhi	r8, #41728	; 0xa300
 8000e50:	83578327 	cmphi	r7, #-1677721600	; 0x9c000000
 8000e54:	83f1839b 	mvnshi	r8, #1811939330	; 0x6c000002
 8000e58:	84d8845b 	ldrbhi	r8, [r8], #1115	; 0x45b
 8000e5c:	860a8567 	strhi	r8, [sl], -r7, ror #10
 8000e60:	878886bf 			; <UNDEFINED> instruction: 0x878886bf
 8000e64:	89508862 	ldmdbhi	r0, {r1, r5, r6, fp, pc}^
 8000e68:	8b618a4f 	blhi	98637ac <_etext+0x18628e0>
 8000e6c:	8dba8c84 	ldchi	12, cr8, [sl, #528]!	; 0x210
 8000e70:	90598f01 	subsls	r8, r9, r1, lsl #30
 8000e74:	933e91c3 	teqls	lr, #-1073741776	; 0xc0000030
 8000e78:	966594c9 	strbtls	r9, [r5], -r9, asr #9
 8000e7c:	99ce9811 	stmibls	lr, {r0, r4, fp, ip, pc}^
 8000e80:	9d759b9a 	vldmdbls	r5!, {d25-<overflow reg d37>}
 8000e84:	a15a9f60 	cmpge	sl, r0, ror #30
 8000e88:	a579a362 	ldrbge	sl, [r9, #-866]!	; 0xfffffc9e
 8000e8c:	a9cfa79d 	stmibge	pc, {r0, r2, r3, r4, r7, r8, r9, sl, sp, pc}^	; <UNPREDICTABLE>
 8000e90:	ae5bac0f 	cdpge	12, 5, cr10, cr11, cr15, {0}
 8000e94:	b319b0b4 	tstlt	r9, #180	; 0xb4
 8000e98:	b807b58a 	stmdalt	r7, {r1, r3, r7, r8, sl, ip, sp, pc}
 8000e9c:	bd21ba8e 	vstmdblt	r1!, {s22-s163}
 8000ea0:	c264bfbd 	rsbgt	fp, r4, #756	; 0x2f4
 8000ea4:	c7cdc514 	bfigt	ip, r4, #10, #4
 8000ea8:	cd59ca8f 	vldrgt	s25, [r9, #-572]	; 0xfffffdc4
 8000eac:	d304d02b 	movwle	sp, #16427	; 0x402b
 8000eb0:	d8cbd5e4 	stmiale	fp, {r2, r5, r6, r7, r8, sl, ip, lr, pc}^
 8000eb4:	deaadbb7 			; <UNDEFINED> instruction: 0xdeaadbb7
 8000eb8:	e49de1a1 	ldr	lr, [sp], #417	; 0x1a1
 8000ebc:	eaa2e79e 	b	68bad3c <__Stack_Size+0x68ba93c>
 8000ec0:	f0b3eda9 			; <UNDEFINED> instruction: 0xf0b3eda9
 8000ec4:	f6cef3c0 			; <UNDEFINED> instruction: 0xf6cef3c0
 8000ec8:	fceff9de 	stc2l	9, cr15, [pc], #444	; 800108c <_etext+0x1c0>	; <UNPREDICTABLE>

Disassembly of section .data:

20000000 <lastaddr>:
20000000:	00000040 	andeq	r0, r0, r0, asr #32

Disassembly of section .bss:

20000004 <ep0_buf>:
20000004:	00000000 	andeq	r0, r0, r0

20000008 <USB_Addr>:
	...

2000000a <ep0_count>:
	...

2000000c <setup_packet>:
	...

20000014 <bytesread.4423>:
	...

20000016 <configuration>:
	...

20000018 <interface>:
uint8_t interface[3] = {0,0,0};
20000018:	00000000 	andeq	r0, r0, r0

2000001c <count>:
volatile uint16_t count = 0;
2000001c:	00000000 	andeq	r0, r0, r0

20000020 <cnt.5194>:
20000020:	00000000 	andeq	r0, r0, r0

20000024 <epfunc_in>:
	...

20000044 <epfunc_out>:
	...

Disassembly of section ._usrstack:

20000064 <_susrstack>:
	...

Disassembly of section .comment:

00000000 <.comment>:
   0:	3a434347 	bcc	10d0d24 <__Stack_Size+0x10d0924>
   4:	35312820 	ldrcc	r2, [r1, #-2080]!	; 0xfffff7e0
   8:	322d383a 	eorcc	r3, sp, #3801088	; 0x3a0000
   c:	2d393130 	ldfcss	f3, [r9, #-192]!	; 0xffffff40
  10:	312d3371 			; <UNDEFINED> instruction: 0x312d3371
  14:	2e382029 	cdpcs	0, 3, cr2, cr8, cr9, {1}
  18:	20312e33 	eorscs	r2, r1, r3, lsr lr
  1c:	39313032 	ldmdbcc	r1!, {r1, r4, r5, ip, sp}
  20:	33303730 	teqcc	r0, #48, 14	; 0xc00000
  24:	65722820 	ldrbvs	r2, [r2, #-2080]!	; 0xfffff7e0
  28:	7361656c 	cmnvc	r1, #108, 10	; 0x1b000000
  2c:	5b202965 	blpl	80a5c8 <__Stack_Size+0x80a1c8>
  30:	2d636367 	stclcs	3, cr6, [r3, #-412]!	; 0xfffffe64
  34:	72622d38 	rsbvc	r2, r2, #56, 26	; 0xe00
  38:	68636e61 	stmdavs	r3!, {r0, r5, r6, r9, sl, fp, sp, lr}^
  3c:	76657220 	strbtvc	r7, [r5], -r0, lsr #4
  40:	6f697369 	svcvs	0x00697369
  44:	3732206e 	ldrcc	r2, [r2, -lr, rrx]!
  48:	37323033 			; <UNDEFINED> instruction: 0x37323033
  4c:	Address 0x000000000000004c is out of bounds.


Disassembly of section .ARM.attributes:

00000000 <.ARM.attributes>:
   0:	00002e41 	andeq	r2, r0, r1, asr #28
   4:	61656100 	cmnvs	r5, r0, lsl #2
   8:	01006962 	tsteq	r0, r2, ror #18
   c:	00000024 	andeq	r0, r0, r4, lsr #32
  10:	726f4305 	rsbvc	r4, pc, #335544320	; 0x14000000
  14:	2d786574 	cfldr64cs	mvdx6, [r8, #-464]!	; 0xfffffe30
  18:	0600334d 	streq	r3, [r0], -sp, asr #6
  1c:	094d070a 	stmdbeq	sp, {r1, r3, r8, r9, sl}^
  20:	14041202 	strne	r1, [r4], #-514	; 0xfffffdfe
  24:	17011501 	strne	r1, [r1, -r1, lsl #10]
  28:	1a011803 	bne	4603c <__Stack_Size+0x45c3c>
  2c:	Address 0x000000000000002c is out of bounds.


Disassembly of section .debug_aranges:

00000000 <.debug_aranges>:
   0:	00000024 	andeq	r0, r0, r4, lsr #32
   4:	00000002 	andeq	r0, r0, r2
   8:	00040000 	andeq	r0, r4, r0
   c:	00000000 	andeq	r0, r0, r0
  10:	08000120 	stmdaeq	r0, {r5, r8}
  14:	000000bc 	strheq	r0, [r0], -ip
  18:	08000b40 	stmdaeq	r0, {r6, r8, r9, fp}
  1c:	0000007c 	andeq	r0, r0, ip, ror r0
	...
  28:	0000001c 	andeq	r0, r0, ip, lsl r0
  2c:	053e0002 	ldreq	r0, [lr, #-2]!
  30:	00040000 	andeq	r0, r4, r0
  34:	00000000 	andeq	r0, r0, r0
  38:	080001dc 	stmdaeq	r0, {r2, r3, r4, r6, r7, r8}
  3c:	000005fc 	strdeq	r0, [r0], -ip
	...
  48:	0000001c 	andeq	r0, r0, ip, lsl r0
  4c:	17dd0002 	ldrbne	r0, [sp, r2]
  50:	00040000 	andeq	r0, r4, r0
  54:	00000000 	andeq	r0, r0, r0
  58:	080007d8 	stmdaeq	r0, {r3, r4, r6, r7, r8, r9, sl}
  5c:	00000232 	andeq	r0, r0, r2, lsr r2
	...
  68:	0000001c 	andeq	r0, r0, ip, lsl r0
  6c:	31bb0002 			; <UNDEFINED> instruction: 0x31bb0002
  70:	00040000 	andeq	r0, r4, r0
  74:	00000000 	andeq	r0, r0, r0
  78:	08000a0c 	stmdaeq	r0, {r2, r3, r9, fp}
  7c:	000000ec 	andeq	r0, r0, ip, ror #1
	...

Disassembly of section .debug_info:

00000000 <.debug_info>:
       0:	0000053a 	andeq	r0, r0, sl, lsr r5
       4:	00000002 	andeq	r0, r0, r2
       8:	01040000 	mrseq	r0, (UNDEF: 4)
       c:	00000012 	andeq	r0, r0, r2, lsl r0
      10:	0001db0c 	andeq	sp, r1, ip, lsl #22
      14:	00010400 	andeq	r0, r1, r0, lsl #8
      18:	00005800 	andeq	r5, r0, r0, lsl #16
	...
      28:	06010200 	streq	r0, [r1], -r0, lsl #4
      2c:	00000155 	andeq	r0, r0, r5, asr r1
      30:	0001a603 	andeq	sl, r1, r3, lsl #12
      34:	17220400 	strne	r0, [r2, -r0, lsl #8]!
      38:	00000029 	andeq	r0, r0, r9, lsr #32
      3c:	f4050202 	vst1.8	{d0-d3}, [r5], r2
      40:	02000001 	andeq	r0, r0, #1
      44:	01c20504 	biceq	r0, r2, r4, lsl #10
      48:	08020000 	stmdaeq	r2, {}	; <UNPREDICTABLE>
      4c:	0001bd05 	andeq	fp, r1, r5, lsl #26
      50:	01a50300 			; <UNDEFINED> instruction: 0x01a50300
      54:	2e040000 	cdpcs	0, 0, cr0, cr4, cr0, {0}
      58:	00006218 	andeq	r6, r0, r8, lsl r2
      5c:	00510400 	subseq	r0, r1, r0, lsl #8
      60:	01020000 	mrseq	r0, (UNDEF: 2)
      64:	00015308 	andeq	r5, r1, r8, lsl #6
      68:	07020200 	streq	r0, [r2, -r0, lsl #4]
      6c:	0000012b 	andeq	r0, r0, fp, lsr #2
      70:	00020a03 	andeq	r0, r2, r3, lsl #20
      74:	19340400 	ldmdbne	r4!, {sl}
      78:	00000081 	andeq	r0, r0, r1, lsl #1
      7c:	00007005 	andeq	r7, r0, r5
      80:	07040200 	streq	r0, [r4, -r0, lsl #4]
      84:	00000193 	muleq	r0, r3, r1
      88:	8e070802 	cdphi	8, 0, cr0, cr7, cr2, {0}
      8c:	06000001 	streq	r0, [r0], -r1
      90:	6e690504 	cdpvs	5, 6, cr0, cr9, cr4, {0}
      94:	8f050074 	svchi	0x00050074
      98:	02000000 	andeq	r0, r0, #0
      9c:	01980704 	orrseq	r0, r8, r4, lsl #14
      a0:	3e070000 	cdpcc	0, 0, cr0, cr7, cr0, {0}
      a4:	03000001 	movweq	r0, #1
      a8:	961506ce 	ldrls	r0, [r5], -lr, asr #13
      ac:	01000000 	mrseq	r0, (UNDEF: 0)
      b0:	01cb0801 	biceq	r0, fp, r1, lsl #16
      b4:	45050000 	strmi	r0, [r5, #-0]
      b8:	00007011 	andeq	r7, r0, r1, lsl r0
      bc:	09010100 	stmdbeq	r1, {r8}
      c0:	0000005d 	andeq	r0, r0, sp, asr r0
      c4:	000000cf 	andeq	r0, r0, pc, asr #1
      c8:	00009b0a 	andeq	r9, r0, sl, lsl #22
      cc:	04000f00 	streq	r0, [r0], #-3840	; 0xfffff100
      d0:	000000bf 	strheq	r0, [r0], -pc	; <UNPREDICTABLE>
      d4:	0000f608 	andeq	pc, r0, r8, lsl #12
      d8:	17460500 	strbne	r0, [r6, -r0, lsl #10]
      dc:	000000cf 	andeq	r0, r0, pc, asr #1
      e0:	5d090101 	stfpls	f0, [r9, #-4]
      e4:	f2000000 	vhadd.s8	d0, d0, d0
      e8:	0a000000 	beq	f0 <_Minimum_Stack_Size-0x10>
      ec:	0000009b 	muleq	r0, fp, r0
      f0:	e2040007 	and	r0, r4, #7
      f4:	08000000 	stmdaeq	r0, {}	; <UNPREDICTABLE>
      f8:	000001e6 	andeq	r0, r0, r6, ror #3
      fc:	f2174705 	vabd.s16	d4, d7, d5
     100:	01000000 	mrseq	r0, (UNDEF: 0)
     104:	06240b01 	strteq	r0, [r4], -r1, lsl #22
     108:	9d090158 	stflss	f0, [r9, #-352]	; 0xfffffea0
     10c:	0c000001 	stceq	0, cr0, [r0], {1}
     110:	00524341 	subseq	r4, r2, r1, asr #6
     114:	11015a06 	tstne	r1, r6, lsl #20
     118:	0000007c 	andeq	r0, r0, ip, ror r0
     11c:	0d002302 	stceq	3, cr2, [r0, #-8]
     120:	0000014e 	andeq	r0, r0, lr, asr #2
     124:	11015b06 	tstne	r1, r6, lsl #22
     128:	0000007c 	andeq	r0, r0, ip, ror r0
     12c:	0d042302 	stceq	3, cr2, [r4, #-8]
     130:	0000014b 	andeq	r0, r0, fp, asr #2
     134:	11015c06 	tstne	r1, r6, lsl #24
     138:	0000007c 	andeq	r0, r0, ip, ror r0
     13c:	0c082302 	stceq	3, cr2, [r8], {2}
     140:	06005253 			; <UNDEFINED> instruction: 0x06005253
     144:	7c11015d 	ldfvcs	f0, [r1], {93}	; 0x5d
     148:	02000000 	andeq	r0, r0, #0
     14c:	430c0c23 	movwmi	r0, #52259	; 0xcc23
     150:	5e060052 	mcrpl	0, 0, r0, cr6, cr2, {2}
     154:	007c1101 	rsbseq	r1, ip, r1, lsl #2
     158:	23020000 	movwcs	r0, #8192	; 0x2000
     15c:	52410c10 	subpl	r0, r1, #16, 24	; 0x1000
     160:	015f0600 	cmpeq	pc, r0, lsl #12
     164:	00007c11 	andeq	r7, r0, r1, lsl ip
     168:	14230200 	strtne	r0, [r3], #-512	; 0xfffffe00
     16c:	0001610d 	andeq	r6, r1, sp, lsl #2
     170:	01600600 	cmneq	r0, r0, lsl #12
     174:	00007c11 	andeq	r7, r0, r1, lsl ip
     178:	18230200 	stmdane	r3!, {r9}
     17c:	52424f0c 	subpl	r4, r2, #12, 30	; 0x30
     180:	01610600 	cmneq	r1, r0, lsl #12
     184:	00007c11 	andeq	r7, r0, r1, lsl ip
     188:	1c230200 	sfmne	f0, 4, [r3], #-0
     18c:	0000c90d 	andeq	ip, r0, sp, lsl #18
     190:	01620600 	cmneq	r2, r0, lsl #12
     194:	00007c11 	andeq	r7, r0, r1, lsl ip
     198:	20230200 	eorcs	r0, r3, r0, lsl #4
     19c:	00a50e00 	adceq	r0, r5, r0, lsl #28
     1a0:	63060000 	movwvs	r0, #24576	; 0x6000
     1a4:	01050301 	tsteq	r5, r1, lsl #6
     1a8:	1c0b0000 	stcne	0, cr0, [fp], {-0}
     1ac:	09017906 	stmdbeq	r1, {r1, r2, r8, fp, ip, sp, lr}
     1b0:	00000225 	andeq	r0, r0, r5, lsr #4
     1b4:	4c52430c 	mrrcmi	3, 0, r4, r2, cr12
     1b8:	017b0600 	cmneq	fp, r0, lsl #12
     1bc:	00007c11 	andeq	r7, r0, r1, lsl ip
     1c0:	00230200 	eoreq	r0, r3, r0, lsl #4
     1c4:	4852430c 	ldmdami	r2, {r2, r3, r8, r9, lr}^
     1c8:	017c0600 	cmneq	ip, r0, lsl #12
     1cc:	00007c11 	andeq	r7, r0, r1, lsl ip
     1d0:	04230200 	strteq	r0, [r3], #-512	; 0xfffffe00
     1d4:	5244490c 	subpl	r4, r4, #12, 18	; 0x30000
     1d8:	017d0600 	cmneq	sp, r0, lsl #12
     1dc:	00007c11 	andeq	r7, r0, r1, lsl ip
     1e0:	08230200 	stmdaeq	r3!, {r9}
     1e4:	52444f0c 	subpl	r4, r4, #12, 30	; 0x30
     1e8:	017e0600 	cmneq	lr, r0, lsl #12
     1ec:	00007c11 	andeq	r7, r0, r1, lsl ip
     1f0:	0c230200 	sfmeq	f0, 4, [r3], #-0
     1f4:	0000b30d 	andeq	fp, r0, sp, lsl #6
     1f8:	017f0600 	cmneq	pc, r0, lsl #12
     1fc:	00007c11 	andeq	r7, r0, r1, lsl ip
     200:	10230200 	eorne	r0, r3, r0, lsl #4
     204:	5252420c 	subspl	r4, r2, #12, 4	; 0xc0000000
     208:	01800600 	orreq	r0, r0, r0, lsl #12
     20c:	00007c11 	andeq	r7, r0, r1, lsl ip
     210:	14230200 	strtne	r0, [r3], #-512	; 0xfffffe00
     214:	0002260d 	andeq	r2, r2, sp, lsl #12
     218:	01810600 	orreq	r0, r1, r0, lsl #12
     21c:	00007c11 	andeq	r7, r0, r1, lsl ip
     220:	18230200 	stmdane	r3!, {r9}
     224:	00da0e00 	sbcseq	r0, sl, r0, lsl #28
     228:	82060000 	andhi	r0, r6, #0
     22c:	01aa0301 			; <UNDEFINED> instruction: 0x01aa0301
     230:	280b0000 	stmdacs	fp, {}	; <UNPREDICTABLE>
     234:	0901bb06 	stmdbeq	r1, {r1, r2, r8, r9, fp, ip, sp, pc}
     238:	000002dc 	ldrdeq	r0, [r0], -ip
     23c:	0052430c 	subseq	r4, r2, ip, lsl #6
     240:	1101bd06 	tstne	r1, r6, lsl #26
     244:	0000007c 	andeq	r0, r0, ip, ror r0
     248:	0d002302 	stceq	3, cr2, [r0, #-8]
     24c:	0000000d 	andeq	r0, r0, sp
     250:	1101be06 	tstne	r1, r6, lsl #28
     254:	0000007c 	andeq	r0, r0, ip, ror r0
     258:	0c042302 	stceq	3, cr2, [r4], {2}
     25c:	00524943 	subseq	r4, r2, r3, asr #18
     260:	1101bf06 	tstne	r1, r6, lsl #30
     264:	0000007c 	andeq	r0, r0, ip, ror r0
     268:	0d082302 	stceq	3, cr2, [r8, #-8]
     26c:	00000180 	andeq	r0, r0, r0, lsl #3
     270:	1101c006 	tstne	r1, r6
     274:	0000007c 	andeq	r0, r0, ip, ror r0
     278:	0d0c2302 	stceq	3, cr2, [ip, #-8]
     27c:	0000016a 	andeq	r0, r0, sl, ror #2
     280:	1101c106 	tstne	r1, r6, lsl #2
     284:	0000007c 	andeq	r0, r0, ip, ror r0
     288:	0d102302 	ldceq	3, cr2, [r0, #-8]
     28c:	000000b8 	strheq	r0, [r0], -r8
     290:	1101c206 	tstne	r1, r6, lsl #4
     294:	0000007c 	andeq	r0, r0, ip, ror r0
     298:	0d142302 	ldceq	3, cr2, [r4, #-8]
     29c:	00000000 	andeq	r0, r0, r0
     2a0:	1101c306 	tstne	r1, r6, lsl #6
     2a4:	0000007c 	andeq	r0, r0, ip, ror r0
     2a8:	0d182302 	ldceq	3, cr2, [r8, #-8]
     2ac:	00000178 	andeq	r0, r0, r8, ror r1
     2b0:	1101c406 	tstne	r1, r6, lsl #8
     2b4:	0000007c 	andeq	r0, r0, ip, ror r0
     2b8:	0d1c2302 	ldceq	3, cr2, [ip, #-8]
     2bc:	00000008 	andeq	r0, r0, r8
     2c0:	1101c506 	tstne	r1, r6, lsl #10
     2c4:	0000007c 	andeq	r0, r0, ip, ror r0
     2c8:	0c202302 	stceq	3, cr2, [r0], #-8
     2cc:	00525343 	subseq	r5, r2, r3, asr #6
     2d0:	1101c606 	tstne	r1, r6, lsl #12
     2d4:	0000007c 	andeq	r0, r0, ip, ror r0
     2d8:	00242302 	eoreq	r2, r4, r2, lsl #6
     2dc:	0001fe0e 	andeq	pc, r1, lr, lsl #28
     2e0:	01c90600 	biceq	r0, r9, r0, lsl #12
     2e4:	00023203 	andeq	r3, r2, r3, lsl #4
     2e8:	73010f00 	movwvc	r0, #7936	; 0x1f00
     2ec:	02000001 	andeq	r0, r0, #1
     2f0:	8f01050e 	svchi	0x0001050e
     2f4:	40000000 	andmi	r0, r0, r0
     2f8:	bc08000b 	stclt	0, cr0, [r8], {11}
     2fc:	0008000b 	andeq	r0, r8, fp
     300:	01000000 	mrseq	r0, (UNDEF: 0)
     304:	00000445 	andeq	r0, r0, r5, asr #8
     308:	00002010 	andeq	r2, r0, r0, lsl r0
     30c:	00032600 	andeq	r2, r3, r0, lsl #12
     310:	01891100 	orreq	r1, r9, r0, lsl #2
     314:	12020000 	andne	r0, r2, #0
     318:	00007003 	andeq	r7, r0, r3
     31c:	00002400 	andeq	r2, r0, r0, lsl #8
     320:	00002000 	andeq	r2, r0, r0
     324:	38120000 	ldmdacc	r2, {}	; <UNPREDICTABLE>
     328:	13000003 	movwne	r0, #3
     32c:	00000189 	andeq	r0, r0, r9, lsl #3
     330:	70031202 	andvc	r1, r3, r2, lsl #4
     334:	00000000 	andeq	r0, r0, r0
     338:	000b6214 	andeq	r6, fp, r4, lsl r2
     33c:	000b6e08 	andeq	r6, fp, r8, lsl #28
     340:	00035a08 	andeq	r5, r3, r8, lsl #20
     344:	01891100 	orreq	r1, r9, r0, lsl #2
     348:	12020000 	andne	r0, r2, #0
     34c:	00007016 	andeq	r7, r0, r6, lsl r0
     350:	00004700 	andeq	r4, r0, r0, lsl #14
     354:	00004300 	andeq	r4, r0, r0, lsl #6
     358:	6c120000 	ldcvs	0, cr0, [r2], {-0}
     35c:	13000003 	movwne	r0, #3
     360:	00000189 	andeq	r0, r0, r9, lsl #3
     364:	70161202 	andsvc	r1, r6, r2, lsl #4
     368:	00000000 	andeq	r0, r0, r0
     36c:	000b6e14 	andeq	r6, fp, r4, lsl lr
     370:	000b7a08 	andeq	r7, fp, r8, lsl #20
     374:	00038e08 	andeq	r8, r3, r8, lsl #28
     378:	01891100 	orreq	r1, r9, r0, lsl #2
     37c:	12020000 	andne	r0, r2, #0
     380:	00007029 	andeq	r7, r0, r9, lsr #32
     384:	00006a00 	andeq	r6, r0, r0, lsl #20
     388:	00006600 	andeq	r6, r0, r0, lsl #12
     38c:	a0120000 	andsge	r0, r2, r0
     390:	13000003 	movwne	r0, #3
     394:	00000189 	andeq	r0, r0, r9, lsl #3
     398:	70291202 	eorvc	r1, r9, r2, lsl #4
     39c:	00000000 	andeq	r0, r0, r0
     3a0:	0003b212 	andeq	fp, r3, r2, lsl r2
     3a4:	01891300 	orreq	r1, r9, r0, lsl #6
     3a8:	13020000 	movwne	r0, #8192	; 0x2000
     3ac:	00007003 	andeq	r7, r0, r3
     3b0:	40100000 	andsmi	r0, r0, r0
     3b4:	d0000000 	andle	r0, r0, r0
     3b8:	11000003 	tstne	r0, r3
     3bc:	00000189 	andeq	r0, r0, r9, lsl #3
     3c0:	70031302 	andvc	r1, r3, r2, lsl #6
     3c4:	8d000000 	stchi	0, cr0, [r0, #-0]
     3c8:	89000000 	stmdbhi	r0, {}	; <UNPREDICTABLE>
     3cc:	00000000 	andeq	r0, r0, r0
     3d0:	0003e212 	andeq	lr, r3, r2, lsl r2
     3d4:	01891300 	orreq	r1, r9, r0, lsl #6
     3d8:	13020000 	movwne	r0, #8192	; 0x2000
     3dc:	00007016 	andeq	r7, r0, r6, lsl r0
     3e0:	86140000 	ldrhi	r0, [r4], -r0
     3e4:	9208000b 	andls	r0, r8, #11
     3e8:	0408000b 	streq	r0, [r8], #-11
     3ec:	11000004 	tstne	r0, r4
     3f0:	00000189 	andeq	r0, r0, r9, lsl #3
     3f4:	70161302 	andsvc	r1, r6, r2, lsl #6
     3f8:	ae000000 	cdpge	0, 0, cr0, cr0, cr0, {0}
     3fc:	ac000000 	stcge	0, cr0, [r0], {-0}
     400:	00000000 	andeq	r0, r0, r0
     404:	0004bd15 	andeq	fp, r4, r5, lsl sp
     408:	000b9600 	andeq	r9, fp, r0, lsl #12
     40c:	0b960108 	bleq	fe580834 <BootRAM+0xd4f0fd5>
     410:	0b980800 	bleq	fe602418 <BootRAM+0xd572bb9>
     414:	16020800 	strne	r0, [r2], -r0, lsl #16
     418:	0b461603 	bleq	1185c2c <__Stack_Size+0x118582c>
     41c:	04940800 	ldreq	r0, [r4], #2048	; 0x800
     420:	96160000 	ldrls	r0, [r6], -r0
     424:	2108000b 	tstcs	r8, fp
     428:	16000005 	strne	r0, [r0], -r5
     42c:	08000b9e 	stmdaeq	r0, {r1, r2, r3, r4, r7, r8, r9, fp}
     430:	0000052f 	andeq	r0, r0, pc, lsr #10
     434:	000bac17 	andeq	sl, fp, r7, lsl ip
     438:	00044508 	andeq	r4, r4, r8, lsl #10
     43c:	50011800 	andpl	r1, r1, r0, lsl #16
     440:	00007502 	andeq	r7, r0, r2, lsl #10
     444:	20011900 	andcs	r1, r1, r0, lsl #18
     448:	02000002 	andeq	r0, r0, #2
     44c:	d001060a 	andle	r0, r1, sl, lsl #12
     450:	dc080001 	stcle	0, cr0, [r8], {1}
     454:	02080001 	andeq	r0, r8, #1
     458:	7401007d 	strvc	r0, [r1], #-125	; 0xffffff83
     45c:	1a000004 	bne	474 <__Stack_Size+0x74>
     460:	000001ad 	andeq	r0, r0, sp, lsr #3
     464:	70150a02 	andsvc	r0, r5, r2, lsl #20
     468:	c7000000 	strgt	r0, [r0, -r0]
     46c:	c1000000 	mrsgt	r0, (UNDEF: 0)
     470:	00000000 	andeq	r0, r0, r0
     474:	01b2011b 			; <UNDEFINED> instruction: 0x01b2011b
     478:	08020000 	stmdaeq	r2, {}	; <UNPREDICTABLE>
     47c:	01ce011c 	biceq	r0, lr, ip, lsl r1
     480:	01d00800 	bicseq	r0, r0, r0, lsl #16
     484:	7d020800 	stcvc	8, cr0, [r2, #-0]
     488:	011c0100 	tsteq	ip, r0, lsl #2
     48c:	00000645 	andeq	r0, r0, r5, asr #12
     490:	011c0702 	tsteq	ip, r2, lsl #14
     494:	00ce011d 	sbceq	r0, lr, sp, lsl r1
     498:	0d010000 	stceq	0, cr0, [r1, #-0]
     49c:	00003008 	andeq	r3, r0, r8
     4a0:	04bd0100 	ldrteq	r0, [sp], #256	; 0x100
     4a4:	691e0000 	ldmdbvs	lr, {}	; <UNPREDICTABLE>
     4a8:	070e0100 	streq	r0, [lr, -r0, lsl #2]
     4ac:	0000008f 	andeq	r0, r0, pc, lsl #1
     4b0:	706d741e 	rsbvc	r7, sp, lr, lsl r4
     4b4:	0c0f0100 	stfeqs	f0, [pc], {-0}
     4b8:	00000070 	andeq	r0, r0, r0, ror r0
     4bc:	02131f00 	andseq	r1, r3, #0, 30
     4c0:	b4030000 	strlt	r0, [r3], #-0
     4c4:	20031604 	andcs	r1, r3, r4, lsl #12
     4c8:	00000494 	muleq	r0, r4, r4
     4cc:	08000120 	stmdaeq	r0, {r5, r8}
     4d0:	080001cc 	stmdaeq	r0, {r2, r3, r6, r7, r8}
     4d4:	01007d02 	tsteq	r0, r2, lsl #26
     4d8:	00000521 	andeq	r0, r0, r1, lsr #10
     4dc:	0004a621 	andeq	sl, r4, r1, lsr #12
     4e0:	0000fc00 	andeq	pc, r0, r0, lsl #24
     4e4:	0000f200 	andeq	pc, r0, r0, lsl #4
     4e8:	04b02200 	ldrteq	r2, [r0], #512	; 0x200
     4ec:	94230000 	strtls	r0, [r3], #-0
     4f0:	72000004 	andvc	r0, r0, #4
     4f4:	02080001 	andeq	r0, r8, #1
     4f8:	00000000 	andeq	r0, r0, r0
     4fc:	24080d01 	strcs	r0, [r8], #-3329	; 0xfffff2ff
     500:	00000000 	andeq	r0, r0, r0
     504:	0004a621 	andeq	sl, r4, r1, lsr #12
     508:	00016500 	andeq	r6, r1, r0, lsl #10
     50c:	00015100 	andeq	r5, r1, r0, lsl #2
     510:	04b02100 	ldrteq	r2, [r0], #256	; 0x100
     514:	02220000 	eoreq	r0, r2, #0
     518:	020a0000 	andeq	r0, sl, #0
     51c:	00000000 	andeq	r0, r0, r0
     520:	01012500 	tsteq	r1, r0, lsl #10
     524:	000000bf 	strheq	r0, [r0], -pc	; <UNPREDICTABLE>
     528:	000000bf 	strheq	r0, [r0], -pc	; <UNPREDICTABLE>
     52c:	25062407 	strcs	r2, [r6, #-1031]	; 0xfffffbf9
     530:	00e70101 	rsceq	r0, r7, r1, lsl #2
     534:	00e70000 	rsceq	r0, r7, r0
     538:	42070000 	andmi	r0, r7, #0
     53c:	129b0006 	addsne	r0, fp, #6
     540:	00020000 	andeq	r0, r2, r0
     544:	00000237 	andeq	r0, r0, r7, lsr r2
     548:	00120104 	andseq	r0, r2, r4, lsl #2
     54c:	500c0000 	andpl	r0, ip, r0
     550:	04000005 	streq	r0, [r0], #-5
     554:	dc000001 	stcle	0, cr0, [r0], {1}
     558:	d8080001 	stmdale	r8, {r0}
     55c:	a5080007 	strge	r0, [r8, #-7]
     560:	02000002 	andeq	r0, r0, #2
     564:	01550601 	cmpeq	r5, r1, lsl #12
     568:	02020000 	andeq	r0, r2, #0
     56c:	0001f405 	andeq	pc, r1, r5, lsl #8
     570:	05040200 	streq	r0, [r4, #-512]	; 0xfffffe00
     574:	000001c2 	andeq	r0, r0, r2, asr #3
     578:	bd050802 	stclt	8, cr0, [r5, #-8]
     57c:	03000001 	movweq	r0, #1
     580:	000001a5 	andeq	r0, r0, r5, lsr #3
     584:	57182e04 	ldrpl	r2, [r8, -r4, lsl #28]
     588:	04000000 	streq	r0, [r0], #-0
     58c:	00000041 	andeq	r0, r0, r1, asr #32
     590:	00004105 	andeq	r4, r0, r5, lsl #2
     594:	08010200 	stmdaeq	r1, {r9}
     598:	00000153 	andeq	r0, r0, r3, asr r1
     59c:	00058a03 	andeq	r8, r5, r3, lsl #20
     5a0:	19310400 	ldmdbne	r1!, {sl}
     5a4:	0000006f 	andeq	r0, r0, pc, rrx
     5a8:	00005e04 	andeq	r5, r0, r4, lsl #28
     5ac:	07020200 	streq	r0, [r2, -r0, lsl #4]
     5b0:	0000012b 	andeq	r0, r0, fp, lsr #2
     5b4:	00020a03 	andeq	r0, r2, r3, lsl #20
     5b8:	19340400 	ldmdbne	r4!, {sl}
     5bc:	00000087 	andeq	r0, r0, r7, lsl #1
     5c0:	00007604 	andeq	r7, r0, r4, lsl #12
     5c4:	07040200 	streq	r0, [r4, -r0, lsl #4]
     5c8:	00000193 	muleq	r0, r3, r1
     5cc:	8e070802 	cdphi	8, 0, cr0, cr7, cr2, {0}
     5d0:	06000001 	streq	r0, [r0], -r1
     5d4:	6e690504 	cdpvs	5, 6, cr0, cr9, cr4, {0}
     5d8:	95040074 	strls	r0, [r4, #-116]	; 0xffffff8c
     5dc:	02000000 	andeq	r0, r0, #0
     5e0:	01980704 	orrseq	r0, r8, r4, lsl #14
     5e4:	1d030000 	stcne	0, cr0, [r3, #-0]
     5e8:	03000005 	movweq	r0, #5
     5ec:	00b40f1a 	adcseq	r0, r4, sl, lsl pc
     5f0:	04070000 	streq	r0, [r7], #-0
     5f4:	000000ba 	strheq	r0, [r0], -sl
     5f8:	00c60108 	sbceq	r0, r6, r8, lsl #2
     5fc:	41090000 	mrsmi	r0, (UNDEF: 9)
     600:	00000000 	andeq	r0, r0, r0
     604:	1b03080a 	blne	c2634 <__Stack_Size+0xc2234>
     608:	00011b09 	andeq	r1, r1, r9, lsl #22
     60c:	02a40b00 	adceq	r0, r4, #0, 22
     610:	1c030000 	stcne	0, cr0, [r3], {-0}
     614:	0000410b 	andeq	r4, r0, fp, lsl #2
     618:	00230200 	eoreq	r0, r3, r0, lsl #4
     61c:	0006890b 	andeq	r8, r6, fp, lsl #18
     620:	0b1d0300 	bleq	741228 <__Stack_Size+0x740e28>
     624:	00000041 	andeq	r0, r0, r1, asr #32
     628:	0b012302 	bleq	49238 <__Stack_Size+0x48e38>
     62c:	00000327 	andeq	r0, r0, r7, lsr #6
     630:	5e0c1e03 	cdppl	14, 0, cr1, cr12, cr3, {0}
     634:	02000000 	andeq	r0, r0, #0
     638:	400b0223 	andmi	r0, fp, r3, lsr #4
     63c:	03000002 	movweq	r0, #2
     640:	005e0c1f 	subseq	r0, lr, pc, lsl ip
     644:	23020000 	movwcs	r0, #8192	; 0x2000
     648:	065f0b04 	ldrbeq	r0, [pc], -r4, lsl #22
     64c:	20030000 	andcs	r0, r3, r0
     650:	00005e0c 	andeq	r5, r0, ip, lsl #28
     654:	06230200 	strteq	r0, [r3], -r0, lsl #4
     658:	06fc0300 	ldrbteq	r0, [ip], r0, lsl #6
     65c:	21030000 	mrscs	r0, (UNDEF: 3)
     660:	0000c602 	andeq	ip, r0, r2, lsl #12
     664:	01050c00 	tsteq	r5, r0, lsl #24
     668:	00000025 	andeq	r0, r0, r5, lsr #32
     66c:	6e015805 	cdpvs	8, 0, cr5, cr1, cr5, {0}
     670:	0d000002 	stceq	0, cr0, [r0, #-8]
     674:	0000064b 	andeq	r0, r0, fp, asr #12
     678:	07dd0d72 			; <UNDEFINED> instruction: 0x07dd0d72
     67c:	0d730000 	ldcleq	0, cr0, [r3, #-0]
     680:	0000032e 	andeq	r0, r0, lr, lsr #6
     684:	04ec0d74 	strbteq	r0, [ip], #3444	; 0xd74
     688:	0d750000 	ldcleq	0, cr0, [r5, #-0]
     68c:	00000736 	andeq	r0, r0, r6, lsr r7
     690:	077d0d76 			; <UNDEFINED> instruction: 0x077d0d76
     694:	0d7b0000 	ldcleq	0, cr0, [fp, #-0]
     698:	00000724 	andeq	r0, r0, r4, lsr #14
     69c:	03120d7c 	tsteq	r2, #124, 26	; 0x1f00
     6a0:	0d7e0000 	ldcleq	0, cr0, [lr, #-0]
     6a4:	000006c0 	andeq	r0, r0, r0, asr #13
     6a8:	04c80e7f 	strbeq	r0, [r8], #3711	; 0xe7f
     6ac:	0e000000 	cdpeq	0, 0, cr0, cr0, cr0, {0}
     6b0:	00000514 	andeq	r0, r0, r4, lsl r5
     6b4:	08280e01 	stmdaeq	r8!, {r0, r9, sl, fp}
     6b8:	0e020000 	cdpeq	0, 0, cr0, cr2, cr0, {0}
     6bc:	000005c1 	andeq	r0, r0, r1, asr #11
     6c0:	02bf0e03 	adcseq	r0, pc, #3, 28	; 0x30
     6c4:	0e040000 	cdpeq	0, 0, cr0, cr4, cr0, {0}
     6c8:	0000031e 	andeq	r0, r0, lr, lsl r3
     6cc:	02d40e05 	sbcseq	r0, r4, #5, 28	; 0x50
     6d0:	0e060000 	cdpeq	0, 0, cr0, cr6, cr0, {0}
     6d4:	0000067e 	andeq	r0, r0, lr, ror r6
     6d8:	044d0e07 	strbeq	r0, [sp], #-3591	; 0xfffff1f9
     6dc:	0e080000 	cdpeq	0, 0, cr0, cr8, cr0, {0}
     6e0:	000007cb 	andeq	r0, r0, fp, asr #15
     6e4:	04fa0e09 	ldrbteq	r0, [sl], #3593	; 0xe09
     6e8:	0e0a0000 	cdpeq	0, 0, cr0, cr10, cr0, {0}
     6ec:	000004a1 	andeq	r0, r0, r1, lsr #9
     6f0:	02850e0b 	addeq	r0, r5, #11, 28	; 0xb0
     6f4:	0e0c0000 	cdpeq	0, 0, cr0, cr12, cr0, {0}
     6f8:	0000053d 	andeq	r0, r0, sp, lsr r5
     6fc:	03870e0d 	orreq	r0, r7, #13, 28	; 0xd0
     700:	0e0e0000 	cdpeq	0, 0, cr0, cr14, cr0, {0}
     704:	000007a9 	andeq	r0, r0, r9, lsr #15
     708:	04770e0f 	ldrbteq	r0, [r7], #-3599	; 0xfffff1f1
     70c:	0e100000 	cdpeq	0, 1, cr0, cr0, cr0, {0}
     710:	0000025b 	andeq	r0, r0, fp, asr r2
     714:	08060e11 	stmdaeq	r6, {r0, r4, r9, sl, fp}
     718:	0e120000 	cdpeq	0, 1, cr0, cr2, cr0, {0}
     71c:	000003eb 	andeq	r0, r0, fp, ror #7
     720:	022b0e13 	eoreq	r0, fp, #304	; 0x130
     724:	0e140000 	cdpeq	0, 1, cr0, cr4, cr0, {0}
     728:	000003bb 			; <UNDEFINED> instruction: 0x000003bb
     72c:	024d0e15 	subeq	r0, sp, #336	; 0x150
     730:	0e160000 	cdpeq	0, 1, cr0, cr6, cr0, {0}
     734:	00000770 	andeq	r0, r0, r0, ror r7
     738:	03580e17 	cmpeq	r8, #368	; 0x170
     73c:	0e180000 	cdpeq	0, 1, cr0, cr8, cr0, {0}
     740:	000005a0 	andeq	r0, r0, r0, lsr #11
     744:	06a10e19 	ssateq	r0, #2, r9, lsl #28
     748:	0e1a0000 	cdpeq	0, 1, cr0, cr10, cr0, {0}
     74c:	00000667 	andeq	r0, r0, r7, ror #12
     750:	06db0e1b 			; <UNDEFINED> instruction: 0x06db0e1b
     754:	0e1c0000 	cdpeq	0, 1, cr0, cr12, cr0, {0}
     758:	00000497 	muleq	r0, r7, r4
     75c:	027b0e1d 	rsbseq	r0, fp, #464	; 0x1d0
     760:	0e1e0000 	cdpeq	0, 1, cr0, cr14, cr0, {0}
     764:	0000055e 	andeq	r0, r0, lr, asr r5
     768:	06b30e1f 	ssateq	r0, #20, pc, lsl #28	; <UNPREDICTABLE>
     76c:	0e200000 	cdpeq	0, 2, cr0, cr0, cr0, {0}
     770:	00000458 	andeq	r0, r0, r8, asr r4
     774:	026e0e21 	rsbeq	r0, lr, #528	; 0x210
     778:	0e220000 	cdpeq	0, 2, cr0, cr2, cr0, {0}
     77c:	0000036f 	andeq	r0, r0, pc, ror #6
     780:	078e0e23 	streq	r0, [lr, r3, lsr #28]
     784:	0e240000 	cdpeq	0, 2, cr0, cr4, cr0, {0}
     788:	00000633 	andeq	r0, r0, r3, lsr r6
     78c:	04120e25 	ldreq	r0, [r2], #-3621	; 0xfffff1db
     790:	0e260000 	cdpeq	0, 2, cr0, cr6, cr0, {0}
     794:	0000081c 	andeq	r0, r0, ip, lsl r8
     798:	02fa0e27 	rscseq	r0, sl, #624	; 0x270
     79c:	0e280000 	cdpeq	0, 2, cr0, cr8, cr0, {0}
     7a0:	000005b2 			; <UNDEFINED> instruction: 0x000005b2
     7a4:	04b90e29 	ldrteq	r0, [r9], #3625	; 0xe29
     7a8:	002a0000 	eoreq	r0, sl, r0
     7ac:	0003ff03 	andeq	pc, r3, r3, lsl #30
     7b0:	03900500 	orrseq	r0, r0, #0, 10
     7b4:	00000127 	andeq	r0, r0, r7, lsr #2
     7b8:	020e040f 	andeq	r0, lr, #251658240	; 0xf000000
     7bc:	03520984 	cmpeq	r2, #132, 18	; 0x210000
     7c0:	530b0000 	movwpl	r0, #45056	; 0xb000
     7c4:	02000003 	andeq	r0, r0, #3
     7c8:	03621186 	cmneq	r2, #-2147483615	; 0x80000021
     7cc:	23020000 	movwcs	r0, #8192	; 0x2000
     7d0:	05cf0b00 	strbeq	r0, [pc, #2816]	; 12d8 <__Stack_Size+0xed8>
     7d4:	87020000 	strhi	r0, [r2, -r0]
     7d8:	00036711 	andeq	r6, r3, r1, lsl r7
     7dc:	20230200 	eorcs	r0, r3, r0, lsl #4
     7e0:	0007890b 	andeq	r8, r7, fp, lsl #18
     7e4:	11880200 	orrne	r0, r8, r0, lsl #4
     7e8:	00000362 	andeq	r0, r0, r2, ror #6
     7ec:	01802303 	orreq	r2, r0, r3, lsl #6
     7f0:	0003660b 	andeq	r6, r3, fp, lsl #12
     7f4:	11890200 	orrne	r0, r9, r0, lsl #4
     7f8:	00000367 	andeq	r0, r0, r7, ror #6
     7fc:	01a02303 	lsleq	r2, r3, #6
     800:	0007ec0b 	andeq	lr, r7, fp, lsl #24
     804:	118a0200 	orrne	r0, sl, r0, lsl #4
     808:	00000362 	andeq	r0, r0, r2, ror #6
     80c:	02802303 	addeq	r2, r0, #201326592	; 0xc000000
     810:	0005e30b 	andeq	lr, r5, fp, lsl #6
     814:	118b0200 	orrne	r0, fp, r0, lsl #4
     818:	00000367 	andeq	r0, r0, r7, ror #6
     81c:	02a02303 	adceq	r2, r0, #201326592	; 0xc000000
     820:	0005330b 	andeq	r3, r5, fp, lsl #6
     824:	118c0200 	orrne	r0, ip, r0, lsl #4
     828:	00000362 	andeq	r0, r0, r2, ror #6
     82c:	03802303 	orreq	r2, r0, #201326592	; 0xc000000
     830:	0005ed0b 	andeq	lr, r5, fp, lsl #26
     834:	118d0200 	orrne	r0, sp, r0, lsl #4
     838:	00000367 	andeq	r0, r0, r7, ror #6
     83c:	03a02303 	moveq	r2, #201326592	; 0xc000000
     840:	0007980b 	andeq	r9, r7, fp, lsl #16
     844:	118e0200 	orrne	r0, lr, r0, lsl #4
     848:	00000362 	andeq	r0, r0, r2, ror #6
     84c:	04802303 	streq	r2, [r0], #771	; 0x303
     850:	0005f70b 	andeq	pc, r5, fp, lsl #14
     854:	118f0200 	orrne	r0, pc, r0, lsl #4
     858:	00000377 	andeq	r0, r0, r7, ror r3
     85c:	04a02303 	strteq	r2, [r0], #771	; 0x303
     860:	00504910 	subseq	r4, r0, r0, lsl r9
     864:	97119002 	ldrls	r9, [r1, -r2]
     868:	03000003 	movweq	r0, #3
     86c:	0b068023 	bleq	1a0900 <__Stack_Size+0x1a0500>
     870:	00000601 	andeq	r0, r0, r1, lsl #12
     874:	9c119102 	ldflsd	f1, [r1], {2}
     878:	03000003 	movweq	r0, #3
     87c:	0b07f023 	bleq	1fc910 <__Stack_Size+0x1fc510>
     880:	000005ad 	andeq	r0, r0, sp, lsr #11
     884:	82119202 	andshi	r9, r1, #536870912	; 0x20000000
     888:	03000000 	movweq	r0, #0
     88c:	001c8023 	andseq	r8, ip, r3, lsr #32
     890:	00008211 	andeq	r8, r0, r1, lsl r2
     894:	00036200 	andeq	r6, r3, r0, lsl #4
     898:	00a11200 	adceq	r1, r1, r0, lsl #4
     89c:	00070000 	andeq	r0, r7, r0
     8a0:	00035204 	andeq	r5, r3, r4, lsl #4
     8a4:	00761100 	rsbseq	r1, r6, r0, lsl #2
     8a8:	03770000 	cmneq	r7, #0
     8ac:	a1120000 	tstge	r2, r0
     8b0:	17000000 	strne	r0, [r0, -r0]
     8b4:	00761100 	rsbseq	r1, r6, r0, lsl #2
     8b8:	03870000 	orreq	r0, r7, #0
     8bc:	a1120000 	tstge	r2, r0
     8c0:	37000000 	strcc	r0, [r0, -r0]
     8c4:	004d1100 	subeq	r1, sp, r0, lsl #2
     8c8:	03970000 	orrseq	r0, r7, #0
     8cc:	a1120000 	tstge	r2, r0
     8d0:	ef000000 	svc	0x00000000
     8d4:	03870400 	orreq	r0, r7, #0, 8
     8d8:	76110000 	ldrvc	r0, [r1], -r0
     8dc:	ad000000 	stcge	0, cr0, [r0, #-0]
     8e0:	13000003 	movwne	r0, #3
     8e4:	000000a1 	andeq	r0, r0, r1, lsr #1
     8e8:	03000283 	movweq	r0, #643	; 0x283
     8ec:	00000692 	muleq	r0, r2, r6
     8f0:	7a049302 	bvc	125500 <__Stack_Size+0x125100>
     8f4:	14000002 	strne	r0, [r0], #-2
     8f8:	0000013e 	andeq	r0, r0, lr, lsr r1
     8fc:	1506ce02 	strne	ip, [r6, #-3586]	; 0xfffff1fe
     900:	0000009c 	muleq	r0, ip, r0
     904:	cb150101 	blgt	540d10 <__Stack_Size+0x540910>
     908:	06000001 	streq	r0, [r0], -r1
     90c:	00761145 	rsbseq	r1, r6, r5, asr #2
     910:	01010000 	mrseq	r0, (UNDEF: 1)
     914:	00005211 	andeq	r5, r0, r1, lsl r2
     918:	0003e600 	andeq	lr, r3, r0, lsl #12
     91c:	00a11200 	adceq	r1, r1, r0, lsl #4
     920:	000f0000 	andeq	r0, pc, r0
     924:	0003d605 	andeq	sp, r3, r5, lsl #12
     928:	00f61500 	rscseq	r1, r6, r0, lsl #10
     92c:	46060000 	strmi	r0, [r6], -r0
     930:	0003e617 	andeq	lr, r3, r7, lsl r6
     934:	11010100 	mrsne	r0, (UNDEF: 17)
     938:	00000052 	andeq	r0, r0, r2, asr r0
     93c:	00000409 	andeq	r0, r0, r9, lsl #8
     940:	0000a112 	andeq	sl, r0, r2, lsl r1
     944:	05000700 	streq	r0, [r0, #-1792]	; 0xfffff900
     948:	000003f9 	strdeq	r0, [r0], -r9
     94c:	0001e615 	andeq	lr, r1, r5, lsl r6
     950:	17470600 	strbne	r0, [r7, -r0, lsl #12]
     954:	00000409 	andeq	r0, r0, r9, lsl #8
     958:	1c160101 	ldfnes	f0, [r6], {1}
     95c:	09017905 	stmdbeq	r1, {r0, r2, r8, fp, ip, sp, lr}
     960:	00000497 	muleq	r0, r7, r4
     964:	4c524317 	mrrcmi	3, 1, r4, r2, cr7
     968:	017b0500 	cmneq	fp, r0, lsl #10
     96c:	00008211 	andeq	r8, r0, r1, lsl r2
     970:	00230200 	eoreq	r0, r3, r0, lsl #4
     974:	48524317 	ldmdami	r2, {r0, r1, r2, r4, r8, r9, lr}^
     978:	017c0500 	cmneq	ip, r0, lsl #10
     97c:	00008211 	andeq	r8, r0, r1, lsl r2
     980:	04230200 	strteq	r0, [r3], #-512	; 0xfffffe00
     984:	52444917 	subpl	r4, r4, #376832	; 0x5c000
     988:	017d0500 	cmneq	sp, r0, lsl #10
     98c:	00008211 	andeq	r8, r0, r1, lsl r2
     990:	08230200 	stmdaeq	r3!, {r9}
     994:	52444f17 	subpl	r4, r4, #23, 30	; 0x5c
     998:	017e0500 	cmneq	lr, r0, lsl #10
     99c:	00008211 	andeq	r8, r0, r1, lsl r2
     9a0:	0c230200 	sfmeq	f0, 4, [r3], #-0
     9a4:	0000b318 	andeq	fp, r0, r8, lsl r3
     9a8:	017f0500 	cmneq	pc, r0, lsl #10
     9ac:	00008211 	andeq	r8, r0, r1, lsl r2
     9b0:	10230200 	eorne	r0, r3, r0, lsl #4
     9b4:	52524217 	subspl	r4, r2, #1879048193	; 0x70000001
     9b8:	01800500 	orreq	r0, r0, r0, lsl #10
     9bc:	00008211 	andeq	r8, r0, r1, lsl r2
     9c0:	14230200 	strtne	r0, [r3], #-512	; 0xfffffe00
     9c4:	00022618 	andeq	r2, r2, r8, lsl r6
     9c8:	01810500 	orreq	r0, r1, r0, lsl #10
     9cc:	00008211 	andeq	r8, r0, r1, lsl r2
     9d0:	18230200 	stmdane	r3!, {r9}
     9d4:	00da1900 	sbcseq	r1, sl, r0, lsl #18
     9d8:	82050000 	andhi	r0, r5, #0
     9dc:	041c0301 	ldreq	r0, [ip], #-769	; 0xfffffcff
     9e0:	28160000 	ldmdacs	r6, {}	; <UNPREDICTABLE>
     9e4:	0901bb05 	stmdbeq	r1, {r0, r2, r8, r9, fp, ip, sp, pc}
     9e8:	0000054e 	andeq	r0, r0, lr, asr #10
     9ec:	00524317 	subseq	r4, r2, r7, lsl r3
     9f0:	1101bd05 	tstne	r1, r5, lsl #26
     9f4:	00000082 	andeq	r0, r0, r2, lsl #1
     9f8:	18002302 	stmdane	r0, {r1, r8, r9, sp}
     9fc:	0000000d 	andeq	r0, r0, sp
     a00:	1101be05 	tstne	r1, r5, lsl #28
     a04:	00000082 	andeq	r0, r0, r2, lsl #1
     a08:	17042302 	strne	r2, [r4, -r2, lsl #6]
     a0c:	00524943 	subseq	r4, r2, r3, asr #18
     a10:	1101bf05 	tstne	r1, r5, lsl #30
     a14:	00000082 	andeq	r0, r0, r2, lsl #1
     a18:	18082302 	stmdane	r8, {r1, r8, r9, sp}
     a1c:	00000180 	andeq	r0, r0, r0, lsl #3
     a20:	1101c005 	tstne	r1, r5
     a24:	00000082 	andeq	r0, r0, r2, lsl #1
     a28:	180c2302 	stmdane	ip, {r1, r8, r9, sp}
     a2c:	0000016a 	andeq	r0, r0, sl, ror #2
     a30:	1101c105 	tstne	r1, r5, lsl #2
     a34:	00000082 	andeq	r0, r0, r2, lsl #1
     a38:	18102302 	ldmdane	r0, {r1, r8, r9, sp}
     a3c:	000000b8 	strheq	r0, [r0], -r8
     a40:	1101c205 	tstne	r1, r5, lsl #4
     a44:	00000082 	andeq	r0, r0, r2, lsl #1
     a48:	18142302 	ldmdane	r4, {r1, r8, r9, sp}
     a4c:	00000000 	andeq	r0, r0, r0
     a50:	1101c305 	tstne	r1, r5, lsl #6
     a54:	00000082 	andeq	r0, r0, r2, lsl #1
     a58:	18182302 	ldmdane	r8, {r1, r8, r9, sp}
     a5c:	00000178 	andeq	r0, r0, r8, ror r1
     a60:	1101c405 	tstne	r1, r5, lsl #8
     a64:	00000082 	andeq	r0, r0, r2, lsl #1
     a68:	181c2302 	ldmdane	ip, {r1, r8, r9, sp}
     a6c:	00000008 	andeq	r0, r0, r8
     a70:	1101c505 	tstne	r1, r5, lsl #10
     a74:	00000082 	andeq	r0, r0, r2, lsl #1
     a78:	17202302 	strne	r2, [r0, -r2, lsl #6]!
     a7c:	00525343 	subseq	r5, r2, r3, asr #6
     a80:	1101c605 	tstne	r1, r5, lsl #12
     a84:	00000082 	andeq	r0, r0, r2, lsl #1
     a88:	00242302 	eoreq	r2, r4, r2, lsl #6
     a8c:	0001fe19 	andeq	pc, r1, r9, lsl lr	; <UNPREDICTABLE>
     a90:	01c90500 	biceq	r0, r9, r0, lsl #10
     a94:	0004a403 	andeq	sl, r4, r3, lsl #8
     a98:	05541600 	ldrbeq	r1, [r4, #-1536]	; 0xfffffa00
     a9c:	06090239 			; <UNDEFINED> instruction: 0x06090239
     aa0:	18000007 	stmdane	r0, {r0, r1, r2}
     aa4:	0000042c 	andeq	r0, r0, ip, lsr #8
     aa8:	11023b05 	tstne	r2, r5, lsl #22
     aac:	0000006a 	andeq	r0, r0, sl, rrx
     ab0:	18002302 	stmdane	r0, {r1, r8, r9, sp}
     ab4:	000005cf 	andeq	r0, r0, pc, asr #11
     ab8:	11023c05 	tstne	r2, r5, lsl #24
     abc:	0000006a 	andeq	r0, r0, sl, rrx
     ac0:	18022302 	stmdane	r2, {r1, r8, r9, sp}
     ac4:	00000465 	andeq	r0, r0, r5, ror #8
     ac8:	11023d05 	tstne	r2, r5, lsl #26
     acc:	0000006a 	andeq	r0, r0, sl, rrx
     ad0:	18042302 	stmdane	r4, {r1, r8, r9, sp}
     ad4:	000005d9 	ldrdeq	r0, [r0], -r9
     ad8:	11023e05 	tstne	r2, r5, lsl #28
     adc:	0000006a 	andeq	r0, r0, sl, rrx
     ae0:	18062302 	stmdane	r6, {r1, r8, r9, sp}
     ae4:	000004b4 			; <UNDEFINED> instruction: 0x000004b4
     ae8:	11023f05 	tstne	r2, r5, lsl #30
     aec:	0000006a 	andeq	r0, r0, sl, rrx
     af0:	18082302 	stmdane	r8, {r1, r8, r9, sp}
     af4:	000005e3 	andeq	r0, r0, r3, ror #11
     af8:	11024005 	tstne	r2, r5
     afc:	0000006a 	andeq	r0, r0, sl, rrx
     b00:	180a2302 	stmdane	sl, {r1, r8, r9, sp}
     b04:	000004e7 	andeq	r0, r0, r7, ror #9
     b08:	11024105 	tstne	r2, r5, lsl #2
     b0c:	0000006a 	andeq	r0, r0, sl, rrx
     b10:	180c2302 	stmdane	ip, {r1, r8, r9, sp}
     b14:	000005ed 	andeq	r0, r0, sp, ror #11
     b18:	11024205 	tstne	r2, r5, lsl #4
     b1c:	0000006a 	andeq	r0, r0, sl, rrx
     b20:	180e2302 	stmdane	lr, {r1, r8, r9, sp}
     b24:	00000538 	andeq	r0, r0, r8, lsr r5
     b28:	11024305 	tstne	r2, r5, lsl #6
     b2c:	0000006a 	andeq	r0, r0, sl, rrx
     b30:	18102302 	ldmdane	r0, {r1, r8, r9, sp}
     b34:	000005f7 	strdeq	r0, [r0], -r7
     b38:	11024405 	tstne	r2, r5, lsl #8
     b3c:	0000006a 	andeq	r0, r0, sl, rrx
     b40:	18122302 	ldmdane	r2, {r1, r8, r9, sp}
     b44:	000005ca 	andeq	r0, r0, sl, asr #11
     b48:	11024505 	tstne	r2, r5, lsl #10
     b4c:	0000006a 	andeq	r0, r0, sl, rrx
     b50:	18142302 	ldmdane	r4, {r1, r8, r9, sp}
     b54:	00000601 	andeq	r0, r0, r1, lsl #12
     b58:	11024605 	tstne	r2, r5, lsl #12
     b5c:	0000006a 	andeq	r0, r0, sl, rrx
     b60:	18162302 	ldmdane	r6, {r1, r8, r9, sp}
     b64:	00000674 	andeq	r0, r0, r4, ror r6
     b68:	11024705 	tstne	r2, r5, lsl #14
     b6c:	0000006a 	andeq	r0, r0, sl, rrx
     b70:	18182302 	ldmdane	r8, {r1, r8, r9, sp}
     b74:	0000060b 	andeq	r0, r0, fp, lsl #12
     b78:	11024805 	tstne	r2, r5, lsl #16
     b7c:	0000006a 	andeq	r0, r0, sl, rrx
     b80:	181a2302 	ldmdane	sl, {r1, r8, r9, sp}
     b84:	000006f7 	strdeq	r0, [r0], -r7
     b88:	11024905 	tstne	r2, r5, lsl #18
     b8c:	0000006a 	andeq	r0, r0, sl, rrx
     b90:	181c2302 	ldmdane	ip, {r1, r8, r9, sp}
     b94:	00000812 	andeq	r0, r0, r2, lsl r8
     b98:	11024a05 	tstne	r2, r5, lsl #20
     b9c:	00000716 	andeq	r0, r0, r6, lsl r7
     ba0:	181e2302 	ldmdane	lr, {r1, r8, r9, sp}
     ba4:	0000069c 	muleq	r0, ip, r6
     ba8:	11024b05 	tstne	r2, r5, lsl #22
     bac:	0000006a 	andeq	r0, r0, sl, rrx
     bb0:	18402302 	stmdane	r0, {r1, r8, r9, sp}^
     bb4:	00000615 	andeq	r0, r0, r5, lsl r6
     bb8:	11024c05 	tstne	r2, r5, lsl #24
     bbc:	0000006a 	andeq	r0, r0, sl, rrx
     bc0:	18422302 	stmdane	r2, {r1, r8, r9, sp}^
     bc4:	0000034e 	andeq	r0, r0, lr, asr #6
     bc8:	11024d05 	tstne	r2, r5, lsl #26
     bcc:	0000006a 	andeq	r0, r0, sl, rrx
     bd0:	18442302 	stmdane	r4, {r1, r8, r9, sp}^
     bd4:	0000061f 	andeq	r0, r0, pc, lsl r6
     bd8:	11024e05 	tstne	r2, r5, lsl #28
     bdc:	0000006a 	andeq	r0, r0, sl, rrx
     be0:	17462302 	strbne	r2, [r6, -r2, lsl #6]
     be4:	00524e46 	subseq	r4, r2, r6, asr #28
     be8:	11024f05 	tstne	r2, r5, lsl #30
     bec:	0000006a 	andeq	r0, r0, sl, rrx
     bf0:	18482302 	stmdane	r8, {r1, r8, r9, sp}^
     bf4:	00000629 	andeq	r0, r0, r9, lsr #12
     bf8:	11025005 	tstne	r2, r5
     bfc:	0000006a 	andeq	r0, r0, sl, rrx
     c00:	184a2302 	stmdane	sl, {r1, r8, r9, sp}^
     c04:	000003b5 			; <UNDEFINED> instruction: 0x000003b5
     c08:	11025105 	tstne	r2, r5, lsl #2
     c0c:	0000006a 	andeq	r0, r0, sl, rrx
     c10:	184c2302 	stmdane	ip, {r1, r8, r9, sp}^
     c14:	000003c9 	andeq	r0, r0, r9, asr #7
     c18:	11025205 	tstne	r2, r5, lsl #4
     c1c:	0000006a 	andeq	r0, r0, sl, rrx
     c20:	184e2302 	stmdane	lr, {r1, r8, r9, sp}^
     c24:	000007bc 			; <UNDEFINED> instruction: 0x000007bc
     c28:	11025305 	tstne	r2, r5, lsl #6
     c2c:	0000006a 	andeq	r0, r0, sl, rrx
     c30:	18502302 	ldmdane	r0, {r1, r8, r9, sp}^
     c34:	00000834 	andeq	r0, r0, r4, lsr r8
     c38:	11025405 	tstne	r2, r5, lsl #8
     c3c:	0000006a 	andeq	r0, r0, sl, rrx
     c40:	00522302 	subseq	r2, r2, r2, lsl #6
     c44:	00006a11 	andeq	r6, r0, r1, lsl sl
     c48:	00071600 	andeq	r1, r7, r0, lsl #12
     c4c:	00a11200 	adceq	r1, r1, r0, lsl #4
     c50:	00100000 	andseq	r0, r0, r0
     c54:	00070604 	andeq	r0, r7, r4, lsl #12
     c58:	03a91900 			; <UNDEFINED> instruction: 0x03a91900
     c5c:	55050000 	strpl	r0, [r5, #-0]
     c60:	055b0302 	ldrbeq	r0, [fp, #-770]	; 0xfffffcfe
     c64:	040a0000 	streq	r0, [sl], #-0
     c68:	68072101 	stmdavs	r7, {r0, r8, sp}
     c6c:	1a000007 	bne	c90 <__Stack_Size+0x890>
     c70:	0000052a 	andeq	r0, r0, sl, lsr #10
     c74:	76122201 	ldrvc	r2, [r2], -r1, lsl #4
     c78:	04000000 	streq	r0, [r0], #-0
     c7c:	2302160a 	movwcs	r1, #9738	; 0x260a
     c80:	07161a00 	ldreq	r1, [r6, -r0, lsl #20]
     c84:	23010000 	movwcs	r0, #4096	; 0x1000
     c88:	00007612 	andeq	r7, r0, r2, lsl r6
     c8c:	11050400 	tstne	r5, r0, lsl #8
     c90:	1a002302 	bne	98a0 <__Stack_Size+0x94a0>
     c94:	00000593 	muleq	r0, r3, r5
     c98:	76122401 	ldrvc	r2, [r2], -r1, lsl #8
     c9c:	04000000 	streq	r0, [r0], #-0
     ca0:	23021001 	movwcs	r1, #8193	; 0x2001
     ca4:	041b0000 	ldreq	r0, [fp], #-0
     ca8:	830e1f01 	movwhi	r1, #61185	; 0xef01
     cac:	1c000007 	stcne	0, cr0, [r0], {7}
     cb0:	00000526 	andeq	r0, r0, r6, lsr #10
     cb4:	76102001 	ldrvc	r2, [r0], -r1
     cb8:	1d000000 	stcne	0, cr0, [r0, #-0]
     cbc:	00000728 	andeq	r0, r0, r8, lsr #14
     cc0:	07680400 	strbeq	r0, [r8, -r0, lsl #8]!
     cc4:	040a0000 	streq	r0, [sl], #-0
     cc8:	c8072a01 	stmdagt	r7, {r0, r9, fp, sp}
     ccc:	1a000007 	bne	cf0 <__Stack_Size+0x8f0>
     cd0:	000007f5 	strdeq	r0, [r0], -r5
     cd4:	76122b01 	ldrvc	r2, [r2], -r1, lsl #22
     cd8:	04000000 	streq	r0, [r0], #-0
     cdc:	2302160a 	movwcs	r1, #9738	; 0x260a
     ce0:	056b1a00 	strbeq	r1, [fp, #-2560]!	; 0xfffff600
     ce4:	2c010000 	stccs	0, cr0, [r1], {-0}
     ce8:	00007612 	andeq	r7, r0, r2, lsl r6
     cec:	11050400 	tstne	r5, r0, lsl #8
     cf0:	1a002302 	bne	9900 <__Stack_Size+0x9500>
     cf4:	00000746 	andeq	r0, r0, r6, asr #14
     cf8:	76122d01 	ldrvc	r2, [r2], -r1, lsl #26
     cfc:	04000000 	streq	r0, [r0], #-0
     d00:	23021001 	movwcs	r1, #8193	; 0x2001
     d04:	041b0000 	ldreq	r0, [fp], #-0
     d08:	e30e2801 	movw	r2, #59393	; 0xe801
     d0c:	1c000007 	stcne	0, cr0, [r0], {7}
     d10:	000007f1 	strdeq	r0, [r0], -r1
     d14:	76102901 	ldrvc	r2, [r0], -r1, lsl #18
     d18:	1d000000 	stcne	0, cr0, [r0, #-0]
     d1c:	00000788 	andeq	r0, r0, r8, lsl #15
     d20:	07c80400 	strbeq	r0, [r8, r0, lsl #8]
     d24:	100a0000 	andne	r0, sl, r0
     d28:	20091d01 	andcs	r1, r9, r1, lsl #26
     d2c:	0b000008 	bleq	d54 <__Stack_Size+0x954>
     d30:	0000079d 	muleq	r0, sp, r7
     d34:	82171e01 	andshi	r1, r7, #1, 28
     d38:	02000000 	andeq	r0, r0, #0
     d3c:	831e0023 	tsthi	lr, #35	; 0x23
     d40:	02000007 	andeq	r0, r0, #7
     d44:	0a0b0423 	beq	2c1dd8 <__Stack_Size+0x2c19d8>
     d48:	01000007 	tsteq	r0, r7
     d4c:	00821727 	addeq	r1, r2, r7, lsr #14
     d50:	23020000 	movwcs	r0, #8192	; 0x2000
     d54:	07e31e08 	strbeq	r1, [r3, r8, lsl #28]!
     d58:	23020000 	movwcs	r0, #8192	; 0x2000
     d5c:	6a03000c 	bvs	c0d94 <__Stack_Size+0xc0994>
     d60:	01000004 	tsteq	r0, r4
     d64:	07e80230 			; <UNDEFINED> instruction: 0x07e80230
     d68:	a8110000 	ldmdage	r1, {}	; <UNPREDICTABLE>
     d6c:	3c000000 	stccc	0, cr0, [r0], {-0}
     d70:	12000008 	andne	r0, r0, #8
     d74:	000000a1 	andeq	r0, r0, r1, lsr #1
     d78:	531f0007 	tstpl	pc, #7
     d7c:	01000007 	tsteq	r0, r7
     d80:	082c0a32 	stmdaeq	ip!, {r1, r4, r5, r9, fp}
     d84:	05010000 	streq	r0, [r1, #-0]
     d88:	00002403 	andeq	r2, r0, r3, lsl #8
     d8c:	043a1f20 	ldrteq	r1, [sl], #-3872	; 0xfffff0e0
     d90:	33010000 	movwcc	r0, #4096	; 0x1000
     d94:	00082c0a 	andeq	r2, r8, sl, lsl #24
     d98:	03050100 	movweq	r0, #20736	; 0x5100
     d9c:	20000044 	andcs	r0, r0, r4, asr #32
     da0:	0002b220 	andeq	fp, r2, r0, lsr #4
     da4:	16350100 	ldrtne	r0, [r5], -r0, lsl #2
     da8:	0000011b 	andeq	r0, r0, fp, lsl r1
     dac:	000c0305 	andeq	r0, ip, r5, lsl #6
     db0:	31202000 			; <UNDEFINED> instruction: 0x31202000
     db4:	01000004 	tsteq	r0, r4
     db8:	00411047 	subeq	r1, r1, r7, asr #32
     dbc:	03050000 	movweq	r0, #20480	; 0x5000
     dc0:	20000008 	andcs	r0, r0, r8
     dc4:	00044520 	andeq	r4, r4, r0, lsr #10
     dc8:	17480100 	strbne	r0, [r8, -r0, lsl #2]
     dcc:	00000898 	muleq	r0, r8, r8
     dd0:	00040305 	andeq	r0, r4, r5, lsl #6
     dd4:	04072000 	streq	r2, [r7], #-0
     dd8:	00000052 	andeq	r0, r0, r2, asr r0
     ddc:	00034420 	andeq	r4, r3, r0, lsr #8
     de0:	11490100 	mrsne	r0, (UNDEF: 89)
     de4:	0000005e 	andeq	r0, r0, lr, asr r0
     de8:	000a0305 	andeq	r0, sl, r5, lsl #6
     dec:	1e202000 	cdpne	0, 2, cr2, cr0, cr0, {0}
     df0:	01000004 	tsteq	r0, r4
     df4:	00411064 	subeq	r1, r1, r4, rrx
     df8:	03050000 	movweq	r0, #20480	; 0x5000
     dfc:	20000016 	andcs	r0, r0, r6, lsl r0
     e00:	00030920 	andeq	r0, r3, r0, lsr #18
     e04:	11aa0100 			; <UNDEFINED> instruction: 0x11aa0100
     e08:	0000005e 	andeq	r0, r0, lr, asr r0
     e0c:	00000305 	andeq	r0, r0, r5, lsl #6
     e10:	04162000 	ldreq	r2, [r6], #-0
     e14:	05013101 	streq	r3, [r1, #-257]	; 0xfffffeff
     e18:	00000918 	andeq	r0, r0, r8, lsl r9
     e1c:	0007f521 	andeq	pc, r7, r1, lsr #10
     e20:	01320100 	teqeq	r2, r0, lsl #2
     e24:	00007610 	andeq	r7, r0, r0, lsl r6
     e28:	160a0400 	strne	r0, [sl], -r0, lsl #8
     e2c:	21002302 	tstcs	r0, r2, lsl #6
     e30:	0000056b 	andeq	r0, r0, fp, ror #10
     e34:	10013301 	andne	r3, r1, r1, lsl #6
     e38:	00000076 	andeq	r0, r0, r6, ror r0
     e3c:	02110504 	andseq	r0, r1, #4, 10	; 0x1000000
     e40:	46210023 	strtmi	r0, [r1], -r3, lsr #32
     e44:	01000007 	tsteq	r0, r7
     e48:	76100134 			; <UNDEFINED> instruction: 0x76100134
     e4c:	04000000 	streq	r0, [r0], #-0
     e50:	23021001 	movwcs	r1, #8193	; 0x2001
     e54:	04220000 	strteq	r0, [r2], #-0
     e58:	0c012f01 	stceq	15, cr2, [r1], {1}
     e5c:	00000935 	andeq	r0, r0, r5, lsr r9
     e60:	00034823 	andeq	r4, r3, r3, lsr #16
     e64:	01300100 	teqeq	r0, r0, lsl #2
     e68:	0000760e 	andeq	r7, r0, lr, lsl #12
     e6c:	08d41d00 	ldmeq	r4, {r8, sl, fp, ip}^
     e70:	04000000 	streq	r0, [r0], #-0
     e74:	00000918 	andeq	r0, r0, r8, lsl r9
     e78:	2d010816 	stccs	8, cr0, [r1, #-88]	; 0xffffffa8
     e7c:	095d0901 	ldmdbeq	sp, {r0, r8, fp}^
     e80:	11180000 	tstne	r8, r0
     e84:	01000007 	tsteq	r0, r7
     e88:	8215012e 	andshi	r0, r5, #-2147483637	; 0x8000000b
     e8c:	02000000 	andeq	r0, r0, #0
     e90:	351e0023 	ldrcc	r0, [lr, #-35]	; 0xffffffdd
     e94:	02000009 	andeq	r0, r0, #9
     e98:	19000423 	stmdbne	r0, {r0, r1, r5, sl}
     e9c:	00000298 	muleq	r0, r8, r2
     ea0:	02013701 	andeq	r3, r1, #262144	; 0x40000
     ea4:	0000093a 	andeq	r0, r0, sl, lsr r9
     ea8:	048a0124 	streq	r0, [sl], #292	; 0x124
     eac:	47010000 	strmi	r0, [r1, -r0]
     eb0:	95010501 	strls	r0, [r1, #-1281]	; 0xfffffaff
     eb4:	64000000 	strvs	r0, [r0], #-0
     eb8:	be080006 	cdplt	0, 0, cr0, cr8, cr6, {0}
     ebc:	f1080006 	cps	#6
     ec0:	01000002 	tsteq	r0, r2
     ec4:	00000a1e 	andeq	r0, r0, lr, lsl sl
     ec8:	78646925 	stmdavc	r4!, {r0, r2, r5, r8, fp, sp, lr}^
     ecc:	01470100 	mrseq	r0, (UNDEF: 87)
     ed0:	0000411a 	andeq	r4, r0, sl, lsl r1
     ed4:	00031500 	andeq	r1, r3, r0, lsl #10
     ed8:	00031100 	andeq	r1, r3, r0, lsl #2
     edc:	75622500 	strbvc	r2, [r2, #-1280]!	; 0xfffffb00
     ee0:	47010066 	strmi	r0, [r1, -r6, rrx]
     ee4:	0a1e2901 	beq	78b2f0 <__Stack_Size+0x78aef0>
     ee8:	033c0000 	teqeq	ip, #0
     eec:	03360000 	teqeq	r6, #0
     ef0:	e5260000 	str	r0, [r6, #-0]!
     ef4:	01000003 	tsteq	r0, r3
     ef8:	24100148 	ldrcs	r0, [r0], #-328	; 0xfffffeb8
     efc:	6e00000a 	cdpvs	0, 0, cr0, cr0, cr10, {0}
     f00:	6a000003 	bvs	f14 <__Stack_Size+0xb14>
     f04:	27000003 	strcs	r0, [r0, -r3]
     f08:	01007a73 	tsteq	r0, r3, ror sl
     f0c:	95070149 	strls	r0, [r7, #-329]	; 0xfffffeb7
     f10:	98000000 	stmdals	r0, {}	; <UNPREDICTABLE>
     f14:	96000003 	strls	r0, [r0], -r3
     f18:	27000003 	strcs	r0, [r0, -r3]
     f1c:	4b01006e 	blmi	410dc <__Stack_Size+0x40cdc>
     f20:	00950701 	addseq	r0, r5, r1, lsl #14
     f24:	03b10000 			; <UNDEFINED> instruction: 0x03b10000
     f28:	03ab0000 			; <UNDEFINED> instruction: 0x03ab0000
     f2c:	69270000 	stmdbvs	r7!, {}	; <UNPREDICTABLE>
     f30:	4c01006e 	stcmi	0, cr0, [r1], {110}	; 0x6e
     f34:	0a2a0d01 	beq	a84340 <__Stack_Size+0xa83f40>
     f38:	03e80000 	mvneq	r0, #0
     f3c:	03e20000 	mvneq	r0, #0
     f40:	00280000 	eoreq	r0, r8, r0
     f44:	27000001 	strcs	r0, [r0, -r1]
     f48:	4d010069 	stcmi	0, cr0, [r1, #-420]	; 0xfffffe5c
     f4c:	00950b01 	addseq	r0, r5, r1, lsl #22
     f50:	04150000 	ldreq	r0, [r5], #-0
     f54:	04130000 	ldreq	r0, [r3], #-0
     f58:	00000000 	andeq	r0, r0, r0
     f5c:	005e0407 	subseq	r0, lr, r7, lsl #8
     f60:	04070000 	streq	r0, [r7], #-0
     f64:	0000095d 	andeq	r0, r0, sp, asr r9
     f68:	00760407 	rsbseq	r0, r6, r7, lsl #8
     f6c:	01290000 			; <UNDEFINED> instruction: 0x01290000
     f70:	00000379 	andeq	r0, r0, r9, ror r3
     f74:	06013901 	streq	r3, [r1], -r1, lsl #18
     f78:	0005b401 	andeq	fp, r5, r1, lsl #8
     f7c:	00060808 	andeq	r0, r6, r8, lsl #16
     f80:	00042908 	andeq	r2, r4, r8, lsl #18
     f84:	0aec0100 	beq	ffb0138c <BootRAM+0xea71b2d>
     f88:	69250000 	stmdbvs	r5!, {}	; <UNPREDICTABLE>
     f8c:	01007864 	tsteq	r0, r4, ror #16
     f90:	411c0139 	tstmi	ip, r9, lsr r1
     f94:	4f000000 	svcmi	0x00000000
     f98:	49000004 	stmdbmi	r0, {r2}
     f9c:	2a000004 	bcs	fb4 <__Stack_Size+0xbb4>
     fa0:	00667562 	rsbeq	r7, r6, r2, ror #10
     fa4:	30013901 	andcc	r3, r1, r1, lsl #18
     fa8:	00000898 	muleq	r0, r8, r8
     fac:	d62b5101 	strtle	r5, [fp], -r1, lsl #2
     fb0:	01000006 	tsteq	r0, r6
     fb4:	5e3e0139 	mrcpl	1, 1, r0, cr14, cr9, {1}
     fb8:	01000000 	mrseq	r0, (UNDEF: 0)
     fbc:	03e52652 	mvneq	r2, #85983232	; 0x5200000
     fc0:	3a010000 	bcc	40fc8 <__Stack_Size+0x40bc8>
     fc4:	0a241001 	beq	904fd0 <__Stack_Size+0x904bd0>
     fc8:	047d0000 	ldrbteq	r0, [sp], #-0
     fcc:	047b0000 	ldrbteq	r0, [fp], #-0
     fd0:	4e270000 	cdpmi	0, 2, cr0, cr7, cr0, {0}
     fd4:	3b010032 	blcc	410a4 <__Stack_Size+0x40ca4>
     fd8:	005e0c01 	subseq	r0, lr, r1, lsl #24
     fdc:	04920000 	ldreq	r0, [r2], #0
     fe0:	04900000 	ldreq	r0, [r0], #0
     fe4:	47260000 	strmi	r0, [r6, -r0]!
     fe8:	01000002 	tsteq	r0, r2
     fec:	1e0d013d 	mcrne	1, 0, r0, cr13, cr13, {1}
     ff0:	a700000a 	strge	r0, [r0, -sl]
     ff4:	a5000004 	strge	r0, [r0, #-4]
     ff8:	27000004 	strcs	r0, [r0, -r4]
     ffc:	0074756f 	rsbseq	r7, r4, pc, ror #10
    1000:	0d013e01 	stceq	14, cr3, [r1, #-4]
    1004:	00000a2a 	andeq	r0, r0, sl, lsr #20
    1008:	000004c0 	andeq	r0, r0, r0, asr #9
    100c:	000004ba 			; <UNDEFINED> instruction: 0x000004ba
    1010:	0000c828 	andeq	ip, r0, r8, lsr #16
    1014:	00692700 	rsbeq	r2, r9, r0, lsl #14
    1018:	10013f01 	andne	r3, r1, r1, lsl #30
    101c:	0000005e 	andeq	r0, r0, lr, asr r0
    1020:	000004fb 	strdeq	r0, [r0], -fp
    1024:	000004f7 	strdeq	r0, [r0], -r7
    1028:	012c0000 			; <UNDEFINED> instruction: 0x012c0000
    102c:	000002df 	ldrdeq	r0, [r0], -pc	; <UNPREDICTABLE>
    1030:	06010401 	streq	r0, [r1], -r1, lsl #8
    1034:	0800048c 	stmdaeq	r0, {r2, r3, r7, sl}
    1038:	080005b4 	stmdaeq	r0, {r2, r4, r5, r7, r8, sl}
    103c:	0000051b 	andeq	r0, r0, fp, lsl r5
    1040:	000bd201 	andeq	sp, fp, r1, lsl #4
    1044:	00a82d00 	adceq	r2, r8, r0, lsl #26
    1048:	0b240000 	bleq	901050 <__Stack_Size+0x900c50>
    104c:	69270000 	stmdbvs	r7!, {}	; <UNPREDICTABLE>
    1050:	010a0100 	mrseq	r0, (UNDEF: 26)
    1054:	00004111 	andeq	r4, r0, r1, lsl r1
    1058:	00053f00 	andeq	r3, r5, r0, lsl #30
    105c:	00053b00 	andeq	r3, r5, r0, lsl #22
    1060:	fc2e0000 	stc2	0, cr0, [lr], #-0
    1064:	50080004 	andpl	r0, r8, r4
    1068:	66080005 	strvs	r0, [r8], -r5
    106c:	2600000b 	strcs	r0, [r0], -fp
    1070:	000006cd 	andeq	r0, r0, sp, asr #13
    1074:	0d011601 	stceq	6, cr1, [r1, #-4]
    1078:	00000041 	andeq	r0, r0, r1, asr #32
    107c:	00000564 	andeq	r0, r0, r4, ror #10
    1080:	00000562 	andeq	r0, r0, r2, ror #10
    1084:	00051e2f 	andeq	r1, r5, pc, lsr #28
    1088:	000b5608 	andeq	r5, fp, r8, lsl #12
    108c:	50013000 	andpl	r3, r1, r0
    1090:	00007502 	andeq	r7, r0, r2, lsl #10
    1094:	00054031 	andeq	r4, r5, r1, lsr r0
    1098:	50013008 	andpl	r3, r1, r8
    109c:	08007505 	stmdaeq	r0, {r0, r2, r8, sl, ip, sp, lr}
    10a0:	00002180 	andeq	r2, r0, r0, lsl #3
    10a4:	00049c32 	andeq	r9, r4, r2, lsr ip
    10a8:	0011f108 	andseq	pc, r1, r8, lsl #2
    10ac:	04de3300 	ldrbeq	r3, [lr], #768	; 0x300
    10b0:	0c600800 	stcleq	8, cr0, [r0], #-0
    10b4:	0b970000 	bleq	fe5c10bc <BootRAM+0xd53185d>
    10b8:	01300000 	teqeq	r0, r0
    10bc:	00740250 	rsbseq	r0, r4, r0, asr r2
    10c0:	02510130 	subseq	r0, r1, #48, 2
    10c4:	01300074 	teqeq	r0, r4, ror r0
    10c8:	30380152 	eorscc	r0, r8, r2, asr r1
    10cc:	03055301 	movweq	r5, #21249	; 0x5301
    10d0:	080006bf 	stmdaeq	r0, {r0, r1, r2, r3, r4, r5, r7, r9, sl}
    10d4:	04ea3300 	strbteq	r3, [sl], #768	; 0x300
    10d8:	0c600800 	stcleq	8, cr0, [r0], #-0
    10dc:	0bbf0000 	bleq	fefc10e4 <BootRAM+0xdf31885>
    10e0:	01300000 	teqeq	r0, r0
    10e4:	80090250 	andhi	r0, r9, r0, asr r2
    10e8:	02510130 	subseq	r0, r1, #48, 2
    10ec:	01300074 	teqeq	r0, r4, ror r0
    10f0:	30380152 	eorscc	r0, r8, r2, asr r1
    10f4:	03055301 	movweq	r5, #21249	; 0x5301
    10f8:	08000609 	stmdaeq	r0, {r0, r3, r9, sl}
    10fc:	04f23200 	ldrbteq	r3, [r2], #512	; 0x200
    1100:	11fa0800 	mvnsne	r0, r0, lsl #16
    1104:	5e320000 	cdppl	0, 3, cr0, cr2, cr0, {0}
    1108:	f1080005 	cps	#5
    110c:	00000011 	andeq	r0, r0, r1, lsl r0
    1110:	075d0134 	smmlareq	sp, r4, r1, r0
    1114:	d6010000 	strle	r0, [r1], -r0
    1118:	03400106 	movteq	r0, #262	; 0x106
    111c:	048c0800 	streq	r0, [ip], #2048	; 0x800
    1120:	05770800 	ldrbeq	r0, [r7, #-2048]!	; 0xfffff800
    1124:	60010000 	andvs	r0, r1, r0
    1128:	3500000c 	strcc	r0, [r0, #-12]
    112c:	000006cd 	andeq	r0, r0, sp, asr #13
    1130:	4121d601 			; <UNDEFINED> instruction: 0x4121d601
    1134:	9b000000 	blls	113c <__Stack_Size+0xd3c>
    1138:	97000005 	strls	r0, [r0, -r5]
    113c:	35000005 	strcc	r0, [r0, #-5]
    1140:	000007c3 	andeq	r0, r0, r3, asr #15
    1144:	4130d601 	teqmi	r0, r1, lsl #12
    1148:	c9000000 	stmdbgt	r0, {}	; <UNPREDICTABLE>
    114c:	b9000005 	stmdblt	r0, {r0, r2}
    1150:	35000005 	strcc	r0, [r0, #-5]
    1154:	000006d6 	ldrdeq	r0, [r0], -r6
    1158:	5e42d601 	cdppl	6, 4, cr13, cr2, cr1, {0}
    115c:	3b000000 	blcc	1164 <__Stack_Size+0xd64>
    1160:	35000006 	strcc	r0, [r0, #-6]
    1164:	36000006 	strcc	r0, [r0], -r6
    1168:	00000a6c 	andeq	r0, r0, ip, ror #20
    116c:	a851d601 	ldmdage	r1, {r0, r9, sl, ip, lr, pc}^
    1170:	01000000 	mrseq	r0, (UNDEF: 0)
    1174:	07d63753 			; <UNDEFINED> instruction: 0x07d63753
    1178:	d7010000 	strle	r0, [r1, -r0]
    117c:	0000410b 	andeq	r4, r0, fp, lsl #2
    1180:	00066f00 	andeq	r6, r6, r0, lsl #30
    1184:	00066700 	andeq	r6, r6, r0, lsl #14
    1188:	75623800 	strbvc	r3, [r2, #-2048]!	; 0xfffff800
    118c:	dd010066 	stcle	0, cr0, [r1, #-408]	; 0xfffffe68
    1190:	00005e0c 	andeq	r5, r0, ip, lsl #28
    1194:	0006cd00 	andeq	ip, r6, r0, lsl #26
    1198:	0006b900 	andeq	fp, r6, r0, lsl #18
    119c:	01340000 	teqeq	r4, r0
    11a0:	0000063f 	andeq	r0, r0, pc, lsr r6
    11a4:	0106ab01 	tsteq	r6, r1, lsl #22
    11a8:	08000254 	stmdaeq	r0, {r2, r4, r6, r9}
    11ac:	08000340 	stmdaeq	r0, {r6, r8, r9}
    11b0:	00000771 	andeq	r0, r0, r1, ror r7
    11b4:	000cf401 	andeq	pc, ip, r1, lsl #8
    11b8:	06cd3500 	strbeq	r3, [sp], r0, lsl #10
    11bc:	ab010000 	blge	411c4 <__Stack_Size+0x40dc4>
    11c0:	0000411a 	andeq	r4, r0, sl, lsl r1
    11c4:	00079500 	andeq	r9, r7, r0, lsl #10
    11c8:	00079100 	andeq	r9, r7, r0, lsl #2
    11cc:	07c33500 	strbeq	r3, [r3, r0, lsl #10]
    11d0:	ab010000 	blge	411d8 <__Stack_Size+0x40dd8>
    11d4:	00004129 	andeq	r4, r0, r9, lsr #2
    11d8:	0007c300 	andeq	ip, r7, r0, lsl #6
    11dc:	0007b300 	andeq	fp, r7, r0, lsl #6
    11e0:	06d63500 	ldrbeq	r3, [r6], r0, lsl #10
    11e4:	ab010000 	blge	411ec <__Stack_Size+0x40dec>
    11e8:	00005e3b 	andeq	r5, r0, fp, lsr lr
    11ec:	00083500 	andeq	r3, r8, r0, lsl #10
    11f0:	00082f00 	andeq	r2, r8, r0, lsl #30
    11f4:	0a6c3500 	beq	1b0e5fc <__Stack_Size+0x1b0e1fc>
    11f8:	ab010000 	blge	41200 <__Stack_Size+0x40e00>
    11fc:	0000a84a 	andeq	sl, r0, sl, asr #16
    1200:	00086b00 	andeq	r6, r8, r0, lsl #22
    1204:	00086100 	andeq	r6, r8, r0, lsl #2
    1208:	07d63700 	ldrbeq	r3, [r6, r0, lsl #14]
    120c:	ac010000 	stcge	0, cr0, [r1], {-0}
    1210:	0000410b 	andeq	r4, r0, fp, lsl #2
    1214:	0008bd00 	andeq	fp, r8, r0, lsl #26
    1218:	0008b900 	andeq	fp, r8, r0, lsl #18
    121c:	75623800 	strbvc	r3, [r2, #-2048]!	; 0xfffff800
    1220:	b5010066 	strlt	r0, [r1, #-102]	; 0xffffff9a
    1224:	00005e0c 	andeq	r5, r0, ip, lsl #28
    1228:	0008f000 	andeq	pc, r8, r0
    122c:	0008e600 	andeq	lr, r8, r0, lsl #12
    1230:	ef390000 	svc	0x00390000
    1234:	01000006 	tsteq	r0, r6
    1238:	be010d66 	cdplt	13, 0, cr0, cr1, cr6, {3}
    123c:	d8080006 	stmdale	r8, {r1, r2}
    1240:	55080007 	strpl	r0, [r8, #-7]
    1244:	01000009 	tsteq	r0, r9
    1248:	00000fe5 	andeq	r0, r0, r5, ror #31
    124c:	0006cd35 	andeq	ip, r6, r5, lsr sp
    1250:	1d660100 	stfnee	f0, [r6, #-0]
    1254:	00000041 	andeq	r0, r0, r1, asr #32
    1258:	00000995 	muleq	r0, r5, r9
    125c:	0000098d 	andeq	r0, r0, sp, lsl #19
    1260:	0002ca20 	andeq	ip, r2, r0, lsr #20
    1264:	13670100 	cmnne	r7, #0, 2
    1268:	0000005e 	andeq	r0, r0, lr, asr r0
    126c:	00140305 	andseq	r0, r4, r5, lsl #6
    1270:	fe372000 	cdp2	0, 3, cr2, cr7, cr0, {0}
    1274:	01000007 	tsteq	r0, r7
    1278:	005e0c68 	subseq	r0, lr, r8, ror #24
    127c:	09d70000 	ldmibeq	r7, {}^	; <UNPREDICTABLE>
    1280:	09cf0000 	stmibeq	pc, {}^	; <UNPREDICTABLE>
    1284:	c3370000 	teqgt	r7, #0
    1288:	01000000 	mrseq	r0, (UNDEF: 0)
    128c:	00410b69 	subeq	r0, r1, r9, ror #22
    1290:	0a0d0000 	beq	341298 <__Stack_Size+0x340e98>
    1294:	0a0b0000 	beq	2c129c <__Stack_Size+0x2c0e9c>
    1298:	72380000 	eorsvc	r0, r8, #0
    129c:	01007165 	tsteq	r0, r5, ror #2
    12a0:	00410b79 	subeq	r0, r1, r9, ror fp
    12a4:	0a360000 	beq	d812ac <__Stack_Size+0xd80eac>
    12a8:	0a2a0000 	beq	a812b0 <__Stack_Size+0xa80eb0>
    12ac:	302d0000 	eorcc	r0, sp, r0
    12b0:	bb000001 	bllt	12bc <__Stack_Size+0xebc>
    12b4:	2000000e 	andcs	r0, r0, lr
    12b8:	00000bae 	andeq	r0, r0, lr, lsr #23
    12bc:	e50b9001 	str	r9, [fp, #-1]
    12c0:	0200000f 	andeq	r0, r0, #15
    12c4:	d6206c91 			; <UNDEFINED> instruction: 0xd6206c91
    12c8:	01000006 	tsteq	r0, r6
    12cc:	005e0e91 			; <UNDEFINED> instruction: 0x005e0e91
    12d0:	91020000 	mrsls	r0, (UNDEF: 2)
    12d4:	07182e6a 	ldreq	r2, [r8, -sl, ror #28]
    12d8:	072c0800 	streq	r0, [ip, -r0, lsl #16]!
    12dc:	0dd90800 	ldcleq	8, cr0, [r9]
    12e0:	ae200000 	cdpge	0, 2, cr0, cr0, cr0, {0}
    12e4:	0100000b 	tsteq	r0, fp
    12e8:	0fe71781 	svceq	0x00e71781
    12ec:	91020000 	mrsls	r0, (UNDEF: 2)
    12f0:	06d6206c 	ldrbeq	r2, [r6], ip, rrx
    12f4:	82010000 	andhi	r0, r1, #0
    12f8:	00005e14 	andeq	r5, r0, r4, lsl lr
    12fc:	6a910200 	bvs	fe441b04 <BootRAM+0xd3b22a5>
    1300:	00072c3a 	andeq	r2, r7, sl, lsr ip
    1304:	00129008 	andseq	r9, r2, r8
    1308:	51013000 	mrspl	r3, (UNDEF: 1)
    130c:	306c9102 	rsbcc	r9, ip, r2, lsl #2
    1310:	91025201 	tstls	r2, r1, lsl #4
    1314:	3b00006a 	blcc	14c4 <__Stack_Size+0x10c4>
    1318:	0000122f 	andeq	r1, r0, pc, lsr #4
    131c:	08000704 	stmdaeq	r0, {r2, r8, r9, sl}
    1320:	00070401 	andeq	r0, r7, r1, lsl #8
    1324:	00070808 	andeq	r0, r7, r8, lsl #16
    1328:	0b890108 	bleq	fe241750 <BootRAM+0xd1b1ef1>
    132c:	00000e1a 	andeq	r0, r0, sl, lsl lr
    1330:	0012553c 	andseq	r5, r2, ip, lsr r5
    1334:	000a8c00 	andeq	r8, sl, r0, lsl #24
    1338:	000a8a00 	andeq	r8, sl, r0, lsl #20
    133c:	12493c00 	subne	r3, r9, #0, 24
    1340:	0aa20000 	beq	fe881348 <BootRAM+0xd7f1ae9>
    1344:	0aa00000 	beq	fe80134c <BootRAM+0xd771aed>
    1348:	3d3c0000 	ldccc	0, cr0, [ip, #-0]
    134c:	bc000012 	stclt	0, cr0, [r0], {18}
    1350:	ba00000a 	blt	1380 <__Stack_Size+0xf80>
    1354:	0000000a 	andeq	r0, r0, sl
    1358:	000fee3d 	andeq	lr, pc, sp, lsr lr	; <UNPREDICTABLE>
    135c:	00073c00 	andeq	r3, r7, r0, lsl #24
    1360:	01500108 	cmpeq	r0, r8, lsl #2
    1364:	94010000 	strls	r0, [r1], #-0
    1368:	000e5a05 	andeq	r5, lr, r5, lsl #20
    136c:	10083c00 	andne	r3, r8, r0, lsl #24
    1370:	0ad20000 	beq	ff481378 <BootRAM+0xe3f1b19>
    1374:	0ad00000 	beq	ff40137c <BootRAM+0xe371b1d>
    1378:	fc3c0000 	ldc2	0, cr0, [ip], #-0
    137c:	e800000f 	stmda	r0, {r0, r1, r2, r3}
    1380:	e600000a 	str	r0, [r0], -sl
    1384:	3a00000a 	bcc	13b4 <__Stack_Size+0xfb4>
    1388:	0800074a 	stmdaeq	r0, {r1, r3, r6, r8, r9, sl}
    138c:	00001015 	andeq	r1, r0, r5, lsl r0
    1390:	02500130 	subseq	r0, r0, #48, 2
    1394:	00008009 	andeq	r8, r0, r9
    1398:	00122f3b 	andseq	r2, r2, fp, lsr pc
    139c:	00074e00 	andeq	r4, r7, r0, lsl #28
    13a0:	074e0108 	strbeq	r0, [lr, -r8, lsl #2]
    13a4:	07560800 	ldrbeq	r0, [r6, -r0, lsl #16]
    13a8:	8c010800 	stchi	8, cr0, [r1], {-0}
    13ac:	000e9b0b 	andeq	r9, lr, fp, lsl #22
    13b0:	12553c00 	subsne	r3, r5, #0, 24
    13b4:	0afe0000 	beq	fff813bc <BootRAM+0xeef1b5d>
    13b8:	0afc0000 	beq	fff013c0 <BootRAM+0xee71b61>
    13bc:	493c0000 	ldmdbmi	ip!, {}	; <UNPREDICTABLE>
    13c0:	14000012 	strne	r0, [r0], #-18	; 0xffffffee
    13c4:	1200000b 	andne	r0, r0, #11
    13c8:	3c00000b 	stccc	0, cr0, [r0], {11}
    13cc:	0000123d 	andeq	r1, r0, sp, lsr r2
    13d0:	00000b2e 	andeq	r0, r0, lr, lsr #22
    13d4:	00000b2c 	andeq	r0, r0, ip, lsr #22
    13d8:	076c3a00 	strbeq	r3, [ip, -r0, lsl #20]!
    13dc:	11930800 	orrsne	r0, r3, r0, lsl #16
    13e0:	01300000 	teqeq	r0, r0
    13e4:	0c030550 	cfstr32eq	mvfx0, [r3], {80}	; 0x50
    13e8:	30200000 	eorcc	r0, r0, r0
    13ec:	91025101 	tstls	r2, r1, lsl #2
    13f0:	5201306c 	andpl	r3, r1, #108	; 0x6c
    13f4:	006a9102 	rsbeq	r9, sl, r2, lsl #2
    13f8:	12043d00 	andne	r3, r4, #0, 26
    13fc:	06de0000 	ldrbeq	r0, [lr], r0
    1400:	18010800 	stmdane	r1, {fp}
    1404:	01000001 	tsteq	r0, r1
    1408:	0f03076d 	svceq	0x0003076d
    140c:	163c0000 	ldrtne	r0, [ip], -r0
    1410:	44000012 	strmi	r0, [r0], #-18	; 0xffffffee
    1414:	4200000b 	andmi	r0, r0, #11
    1418:	3c00000b 	stccc	0, cr0, [r0], {11}
    141c:	00001222 	andeq	r1, r0, r2, lsr #4
    1420:	00000b5a 	andeq	r0, r0, sl, asr fp
    1424:	00000b58 	andeq	r0, r0, r8, asr fp
    1428:	0006e83a 	andeq	lr, r6, sl, lsr r8
    142c:	00096a08 	andeq	r6, r9, r8, lsl #20
    1430:	50013000 	andpl	r3, r1, r0
    1434:	01303101 	teqeq	r0, r1, lsl #2
    1438:	0c030551 	cfstr32eq	mvfx0, [r3], {81}	; 0x51
    143c:	00200000 	eoreq	r0, r0, r0
    1440:	122f3d00 	eorne	r3, pc, #0, 26
    1444:	077a0000 	ldrbeq	r0, [sl, -r0]!
    1448:	68050800 	stmdavs	r5, {fp}
    144c:	01000001 	tsteq	r0, r1
    1450:	0f492ca6 	svceq	0x00492ca6
    1454:	553c0000 	ldrpl	r0, [ip, #-0]!
    1458:	74000012 	strvc	r0, [r0], #-18	; 0xffffffee
    145c:	7200000b 	andvc	r0, r0, #11
    1460:	3c00000b 	stccc	0, cr0, [r0], {11}
    1464:	00001249 	andeq	r1, r0, r9, asr #4
    1468:	00000b74 	andeq	r0, r0, r4, ror fp
    146c:	00000b72 	andeq	r0, r0, r2, ror fp
    1470:	00123d3c 	andseq	r3, r2, ip, lsr sp
    1474:	000b7400 	andeq	r7, fp, r0, lsl #8
    1478:	000b7200 	andeq	r7, fp, r0, lsl #4
    147c:	070c3200 	streq	r3, [ip, -r0, lsl #4]
    1480:	0a300800 	beq	c03488 <__Stack_Size+0xc03088>
    1484:	3b000000 	blcc	148c <__Stack_Size+0x108c>
    1488:	0000122f 	andeq	r1, r0, pc, lsr #4
    148c:	0800077a 	stmdaeq	r0, {r1, r3, r4, r5, r6, r8, r9, sl}
    1490:	00077a01 	andeq	r7, r7, r1, lsl #20
    1494:	00077a08 	andeq	r7, r7, r8, lsl #20
    1498:	099a0108 	ldmibeq	sl, {r3, r8}
    149c:	00000f8a 	andeq	r0, r0, sl, lsl #31
    14a0:	0012553c 	andseq	r5, r2, ip, lsr r5
    14a4:	000b8a00 	andeq	r8, fp, r0, lsl #20
    14a8:	000b8800 	andeq	r8, fp, r0, lsl #16
    14ac:	12493c00 	subne	r3, r9, #0, 24
    14b0:	0b8a0000 	bleq	fe2814b8 <BootRAM+0xd1f1c59>
    14b4:	0b880000 	bleq	fe2014bc <BootRAM+0xd171c5d>
    14b8:	3d3c0000 	ldccc	0, cr0, [ip, #-0]
    14bc:	8a000012 	bhi	150c <__Stack_Size+0x110c>
    14c0:	8800000b 	stmdahi	r0, {r0, r1, r3}
    14c4:	0000000b 	andeq	r0, r0, fp
    14c8:	00122f3b 	andseq	r2, r2, fp, lsr pc
    14cc:	00078a00 	andeq	r8, r7, r0, lsl #20
    14d0:	078a0108 	streq	r0, [sl, r8, lsl #2]
    14d4:	078c0800 	streq	r0, [ip, r0, lsl #16]
    14d8:	9e010800 	cdpls	8, 0, cr0, cr1, cr0, {0}
    14dc:	000fcb09 	andeq	ip, pc, r9, lsl #22
    14e0:	12553c00 	subsne	r3, r5, #0, 24
    14e4:	0ba00000 	bleq	fe8014ec <BootRAM+0xd771c8d>
    14e8:	0b9e0000 	bleq	fe7814f0 <BootRAM+0xd6f1c91>
    14ec:	493c0000 	ldmdbmi	ip!, {}	; <UNPREDICTABLE>
    14f0:	a0000012 	andge	r0, r0, r2, lsl r0
    14f4:	9e00000b 	cdpls	0, 0, cr0, cr0, cr11, {0}
    14f8:	3c00000b 	stccc	0, cr0, [r0], {11}
    14fc:	0000123d 	andeq	r1, r0, sp, lsr r2
    1500:	00000ba0 	andeq	r0, r0, r0, lsr #23
    1504:	00000b9e 	muleq	r0, lr, fp
    1508:	07963a00 	ldreq	r3, [r6, r0, lsl #20]
    150c:	11370800 	teqne	r7, r0, lsl #16
    1510:	01300000 	teqeq	r0, r0
    1514:	0c030550 	cfstr32eq	mvfx0, [r3], {80}	; 0x50
    1518:	30200000 	eorcc	r0, r0, r0
    151c:	75025201 	strvc	r5, [r2, #-513]	; 0xfffffdff
    1520:	3e000000 	cdpcc	0, 0, cr0, cr0, cr0, {0}
    1524:	ed040704 	stc	7, cr0, [r4, #-16]
    1528:	3f00000f 	svccc	0x0000000f
    152c:	00040940 	andeq	r0, r4, r0, asr #18
    1530:	145e0100 	ldrbne	r0, [lr], #-256	; 0xffffff00
    1534:	10150301 	andsne	r0, r5, r1, lsl #6
    1538:	62410000 	subvs	r0, r1, #0
    153c:	01006675 	tsteq	r0, r5, ror r6
    1540:	08982c5e 	ldmeq	r8, {r1, r2, r3, r4, r6, sl, fp, sp}
    1544:	d6420000 	strble	r0, [r2], -r0
    1548:	01000006 	tsteq	r0, r6
    154c:	005e3a5e 	subseq	r3, lr, lr, asr sl
    1550:	39000000 	stmdbcc	r0, {}	; <UNPREDICTABLE>
    1554:	00000583 	andeq	r0, r0, r3, lsl #11
    1558:	010d4b01 	tsteq	sp, r1, lsl #22
    155c:	08000608 	stmdaeq	r0, {r3, r9, sl}
    1560:	08000664 	stmdaeq	r0, {r2, r5, r6, r9, sl}
    1564:	00000bb4 			; <UNDEFINED> instruction: 0x00000bb4
    1568:	0010ac01 	andseq	sl, r0, r1, lsl #24
    156c:	06cd3500 	strbeq	r3, [sp], r0, lsl #10
    1570:	4b010000 	blmi	41578 <__Stack_Size+0x41178>
    1574:	0000411c 	andeq	r4, r0, ip, lsl r1
    1578:	000bd800 	andeq	sp, fp, r0, lsl #16
    157c:	000bd400 	andeq	sp, fp, r0, lsl #8
    1580:	06793700 	ldrbteq	r3, [r9], -r0, lsl #14
    1584:	52010000 	andpl	r0, r1, #0
    1588:	00005e0c 	andeq	r5, r0, ip, lsl #28
    158c:	000bfd00 	andeq	pc, fp, r0, lsl #26
    1590:	000bf900 	andeq	pc, fp, r0, lsl #18
    1594:	122f4300 	eorne	r4, pc, #0, 6
    1598:	063e0000 	ldrteq	r0, [lr], -r0
    159c:	e8020800 	stmda	r2, {fp}
    15a0:	01000000 	mrseq	r0, (UNDEF: 0)
    15a4:	553c0354 	ldrpl	r0, [ip, #-852]!	; 0xfffffcac
    15a8:	1d000012 	stcne	0, cr0, [r0, #-72]	; 0xffffffb8
    15ac:	1b00000c 	blne	15e4 <__Stack_Size+0x11e4>
    15b0:	3c00000c 	stccc	0, cr0, [r0], {12}
    15b4:	00001249 	andeq	r1, r0, r9, asr #4
    15b8:	00000c32 	andeq	r0, r0, r2, lsr ip
    15bc:	00000c30 	andeq	r0, r0, r0, lsr ip
    15c0:	00123d3c 	andseq	r3, r2, ip, lsr sp
    15c4:	000c4700 	andeq	r4, ip, r0, lsl #14
    15c8:	000c4500 	andeq	r4, ip, r0, lsl #10
    15cc:	06463a00 	strbeq	r3, [r6], -r0, lsl #20
    15d0:	0a300800 	beq	c035d8 <__Stack_Size+0xc031d8>
    15d4:	01300000 	teqeq	r0, r0
    15d8:	30300150 	eorscc	r0, r0, r0, asr r1
    15dc:	71025101 	tstvc	r2, r1, lsl #2
    15e0:	52013000 	andpl	r3, r1, #0
    15e4:	00007202 	andeq	r7, r0, r2, lsl #4
    15e8:	01440000 	mrseq	r0, (UNDEF: 68)
    15ec:	000000bf 	strheq	r0, [r0], -pc	; <UNPREDICTABLE>
    15f0:	ea063701 	b	18f1fc <__Stack_Size+0x18edfc>
    15f4:	54080001 	strpl	r0, [r8], #-1
    15f8:	02080002 	andeq	r0, r8, #2
    15fc:	3701007d 	smlsdxcc	r1, sp, r0, r0
    1600:	45000011 	strmi	r0, [r0, #-17]	; 0xffffffef
    1604:	000010d7 	ldrdeq	r1, [r0], -r7
    1608:	00018946 	andeq	r8, r1, r6, asr #18
    160c:	03390100 	teqeq	r9, #0, 2
    1610:	00000076 	andeq	r0, r0, r6, ror r0
    1614:	00702d00 	rsbseq	r2, r0, r0, lsl #26
    1618:	10f50000 	rscsne	r0, r5, r0
    161c:	89370000 	ldmdbhi	r7!, {}	; <UNPREDICTABLE>
    1620:	01000001 	tsteq	r0, r1
    1624:	00760339 	rsbseq	r0, r6, r9, lsr r3
    1628:	0c5f0000 	mraeq	r0, pc, acc0
    162c:	0c5b0000 	mraeq	r0, fp, acc0
    1630:	2d000000 	stccs	0, cr0, [r0, #-0]
    1634:	00000090 	muleq	r0, r0, r0
    1638:	00001113 	andeq	r1, r0, r3, lsl r1
    163c:	72746338 	rsbsvc	r6, r4, #56, 6	; 0xe0000000
    1640:	103d0100 	eorsne	r0, sp, r0, lsl #2
    1644:	00000076 	andeq	r0, r0, r6, ror r0
    1648:	00000c86 	andeq	r0, r0, r6, lsl #25
    164c:	00000c7e 	andeq	r0, r0, lr, ror ip
    1650:	12624700 	rsbne	r4, r2, #0, 14
    1654:	02300000 	eorseq	r0, r0, #0
    1658:	30010800 	andcc	r0, r1, r0, lsl #16
    165c:	38080002 	stmdacc	r8, {r1}
    1660:	01080002 	tsteq	r8, r2
    1664:	713c0343 	teqvc	ip, r3, asr #6
    1668:	d5000012 	strle	r0, [r0, #-18]	; 0xffffffee
    166c:	d300000c 	movwle	r0, #12
    1670:	0000000c 	andeq	r0, r0, ip
    1674:	e5014800 	str	r4, [r1, #-2048]	; 0xfffff800
    1678:	01000006 	tsteq	r0, r6
    167c:	86011b1b 			; <UNDEFINED> instruction: 0x86011b1b
    1680:	e6000011 			; <UNDEFINED> instruction: 0xe6000011
    1684:	ea080001 	b	201690 <__Stack_Size+0x201290>
    1688:	02080001 	andeq	r0, r8, #1
    168c:	8601007d 			; <UNDEFINED> instruction: 0x8601007d
    1690:	49000011 	stmdbmi	r0, {r0, r4}
    1694:	00716572 	rsbseq	r6, r1, r2, ror r5
    1698:	8d3c1b01 	fldmdbxhi	ip!, {d1-d0}	;@ Deprecated
    169c:	ed000011 	stc	0, cr0, [r0, #-68]	; 0xffffffbc
    16a0:	e900000c 	stmdb	r0, {r2, r3}
    16a4:	3600000c 	strcc	r0, [r0], -ip
    16a8:	00000bce 	andeq	r0, r0, lr, asr #23
    16ac:	5e4a1b01 	vmlapl.f64	d17, d10, d1
    16b0:	01000000 	mrseq	r0, (UNDEF: 0)
    16b4:	06d33651 			; <UNDEFINED> instruction: 0x06d33651
    16b8:	1b010000 	blne	416c0 <__Stack_Size+0x412c0>
    16bc:	00005e5b 	andeq	r5, r0, fp, asr lr
    16c0:	00520100 	subseq	r0, r2, r0, lsl #2
    16c4:	5c080102 	stfpls	f0, [r8], {2}
    16c8:	07000001 	streq	r0, [r0, -r1]
    16cc:	00011b04 	andeq	r1, r1, r4, lsl #22
    16d0:	79014800 	stmdbvc	r1, {fp, lr}
    16d4:	01000005 	tsteq	r0, r5
    16d8:	86011b1a 			; <UNDEFINED> instruction: 0x86011b1a
    16dc:	e2000011 	and	r0, r0, #17
    16e0:	e6080001 	str	r0, [r8], -r1
    16e4:	02080001 	andeq	r0, r8, #1
    16e8:	e201007d 	and	r0, r1, #125	; 0x7d
    16ec:	49000011 	stmdbmi	r0, {r0, r4}
    16f0:	00716572 	rsbseq	r6, r1, r2, ror r5
    16f4:	8d3b1a01 	vldmdbhi	fp!, {s2}
    16f8:	12000011 	andne	r0, r0, #17
    16fc:	0e00000d 	cdpeq	0, 0, cr0, cr0, cr13, {0}
    1700:	3600000d 	strcc	r0, [r0], -sp
    1704:	00000bae 	andeq	r0, r0, lr, lsr #23
    1708:	e2471a01 	sub	r1, r7, #4096	; 0x1000
    170c:	01000011 	tsteq	r0, r1, lsl r0
    1710:	06d63651 			; <UNDEFINED> instruction: 0x06d63651
    1714:	1a010000 	bne	4171c <__Stack_Size+0x4131c>
    1718:	000a1e57 	andeq	r1, sl, r7, asr lr
    171c:	00520100 	subseq	r0, r2, r0, lsl #2
    1720:	0fe50407 	svceq	0x00e50407
    1724:	014a0000 	mrseq	r0, (UNDEF: 74)
    1728:	000000e7 	andeq	r0, r0, r7, ror #1
    172c:	4a1b1901 	bmi	6c7b38 <__Stack_Size+0x6c7738>
    1730:	0004d201 	andeq	sp, r4, r1, lsl #4
    1734:	1b180100 	blne	601b3c <__Stack_Size+0x60173c>
    1738:	0505014b 	streq	r0, [r5, #-331]	; 0xfffffeb5
    173c:	17010000 	strne	r0, [r1, -r0]
    1740:	8b4c011b 	blhi	1301bb4 <__Stack_Size+0x13017b4>
    1744:	03000004 	movweq	r0, #4
    1748:	950113b4 	strls	r1, [r1, #-948]	; 0xfffffc4c
    174c:	03000000 	movweq	r0, #0
    1750:	0000122f 	andeq	r1, r0, pc, lsr #4
    1754:	0006cd42 	andeq	ip, r6, r2, asr #26
    1758:	27b40300 	ldrcs	r0, [r4, r0, lsl #6]!
    175c:	00000041 	andeq	r0, r0, r1, asr #32
    1760:	66756241 	ldrbtvs	r6, [r5], -r1, asr #4
    1764:	38b40300 	ldmcc	r4!, {r8, r9}
    1768:	00000a1e 	andeq	r0, r0, lr, lsl sl
    176c:	037a4000 	cmneq	sl, #0
    1770:	ab030000 	blge	c1778 <__Stack_Size+0xc1378>
    1774:	62030114 	andvs	r0, r3, #20, 2
    1778:	42000012 	andmi	r0, r0, #18
    177c:	000006cd 	andeq	r0, r0, sp, asr #13
    1780:	4129ab03 			; <UNDEFINED> instruction: 0x4129ab03
    1784:	41000000 	mrsmi	r0, (UNDEF: 0)
    1788:	00667562 	rsbeq	r7, r6, r2, ror #10
    178c:	983fab03 	ldmdals	pc!, {r0, r1, r8, r9, fp, sp, pc}	; <UNPREDICTABLE>
    1790:	42000008 	andmi	r0, r0, #8
    1794:	000006d6 	ldrdeq	r0, [r0], -r6
    1798:	5e4dab03 	vmlapl.f64	d26, d13, d3
    179c:	00000000 	andeq	r0, r0, r0
    17a0:	00039a4d 	andeq	r9, r3, sp, asr #20
    17a4:	05de0200 	ldrbeq	r0, [lr, #512]	; 0x200
    17a8:	7f030116 	svcvc	0x00030116
    17ac:	4e000012 	mcrmi	0, 0, r0, cr0, cr2, {0}
    17b0:	00000304 	andeq	r0, r0, r4, lsl #6
    17b4:	2f05de02 	svccs	0x0005de02
    17b8:	0000026e 	andeq	r0, r0, lr, ror #4
    17bc:	11fa4f00 	mvnsne	r4, r0, lsl #30
    17c0:	01dc0000 	bicseq	r0, ip, r0
    17c4:	01de0800 	bicseq	r0, lr, r0, lsl #16
    17c8:	7d020800 	stcvc	8, cr0, [r2, #-0]
    17cc:	01500100 	cmpeq	r0, r0, lsl #2
    17d0:	0003d301 	andeq	sp, r3, r1, lsl #6
    17d4:	0003d300 	andeq	sp, r3, r0, lsl #6
    17d8:	06390300 	ldrteq	r0, [r9], -r0, lsl #6
    17dc:	0019da00 	andseq	sp, r9, r0, lsl #20
    17e0:	2c000200 	sfmcs	f0, 4, [r0], {-0}
    17e4:	04000007 	streq	r0, [r0], #-7
    17e8:	00001201 	andeq	r1, r0, r1, lsl #4
    17ec:	08d60c00 	ldmeq	r6, {sl, fp}^
    17f0:	01040000 	mrseq	r0, (UNDEF: 4)
    17f4:	07d80000 	ldrbeq	r0, [r8, r0]
    17f8:	0a0a0800 	beq	283800 <__Stack_Size+0x283400>
    17fc:	0a0f0800 	beq	3c3804 <__Stack_Size+0x3c3404>
    1800:	04020000 	streq	r0, [r2], #-0
    1804:	00019807 	andeq	r9, r1, r7, lsl #16
    1808:	06010200 	streq	r0, [r1], -r0, lsl #4
    180c:	00000155 	andeq	r0, r0, r5, asr r1
    1810:	00058b03 	andeq	r8, r5, r3, lsl #22
    1814:	18250400 	stmdane	r5!, {sl}
    1818:	00000044 	andeq	r0, r0, r4, asr #32
    181c:	00003304 	andeq	r3, r0, r4, lsl #6
    1820:	05020200 	streq	r0, [r2, #-512]	; 0xfffffe00
    1824:	000001f4 	strdeq	r0, [r0], -r4
    1828:	00020b03 	andeq	r0, r2, r3, lsl #22
    182c:	18280400 	stmdane	r8!, {sl}
    1830:	00000057 	andeq	r0, r0, r7, asr r0
    1834:	c2050402 	andgt	r0, r5, #33554432	; 0x2000000
    1838:	02000001 	andeq	r0, r0, #1
    183c:	01bd0508 			; <UNDEFINED> instruction: 0x01bd0508
    1840:	a5030000 	strge	r0, [r3, #-0]
    1844:	04000001 	streq	r0, [r0], #-1
    1848:	007b182e 	rsbseq	r1, fp, lr, lsr #16
    184c:	65050000 	strvs	r0, [r5, #-0]
    1850:	04000000 	streq	r0, [r0], #-0
    1854:	00000065 	andeq	r0, r0, r5, rrx
    1858:	53080102 	movwpl	r0, #33026	; 0x8102
    185c:	03000001 	movweq	r0, #1
    1860:	0000058a 	andeq	r0, r0, sl, lsl #11
    1864:	93193104 	tstls	r9, #4, 2
    1868:	05000000 	streq	r0, [r0, #-0]
    186c:	00000082 	andeq	r0, r0, r2, lsl #1
    1870:	2b070202 	blcs	1c2080 <__Stack_Size+0x1c1c80>
    1874:	03000001 	movweq	r0, #1
    1878:	0000020a 	andeq	r0, r0, sl, lsl #4
    187c:	ab193404 	blge	64e894 <__Stack_Size+0x64e494>
    1880:	05000000 	streq	r0, [r0, #-0]
    1884:	0000009a 	muleq	r0, sl, r0
    1888:	93070402 	movwls	r0, #29698	; 0x7402
    188c:	02000001 	andeq	r0, r0, #1
    1890:	018e0708 	orreq	r0, lr, r8, lsl #14
    1894:	04060000 	streq	r0, [r6], #-0
    1898:	746e6905 	strbtvc	r6, [lr], #-2309	; 0xfffff6fb
    189c:	00b90500 	adcseq	r0, r9, r0, lsl #10
    18a0:	08070000 	stmdaeq	r7, {}	; <UNPREDICTABLE>
    18a4:	1a091b02 	bne	2484b4 <__Stack_Size+0x2480b4>
    18a8:	08000001 	stmdaeq	r0, {r0}
    18ac:	000002a4 	andeq	r0, r0, r4, lsr #5
    18b0:	650b1c02 	strvs	r1, [fp, #-3074]	; 0xfffff3fe
    18b4:	02000000 	andeq	r0, r0, #0
    18b8:	89080023 	stmdbhi	r8, {r0, r1, r5}
    18bc:	02000006 	andeq	r0, r0, #6
    18c0:	00650b1d 	rsbeq	r0, r5, sp, lsl fp
    18c4:	23020000 	movwcs	r0, #8192	; 0x2000
    18c8:	03270801 			; <UNDEFINED> instruction: 0x03270801
    18cc:	1e020000 	cdpne	0, 0, cr0, cr2, cr0, {0}
    18d0:	0000820c 	andeq	r8, r0, ip, lsl #4
    18d4:	02230200 	eoreq	r0, r3, #0, 4
    18d8:	00024008 	andeq	r4, r2, r8
    18dc:	0c1f0200 	lfmeq	f0, 4, [pc], {-0}
    18e0:	00000082 	andeq	r0, r0, r2, lsl #1
    18e4:	08042302 	stmdaeq	r4, {r1, r8, r9, sp}
    18e8:	0000065f 	andeq	r0, r0, pc, asr r6
    18ec:	820c2002 	andhi	r2, ip, #2
    18f0:	02000000 	andeq	r0, r0, #0
    18f4:	03000623 	movweq	r0, #1571	; 0x623
    18f8:	000006fc 	strdeq	r0, [r0], -ip
    18fc:	c5022102 	strgt	r2, [r2, #-258]	; 0xfffffefe
    1900:	09000000 	stmdbeq	r0, {}	; <UNPREDICTABLE>
    1904:	002c0105 	eoreq	r0, ip, r5, lsl #2
    1908:	58050000 	stmdapl	r5, {}	; <UNPREDICTABLE>
    190c:	00026d01 	andeq	r6, r2, r1, lsl #26
    1910:	064b0a00 	strbeq	r0, [fp], -r0, lsl #20
    1914:	0a720000 	beq	1c8191c <__Stack_Size+0x1c8151c>
    1918:	000007dd 	ldrdeq	r0, [r0], -sp
    191c:	032e0a73 			; <UNDEFINED> instruction: 0x032e0a73
    1920:	0a740000 	beq	1d01928 <__Stack_Size+0x1d01528>
    1924:	000004ec 	andeq	r0, r0, ip, ror #9
    1928:	07360a75 			; <UNDEFINED> instruction: 0x07360a75
    192c:	0a760000 	beq	1d81934 <__Stack_Size+0x1d81534>
    1930:	0000077d 	andeq	r0, r0, sp, ror r7
    1934:	07240a7b 			; <UNDEFINED> instruction: 0x07240a7b
    1938:	0a7c0000 	beq	1f01940 <__Stack_Size+0x1f01540>
    193c:	00000312 	andeq	r0, r0, r2, lsl r3
    1940:	06c00a7e 			; <UNDEFINED> instruction: 0x06c00a7e
    1944:	0b7f0000 	bleq	1fc194c <__Stack_Size+0x1fc154c>
    1948:	000004c8 	andeq	r0, r0, r8, asr #9
    194c:	05140b00 	ldreq	r0, [r4, #-2816]	; 0xfffff500
    1950:	0b010000 	bleq	41958 <__Stack_Size+0x41558>
    1954:	00000828 	andeq	r0, r0, r8, lsr #16
    1958:	05c10b02 	strbeq	r0, [r1, #2818]	; 0xb02
    195c:	0b030000 	bleq	c1964 <__Stack_Size+0xc1564>
    1960:	000002bf 			; <UNDEFINED> instruction: 0x000002bf
    1964:	031e0b04 	tsteq	lr, #4, 22	; 0x1000
    1968:	0b050000 	bleq	141970 <__Stack_Size+0x141570>
    196c:	000002d4 	ldrdeq	r0, [r0], -r4
    1970:	067e0b06 	ldrbteq	r0, [lr], -r6, lsl #22
    1974:	0b070000 	bleq	1c197c <__Stack_Size+0x1c157c>
    1978:	0000044d 	andeq	r0, r0, sp, asr #8
    197c:	07cb0b08 	strbeq	r0, [fp, r8, lsl #22]
    1980:	0b090000 	bleq	241988 <__Stack_Size+0x241588>
    1984:	000004fa 	strdeq	r0, [r0], -sl
    1988:	04a10b0a 	strteq	r0, [r1], #2826	; 0xb0a
    198c:	0b0b0000 	bleq	2c1994 <__Stack_Size+0x2c1594>
    1990:	00000285 	andeq	r0, r0, r5, lsl #5
    1994:	053d0b0c 	ldreq	r0, [sp, #-2828]!	; 0xfffff4f4
    1998:	0b0d0000 	bleq	3419a0 <__Stack_Size+0x3415a0>
    199c:	00000387 	andeq	r0, r0, r7, lsl #7
    19a0:	07a90b0e 	streq	r0, [r9, lr, lsl #22]!
    19a4:	0b0f0000 	bleq	3c19ac <__Stack_Size+0x3c15ac>
    19a8:	00000477 	andeq	r0, r0, r7, ror r4
    19ac:	025b0b10 	subseq	r0, fp, #16, 22	; 0x4000
    19b0:	0b110000 	bleq	4419b8 <__Stack_Size+0x4415b8>
    19b4:	00000806 	andeq	r0, r0, r6, lsl #16
    19b8:	03eb0b12 	mvneq	r0, #18432	; 0x4800
    19bc:	0b130000 	bleq	4c19c4 <__Stack_Size+0x4c15c4>
    19c0:	0000022b 	andeq	r0, r0, fp, lsr #4
    19c4:	03bb0b14 			; <UNDEFINED> instruction: 0x03bb0b14
    19c8:	0b150000 	bleq	5419d0 <__Stack_Size+0x5415d0>
    19cc:	0000024d 	andeq	r0, r0, sp, asr #4
    19d0:	07700b16 			; <UNDEFINED> instruction: 0x07700b16
    19d4:	0b170000 	bleq	5c19dc <__Stack_Size+0x5c15dc>
    19d8:	00000358 	andeq	r0, r0, r8, asr r3
    19dc:	05a00b18 	streq	r0, [r0, #2840]!	; 0xb18
    19e0:	0b190000 	bleq	6419e8 <__Stack_Size+0x6415e8>
    19e4:	000006a1 	andeq	r0, r0, r1, lsr #13
    19e8:	06670b1a 			; <UNDEFINED> instruction: 0x06670b1a
    19ec:	0b1b0000 	bleq	6c19f4 <__Stack_Size+0x6c15f4>
    19f0:	000006db 	ldrdeq	r0, [r0], -fp
    19f4:	04970b1c 	ldreq	r0, [r7], #2844	; 0xb1c
    19f8:	0b1d0000 	bleq	741a00 <__Stack_Size+0x741600>
    19fc:	0000027b 	andeq	r0, r0, fp, ror r2
    1a00:	055e0b1e 	ldrbeq	r0, [lr, #-2846]	; 0xfffff4e2
    1a04:	0b1f0000 	bleq	7c1a0c <__Stack_Size+0x7c160c>
    1a08:	000006b3 			; <UNDEFINED> instruction: 0x000006b3
    1a0c:	04580b20 	ldrbeq	r0, [r8], #-2848	; 0xfffff4e0
    1a10:	0b210000 	bleq	841a18 <__Stack_Size+0x841618>
    1a14:	0000026e 	andeq	r0, r0, lr, ror #4
    1a18:	036f0b22 	cmneq	pc, #34816	; 0x8800
    1a1c:	0b230000 	bleq	8c1a24 <__Stack_Size+0x8c1624>
    1a20:	0000078e 	andeq	r0, r0, lr, lsl #15
    1a24:	06330b24 	ldrteq	r0, [r3], -r4, lsr #22
    1a28:	0b250000 	bleq	941a30 <__Stack_Size+0x941630>
    1a2c:	00000412 	andeq	r0, r0, r2, lsl r4
    1a30:	081c0b26 	ldmdaeq	ip, {r1, r2, r5, r8, r9, fp}
    1a34:	0b270000 	bleq	9c1a3c <__Stack_Size+0x9c163c>
    1a38:	000002fa 	strdeq	r0, [r0], -sl
    1a3c:	05b20b28 	ldreq	r0, [r2, #2856]!	; 0xb28
    1a40:	0b290000 	bleq	a41a48 <__Stack_Size+0xa41648>
    1a44:	000004b9 			; <UNDEFINED> instruction: 0x000004b9
    1a48:	ff03002a 			; <UNDEFINED> instruction: 0xff03002a
    1a4c:	05000003 	streq	r0, [r0, #-3]
    1a50:	01260390 			; <UNDEFINED> instruction: 0x01260390
    1a54:	040c0000 	streq	r0, [ip], #-0
    1a58:	0984030e 	stmibeq	r4, {r1, r2, r3, r8, r9}
    1a5c:	00000351 	andeq	r0, r0, r1, asr r3
    1a60:	00035308 	andeq	r5, r3, r8, lsl #6
    1a64:	11860300 	orrne	r0, r6, r0, lsl #6
    1a68:	00000361 	andeq	r0, r0, r1, ror #6
    1a6c:	08002302 	stmdaeq	r0, {r1, r8, r9, sp}
    1a70:	000005cf 	andeq	r0, r0, pc, asr #11
    1a74:	66118703 	ldrvs	r8, [r1], -r3, lsl #14
    1a78:	02000003 	andeq	r0, r0, #3
    1a7c:	89082023 	stmdbhi	r8, {r0, r1, r5, sp}
    1a80:	03000007 	movweq	r0, #7
    1a84:	03611188 	cmneq	r1, #136, 2	; 0x22
    1a88:	23030000 	movwcs	r0, #12288	; 0x3000
    1a8c:	66080180 	strvs	r0, [r8], -r0, lsl #3
    1a90:	03000003 	movweq	r0, #3
    1a94:	03661189 	cmneq	r6, #1073741858	; 0x40000022
    1a98:	23030000 	movwcs	r0, #12288	; 0x3000
    1a9c:	ec0801a0 	stfs	f0, [r8], {160}	; 0xa0
    1aa0:	03000007 	movweq	r0, #7
    1aa4:	0361118a 	cmneq	r1, #-2147483614	; 0x80000022
    1aa8:	23030000 	movwcs	r0, #12288	; 0x3000
    1aac:	e3080280 	movw	r0, #33408	; 0x8280
    1ab0:	03000005 	movweq	r0, #5
    1ab4:	0366118b 	cmneq	r6, #-1073741790	; 0xc0000022
    1ab8:	23030000 	movwcs	r0, #12288	; 0x3000
    1abc:	330802a0 	movwcc	r0, #33440	; 0x82a0
    1ac0:	03000005 	movweq	r0, #5
    1ac4:	0361118c 	cmneq	r1, #140, 2	; 0x23
    1ac8:	23030000 	movwcs	r0, #12288	; 0x3000
    1acc:	ed080380 	stc	3, cr0, [r8, #-512]	; 0xfffffe00
    1ad0:	03000005 	movweq	r0, #5
    1ad4:	0366118d 	cmneq	r6, #1073741859	; 0x40000023
    1ad8:	23030000 	movwcs	r0, #12288	; 0x3000
    1adc:	980803a0 	stmdals	r8, {r5, r7, r8, r9}
    1ae0:	03000007 	movweq	r0, #7
    1ae4:	0361118e 	cmneq	r1, #-2147483613	; 0x80000023
    1ae8:	23030000 	movwcs	r0, #12288	; 0x3000
    1aec:	f7080480 			; <UNDEFINED> instruction: 0xf7080480
    1af0:	03000005 	movweq	r0, #5
    1af4:	0376118f 	cmneq	r6, #-1073741789	; 0xc0000023
    1af8:	23030000 	movwcs	r0, #12288	; 0x3000
    1afc:	490d04a0 	stmdbmi	sp, {r5, r7, sl}
    1b00:	90030050 	andls	r0, r3, r0, asr r0
    1b04:	00039611 	andeq	r9, r3, r1, lsl r6
    1b08:	80230300 	eorhi	r0, r3, r0, lsl #6
    1b0c:	06010806 	streq	r0, [r1], -r6, lsl #16
    1b10:	91030000 	mrsls	r0, (UNDEF: 3)
    1b14:	00039b11 	andeq	r9, r3, r1, lsl fp
    1b18:	f0230300 			; <UNDEFINED> instruction: 0xf0230300
    1b1c:	05ad0807 	streq	r0, [sp, #2055]!	; 0x807
    1b20:	92030000 	andls	r0, r3, #0
    1b24:	0000a611 	andeq	sl, r0, r1, lsl r6
    1b28:	80230300 	eorhi	r0, r3, r0, lsl #6
    1b2c:	a60e001c 			; <UNDEFINED> instruction: 0xa60e001c
    1b30:	61000000 	mrsvs	r0, (UNDEF: 0)
    1b34:	0f000003 	svceq	0x00000003
    1b38:	00000025 	andeq	r0, r0, r5, lsr #32
    1b3c:	51050007 	tstpl	r5, r7
    1b40:	0e000003 	cdpeq	0, 0, cr0, cr0, cr3, {0}
    1b44:	0000009a 	muleq	r0, sl, r0
    1b48:	00000376 	andeq	r0, r0, r6, ror r3
    1b4c:	0000250f 	andeq	r2, r0, pc, lsl #10
    1b50:	0e001700 	cdpeq	7, 0, cr1, cr0, cr0, {0}
    1b54:	0000009a 	muleq	r0, sl, r0
    1b58:	00000386 	andeq	r0, r0, r6, lsl #7
    1b5c:	0000250f 	andeq	r2, r0, pc, lsl #10
    1b60:	0e003700 	cdpeq	7, 0, cr3, cr0, cr0, {0}
    1b64:	00000071 	andeq	r0, r0, r1, ror r0
    1b68:	00000396 	muleq	r0, r6, r3
    1b6c:	0000250f 	andeq	r2, r0, pc, lsl #10
    1b70:	0500ef00 	streq	lr, [r0, #-3840]	; 0xfffff100
    1b74:	00000386 	andeq	r0, r0, r6, lsl #7
    1b78:	00009a0e 	andeq	r9, r0, lr, lsl #20
    1b7c:	0003ac00 	andeq	sl, r3, r0, lsl #24
    1b80:	00251000 	eoreq	r1, r5, r0
    1b84:	02830000 	addeq	r0, r3, #0
    1b88:	06920300 	ldreq	r0, [r2], r0, lsl #6
    1b8c:	93030000 	movwls	r0, #12288	; 0x3000
    1b90:	00027904 	andeq	r7, r2, r4, lsl #18
    1b94:	013e1100 	teqeq	lr, r0, lsl #2
    1b98:	ce030000 	cdpgt	0, 0, cr0, cr3, cr0, {0}
    1b9c:	00c01506 	sbceq	r1, r0, r6, lsl #10
    1ba0:	01010000 	mrseq	r0, (UNDEF: 1)
    1ba4:	0001cb12 	andeq	ip, r1, r2, lsl fp
    1ba8:	11450600 	cmpne	r5, r0, lsl #12
    1bac:	0000009a 	muleq	r0, sl, r0
    1bb0:	760e0101 	strvc	r0, [lr], -r1, lsl #2
    1bb4:	e5000000 	str	r0, [r0, #-0]
    1bb8:	0f000003 	svceq	0x00000003
    1bbc:	00000025 	andeq	r0, r0, r5, lsr #32
    1bc0:	d504000f 	strle	r0, [r4, #-15]
    1bc4:	12000003 	andne	r0, r0, #3
    1bc8:	000000f6 	strdeq	r0, [r0], -r6
    1bcc:	e5174606 	ldr	r4, [r7, #-1542]	; 0xfffff9fa
    1bd0:	01000003 	tsteq	r0, r3
    1bd4:	00760e01 	rsbseq	r0, r6, r1, lsl #28
    1bd8:	04080000 	streq	r0, [r8], #-0
    1bdc:	250f0000 	strcs	r0, [pc, #-0]	; 1be4 <__Stack_Size+0x17e4>
    1be0:	07000000 	streq	r0, [r0, -r0]
    1be4:	03f80400 	mvnseq	r0, #0, 8
    1be8:	e6120000 	ldr	r0, [r2], -r0
    1bec:	06000001 	streq	r0, [r0], -r1
    1bf0:	04081747 	streq	r1, [r8], #-1863	; 0xfffff8b9
    1bf4:	01010000 	mrseq	r0, (UNDEF: 1)
    1bf8:	79051c13 	stmdbvc	r5, {r0, r1, r4, sl, fp, ip}
    1bfc:	04960901 	ldreq	r0, [r6], #2305	; 0x901
    1c00:	43140000 	tstmi	r4, #0
    1c04:	05004c52 	streq	r4, [r0, #-3154]	; 0xfffff3ae
    1c08:	a611017b 			; <UNDEFINED> instruction: 0xa611017b
    1c0c:	02000000 	andeq	r0, r0, #0
    1c10:	43140023 	tstmi	r4, #35	; 0x23
    1c14:	05004852 	streq	r4, [r0, #-2130]	; 0xfffff7ae
    1c18:	a611017c 			; <UNDEFINED> instruction: 0xa611017c
    1c1c:	02000000 	andeq	r0, r0, #0
    1c20:	49140423 	ldmdbmi	r4, {r0, r1, r5, sl}
    1c24:	05005244 	streq	r5, [r0, #-580]	; 0xfffffdbc
    1c28:	a611017d 			; <UNDEFINED> instruction: 0xa611017d
    1c2c:	02000000 	andeq	r0, r0, #0
    1c30:	4f140823 	svcmi	0x00140823
    1c34:	05005244 	streq	r5, [r0, #-580]	; 0xfffffdbc
    1c38:	a611017e 			; <UNDEFINED> instruction: 0xa611017e
    1c3c:	02000000 	andeq	r0, r0, #0
    1c40:	b3150c23 	tstlt	r5, #8960	; 0x2300
    1c44:	05000000 	streq	r0, [r0, #-0]
    1c48:	a611017f 			; <UNDEFINED> instruction: 0xa611017f
    1c4c:	02000000 	andeq	r0, r0, #0
    1c50:	42141023 	andsmi	r1, r4, #35	; 0x23
    1c54:	05005252 	streq	r5, [r0, #-594]	; 0xfffffdae
    1c58:	a6110180 	ldrge	r0, [r1], -r0, lsl #3
    1c5c:	02000000 	andeq	r0, r0, #0
    1c60:	26151423 	ldrcs	r1, [r5], -r3, lsr #8
    1c64:	05000002 	streq	r0, [r0, #-2]
    1c68:	a6110181 	ldrge	r0, [r1], -r1, lsl #3
    1c6c:	02000000 	andeq	r0, r0, #0
    1c70:	16001823 	strne	r1, [r0], -r3, lsr #16
    1c74:	000000da 	ldrdeq	r0, [r0], -sl
    1c78:	03018205 	movweq	r8, #4613	; 0x1205
    1c7c:	0000041b 	andeq	r0, r0, fp, lsl r4
    1c80:	bb052813 	bllt	14bcd4 <__Stack_Size+0x14b8d4>
    1c84:	054d0901 	strbeq	r0, [sp, #-2305]	; 0xfffff6ff
    1c88:	43140000 	tstmi	r4, #0
    1c8c:	bd050052 	stclt	0, cr0, [r5, #-328]	; 0xfffffeb8
    1c90:	00a61101 	adceq	r1, r6, r1, lsl #2
    1c94:	23020000 	movwcs	r0, #8192	; 0x2000
    1c98:	000d1500 	andeq	r1, sp, r0, lsl #10
    1c9c:	be050000 	cdplt	0, 0, cr0, cr5, cr0, {0}
    1ca0:	00a61101 	adceq	r1, r6, r1, lsl #2
    1ca4:	23020000 	movwcs	r0, #8192	; 0x2000
    1ca8:	49431404 	stmdbmi	r3, {r2, sl, ip}^
    1cac:	bf050052 	svclt	0x00050052
    1cb0:	00a61101 	adceq	r1, r6, r1, lsl #2
    1cb4:	23020000 	movwcs	r0, #8192	; 0x2000
    1cb8:	01801508 	orreq	r1, r0, r8, lsl #10
    1cbc:	c0050000 	andgt	r0, r5, r0
    1cc0:	00a61101 	adceq	r1, r6, r1, lsl #2
    1cc4:	23020000 	movwcs	r0, #8192	; 0x2000
    1cc8:	016a150c 	cmneq	sl, ip, lsl #10
    1ccc:	c1050000 	mrsgt	r0, (UNDEF: 5)
    1cd0:	00a61101 	adceq	r1, r6, r1, lsl #2
    1cd4:	23020000 	movwcs	r0, #8192	; 0x2000
    1cd8:	00b81510 	adcseq	r1, r8, r0, lsl r5
    1cdc:	c2050000 	andgt	r0, r5, #0
    1ce0:	00a61101 	adceq	r1, r6, r1, lsl #2
    1ce4:	23020000 	movwcs	r0, #8192	; 0x2000
    1ce8:	00001514 	andeq	r1, r0, r4, lsl r5
    1cec:	c3050000 	movwgt	r0, #20480	; 0x5000
    1cf0:	00a61101 	adceq	r1, r6, r1, lsl #2
    1cf4:	23020000 	movwcs	r0, #8192	; 0x2000
    1cf8:	01781518 	cmneq	r8, r8, lsl r5
    1cfc:	c4050000 	strgt	r0, [r5], #-0
    1d00:	00a61101 	adceq	r1, r6, r1, lsl #2
    1d04:	23020000 	movwcs	r0, #8192	; 0x2000
    1d08:	0008151c 	andeq	r1, r8, ip, lsl r5
    1d0c:	c5050000 	strgt	r0, [r5, #-0]
    1d10:	00a61101 	adceq	r1, r6, r1, lsl #2
    1d14:	23020000 	movwcs	r0, #8192	; 0x2000
    1d18:	53431420 	movtpl	r1, #13344	; 0x3420
    1d1c:	c6050052 			; <UNDEFINED> instruction: 0xc6050052
    1d20:	00a61101 	adceq	r1, r6, r1, lsl #2
    1d24:	23020000 	movwcs	r0, #8192	; 0x2000
    1d28:	fe160024 	cdp2	0, 1, cr0, cr6, cr4, {1}
    1d2c:	05000001 	streq	r0, [r0, #-1]
    1d30:	a30301c9 	movwge	r0, #12745	; 0x31c9
    1d34:	13000004 	movwne	r0, #4
    1d38:	020c0554 	andeq	r0, ip, #84, 10	; 0x15000000
    1d3c:	0006b309 	andeq	fp, r6, r9, lsl #6
    1d40:	52431400 	subpl	r1, r3, #0, 8
    1d44:	0e050031 	mcreq	0, 0, r0, cr5, cr1, {1}
    1d48:	00a61102 	adceq	r1, r6, r2, lsl #2
    1d4c:	23020000 	movwcs	r0, #8192	; 0x2000
    1d50:	52431400 	subpl	r1, r3, #0, 8
    1d54:	0f050032 	svceq	0x00050032
    1d58:	00a61102 	adceq	r1, r6, r2, lsl #2
    1d5c:	23020000 	movwcs	r0, #8192	; 0x2000
    1d60:	0ab51504 	beq	fed47178 <BootRAM+0xdcb7919>
    1d64:	10050000 	andne	r0, r5, r0
    1d68:	00a61102 	adceq	r1, r6, r2, lsl #2
    1d6c:	23020000 	movwcs	r0, #8192	; 0x2000
    1d70:	0a391508 	beq	e47198 <__Stack_Size+0xe46d98>
    1d74:	11050000 	mrsne	r0, (UNDEF: 5)
    1d78:	00a61102 	adceq	r1, r6, r2, lsl #2
    1d7c:	23020000 	movwcs	r0, #8192	; 0x2000
    1d80:	5253140c 	subspl	r1, r3, #12, 8	; 0xc000000
    1d84:	02120500 	andseq	r0, r2, #0, 10
    1d88:	0000a611 	andeq	sl, r0, r1, lsl r6
    1d8c:	10230200 	eorne	r0, r3, r0, lsl #4
    1d90:	52474514 	subpl	r4, r7, #20, 10	; 0x5000000
    1d94:	02130500 	andseq	r0, r3, #0, 10
    1d98:	0000a611 	andeq	sl, r0, r1, lsl r6
    1d9c:	14230200 	strtne	r0, [r3], #-512	; 0xfffffe00
    1da0:	0009a315 	andeq	sl, r9, r5, lsl r3
    1da4:	02140500 	andseq	r0, r4, #0, 10
    1da8:	0000a611 	andeq	sl, r0, r1, lsl r6
    1dac:	18230200 	stmdane	r3!, {r9}
    1db0:	0009a915 	andeq	sl, r9, r5, lsl r9
    1db4:	02150500 	andseq	r0, r5, #0, 10
    1db8:	0000a611 	andeq	sl, r0, r1, lsl r6
    1dbc:	1c230200 	sfmne	f0, 4, [r3], #-0
    1dc0:	000a5815 	andeq	r5, sl, r5, lsl r8
    1dc4:	02160500 	andseq	r0, r6, #0, 10
    1dc8:	0000a611 	andeq	sl, r0, r1, lsl r6
    1dcc:	20230200 	eorcs	r0, r3, r0, lsl #4
    1dd0:	544e4314 	strbpl	r4, [lr], #-788	; 0xfffffcec
    1dd4:	02170500 	andseq	r0, r7, #0, 10
    1dd8:	0000a611 	andeq	sl, r0, r1, lsl r6
    1ddc:	24230200 	strtcs	r0, [r3], #-512	; 0xfffffe00
    1de0:	43535014 	cmpmi	r3, #20
    1de4:	02180500 	andseq	r0, r8, #0, 10
    1de8:	0000a611 	andeq	sl, r0, r1, lsl r6
    1dec:	28230200 	stmdacs	r3!, {r9}
    1df0:	52524114 	subspl	r4, r2, #20, 2
    1df4:	02190500 	andseq	r0, r9, #0, 10
    1df8:	0000a611 	andeq	sl, r0, r1, lsl r6
    1dfc:	2c230200 	sfmcs	f0, 4, [r3], #-0
    1e00:	52435214 	subpl	r5, r3, #20, 4	; 0x40000001
    1e04:	021a0500 	andseq	r0, sl, #0, 10
    1e08:	0000a611 	andeq	sl, r0, r1, lsl r6
    1e0c:	30230200 	eorcc	r0, r3, r0, lsl #4
    1e10:	00099415 	andeq	r9, r9, r5, lsl r4
    1e14:	021b0500 	andseq	r0, fp, #0, 10
    1e18:	0000a611 	andeq	sl, r0, r1, lsl r6
    1e1c:	34230200 	strtcc	r0, [r3], #-512	; 0xfffffe00
    1e20:	00099915 	andeq	r9, r9, r5, lsl r9
    1e24:	021c0500 	andseq	r0, ip, #0, 10
    1e28:	0000a611 	andeq	sl, r0, r1, lsl r6
    1e2c:	38230200 	stmdacc	r3!, {r9}
    1e30:	00099e15 	andeq	r9, r9, r5, lsl lr
    1e34:	021d0500 	andseq	r0, sp, #0, 10
    1e38:	0000a611 	andeq	sl, r0, r1, lsl r6
    1e3c:	3c230200 	sfmcc	f0, 4, [r3], #-0
    1e40:	000a9e15 	andeq	r9, sl, r5, lsl lr
    1e44:	021e0500 	andseq	r0, lr, #0, 10
    1e48:	0000a611 	andeq	sl, r0, r1, lsl r6
    1e4c:	40230200 	eormi	r0, r3, r0, lsl #4
    1e50:	00097e15 	andeq	r7, r9, r5, lsl lr
    1e54:	021f0500 	andseq	r0, pc, #0, 10
    1e58:	0000a611 	andeq	sl, r0, r1, lsl r6
    1e5c:	44230200 	strtmi	r0, [r3], #-512	; 0xfffffe00
    1e60:	52434414 	subpl	r4, r3, #20, 8	; 0x14000000
    1e64:	02200500 	eoreq	r0, r0, #0, 10
    1e68:	0000a611 	andeq	sl, r0, r1, lsl r6
    1e6c:	48230200 	stmdami	r3!, {r9}
    1e70:	000b9515 	andeq	r9, fp, r5, lsl r5
    1e74:	02210500 	eoreq	r0, r1, #0, 10
    1e78:	0000a611 	andeq	sl, r0, r1, lsl r6
    1e7c:	4c230200 	sfmmi	f0, 4, [r3], #-0
    1e80:	00524f14 	subseq	r4, r2, r4, lsl pc
    1e84:	11022205 	tstne	r2, r5, lsl #4
    1e88:	000000a6 	andeq	r0, r0, r6, lsr #1
    1e8c:	00502302 	subseq	r2, r0, r2, lsl #6
    1e90:	00095916 	andeq	r5, r9, r6, lsl r9
    1e94:	02230500 	eoreq	r0, r3, #0, 10
    1e98:	00055a02 	andeq	r5, r5, r2, lsl #20
    1e9c:	05541300 	ldrbeq	r1, [r4, #-768]	; 0xfffffd00
    1ea0:	6b090239 	blvs	24278c <__Stack_Size+0x24238c>
    1ea4:	15000008 	strne	r0, [r0, #-8]
    1ea8:	0000042c 	andeq	r0, r0, ip, lsr #8
    1eac:	11023b05 	tstne	r2, r5, lsl #22
    1eb0:	0000008e 	andeq	r0, r0, lr, lsl #1
    1eb4:	15002302 	strne	r2, [r0, #-770]	; 0xfffffcfe
    1eb8:	000005cf 	andeq	r0, r0, pc, asr #11
    1ebc:	11023c05 	tstne	r2, r5, lsl #24
    1ec0:	0000008e 	andeq	r0, r0, lr, lsl #1
    1ec4:	15022302 	strne	r2, [r2, #-770]	; 0xfffffcfe
    1ec8:	00000465 	andeq	r0, r0, r5, ror #8
    1ecc:	11023d05 	tstne	r2, r5, lsl #26
    1ed0:	0000008e 	andeq	r0, r0, lr, lsl #1
    1ed4:	15042302 	strne	r2, [r4, #-770]	; 0xfffffcfe
    1ed8:	000005d9 	ldrdeq	r0, [r0], -r9
    1edc:	11023e05 	tstne	r2, r5, lsl #28
    1ee0:	0000008e 	andeq	r0, r0, lr, lsl #1
    1ee4:	15062302 	strne	r2, [r6, #-770]	; 0xfffffcfe
    1ee8:	000004b4 			; <UNDEFINED> instruction: 0x000004b4
    1eec:	11023f05 	tstne	r2, r5, lsl #30
    1ef0:	0000008e 	andeq	r0, r0, lr, lsl #1
    1ef4:	15082302 	strne	r2, [r8, #-770]	; 0xfffffcfe
    1ef8:	000005e3 	andeq	r0, r0, r3, ror #11
    1efc:	11024005 	tstne	r2, r5
    1f00:	0000008e 	andeq	r0, r0, lr, lsl #1
    1f04:	150a2302 	strne	r2, [sl, #-770]	; 0xfffffcfe
    1f08:	000004e7 	andeq	r0, r0, r7, ror #9
    1f0c:	11024105 	tstne	r2, r5, lsl #2
    1f10:	0000008e 	andeq	r0, r0, lr, lsl #1
    1f14:	150c2302 	strne	r2, [ip, #-770]	; 0xfffffcfe
    1f18:	000005ed 	andeq	r0, r0, sp, ror #11
    1f1c:	11024205 	tstne	r2, r5, lsl #4
    1f20:	0000008e 	andeq	r0, r0, lr, lsl #1
    1f24:	150e2302 	strne	r2, [lr, #-770]	; 0xfffffcfe
    1f28:	00000538 	andeq	r0, r0, r8, lsr r5
    1f2c:	11024305 	tstne	r2, r5, lsl #6
    1f30:	0000008e 	andeq	r0, r0, lr, lsl #1
    1f34:	15102302 	ldrne	r2, [r0, #-770]	; 0xfffffcfe
    1f38:	000005f7 	strdeq	r0, [r0], -r7
    1f3c:	11024405 	tstne	r2, r5, lsl #8
    1f40:	0000008e 	andeq	r0, r0, lr, lsl #1
    1f44:	15122302 	ldrne	r2, [r2, #-770]	; 0xfffffcfe
    1f48:	000005ca 	andeq	r0, r0, sl, asr #11
    1f4c:	11024505 	tstne	r2, r5, lsl #10
    1f50:	0000008e 	andeq	r0, r0, lr, lsl #1
    1f54:	15142302 	ldrne	r2, [r4, #-770]	; 0xfffffcfe
    1f58:	00000601 	andeq	r0, r0, r1, lsl #12
    1f5c:	11024605 	tstne	r2, r5, lsl #12
    1f60:	0000008e 	andeq	r0, r0, lr, lsl #1
    1f64:	15162302 	ldrne	r2, [r6, #-770]	; 0xfffffcfe
    1f68:	00000674 	andeq	r0, r0, r4, ror r6
    1f6c:	11024705 	tstne	r2, r5, lsl #14
    1f70:	0000008e 	andeq	r0, r0, lr, lsl #1
    1f74:	15182302 	ldrne	r2, [r8, #-770]	; 0xfffffcfe
    1f78:	0000060b 	andeq	r0, r0, fp, lsl #12
    1f7c:	11024805 	tstne	r2, r5, lsl #16
    1f80:	0000008e 	andeq	r0, r0, lr, lsl #1
    1f84:	151a2302 	ldrne	r2, [sl, #-770]	; 0xfffffcfe
    1f88:	000006f7 	strdeq	r0, [r0], -r7
    1f8c:	11024905 	tstne	r2, r5, lsl #18
    1f90:	0000008e 	andeq	r0, r0, lr, lsl #1
    1f94:	151c2302 	ldrne	r2, [ip, #-770]	; 0xfffffcfe
    1f98:	00000812 	andeq	r0, r0, r2, lsl r8
    1f9c:	11024a05 	tstne	r2, r5, lsl #20
    1fa0:	0000087b 	andeq	r0, r0, fp, ror r8
    1fa4:	151e2302 	ldrne	r2, [lr, #-770]	; 0xfffffcfe
    1fa8:	0000069c 	muleq	r0, ip, r6
    1fac:	11024b05 	tstne	r2, r5, lsl #22
    1fb0:	0000008e 	andeq	r0, r0, lr, lsl #1
    1fb4:	15402302 	strbne	r2, [r0, #-770]	; 0xfffffcfe
    1fb8:	00000615 	andeq	r0, r0, r5, lsl r6
    1fbc:	11024c05 	tstne	r2, r5, lsl #24
    1fc0:	0000008e 	andeq	r0, r0, lr, lsl #1
    1fc4:	15422302 	strbne	r2, [r2, #-770]	; 0xfffffcfe
    1fc8:	0000034e 	andeq	r0, r0, lr, asr #6
    1fcc:	11024d05 	tstne	r2, r5, lsl #26
    1fd0:	0000008e 	andeq	r0, r0, lr, lsl #1
    1fd4:	15442302 	strbne	r2, [r4, #-770]	; 0xfffffcfe
    1fd8:	0000061f 	andeq	r0, r0, pc, lsl r6
    1fdc:	11024e05 	tstne	r2, r5, lsl #28
    1fe0:	0000008e 	andeq	r0, r0, lr, lsl #1
    1fe4:	14462302 	strbne	r2, [r6], #-770	; 0xfffffcfe
    1fe8:	00524e46 	subseq	r4, r2, r6, asr #28
    1fec:	11024f05 	tstne	r2, r5, lsl #30
    1ff0:	0000008e 	andeq	r0, r0, lr, lsl #1
    1ff4:	15482302 	strbne	r2, [r8, #-770]	; 0xfffffcfe
    1ff8:	00000629 	andeq	r0, r0, r9, lsr #12
    1ffc:	11025005 	tstne	r2, r5
    2000:	0000008e 	andeq	r0, r0, lr, lsl #1
    2004:	154a2302 	strbne	r2, [sl, #-770]	; 0xfffffcfe
    2008:	000003b5 			; <UNDEFINED> instruction: 0x000003b5
    200c:	11025105 	tstne	r2, r5, lsl #2
    2010:	0000008e 	andeq	r0, r0, lr, lsl #1
    2014:	154c2302 	strbne	r2, [ip, #-770]	; 0xfffffcfe
    2018:	000003c9 	andeq	r0, r0, r9, asr #7
    201c:	11025205 	tstne	r2, r5, lsl #4
    2020:	0000008e 	andeq	r0, r0, lr, lsl #1
    2024:	154e2302 	strbne	r2, [lr, #-770]	; 0xfffffcfe
    2028:	000007bc 			; <UNDEFINED> instruction: 0x000007bc
    202c:	11025305 	tstne	r2, r5, lsl #6
    2030:	0000008e 	andeq	r0, r0, lr, lsl #1
    2034:	15502302 	ldrbne	r2, [r0, #-770]	; 0xfffffcfe
    2038:	00000834 	andeq	r0, r0, r4, lsr r8
    203c:	11025405 	tstne	r2, r5, lsl #8
    2040:	0000008e 	andeq	r0, r0, lr, lsl #1
    2044:	00522302 	subseq	r2, r2, r2, lsl #6
    2048:	00008e0e 	andeq	r8, r0, lr, lsl #28
    204c:	00087b00 	andeq	r7, r8, r0, lsl #22
    2050:	00250f00 	eoreq	r0, r5, r0, lsl #30
    2054:	00100000 	andseq	r0, r0, r0
    2058:	00086b05 	andeq	r6, r8, r5, lsl #22
    205c:	03a91600 			; <UNDEFINED> instruction: 0x03a91600
    2060:	55050000 	strpl	r0, [r5, #-0]
    2064:	06c00302 	strbeq	r0, [r0], r2, lsl #6
    2068:	08020000 	stmdaeq	r2, {}	; <UNPREDICTABLE>
    206c:	000b1f04 	andeq	r1, fp, r4, lsl #30
    2070:	0da91600 	stceq	6, cr1, [r9]
    2074:	65070000 	strvs	r0, [r7, #-0]
    2078:	00251701 	eoreq	r1, r5, r1, lsl #14
    207c:	53030000 	movwpl	r0, #12288	; 0x3000
    2080:	0800000d 	stmdaeq	r0, {r0, r2, r3}
    2084:	00570e2e 	subseq	r0, r7, lr, lsr #28
    2088:	31030000 	mrscc	r0, (UNDEF: 3)
    208c:	08000009 	stmdaeq	r0, {r0, r3}
    2090:	00570e74 	subseq	r0, r7, r4, ror lr
    2094:	04170000 	ldreq	r0, [r7], #-0
    2098:	db03a508 	blle	eb4c0 <__Stack_Size+0xeb0c0>
    209c:	18000008 	stmdane	r0, {r3}
    20a0:	00000a92 	muleq	r0, r2, sl
    20a4:	940ca708 	strls	sl, [ip], #-1800	; 0xfffff8f8
    20a8:	18000008 	stmdane	r0, {r3}
    20ac:	00000bb3 			; <UNDEFINED> instruction: 0x00000bb3
    20b0:	db13a808 	blle	4ec0d8 <__Stack_Size+0x4ebcd8>
    20b4:	00000008 	andeq	r0, r0, r8
    20b8:	00007b0e 	andeq	r7, r0, lr, lsl #22
    20bc:	0008eb00 	andeq	lr, r8, r0, lsl #22
    20c0:	00250f00 	eoreq	r0, r5, r0, lsl #30
    20c4:	00030000 	andeq	r0, r3, r0
    20c8:	a2080807 	andge	r0, r8, #458752	; 0x70000
    20cc:	00091309 	andeq	r1, r9, r9, lsl #6
    20d0:	09830800 	stmibeq	r3, {fp}
    20d4:	a4080000 	strge	r0, [r8], #-0
    20d8:	0000b907 	andeq	fp, r0, r7, lsl #18
    20dc:	00230200 	eoreq	r0, r3, r0, lsl #4
    20e0:	000a3e08 	andeq	r3, sl, r8, lsl #28
    20e4:	05a90800 	streq	r0, [r9, #2048]!	; 0x800
    20e8:	000008b9 			; <UNDEFINED> instruction: 0x000008b9
    20ec:	00042302 	andeq	r2, r4, r2, lsl #6
    20f0:	000b1403 	andeq	r1, fp, r3, lsl #8
    20f4:	03aa0800 			; <UNDEFINED> instruction: 0x03aa0800
    20f8:	000008eb 	andeq	r0, r0, fp, ror #17
    20fc:	ed030419 	cfstrs	mvf0, [r3, #-100]	; 0xffffff9c
    2100:	0900000a 	stmdbeq	r0, {r1, r3}
    2104:	00ab1916 	adceq	r1, fp, r6, lsl r9
    2108:	c4030000 	strgt	r0, [r3], #-0
    210c:	0a000008 	beq	2134 <__Stack_Size+0x1d34>
    2110:	00b90d0c 	adcseq	r0, r9, ip, lsl #26
    2114:	89030000 	stmdbhi	r3, {}	; <UNPREDICTABLE>
    2118:	0900000a 	stmdbeq	r0, {r1, r3}
    211c:	092d1b23 	pusheq	{r0, r1, r5, r8, r9, fp, ip}
    2120:	8d1a0000 	ldchi	0, cr0, [sl, #-0]
    2124:	1800000b 	stmdane	r0, {r0, r1, r3}
    2128:	ab083409 	blge	20f154 <__Stack_Size+0x20ed54>
    212c:	08000009 	stmdaeq	r0, {r0, r3}
    2130:	00000d90 	muleq	r0, r0, sp
    2134:	ab133609 	blge	4cf960 <__Stack_Size+0x4cf560>
    2138:	02000009 	andeq	r0, r0, #9
    213c:	5f0d0023 	svcpl	0x000d0023
    2140:	3709006b 	strcc	r0, [r9, -fp, rrx]
    2144:	0000b907 	andeq	fp, r0, r7, lsl #18
    2148:	04230200 	strteq	r0, [r3], #-512	; 0xfffffe00
    214c:	000c2808 	andeq	r2, ip, r8, lsl #16
    2150:	0b370900 	bleq	dc4558 <__Stack_Size+0xdc4158>
    2154:	000000b9 	strheq	r0, [r0], -r9
    2158:	08082302 	stmdaeq	r8, {r1, r8, r9, sp}
    215c:	00000ba7 	andeq	r0, r0, r7, lsr #23
    2160:	b9143709 	ldmdblt	r4, {r0, r3, r8, r9, sl, ip, sp}
    2164:	02000000 	andeq	r0, r0, #0
    2168:	eb080c23 	bl	2051fc <__Stack_Size+0x204dfc>
    216c:	09000009 	stmdbeq	r0, {r0, r3}
    2170:	00b91b37 	adcseq	r1, r9, r7, lsr fp
    2174:	23020000 	movwcs	r0, #8192	; 0x2000
    2178:	785f0d10 	ldmdavc	pc, {r4, r8, sl, fp}^	; <UNPREDICTABLE>
    217c:	0b380900 	bleq	e04584 <__Stack_Size+0xe04184>
    2180:	000009b1 			; <UNDEFINED> instruction: 0x000009b1
    2184:	00142302 	andseq	r2, r4, r2, lsl #6
    2188:	0945041b 	stmdbeq	r5, {r0, r1, r3, r4, sl}^
    218c:	210e0000 	mrscs	r0, (UNDEF: 14)
    2190:	c1000009 	tstgt	r0, r9
    2194:	0f000009 	svceq	0x00000009
    2198:	00000025 	andeq	r0, r0, r5, lsr #32
    219c:	431a0000 	tstmi	sl, #0
    21a0:	2400000c 	strcs	r0, [r0], #-12
    21a4:	56083c09 	strpl	r3, [r8], -r9, lsl #24
    21a8:	0800000a 	stmdaeq	r0, {r1, r3}
    21ac:	00000a10 	andeq	r0, r0, r0, lsl sl
    21b0:	b9093e09 	stmdblt	r9, {r0, r3, r9, sl, fp, ip, sp}
    21b4:	02000000 	andeq	r0, r0, #0
    21b8:	8b080023 	blhi	20224c <__Stack_Size+0x201e4c>
    21bc:	09000009 	stmdbeq	r0, {r0, r3}
    21c0:	00b9093f 	adcseq	r0, r9, pc, lsr r9
    21c4:	23020000 	movwcs	r0, #8192	; 0x2000
    21c8:	09740804 	ldmdbeq	r4!, {r2, fp}^
    21cc:	40090000 	andmi	r0, r9, r0
    21d0:	0000b909 	andeq	fp, r0, r9, lsl #18
    21d4:	08230200 	stmdaeq	r3!, {r9}
    21d8:	000a5d08 	andeq	r5, sl, r8, lsl #26
    21dc:	09410900 	stmdbeq	r1, {r8, fp}^
    21e0:	000000b9 	strheq	r0, [r0], -r9
    21e4:	080c2302 	stmdaeq	ip, {r1, r8, r9, sp}
    21e8:	00000b5c 	andeq	r0, r0, ip, asr fp
    21ec:	b9094209 	stmdblt	r9, {r0, r3, r9, lr}
    21f0:	02000000 	andeq	r0, r0, #0
    21f4:	71081023 	tstvc	r8, r3, lsr #32
    21f8:	0900000b 	stmdbeq	r0, {r0, r1, r3}
    21fc:	00b90943 	adcseq	r0, r9, r3, asr #18
    2200:	23020000 	movwcs	r0, #8192	; 0x2000
    2204:	094f0814 	stmdbeq	pc, {r2, r4, fp}^	; <UNPREDICTABLE>
    2208:	44090000 	strmi	r0, [r9], #-0
    220c:	0000b909 	andeq	fp, r0, r9, lsl #18
    2210:	18230200 	stmdane	r3!, {r9}
    2214:	000a1908 	andeq	r1, sl, r8, lsl #18
    2218:	09450900 	stmdbeq	r5, {r8, fp}^
    221c:	000000b9 	strheq	r0, [r0], -r9
    2220:	081c2302 	ldmdaeq	ip, {r1, r8, r9, sp}
    2224:	00000b2b 	andeq	r0, r0, fp, lsr #22
    2228:	b9094609 	stmdblt	r9, {r0, r3, r9, sl, lr}
    222c:	02000000 	andeq	r0, r0, #0
    2230:	1c002023 	stcne	0, cr2, [r0], {35}	; 0x23
    2234:	00000858 	andeq	r0, r0, r8, asr r8
    2238:	4f090108 	svcmi	0x00090108
    223c:	000aa408 	andeq	sl, sl, r8, lsl #8
    2240:	0d220800 	stceq	8, cr0, [r2, #-0]
    2244:	50090000 	andpl	r0, r9, r0
    2248:	000aa40a 	andeq	sl, sl, sl, lsl #8
    224c:	00230200 	eoreq	r0, r3, r0, lsl #4
    2250:	000c7308 	andeq	r7, ip, r8, lsl #6
    2254:	09510900 	ldmdbeq	r1, {r8, fp}^
    2258:	00000aa4 	andeq	r0, r0, r4, lsr #21
    225c:	01802303 	orreq	r2, r0, r3, lsl #6
    2260:	000d4a08 	andeq	r4, sp, r8, lsl #20
    2264:	0a530900 	beq	14c466c <__Stack_Size+0x14c426c>
    2268:	00000921 	andeq	r0, r0, r1, lsr #18
    226c:	02802303 	addeq	r2, r0, #201326592	; 0xc000000
    2270:	000d7d08 	andeq	r7, sp, r8, lsl #26
    2274:	0a560900 	beq	158467c <__Stack_Size+0x158427c>
    2278:	00000921 	andeq	r0, r0, r1, lsr #18
    227c:	02842303 	addeq	r2, r4, #201326592	; 0xc000000
    2280:	091f0e00 	ldmdbeq	pc, {r9, sl, fp}	; <UNPREDICTABLE>
    2284:	0ab40000 	beq	fed0228c <BootRAM+0xdc72a2d>
    2288:	250f0000 	strcs	r0, [pc, #-0]	; 2290 <__Stack_Size+0x1e90>
    228c:	1f000000 	svcne	0x00000000
    2290:	0b7b1c00 	bleq	1ec9298 <__Stack_Size+0x1ec8e98>
    2294:	01900000 	orrseq	r0, r0, r0
    2298:	00086209 	andeq	r6, r8, r9, lsl #4
    229c:	0800000b 	stmdaeq	r0, {r0, r1, r3}
    22a0:	00000d90 	muleq	r0, r0, sp
    22a4:	00126309 	andseq	r6, r2, r9, lsl #6
    22a8:	0200000b 	andeq	r0, r0, #11
    22ac:	47080023 	strmi	r0, [r8, -r3, lsr #32]
    22b0:	0900000b 	stmdbeq	r0, {r0, r1, r3}
    22b4:	00b90664 	adcseq	r0, r9, r4, ror #12
    22b8:	23020000 	movwcs	r0, #8192	; 0x2000
    22bc:	09390804 	ldmdbeq	r9!, {r2, fp}
    22c0:	66090000 	strvs	r0, [r9], -r0
    22c4:	000b0609 	andeq	r0, fp, r9, lsl #12
    22c8:	08230200 	stmdaeq	r3!, {r9}
    22cc:	00085808 	andeq	r5, r8, r8, lsl #16
    22d0:	1e670900 	vmulne.f16	s1, s14, s0	; <UNPREDICTABLE>
    22d4:	00000a56 	andeq	r0, r0, r6, asr sl
    22d8:	01882303 	orreq	r2, r8, r3, lsl #6
    22dc:	b4041b00 	strlt	r1, [r4], #-2816	; 0xfffff500
    22e0:	0e00000a 	cdpeq	0, 0, cr0, cr0, cr10, {0}
    22e4:	00000b16 	andeq	r0, r0, r6, lsl fp
    22e8:	00000b16 	andeq	r0, r0, r6, lsl fp
    22ec:	0000250f 	andeq	r2, r0, pc, lsl #10
    22f0:	1b001f00 	blne	9ef8 <__Stack_Size+0x9af8>
    22f4:	000b1c04 	andeq	r1, fp, r4, lsl #24
    22f8:	1a011d00 	bne	49700 <__Stack_Size+0x49300>
    22fc:	00000b6a 	andeq	r0, r0, sl, ror #22
    2300:	087a0908 	ldmdaeq	sl!, {r3, r8, fp}^
    2304:	00000b4a 	andeq	r0, r0, sl, asr #22
    2308:	000ad708 	andeq	sp, sl, r8, lsl #14
    230c:	117b0900 	cmnne	fp, r0, lsl #18
    2310:	00000b4a 	andeq	r0, r0, sl, asr #22
    2314:	08002302 	stmdaeq	r0, {r1, r8, r9, sp}
    2318:	000006d5 	ldrdeq	r0, [r0], -r5
    231c:	b9067c09 	stmdblt	r6, {r0, r3, sl, fp, ip, sp, lr}
    2320:	02000000 	andeq	r0, r0, #0
    2324:	1b000423 	blne	33b8 <__Stack_Size+0x2fb8>
    2328:	00007b04 	andeq	r7, r0, r4, lsl #22
    232c:	09e31a00 	stmibeq	r3!, {r9, fp, ip}^
    2330:	09680000 	stmdbeq	r8!, {}^	; <UNPREDICTABLE>
    2334:	0cc308ba 	stcleq	8, cr0, [r3], {186}	; 0xba
    2338:	5f0d0000 	svcpl	0x000d0000
    233c:	bb090070 	bllt	242504 <__Stack_Size+0x242104>
    2340:	000b4a12 	andeq	r4, fp, r2, lsl sl
    2344:	00230200 	eoreq	r0, r3, r0, lsl #4
    2348:	00725f0d 	rsbseq	r5, r2, sp, lsl #30
    234c:	b907bc09 	stmdblt	r7, {r0, r3, sl, fp, ip, sp, pc}
    2350:	02000000 	andeq	r0, r0, #0
    2354:	5f0d0423 	svcpl	0x000d0423
    2358:	bd090077 	stclt	0, cr0, [r9, #-476]	; 0xfffffe24
    235c:	0000b907 	andeq	fp, r0, r7, lsl #18
    2360:	08230200 	stmdaeq	r3!, {r9}
    2364:	00088e08 	andeq	r8, r8, r8, lsl #28
    2368:	09be0900 	ldmibeq	lr!, {r8, fp}
    236c:	00000044 	andeq	r0, r0, r4, asr #32
    2370:	080c2302 	stmdaeq	ip, {r1, r8, r9, sp}
    2374:	00000b04 	andeq	r0, r0, r4, lsl #22
    2378:	4409bf09 	strmi	fp, [r9], #-3849	; 0xfffff0f7
    237c:	02000000 	andeq	r0, r0, #0
    2380:	5f0d0e23 	svcpl	0x000d0e23
    2384:	09006662 	stmdbeq	r0, {r1, r5, r6, r9, sl, sp, lr}
    2388:	0b1e11c0 	bleq	786a90 <__Stack_Size+0x786690>
    238c:	23020000 	movwcs	r0, #8192	; 0x2000
    2390:	08850810 	stmeq	r5, {r4, fp}
    2394:	c1090000 	mrsgt	r0, (UNDEF: 9)
    2398:	0000b907 	andeq	fp, r0, r7, lsl #18
    239c:	18230200 	stmdane	r3!, {r9}
    23a0:	00093e08 	andeq	r3, r9, r8, lsl #28
    23a4:	0ac80900 	beq	ff2047ac <BootRAM+0xe174f4d>
    23a8:	0000091f 	andeq	r0, r0, pc, lsl r9
    23ac:	081c2302 	ldmdaeq	ip, {r1, r8, r9, sp}
    23b0:	00000491 	muleq	r0, r1, r4
    23b4:	741dca09 	ldrvc	ip, [sp], #-2569	; 0xfffff5f7
    23b8:	0200000e 	andeq	r0, r0, #14
    23bc:	80082023 	andhi	r2, r8, r3, lsr #32
    23c0:	09000003 	stmdbeq	r0, {r0, r1}
    23c4:	0e9f1dcc 	cdpeq	13, 9, cr1, cr15, cr12, {6}
    23c8:	23020000 	movwcs	r0, #8192	; 0x2000
    23cc:	09f90824 	ldmibeq	r9!, {r2, r5, fp}^
    23d0:	cf090000 	svcgt	0x00090000
    23d4:	000ec40d 	andeq	ip, lr, sp, lsl #8
    23d8:	28230200 	stmdacs	r3!, {r9}
    23dc:	000aa308 	andeq	sl, sl, r8, lsl #6
    23e0:	09d00900 	ldmibeq	r0, {r8, fp}^
    23e4:	00000edf 	ldrdeq	r0, [r0], -pc	; <UNPREDICTABLE>
    23e8:	0d2c2302 	stceq	3, cr2, [ip, #-8]!
    23ec:	0062755f 	rsbeq	r7, r2, pc, asr r5
    23f0:	1e11d309 	cdpne	3, 1, cr13, cr1, cr9, {0}
    23f4:	0200000b 	andeq	r0, r0, #11
    23f8:	5f0d3023 	svcpl	0x000d3023
    23fc:	09007075 	stmdbeq	r0, {r0, r2, r4, r5, r6, ip, sp, lr}
    2400:	0b4a12d4 	bleq	1286f58 <__Stack_Size+0x1286b58>
    2404:	23020000 	movwcs	r0, #8192	; 0x2000
    2408:	755f0d38 	ldrbvc	r0, [pc, #-3384]	; 16d8 <__Stack_Size+0x12d8>
    240c:	d5090072 	strle	r0, [r9, #-114]	; 0xffffff8e
    2410:	0000b907 	andeq	fp, r0, r7, lsl #18
    2414:	3c230200 	sfmcc	f0, 4, [r3], #-0
    2418:	0009ff08 	andeq	pc, r9, r8, lsl #30
    241c:	11d80900 	bicsne	r0, r8, r0, lsl #18
    2420:	00000ee5 	andeq	r0, r0, r5, ror #29
    2424:	08402302 	stmdaeq	r0, {r1, r8, r9, sp}^
    2428:	00000d5a 	andeq	r0, r0, sl, asr sp
    242c:	f511d909 			; <UNDEFINED> instruction: 0xf511d909
    2430:	0200000e 	andeq	r0, r0, #14
    2434:	5f0d4323 	svcpl	0x000d4323
    2438:	0900626c 	stmdbeq	r0, {r2, r3, r5, r6, r9, sp, lr}
    243c:	0b1e11dc 	bleq	786bb4 <__Stack_Size+0x7867b4>
    2440:	23020000 	movwcs	r0, #8192	; 0x2000
    2444:	0c3a0844 	ldceq	8, cr0, [sl], #-272	; 0xfffffef0
    2448:	df090000 	svcle	0x00090000
    244c:	0000b907 	andeq	fp, r0, r7, lsl #18
    2450:	4c230200 	sfmmi	f0, 4, [r3], #-0
    2454:	000bcd08 	andeq	ip, fp, r8, lsl #26
    2458:	0ae00900 	beq	ff804860 <BootRAM+0xe775001>
    245c:	000008a1 	andeq	r0, r0, r1, lsr #17
    2460:	08502302 	ldmdaeq	r0, {r1, r8, r9, sp}^
    2464:	00000bad 	andeq	r0, r0, sp, lsr #23
    2468:	e212e309 	ands	lr, r2, #603979776	; 0x24000000
    246c:	0200000c 	andeq	r0, r0, #12
    2470:	48085423 	stmdami	r8, {r0, r1, r5, sl, ip, lr}
    2474:	0900000c 	stmdbeq	r0, {r2, r3}
    2478:	09390ce7 	ldmdbeq	r9!, {r0, r1, r2, r5, r6, r7, sl, fp}
    247c:	23020000 	movwcs	r0, #8192	; 0x2000
    2480:	09460858 	stmdbeq	r6, {r3, r4, r6, fp}^
    2484:	e9090000 	stmdb	r9, {}	; <UNPREDICTABLE>
    2488:	0009130e 	andeq	r1, r9, lr, lsl #6
    248c:	5c230200 	sfmpl	f0, 4, [r3], #-0
    2490:	000d7508 	andeq	r7, sp, r8, lsl #10
    2494:	09ea0900 	stmibeq	sl!, {r8, fp}^
    2498:	000000b9 	strheq	r0, [r0], -r9
    249c:	00642302 	rsbeq	r2, r4, r2, lsl #6
    24a0:	00b9011e 	adcseq	r0, r9, lr, lsl r1
    24a4:	0ce20000 	stcleq	0, cr0, [r2]
    24a8:	e21f0000 	ands	r0, pc, #0
    24ac:	1f00000c 	svcne	0x0000000c
    24b0:	0000091f 	andeq	r0, r0, pc, lsl r9
    24b4:	000e621f 	andeq	r6, lr, pc, lsl r2
    24b8:	00b91f00 	adcseq	r1, r9, r0, lsl #30
    24bc:	1b000000 	blne	24c4 <__Stack_Size+0x20c4>
    24c0:	000ced04 	andeq	lr, ip, r4, lsl #26
    24c4:	0ce20400 	cfstrdeq	mvd0, [r2]
    24c8:	2a200000 	bcs	8024d0 <__Stack_Size+0x8020d0>
    24cc:	2800000d 	stmdacs	r0, {r0, r2, r3}
    24d0:	02650904 	rsbeq	r0, r5, #4, 18	; 0x10000
    24d4:	000e6208 	andeq	r6, lr, r8, lsl #4
    24d8:	09f21500 	ldmibeq	r2!, {r8, sl, ip}^
    24dc:	67090000 	strvs	r0, [r9, -r0]
    24e0:	00b90702 	adcseq	r0, r9, r2, lsl #14
    24e4:	23020000 	movwcs	r0, #8192	; 0x2000
    24e8:	0aba1500 	beq	fee878f0 <BootRAM+0xddf8091>
    24ec:	6c090000 	stcvs	0, cr0, [r9], {-0}
    24f0:	0f570b02 	svceq	0x00570b02
    24f4:	23020000 	movwcs	r0, #8192	; 0x2000
    24f8:	09291504 	stmdbeq	r9!, {r2, r8, sl, ip}
    24fc:	6c090000 	stcvs	0, cr0, [r9], {-0}
    2500:	0f571402 	svceq	0x00571402
    2504:	23020000 	movwcs	r0, #8192	; 0x2000
    2508:	0da11508 	cfstr32eq	mvfx1, [r1, #32]!
    250c:	6c090000 	stcvs	0, cr0, [r9], {-0}
    2510:	0f571e02 	svceq	0x00571e02
    2514:	23020000 	movwcs	r0, #8192	; 0x2000
    2518:	0a23150c 	beq	8c7950 <__Stack_Size+0x8c7550>
    251c:	6e090000 	cdpvs	0, 0, cr0, cr9, cr0, {0}
    2520:	00b90802 	adcseq	r0, r9, r2, lsl #16
    2524:	23020000 	movwcs	r0, #8192	; 0x2000
    2528:	0a051510 	beq	147970 <__Stack_Size+0x147570>
    252c:	6f090000 	svcvs	0x00090000
    2530:	11900802 	orrsne	r0, r0, r2, lsl #16
    2534:	23020000 	movwcs	r0, #8192	; 0x2000
    2538:	08ec1514 	stmiaeq	ip!, {r2, r4, r8, sl, ip}^
    253c:	72090000 	andvc	r0, r9, #0
    2540:	00b90702 	adcseq	r0, r9, r2, lsl #14
    2544:	23020000 	movwcs	r0, #8192	; 0x2000
    2548:	0d1a1530 	cfldr32eq	mvfx1, [sl, #-192]	; 0xffffff40
    254c:	73090000 	movwvc	r0, #36864	; 0x9000
    2550:	11a61602 			; <UNDEFINED> instruction: 0x11a61602
    2554:	23020000 	movwcs	r0, #8192	; 0x2000
    2558:	0aaa1534 	beq	fea87a30 <BootRAM+0xd9f81d1>
    255c:	75090000 	strvc	r0, [r9, #-0]
    2560:	00b90702 	adcseq	r0, r9, r2, lsl #14
    2564:	23020000 	movwcs	r0, #8192	; 0x2000
    2568:	0b0a1538 	bleq	287a50 <__Stack_Size+0x287650>
    256c:	77090000 	strvc	r0, [r9, -r0]
    2570:	11b80a02 			; <UNDEFINED> instruction: 0x11b80a02
    2574:	23020000 	movwcs	r0, #8192	; 0x2000
    2578:	0965153c 	stmdbeq	r5!, {r2, r3, r4, r5, r8, sl, ip}^
    257c:	7a090000 	bvc	242584 <__Stack_Size+0x242184>
    2580:	09ab1302 	stmibeq	fp!, {r1, r8, r9, ip}
    2584:	23020000 	movwcs	r0, #8192	; 0x2000
    2588:	09b71540 	ldmibeq	r7!, {r6, r8, sl, ip}
    258c:	7b090000 	blvc	242594 <__Stack_Size+0x242194>
    2590:	00b90702 	adcseq	r0, r9, r2, lsl #14
    2594:	23020000 	movwcs	r0, #8192	; 0x2000
    2598:	0a461544 	beq	1187ab0 <__Stack_Size+0x11876b0>
    259c:	7c090000 	stcvc	0, cr0, [r9], {-0}
    25a0:	09ab1302 	stmibeq	fp!, {r1, r8, r9, ip}
    25a4:	23020000 	movwcs	r0, #8192	; 0x2000
    25a8:	0add1548 	beq	ff747ad0 <BootRAM+0xe6b8271>
    25ac:	7d090000 	stcvc	0, cr0, [r9, #-0]
    25b0:	11be1402 			; <UNDEFINED> instruction: 0x11be1402
    25b4:	23020000 	movwcs	r0, #8192	; 0x2000
    25b8:	0c20154c 	cfstr32eq	mvfx1, [r0], #-304	; 0xfffffed0
    25bc:	80090000 	andhi	r0, r9, r0
    25c0:	00b90702 	adcseq	r0, r9, r2, lsl #14
    25c4:	23020000 	movwcs	r0, #8192	; 0x2000
    25c8:	0c7f1550 	cfldr64eq	mvdx1, [pc], #-320	; 2490 <__Stack_Size+0x2090>
    25cc:	81090000 	mrshi	r0, (UNDEF: 9)
    25d0:	0e620902 	vmuleq.f16	s1, s4, s4	; <UNPREDICTABLE>
    25d4:	23020000 	movwcs	r0, #8192	; 0x2000
    25d8:	09241554 	stmdbeq	r4!, {r2, r4, r6, r8, sl, ip}
    25dc:	a4090000 	strge	r0, [r9], #-0
    25e0:	116b0702 	cmnne	fp, r2, lsl #14
    25e4:	23020000 	movwcs	r0, #8192	; 0x2000
    25e8:	0b7b1558 	bleq	1ec7b50 <__Stack_Size+0x1ec7750>
    25ec:	a8090000 	stmdage	r9, {}	; <UNPREDICTABLE>
    25f0:	0b001302 	bleq	7200 <__Stack_Size+0x6e00>
    25f4:	23030000 	movwcs	r0, #12288	; 0x3000
    25f8:	801502c8 	andshi	r0, r5, r8, asr #5
    25fc:	0900000a 	stmdbeq	r0, {r1, r3}
    2600:	b41202a9 	ldrlt	r0, [r2], #-681	; 0xfffffd57
    2604:	0300000a 	movweq	r0, #10
    2608:	1502cc23 	strne	ip, [r2, #-3107]	; 0xfffff3dd
    260c:	00000a67 	andeq	r0, r0, r7, ror #20
    2610:	0c02ad09 	stceq	13, cr10, [r2], {9}
    2614:	000011d0 	ldrdeq	r1, [r0], -r0
    2618:	05dc2303 	ldrbeq	r2, [ip, #771]	; 0x303
    261c:	000cf715 	andeq	pc, ip, r5, lsl r7	; <UNPREDICTABLE>
    2620:	02b20900 	adcseq	r0, r2, #0, 18
    2624:	000f1210 	andeq	r1, pc, r0, lsl r2	; <UNPREDICTABLE>
    2628:	e0230300 	eor	r0, r3, r0, lsl #6
    262c:	0ba21505 	bleq	fe887a48 <BootRAM+0xd7f81e9>
    2630:	b4090000 	strlt	r0, [r9], #-0
    2634:	11dc0a02 	bicsne	r0, ip, r2, lsl #20
    2638:	23030000 	movwcs	r0, #12288	; 0x3000
    263c:	1b0005ec 	blne	3df4 <__Stack_Size+0x39f4>
    2640:	000e6804 	andeq	r6, lr, r4, lsl #16
    2644:	08010200 	stmdaeq	r1, {r9}
    2648:	0000015c 	andeq	r0, r0, ip, asr r1
    264c:	000e6804 	andeq	r6, lr, r4, lsl #16
    2650:	c3041b00 	movwgt	r1, #19200	; 0x4b00
    2654:	1e00000c 	cdpne	0, 0, cr0, cr0, cr12, {0}
    2658:	0000b901 	andeq	fp, r0, r1, lsl #18
    265c:	000e9900 	andeq	r9, lr, r0, lsl #18
    2660:	0ce21f00 	stcleq	15, cr1, [r2]
    2664:	1f1f0000 	svcne	0x001f0000
    2668:	1f000009 	svcne	0x00000009
    266c:	00000e99 	muleq	r0, r9, lr
    2670:	0000b91f 	andeq	fp, r0, pc, lsl r9
    2674:	041b0000 	ldreq	r0, [fp], #-0
    2678:	00000e6f 	andeq	r0, r0, pc, ror #28
    267c:	0e7a041b 	mrceq	4, 3, r0, cr10, cr11, {0}
    2680:	011e0000 	tsteq	lr, r0
    2684:	000008ad 	andeq	r0, r0, sp, lsr #17
    2688:	00000ec4 	andeq	r0, r0, r4, asr #29
    268c:	000ce21f 	andeq	lr, ip, pc, lsl r2
    2690:	091f1f00 	ldmdbeq	pc, {r8, r9, sl, fp, ip}	; <UNPREDICTABLE>
    2694:	ad1f0000 	ldcge	0, cr0, [pc, #-0]	; 269c <__Stack_Size+0x229c>
    2698:	1f000008 	svcne	0x00000008
    269c:	000000b9 	strheq	r0, [r0], -r9
    26a0:	a5041b00 	strge	r1, [r4, #-2816]	; 0xfffff500
    26a4:	1e00000e 	cdpne	0, 0, cr0, cr0, cr14, {0}
    26a8:	0000b901 	andeq	fp, r0, r1, lsl #18
    26ac:	000edf00 	andeq	sp, lr, r0, lsl #30
    26b0:	0ce21f00 	stcleq	15, cr1, [r2]
    26b4:	1f1f0000 	svcne	0x001f0000
    26b8:	00000009 	andeq	r0, r0, r9
    26bc:	0eca041b 	mcreq	4, 6, r0, cr10, cr11, {0}
    26c0:	7b0e0000 	blvc	3826c8 <__Stack_Size+0x3822c8>
    26c4:	f5000000 			; <UNDEFINED> instruction: 0xf5000000
    26c8:	0f00000e 	svceq	0x0000000e
    26cc:	00000025 	andeq	r0, r0, r5, lsr #32
    26d0:	7b0e0002 	blvc	3826e0 <__Stack_Size+0x3822e0>
    26d4:	05000000 	streq	r0, [r0, #-0]
    26d8:	0f00000f 	svceq	0x0000000f
    26dc:	00000025 	andeq	r0, r0, r5, lsr #32
    26e0:	6d160000 	ldcvs	0, cr0, [r6, #-0]
    26e4:	09000009 	stmdbeq	r0, {r0, r3}
    26e8:	501a0124 	andspl	r0, sl, r4, lsr #2
    26ec:	2100000b 	tstcs	r0, fp
    26f0:	00000cf1 	strdeq	r0, [r0], -r1
    26f4:	0128090c 			; <UNDEFINED> instruction: 0x0128090c
    26f8:	000f5108 	andeq	r5, pc, r8, lsl #2
    26fc:	0d901500 	cfldr32eq	mvfx1, [r0]
    2700:	2a090000 	bcs	242708 <__Stack_Size+0x242308>
    2704:	0f511101 	svceq	0x00511101
    2708:	23020000 	movwcs	r0, #8192	; 0x2000
    270c:	0c6c1500 	cfstr64eq	mvdx1, [ip], #-0
    2710:	2b090000 	blcs	242718 <__Stack_Size+0x242318>
    2714:	00b90701 	adcseq	r0, r9, r1, lsl #14
    2718:	23020000 	movwcs	r0, #8192	; 0x2000
    271c:	0a981504 	beq	fe607b34 <BootRAM+0xd5782d5>
    2720:	2c090000 	stccs	0, cr0, [r9], {-0}
    2724:	0f570b01 	svceq	0x00570b01
    2728:	23020000 	movwcs	r0, #8192	; 0x2000
    272c:	041b0008 	ldreq	r0, [fp], #-8
    2730:	00000f12 	andeq	r0, r0, r2, lsl pc
    2734:	0f05041b 	svceq	0x0005041b
    2738:	af210000 	svcge	0x00210000
    273c:	0e000009 	cdpeq	0, 0, cr0, cr0, cr9, {0}
    2740:	08014409 	stmdaeq	r1, {r0, r3, sl, lr}
    2744:	00000f9c 	muleq	r0, ip, pc	; <UNPREDICTABLE>
    2748:	000d8515 	andeq	r8, sp, r5, lsl r5
    274c:	01450900 	cmpeq	r5, r0, lsl #18
    2750:	000f9c12 	andeq	r9, pc, r2, lsl ip	; <UNPREDICTABLE>
    2754:	00230200 	eoreq	r0, r3, r0, lsl #4
    2758:	000ae715 	andeq	lr, sl, r5, lsl r7
    275c:	01460900 	cmpeq	r6, r0, lsl #18
    2760:	000f9c12 	andeq	r9, pc, r2, lsl ip	; <UNPREDICTABLE>
    2764:	06230200 	strteq	r0, [r3], -r0, lsl #4
    2768:	000ca915 	andeq	sl, ip, r5, lsl r9
    276c:	01470900 	cmpeq	r7, r0, lsl #18
    2770:	00009312 	andeq	r9, r0, r2, lsl r3
    2774:	0c230200 	sfmeq	f0, 4, [r3], #-0
    2778:	00930e00 	addseq	r0, r3, r0, lsl #28
    277c:	0fac0000 	svceq	0x00ac0000
    2780:	250f0000 	strcs	r0, [pc, #-0]	; 2788 <__Stack_Size+0x2388>
    2784:	02000000 	andeq	r0, r0, #0
    2788:	09d01300 	ldmibeq	r0, {r8, r9, ip}^
    278c:	f0070285 			; <UNDEFINED> instruction: 0xf0070285
    2790:	15000010 	strne	r0, [r0, #-16]
    2794:	00000d60 	andeq	r0, r0, r0, ror #26
    2798:	18028709 	stmdane	r2, {r0, r3, r8, r9, sl, pc}
    279c:	00000025 	andeq	r0, r0, r5, lsr #32
    27a0:	15002302 	strne	r2, [r0, #-770]	; 0xfffffcfe
    27a4:	00000cff 	strdeq	r0, [r0], -pc	; <UNPREDICTABLE>
    27a8:	12028809 	andne	r8, r2, #589824	; 0x90000
    27ac:	00000e62 	andeq	r0, r0, r2, ror #28
    27b0:	15042302 	strne	r2, [r4, #-770]	; 0xfffffcfe
    27b4:	000009d6 	ldrdeq	r0, [r0], -r6
    27b8:	10028909 	andne	r8, r2, r9, lsl #18
    27bc:	000010f0 	strdeq	r1, [r0], -r0
    27c0:	15082302 	strne	r2, [r8, #-770]	; 0xfffffcfe
    27c4:	00000bf0 	strdeq	r0, [r0], -r0	; <UNPREDICTABLE>
    27c8:	17028a09 	strne	r8, [r2, -r9, lsl #20]
    27cc:	000009c1 	andeq	r0, r0, r1, asr #19
    27d0:	15242302 	strne	r2, [r4, #-770]!	; 0xfffffcfe
    27d4:	00000ac1 	andeq	r0, r0, r1, asr #21
    27d8:	0f028b09 	svceq	0x00028b09
    27dc:	000000b9 	strheq	r0, [r0], -r9
    27e0:	15482302 	strbne	r2, [r8, #-770]	; 0xfffffcfe
    27e4:	00000d8b 	andeq	r0, r0, fp, lsl #27
    27e8:	2c028c09 	stccs	12, cr8, [r2], {9}
    27ec:	000000b2 	strheq	r0, [r0], -r2
    27f0:	15502302 	ldrbne	r2, [r0, #-770]	; 0xfffffcfe
    27f4:	00000874 	andeq	r0, r0, r4, ror r8
    27f8:	1a028d09 	bne	a5c24 <__Stack_Size+0xa5824>
    27fc:	00000f5d 	andeq	r0, r0, sp, asr pc
    2800:	15582302 	ldrbne	r2, [r8, #-770]	; 0xfffffcfe
    2804:	00000a4b 	andeq	r0, r0, fp, asr #20
    2808:	16028e09 	strne	r8, [r2], -r9, lsl #28
    280c:	00000913 	andeq	r0, r0, r3, lsl r9
    2810:	15682302 	strbne	r2, [r8, #-770]!	; 0xfffffcfe
    2814:	00000d0c 	andeq	r0, r0, ip, lsl #26
    2818:	16028f09 	strne	r8, [r2], -r9, lsl #30
    281c:	00000913 	andeq	r0, r0, r3, lsl r9
    2820:	15702302 	ldrbne	r2, [r0, #-770]!	; 0xfffffcfe
    2824:	00000866 	andeq	r0, r0, r6, ror #16
    2828:	16029009 	strne	r9, [r2], -r9
    282c:	00000913 	andeq	r0, r0, r3, lsl r9
    2830:	15782302 	ldrbne	r2, [r8, #-770]!	; 0xfffffcfe
    2834:	00000c30 	andeq	r0, r0, r0, lsr ip
    2838:	10029109 	andne	r9, r2, r9, lsl #2
    283c:	00001100 	andeq	r1, r0, r0, lsl #2
    2840:	01802303 	orreq	r2, r0, r3, lsl #6
    2844:	00087915 	andeq	r7, r8, r5, lsl r9
    2848:	02920900 	addseq	r0, r2, #0, 18
    284c:	00111010 	andseq	r1, r1, r0, lsl r0
    2850:	88230300 	stmdahi	r3!, {r8, r9}
    2854:	0c871501 	cfstr32eq	mvfx1, [r7], {1}
    2858:	93090000 	movwls	r0, #36864	; 0x9000
    285c:	00b90f02 	adcseq	r0, r9, r2, lsl #30
    2860:	23030000 	movwcs	r0, #12288	; 0x3000
    2864:	051501a0 	ldreq	r0, [r5, #-416]	; 0xfffffe60
    2868:	09000009 	stmdbeq	r0, {r0, r3}
    286c:	13160294 	tstne	r6, #148, 4	; 0x40000009
    2870:	03000009 	movweq	r0, #9
    2874:	1501a423 	strne	sl, [r1, #-1059]	; 0xfffffbdd
    2878:	00000a71 	andeq	r0, r0, r1, ror sl
    287c:	16029509 	strne	r9, [r2], -r9, lsl #10
    2880:	00000913 	andeq	r0, r0, r3, lsl r9
    2884:	01ac2303 			; <UNDEFINED> instruction: 0x01ac2303
    2888:	000a2815 	andeq	r2, sl, r5, lsl r8
    288c:	02960900 	addseq	r0, r6, #0, 18
    2890:	00091316 	andeq	r1, r9, r6, lsl r3
    2894:	b4230300 	strtlt	r0, [r3], #-768	; 0xfffffd00
    2898:	0af51501 	beq	ffd47ca4 <BootRAM+0xecb8445>
    289c:	97090000 	strls	r0, [r9, -r0]
    28a0:	09131602 	ldmdbeq	r3, {r1, r9, sl, ip}
    28a4:	23030000 	movwcs	r0, #12288	; 0x3000
    28a8:	361501bc 			; <UNDEFINED> instruction: 0x361501bc
    28ac:	0900000b 	stmdbeq	r0, {r0, r1, r3}
    28b0:	13160298 	tstne	r6, #152, 4	; 0x80000009
    28b4:	03000009 	movweq	r0, #9
    28b8:	1501c423 	strne	ip, [r1, #-1059]	; 0xfffffbdd
    28bc:	000009f0 	strdeq	r0, [r0], -r0	; <UNPREDICTABLE>
    28c0:	08029909 	stmdaeq	r2, {r0, r3, r8, fp, ip, pc}
    28c4:	000000b9 	strheq	r0, [r0], -r9
    28c8:	01cc2303 	biceq	r2, ip, r3, lsl #6
    28cc:	0e680e00 	cdpeq	14, 6, cr0, cr8, cr0, {0}
    28d0:	11000000 	mrsne	r0, (UNDEF: 0)
    28d4:	250f0000 	strcs	r0, [pc, #-0]	; 28dc <__Stack_Size+0x24dc>
    28d8:	19000000 	stmdbne	r0, {}	; <UNPREDICTABLE>
    28dc:	0e680e00 	cdpeq	14, 6, cr0, cr8, cr0, {0}
    28e0:	11100000 	tstne	r0, r0
    28e4:	250f0000 	strcs	r0, [pc, #-0]	; 28ec <__Stack_Size+0x24ec>
    28e8:	07000000 	streq	r0, [r0, -r0]
    28ec:	0e680e00 	cdpeq	14, 6, cr0, cr8, cr0, {0}
    28f0:	11200000 			; <UNDEFINED> instruction: 0x11200000
    28f4:	250f0000 	strcs	r0, [pc, #-0]	; 28fc <__Stack_Size+0x24fc>
    28f8:	17000000 	strne	r0, [r0, -r0]
    28fc:	09f01300 	ldmibeq	r0!, {r8, r9, ip}^
    2900:	4b07029e 	blmi	1c3380 <__Stack_Size+0x1c2f80>
    2904:	15000011 	strne	r0, [r0, #-17]	; 0xffffffef
    2908:	00000ad0 	ldrdeq	r0, [r0], -r0	; <UNPREDICTABLE>
    290c:	1b02a109 	blne	aad38 <__Stack_Size+0xaa938>
    2910:	0000114b 	andeq	r1, r0, fp, asr #2
    2914:	15002302 	strne	r2, [r0, #-770]	; 0xfffffcfe
    2918:	00000895 	muleq	r0, r5, r8
    291c:	1802a209 	stmdane	r2, {r0, r3, r9, sp, pc}
    2920:	0000115b 	andeq	r1, r0, fp, asr r1
    2924:	00782302 	rsbseq	r2, r8, r2, lsl #6
    2928:	000b4a0e 	andeq	r4, fp, lr, lsl #20
    292c:	00115b00 	andseq	r5, r1, r0, lsl #22
    2930:	00250f00 	eoreq	r0, r5, r0, lsl #30
    2934:	001d0000 	andseq	r0, sp, r0
    2938:	0000250e 	andeq	r2, r0, lr, lsl #10
    293c:	00116b00 	andseq	r6, r1, r0, lsl #22
    2940:	00250f00 	eoreq	r0, r5, r0, lsl #30
    2944:	001d0000 	andseq	r0, sp, r0
    2948:	8309f022 	movwhi	pc, #36898	; 0x9022	; <UNPREDICTABLE>
    294c:	11900302 	orrsne	r0, r0, r2, lsl #6
    2950:	2a230000 	bcs	8c2958 <__Stack_Size+0x8c2558>
    2954:	0900000d 	stmdbeq	r0, {r0, r2, r3}
    2958:	ac0b029a 	sfmge	f0, 4, [fp], {154}	; 0x9a
    295c:	2300000f 	movwcs	r0, #15
    2960:	00000c18 	andeq	r0, r0, r8, lsl ip
    2964:	0b02a309 	bleq	ab590 <__Stack_Size+0xab190>
    2968:	00001120 	andeq	r1, r0, r0, lsr #2
    296c:	0e680e00 	cdpeq	14, 6, cr0, cr8, cr0, {0}
    2970:	11a00000 	movne	r0, r0
    2974:	250f0000 	strcs	r0, [pc, #-0]	; 297c <__Stack_Size+0x257c>
    2978:	18000000 	stmdane	r0, {}	; <UNPREDICTABLE>
    297c:	0d962400 	cfldrseq	mvf2, [r6]
    2980:	1b010000 	blne	42988 <__Stack_Size+0x42588>
    2984:	0011a004 	andseq	sl, r1, r4
    2988:	b8012500 	stmdalt	r1, {r8, sl, sp}
    298c:	1f000011 	svcne	0x00000011
    2990:	00000ce2 	andeq	r0, r0, r2, ror #25
    2994:	ac041b00 			; <UNDEFINED> instruction: 0xac041b00
    2998:	1b000011 	blne	29e4 <__Stack_Size+0x25e4>
    299c:	0009ab04 	andeq	sl, r9, r4, lsl #22
    29a0:	d0012500 	andle	r2, r1, r0, lsl #10
    29a4:	1f000011 	svcne	0x00000011
    29a8:	000000b9 	strheq	r0, [r0], -r9
    29ac:	d6041b00 	strle	r1, [r4], -r0, lsl #22
    29b0:	1b000011 	blne	29fc <__Stack_Size+0x25fc>
    29b4:	0011c404 	andseq	ip, r1, r4, lsl #8
    29b8:	0f050e00 	svceq	0x00050e00
    29bc:	11ec0000 	mvnne	r0, r0
    29c0:	250f0000 	strcs	r0, [pc, #-0]	; 29c8 <__Stack_Size+0x25c8>
    29c4:	02000000 	andeq	r0, r0, #0
    29c8:	0bc11100 	bleq	ff046dd0 <BootRAM+0xdfb7571>
    29cc:	33090000 	movwcc	r0, #36864	; 0x9000
    29d0:	0ce21703 	stcleq	7, cr1, [r2], #12
    29d4:	01010000 	mrseq	r0, (UNDEF: 1)
    29d8:	000bba11 	andeq	fp, fp, r1, lsl sl
    29dc:	03340900 	teqeq	r4, #0, 18
    29e0:	000ce81d 	andeq	lr, ip, sp, lsl r8
    29e4:	0e010100 	adfeqs	f0, f1, f0
    29e8:	00000076 	andeq	r0, r0, r6, ror r0
    29ec:	0000121a 	andeq	r1, r0, sl, lsl r2
    29f0:	0000250f 	andeq	r2, r0, pc, lsl #10
    29f4:	04001100 	streq	r1, [r0], #-256	; 0xffffff00
    29f8:	0000120a 	andeq	r1, r0, sl, lsl #4
    29fc:	000c9426 	andeq	r9, ip, r6, lsr #8
    2a00:	16130100 	ldrne	r0, [r3], -r0, lsl #2
    2a04:	0000121a 	andeq	r1, r0, sl, lsl r2
    2a08:	0bbe0305 	bleq	fef83624 <BootRAM+0xdef3dc5>
    2a0c:	760e0800 	strvc	r0, [lr], -r0, lsl #16
    2a10:	41000000 	mrsmi	r0, (UNDEF: 0)
    2a14:	0f000012 	svceq	0x00000012
    2a18:	00000025 	andeq	r0, r0, r5, lsr #32
    2a1c:	31040009 	tstcc	r4, r9
    2a20:	26000012 			; <UNDEFINED> instruction: 0x26000012
    2a24:	00000c4e 	andeq	r0, r0, lr, asr #24
    2a28:	41162601 	tstmi	r6, r1, lsl #12
    2a2c:	05000012 	streq	r0, [r0, #-18]	; 0xffffffee
    2a30:	000c9003 	andeq	r9, ip, r3
    2a34:	00760e08 	rsbseq	r0, r6, r8, lsl #28
    2a38:	12680000 	rsbne	r0, r8, #0
    2a3c:	250f0000 	strcs	r0, [pc, #-0]	; 2a44 <__Stack_Size+0x2644>
    2a40:	bf000000 	svclt	0x00000000
    2a44:	12580400 	subsne	r0, r8, #0, 8
    2a48:	c1260000 			; <UNDEFINED> instruction: 0xc1260000
    2a4c:	01000009 	tsteq	r0, r9
    2a50:	12681636 	rsbne	r1, r8, #56623104	; 0x3600000
    2a54:	03050000 	movweq	r0, #20480	; 0x5000
    2a58:	08000bd0 	stmdaeq	r0, {r4, r6, r7, r8, r9, fp}
    2a5c:	000bff21 	andeq	pc, fp, r1, lsr #30
    2a60:	1a010400 	bne	43a68 <__Stack_Size+0x43668>
    2a64:	12be0101 	adcsne	r0, lr, #1073741824	; 0x40000000
    2a68:	6d150000 	ldcvs	0, cr0, [r5, #-0]
    2a6c:	0100000d 	tsteq	r0, sp
    2a70:	6501011a 	strvs	r0, [r1, #-282]	; 0xfffffee6
    2a74:	02000000 	andeq	r0, r0, #0
    2a78:	bf150023 	svclt	0x00150023
    2a7c:	0100000c 	tsteq	r0, ip
    2a80:	6501011a 	strvs	r0, [r1, #-282]	; 0xfffffee6
    2a84:	02000000 	andeq	r0, r0, #0
    2a88:	9a150123 	bls	542f1c <__Stack_Size+0x542b1c>
    2a8c:	0100000b 	tsteq	r0, fp
    2a90:	c301011a 	movwgt	r0, #4378	; 0x111a
    2a94:	02000012 	andeq	r0, r0, #18
    2a98:	04000223 	streq	r0, [r0], #-547	; 0xfffffddd
    2a9c:	0000127f 	andeq	r1, r0, pc, ror r2
    2aa0:	0000820e 	andeq	r8, r0, lr, lsl #4
    2aa4:	0012d300 	andseq	sp, r2, r0, lsl #6
    2aa8:	00250f00 	eoreq	r0, r5, r0, lsl #30
    2aac:	00000000 	andeq	r0, r0, r0
    2ab0:	000bff27 	andeq	pc, fp, r7, lsr #30
    2ab4:	011a0100 	tsteq	sl, r0, lsl #2
    2ab8:	0012be01 	andseq	fp, r2, r1, lsl #28
    2abc:	9a030500 	bls	c3ec4 <__Stack_Size+0xc3ac4>
    2ac0:	2108000c 	tstcs	r8, ip
    2ac4:	00000ccf 	andeq	r0, r0, pc, asr #25
    2ac8:	011b0116 	tsteq	fp, r6, lsl r1
    2acc:	00132501 	andseq	r2, r3, r1, lsl #10
    2ad0:	0d6d1500 	cfstr64eq	mvdx1, [sp, #-0]
    2ad4:	1b010000 	blne	42adc <__Stack_Size+0x426dc>
    2ad8:	00650101 	rsbeq	r0, r5, r1, lsl #2
    2adc:	23020000 	movwcs	r0, #8192	; 0x2000
    2ae0:	0cbf1500 	cfldr32eq	mvfx1, [pc]	; 2ae8 <__Stack_Size+0x26e8>
    2ae4:	1b010000 	blne	42aec <__Stack_Size+0x426ec>
    2ae8:	00650101 	rsbeq	r0, r5, r1, lsl #2
    2aec:	23020000 	movwcs	r0, #8192	; 0x2000
    2af0:	0b9a1501 	bleq	fe687efc <BootRAM+0xd5f869d>
    2af4:	1b010000 	blne	42afc <__Stack_Size+0x426fc>
    2af8:	132a0101 			; <UNDEFINED> instruction: 0x132a0101
    2afc:	23020000 	movwcs	r0, #8192	; 0x2000
    2b00:	e6040002 	str	r0, [r4], -r2
    2b04:	0e000012 	mcreq	0, 0, r0, cr0, cr2, {0}
    2b08:	00000082 	andeq	r0, r0, r2, lsl #1
    2b0c:	0000133a 	andeq	r1, r0, sl, lsr r3
    2b10:	0000250f 	andeq	r2, r0, pc, lsl #10
    2b14:	27000900 	strcs	r0, [r0, -r0, lsl #18]
    2b18:	00000ccf 	andeq	r0, r0, pc, asr #25
    2b1c:	01011b01 	tsteq	r1, r1, lsl #22
    2b20:	00001325 	andeq	r1, r0, r5, lsr #6
    2b24:	0c9e0305 	ldceq	3, cr0, [lr], {5}
    2b28:	31210800 			; <UNDEFINED> instruction: 0x31210800
    2b2c:	1400000d 	strne	r0, [r0], #-13
    2b30:	01011c01 	tsteq	r1, r1, lsl #24
    2b34:	0000138c 	andeq	r1, r0, ip, lsl #7
    2b38:	000d6d15 	andeq	r6, sp, r5, lsl sp
    2b3c:	011c0100 	tsteq	ip, r0, lsl #2
    2b40:	00006501 	andeq	r6, r0, r1, lsl #10
    2b44:	00230200 	eoreq	r0, r3, r0, lsl #4
    2b48:	000cbf15 	andeq	fp, ip, r5, lsl pc
    2b4c:	011c0100 	tsteq	ip, r0, lsl #2
    2b50:	00006501 	andeq	r6, r0, r1, lsl #10
    2b54:	01230200 			; <UNDEFINED> instruction: 0x01230200
    2b58:	000b9a15 	andeq	r9, fp, r5, lsl sl
    2b5c:	011c0100 	tsteq	ip, r0, lsl #2
    2b60:	00139101 	andseq	r9, r3, r1, lsl #2
    2b64:	02230200 	eoreq	r0, r3, #0, 4
    2b68:	134d0400 	movtne	r0, #54272	; 0xd400
    2b6c:	820e0000 	andhi	r0, lr, #0
    2b70:	a1000000 	mrsge	r0, (UNDEF: 0)
    2b74:	0f000013 	svceq	0x00000013
    2b78:	00000025 	andeq	r0, r0, r5, lsr #32
    2b7c:	31270008 			; <UNDEFINED> instruction: 0x31270008
    2b80:	0100000d 	tsteq	r0, sp
    2b84:	8c01011c 	stfhis	f0, [r1], {28}
    2b88:	05000013 	streq	r0, [r0, #-19]	; 0xffffffed
    2b8c:	000cb403 	andeq	fp, ip, r3, lsl #8
    2b90:	0bd52108 	bleq	ff54afb8 <BootRAM+0xe4bb759>
    2b94:	01040000 	mrseq	r0, (UNDEF: 4)
    2b98:	f301011d 	veor	d0, d1, d13
    2b9c:	15000013 	strne	r0, [r0, #-19]	; 0xffffffed
    2ba0:	00000d6d 	andeq	r0, r0, sp, ror #26
    2ba4:	01011d01 	tsteq	r1, r1, lsl #26
    2ba8:	00000065 	andeq	r0, r0, r5, rrx
    2bac:	15002302 	strne	r2, [r0, #-770]	; 0xfffffcfe
    2bb0:	00000cbf 			; <UNDEFINED> instruction: 0x00000cbf
    2bb4:	01011d01 	tsteq	r1, r1, lsl #26
    2bb8:	00000065 	andeq	r0, r0, r5, rrx
    2bbc:	15012302 	strne	r2, [r1, #-770]	; 0xfffffcfe
    2bc0:	00000b9a 	muleq	r0, sl, fp
    2bc4:	01011d01 	tsteq	r1, r1, lsl #26
    2bc8:	000012c3 	andeq	r1, r0, r3, asr #5
    2bcc:	00022302 	andeq	r2, r2, r2, lsl #6
    2bd0:	0013b404 	andseq	fp, r3, r4, lsl #8
    2bd4:	0bd52700 	bleq	ff54c7dc <BootRAM+0xe4bcf7d>
    2bd8:	1d010000 	stcne	0, cr0, [r1, #-0]
    2bdc:	13f30101 	mvnsne	r0, #1073741824	; 0x40000000
    2be0:	03050000 	movweq	r0, #20480	; 0x5000
    2be4:	08000cc8 	stmdaeq	r0, {r3, r6, r7, sl, fp}
    2be8:	0000650e 	andeq	r6, r0, lr, lsl #10
    2bec:	00141b00 	andseq	r1, r4, r0, lsl #22
    2bf0:	00250f00 	eoreq	r0, r5, r0, lsl #30
    2bf4:	00020000 	andeq	r0, r2, r0
    2bf8:	000b8328 	andeq	r8, fp, r8, lsr #6
    2bfc:	01450100 	mrseq	r0, (UNDEF: 85)
    2c00:	00140b09 	andseq	r0, r4, r9, lsl #22
    2c04:	03050100 	movweq	r0, #20736	; 0x5100
    2c08:	20000018 	andcs	r0, r0, r8, lsl r0
    2c0c:	00034828 	andeq	r4, r3, r8, lsr #16
    2c10:	016c0100 	cmneq	ip, r0, lsl #2
    2c14:	00008e13 	andeq	r8, r0, r3, lsl lr
    2c18:	03050100 	movweq	r0, #20736	; 0x5100
    2c1c:	2000001c 	andcs	r0, r0, ip, lsl r0
    2c20:	00e70129 	rsceq	r0, r7, r9, lsr #2
    2c24:	98010000 	stmdals	r1, {}	; <UNPREDICTABLE>
    2c28:	0a080601 	beq	204434 <__Stack_Size+0x204034>
    2c2c:	0a0a0800 	beq	284c34 <__Stack_Size+0x284834>
    2c30:	7d020800 	stcvc	8, cr0, [r2, #-0]
    2c34:	012a0100 			; <UNDEFINED> instruction: 0x012a0100
    2c38:	00000505 	andeq	r0, r0, r5, lsl #10
    2c3c:	06018a01 	streq	r8, [r1], -r1, lsl #20
    2c40:	080009ac 	stmdaeq	r0, {r2, r3, r5, r7, r8, fp}
    2c44:	08000a08 	stmdaeq	r0, {r3, r9, fp}
    2c48:	00000d33 	andeq	r0, r0, r3, lsr sp
    2c4c:	0014e401 	andseq	lr, r4, r1, lsl #8
    2c50:	19892b00 	stmibne	r9, {r8, r9, fp, sp}
    2c54:	09ee0000 	stmibeq	lr!, {}^	; <UNPREDICTABLE>
    2c58:	10010800 	andne	r0, r1, r0, lsl #16
    2c5c:	01000002 	tsteq	r0, r2
    2c60:	98030194 	stmdals	r3, {r2, r4, r7, r8}
    2c64:	2c000014 	stccs	0, cr0, [r0], {20}
    2c68:	00001998 	muleq	r0, r8, r9
    2c6c:	00000d55 	andeq	r0, r0, r5, asr sp
    2c70:	00000d53 	andeq	r0, r0, r3, asr sp
    2c74:	09ba2d00 	ldmibeq	sl!, {r8, sl, fp, sp}
    2c78:	19a60800 	stmibne	r6!, {fp}
    2c7c:	14bf0000 	ldrtne	r0, [pc], #0	; 2c84 <__Stack_Size+0x2884>
    2c80:	012e0000 			; <UNDEFINED> instruction: 0x012e0000
    2c84:	2e310150 	mrccs	1, 1, r0, cr1, cr0, {2}
    2c88:	31015101 	tstcc	r1, r1, lsl #2
    2c8c:	0252012e 	subseq	r0, r2, #-2147483637	; 0x8000000b
    2c90:	012e4008 			; <UNDEFINED> instruction: 0x012e4008
    2c94:	d9030553 	stmdble	r3, {r0, r1, r4, r6, r8, sl}
    2c98:	00080007 	andeq	r0, r8, r7
    2c9c:	0009c62f 	andeq	ip, r9, pc, lsr #12
    2ca0:	0019a608 	andseq	sl, r9, r8, lsl #12
    2ca4:	50012e00 	andpl	r2, r1, r0, lsl #28
    2ca8:	2e820902 	vdivcs.f16	s0, s4, s4	; <UNPREDICTABLE>
    2cac:	31015101 	tstcc	r1, r1, lsl #2
    2cb0:	0252012e 	subseq	r0, r2, #-2147483637	; 0x8000000b
    2cb4:	012e4008 			; <UNDEFINED> instruction: 0x012e4008
    2cb8:	f5030553 			; <UNDEFINED> instruction: 0xf5030553
    2cbc:	00080008 	andeq	r0, r8, r8
    2cc0:	4c012900 			; <UNDEFINED> instruction: 0x4c012900
    2cc4:	0100000b 	tsteq	r0, fp
    2cc8:	78060180 	stmdavc	r6, {r7, r8}
    2ccc:	ac080009 	stcge	0, cr0, [r8], {9}
    2cd0:	02080009 	andeq	r0, r8, #9
    2cd4:	3001007d 	andcc	r0, r1, sp, ror r0
    2cd8:	000cae01 	andeq	sl, ip, r1, lsl #28
    2cdc:	016d0100 	cmneq	sp, r0, lsl #2
    2ce0:	08f40106 	ldmeq	r4!, {r1, r2, r8}^
    2ce4:	09780800 	ldmdbeq	r8!, {fp}^
    2ce8:	0d690800 	stcleq	8, cr0, [r9, #-0]
    2cec:	03010000 	movweq	r0, #4096	; 0x1000
    2cf0:	31000016 	tstcc	r0, r6, lsl r0
    2cf4:	000006cd 	andeq	r0, r0, sp, asr #13
    2cf8:	1f016d01 	svcne	0x00016d01
    2cfc:	00000065 	andeq	r0, r0, r5, rrx
    2d00:	00000db3 			; <UNDEFINED> instruction: 0x00000db3
    2d04:	00000daf 	andeq	r0, r0, pc, lsr #27
    2d08:	66756232 			; <UNDEFINED> instruction: 0x66756232
    2d0c:	016e0100 	cmneq	lr, r0, lsl #2
    2d10:	0016030b 	andseq	r0, r6, fp, lsl #6
    2d14:	e0910300 	adds	r0, r1, r0, lsl #6
    2d18:	0851337e 	ldmdaeq	r1, {r1, r2, r3, r4, r5, r6, r8, r9, ip, sp}^
    2d1c:	6f010000 	svcvs	0x00010000
    2d20:	00650b01 	rsbeq	r0, r5, r1, lsl #22
    2d24:	0dda0000 	ldcleq	0, cr0, [sl]
    2d28:	0dd40000 	ldcleq	0, cr0, [r4]
    2d2c:	63320000 	teqvs	r2, #0
    2d30:	0100746e 	tsteq	r0, lr, ror #8
    2d34:	4b120175 	blmi	483310 <__Stack_Size+0x482f10>
    2d38:	05000000 	streq	r0, [r0, #-0]
    2d3c:	00002003 	andeq	r2, r0, r3
    2d40:	01c03420 	biceq	r3, r0, r0, lsr #8
    2d44:	159d0000 	ldrne	r0, [sp]
    2d48:	69350000 	ldmdbvs	r5!, {}	; <UNPREDICTABLE>
    2d4c:	01760100 	cmneq	r6, r0, lsl #2
    2d50:	0000650f 	andeq	r6, r0, pc, lsl #10
    2d54:	000e0700 	andeq	r0, lr, r0, lsl #14
    2d58:	000e0300 	andeq	r0, lr, r0, lsl #6
    2d5c:	09542f00 	ldmdbeq	r4, {r8, r9, sl, fp, sp}^
    2d60:	16e80800 	strbtne	r0, [r8], r0, lsl #16
    2d64:	012e0000 			; <UNDEFINED> instruction: 0x012e0000
    2d68:	00780e50 	rsbseq	r0, r8, r0, asr lr
    2d6c:	f71e0076 			; <UNDEFINED> instruction: 0xf71e0076
    2d70:	f7007925 			; <UNDEFINED> instruction: 0xf7007925
    2d74:	00f71b25 	rscseq	r1, r7, r5, lsr #22
    2d78:	11360000 	teqne	r6, r0
    2d7c:	24000019 	strcs	r0, [r0], #-25	; 0xffffffe7
    2d80:	00080009 	andeq	r0, r8, r9
    2d84:	000001f8 	strdeq	r0, [r0], -r8
    2d88:	03017b01 	movweq	r7, #6913	; 0x1b01
    2d8c:	00191f2c 	andseq	r1, r9, ip, lsr #30
    2d90:	000e2900 	andeq	r2, lr, r0, lsl #18
    2d94:	000e2700 	andeq	r2, lr, r0, lsl #14
    2d98:	19372c00 	ldmdbne	r7!, {sl, fp, sp}
    2d9c:	0e3f0000 	cdpeq	0, 3, cr0, cr15, cr0, {0}
    2da0:	0e3d0000 	cdpeq	0, 3, cr0, cr13, cr0, {0}
    2da4:	2b2c0000 	blcs	b02dac <__Stack_Size+0xb029ac>
    2da8:	58000019 	stmdapl	r0, {r0, r3, r4}
    2dac:	5600000e 	strpl	r0, [r0], -lr
    2db0:	3700000e 	strcc	r0, [r0, -lr]
    2db4:	000001f8 	strdeq	r0, [r0], -r8
    2db8:	00194338 	andseq	r4, r9, r8, lsr r3
    2dbc:	000e6d00 	andeq	r6, lr, r0, lsl #26
    2dc0:	000e6b00 	andeq	r6, lr, r0, lsl #22
    2dc4:	09382f00 	ldmdbeq	r8!, {r8, r9, sl, fp, sp}
    2dc8:	19b40800 	ldmibne	r4!, {fp}
    2dcc:	012e0000 			; <UNDEFINED> instruction: 0x012e0000
    2dd0:	007d0251 	rsbseq	r0, sp, r1, asr r2
    2dd4:	0452012e 	ldrbeq	r0, [r2], #-302	; 0xfffffed2
    2dd8:	24310074 	ldrtcs	r0, [r1], #-116	; 0xffffff8c
    2ddc:	00000000 	andeq	r0, r0, r0
    2de0:	0000330e 	andeq	r3, r0, lr, lsl #6
    2de4:	00161300 	andseq	r1, r6, r0, lsl #6
    2de8:	00250f00 	eoreq	r0, r5, r0, lsl #30
    2dec:	003f0000 	eorseq	r0, pc, r0
    2df0:	089e0130 	ldmeq	lr, {r4, r5, r8}
    2df4:	61010000 	mrsvs	r0, (UNDEF: 1)
    2df8:	d8010601 	stmdale	r1, {r0, r9, sl}
    2dfc:	24080007 	strcs	r0, [r8], #-7
    2e00:	89080008 	stmdbhi	r8, {r3}
    2e04:	0100000e 	tsteq	r0, lr
    2e08:	000016d8 	ldrdeq	r1, [r0], -r8
    2e0c:	0006cd31 	andeq	ip, r6, r1, lsr sp
    2e10:	01610100 	cmneq	r1, r0, lsl #2
    2e14:	00006520 	andeq	r6, r0, r0, lsr #10
    2e18:	000ed300 	andeq	sp, lr, r0, lsl #6
    2e1c:	000ecf00 	andeq	ip, lr, r0, lsl #30
    2e20:	6e633500 	cdpvs	5, 6, cr3, cr3, cr0, {0}
    2e24:	62010074 	andvs	r0, r1, #116	; 0x74
    2e28:	00b90701 	adcseq	r0, r9, r1, lsl #14
    2e2c:	0ef80000 	cdpeq	0, 15, cr0, cr8, cr0, {0}
    2e30:	0ef40000 	cdpeq	0, 15, cr0, cr4, cr0, {0}
    2e34:	62320000 	eorsvs	r0, r2, #0
    2e38:	01006675 	tsteq	r0, r5, ror r6
    2e3c:	d80b0163 	stmdale	fp, {r0, r1, r5, r6, r8}
    2e40:	03000016 	movweq	r0, #22
    2e44:	347fb091 	ldrbtcc	fp, [pc], #-145	; 2e4c <__Stack_Size+0x2a4c>
    2e48:	00000198 	muleq	r0, r8, r1
    2e4c:	00001687 	andeq	r1, r0, r7, lsl #13
    2e50:	01006935 	tsteq	r0, r5, lsr r9
    2e54:	b90b0167 	stmdblt	fp, {r0, r1, r2, r5, r6, r8}
    2e58:	1c000000 	stcne	0, cr0, [r0], {-0}
    2e5c:	1600000f 	strne	r0, [r0], -pc
    2e60:	0000000f 	andeq	r0, r0, pc
    2e64:	0018da36 	andseq	sp, r8, r6, lsr sl
    2e68:	0007de00 	andeq	sp, r7, r0, lsl #28
    2e6c:	01800008 	orreq	r0, r0, r8
    2e70:	64010000 	strvs	r0, [r1], #-0
    2e74:	ec2c0901 			; <UNDEFINED> instruction: 0xec2c0901
    2e78:	49000018 	stmdbmi	r0, {r3, r4}
    2e7c:	4700000f 	strmi	r0, [r0, -pc]
    2e80:	2c00000f 	stccs	0, cr0, [r0], {15}
    2e84:	000018f8 	strdeq	r1, [r0], -r8
    2e88:	00000f5f 	andeq	r0, r0, pc, asr pc
    2e8c:	00000f5d 	andeq	r0, r0, sp, asr pc
    2e90:	00018037 	andeq	r8, r1, r7, lsr r0
    2e94:	19043800 	stmdbne	r4, {fp, ip, sp}
    2e98:	0f740000 	svceq	0x00740000
    2e9c:	0f720000 	svceq	0x00720000
    2ea0:	f02f0000 			; <UNDEFINED> instruction: 0xf02f0000
    2ea4:	c2080007 	andgt	r0, r8, #7
    2ea8:	2e000019 	mcrcs	0, 0, r0, cr0, cr9, {0}
    2eac:	7d025101 	stfvcs	f5, [r2, #-4]
    2eb0:	00000000 	andeq	r0, r0, r0
    2eb4:	00330e00 	eorseq	r0, r3, r0, lsl #28
    2eb8:	16e80000 	strbtne	r0, [r8], r0
    2ebc:	250f0000 	strcs	r0, [pc, #-0]	; 2ec4 <__Stack_Size+0x2ac4>
    2ec0:	1f000000 	svcne	0x00000000
    2ec4:	65013900 	strvs	r3, [r1, #-2304]	; 0xfffff700
    2ec8:	0100000b 	tsteq	r0, fp
    2ecc:	01090156 	tsteq	r9, r6, asr r1
    2ed0:	00000033 	andeq	r0, r0, r3, lsr r0
    2ed4:	080008d0 	stmdaeq	r0, {r4, r6, r7, fp}
    2ed8:	080008f4 	stmdaeq	r0, {r2, r4, r5, r6, r7, fp}
    2edc:	00000f90 	muleq	r0, r0, pc	; <UNPREDICTABLE>
    2ee0:	00174d01 	andseq	r4, r7, r1, lsl #26
    2ee4:	00783a00 	rsbseq	r3, r8, r0, lsl #20
    2ee8:	16015601 	strne	r5, [r1], -r1, lsl #12
    2eec:	00000065 	andeq	r0, r0, r5, rrx
    2ef0:	00000fcd 	andeq	r0, r0, sp, asr #31
    2ef4:	00000fc9 	andeq	r0, r0, r9, asr #31
    2ef8:	72726132 	rsbsvc	r6, r2, #-2147483636	; 0x8000000c
    2efc:	01570100 	cmpeq	r7, r0, lsl #2
    2f00:	00175d11 	andseq	r5, r7, r1, lsl sp
    2f04:	f8910300 			; <UNDEFINED> instruction: 0xf8910300
    2f08:	08e42f7b 	stmiaeq	r4!, {r0, r1, r3, r4, r5, r6, r8, r9, sl, fp, sp}^
    2f0c:	19d00800 	ldmibne	r0, {fp}^
    2f10:	012e0000 			; <UNDEFINED> instruction: 0x012e0000
    2f14:	007d0250 	rsbseq	r0, sp, r0, asr r2
    2f18:	0551012e 	ldrbeq	r0, [r1, #-302]	; 0xfffffed2
    2f1c:	000ccc03 	andeq	ip, ip, r3, lsl #24
    2f20:	52012e08 	andpl	r2, r1, #8, 28	; 0x80
    2f24:	02000a03 	andeq	r0, r0, #12288	; 0x3000
    2f28:	3f0e0000 	svccc	0x000e0000
    2f2c:	5d000000 	stcpl	0, cr0, [r0, #-0]
    2f30:	0f000017 	svceq	0x00000017
    2f34:	00000025 	andeq	r0, r0, r5, lsr #32
    2f38:	4d0400ff 	stcmi	0, cr0, [r4, #-1020]	; 0xfffffc04
    2f3c:	39000017 	stmdbcc	r0, {r0, r1, r2, r4}
    2f40:	0006e501 	andeq	lr, r6, r1, lsl #10
    2f44:	014b0100 	mrseq	r0, (UNDEF: 91)
    2f48:	0e680106 	poweqe	f0, f0, f6
    2f4c:	08a40000 	stmiaeq	r4!, {}	; <UNPREDICTABLE>
    2f50:	08d00800 	ldmeq	r0, {fp}^
    2f54:	0fee0800 	svceq	0x00ee0800
    2f58:	19010000 	stmdbne	r1, {}	; <UNPREDICTABLE>
    2f5c:	3a000018 	bcc	2fc4 <__Stack_Size+0x2bc4>
    2f60:	00716572 	rsbseq	r6, r1, r2, ror r5
    2f64:	27014b01 	strcs	r4, [r1, -r1, lsl #22]
    2f68:	00001819 	andeq	r1, r0, r9, lsl r8
    2f6c:	00001014 	andeq	r1, r0, r4, lsl r0
    2f70:	0000100e 	andeq	r1, r0, lr
    2f74:	000bce31 	andeq	ip, fp, r1, lsr lr
    2f78:	014b0100 	mrseq	r0, (UNDEF: 91)
    2f7c:	00008235 	andeq	r8, r0, r5, lsr r2
    2f80:	00104600 	andseq	r4, r0, r0, lsl #12
    2f84:	00104000 	andseq	r4, r0, r0
    2f88:	06d33100 	ldrbeq	r3, [r3], r0, lsl #2
    2f8c:	4b010000 	blmi	42f94 <__Stack_Size+0x42b94>
    2f90:	00824601 	addeq	r4, r2, r1, lsl #12
    2f94:	10780000 	rsbsne	r0, r8, r0
    2f98:	10720000 	rsbsne	r0, r2, r0
    2f9c:	563b0000 	ldrtpl	r0, [fp], -r0
    2fa0:	ba000019 	blt	300c <__Stack_Size+0x2c0c>
    2fa4:	01080008 	tsteq	r8, r8
    2fa8:	080008ba 	stmdaeq	r0, {r1, r3, r4, r5, r7, fp}
    2fac:	080008c4 	stmdaeq	r0, {r2, r6, r7, fp}
    2fb0:	07014f01 	streq	r4, [r1, -r1, lsl #30]
    2fb4:	00197c2c 	andseq	r7, r9, ip, lsr #24
    2fb8:	0010a600 	andseq	sl, r0, r0, lsl #12
    2fbc:	0010a400 	andseq	sl, r0, r0, lsl #8
    2fc0:	19702c00 	ldmdbne	r0!, {sl, fp, sp}^
    2fc4:	10a60000 	adcne	r0, r6, r0
    2fc8:	10a40000 	adcne	r0, r4, r0
    2fcc:	642c0000 	strtvs	r0, [ip], #-0
    2fd0:	a6000019 			; <UNDEFINED> instruction: 0xa6000019
    2fd4:	a4000010 	strge	r0, [r0], #-16
    2fd8:	2f000010 	svccs	0x00000010
    2fdc:	080008c4 	stmdaeq	r0, {r2, r6, r7, fp}
    2fe0:	000019b4 			; <UNDEFINED> instruction: 0x000019b4
    2fe4:	0150012e 	cmpeq	r0, lr, lsr #2
    2fe8:	51012e30 	tstpl	r1, r0, lsr lr
    2fec:	012e3001 			; <UNDEFINED> instruction: 0x012e3001
    2ff0:	00300152 	eorseq	r0, r0, r2, asr r1
    2ff4:	041b0000 	ldreq	r0, [fp], #-0
    2ff8:	0000011a 	andeq	r0, r0, sl, lsl r1
    2ffc:	0579013c 	ldrbeq	r0, [r9, #-316]!	; 0xfffffec4
    3000:	47010000 	strmi	r0, [r1, -r0]
    3004:	68010601 	stmdavs	r1, {r0, r9, sl}
    3008:	a000000e 	andge	r0, r0, lr
    300c:	a4080008 	strge	r0, [r8], #-8
    3010:	02080008 	andeq	r0, r8, #8
    3014:	7201007d 	andvc	r0, r1, #125	; 0x7d
    3018:	3a000018 	bcc	3080 <__Stack_Size+0x2c80>
    301c:	00716572 	rsbseq	r6, r1, r2, ror r5
    3020:	26014701 	strcs	r4, [r1], -r1, lsl #14
    3024:	00001819 	andeq	r1, r0, r9, lsl r8
    3028:	000010be 	strheq	r1, [r0], -lr
    302c:	000010ba 	strheq	r1, [r0], -sl
    3030:	000bae3d 	andeq	sl, fp, sp, lsr lr
    3034:	01470100 	mrseq	r0, (UNDEF: 87)
    3038:	00187232 	andseq	r7, r8, r2, lsr r2
    303c:	3d510100 	ldfcce	f0, [r1, #-0]
    3040:	000006d6 	ldrdeq	r0, [r0], -r6
    3044:	42014701 	andmi	r4, r1, #262144	; 0x40000
    3048:	00001878 	andeq	r1, r0, r8, ror r8
    304c:	1b005201 	blne	17858 <__Stack_Size+0x17458>
    3050:	00091f04 	andeq	r1, r9, r4, lsl #30
    3054:	82041b00 	andhi	r1, r4, #0, 22
    3058:	3e000000 	cdpcc	0, 0, cr0, cr0, cr0, {0}
    305c:	0003d301 	andeq	sp, r3, r1, lsl #6
    3060:	011f0100 	tsteq	pc, r0, lsl #2
    3064:	08240106 	stmdaeq	r4!, {r1, r2, r8}
    3068:	08a00800 	stmiaeq	r0!, {fp}
    306c:	7d020800 	stcvc	8, cr0, [r2, #-0]
    3070:	18cd0100 	stmiane	sp, {r8}^
    3074:	e5310000 	ldr	r0, [r1, #-0]!
    3078:	01000003 	tsteq	r0, r3
    307c:	8227011f 	eorhi	r0, r7, #-1073741817	; 0xc0000007
    3080:	e7000000 	str	r0, [r0, -r0]
    3084:	df000010 	svcle	0x00000010
    3088:	3d000010 	stccc	0, cr0, [r0, #-64]	; 0xffffffc0
    308c:	00000bae 	andeq	r0, r0, lr, lsr #23
    3090:	3b011f01 	blcc	4ac9c <__Stack_Size+0x4a89c>
    3094:	000018cd 	andeq	r1, r0, sp, asr #17
    3098:	d63d5101 	ldrtle	r5, [sp], -r1, lsl #2
    309c:	01000006 	tsteq	r0, r6
    30a0:	784b011f 	stmdavc	fp, {r0, r1, r2, r3, r4, r8}^
    30a4:	01000018 	tsteq	r0, r8, lsl r0
    30a8:	041b0052 	ldreq	r0, [fp], #-82	; 0xffffffae
    30ac:	000018d3 	ldrdeq	r1, [r0], -r3
    30b0:	18d9041b 	ldmne	r9, {r0, r1, r3, r4, sl}^
    30b4:	403f0000 	eorsmi	r0, pc, r0
    30b8:	0000083e 	andeq	r0, r0, lr, lsr r8
    30bc:	0113b702 	tsteq	r3, r2, lsl #14
    30c0:	000000b9 	strheq	r0, [r0], -r9
    30c4:	00191103 	andseq	r1, r9, r3, lsl #2
    30c8:	06cd4100 	strbeq	r4, [sp], r0, lsl #2
    30cc:	b7020000 	strlt	r0, [r2, -r0]
    30d0:	0000652e 	andeq	r6, r0, lr, lsr #10
    30d4:	75624200 	strbvc	r4, [r2, #-512]!	; 0xfffffe00
    30d8:	b7020066 	strlt	r0, [r2, -r6, rrx]
    30dc:	0018783f 	andseq	r7, r8, pc, lsr r8
    30e0:	64694300 	strbtvs	r4, [r9], #-768	; 0xfffffd00
    30e4:	b8020078 	stmdalt	r2, {r3, r4, r5, r6}
    30e8:	0000650b 	andeq	r6, r0, fp, lsl #10
    30ec:	b0440000 	sublt	r0, r4, r0
    30f0:	02000008 	andeq	r0, r0, #8
    30f4:	030114ae 	movweq	r1, #5294	; 0x14ae
    30f8:	00001950 	andeq	r1, r0, r0, asr r9
    30fc:	0006cd41 	andeq	ip, r6, r1, asr #26
    3100:	30ae0200 	adccc	r0, lr, r0, lsl #4
    3104:	00000065 	andeq	r0, r0, r5, rrx
    3108:	66756242 	ldrbtvs	r6, [r5], -r2, asr #4
    310c:	46ae0200 	strtmi	r0, [lr], r0, lsl #4
    3110:	00001950 	andeq	r1, r0, r0, asr r9
    3114:	0006d641 	andeq	sp, r6, r1, asr #12
    3118:	54ae0200 	strtpl	r0, [lr], #512	; 0x200
    311c:	00000082 	andeq	r0, r0, r2, lsl #1
    3120:	78646943 	stmdavc	r4!, {r0, r1, r6, r8, fp, sp, lr}^
    3124:	0baf0200 	bleq	febc392c <BootRAM+0xdb340cd>
    3128:	00000065 	andeq	r0, r0, r5, rrx
    312c:	76041b00 	strvc	r1, [r4], -r0, lsl #22
    3130:	44000000 	strmi	r0, [r0], #-0
    3134:	0000037a 	andeq	r0, r0, sl, ror r3
    3138:	0114ab02 	tsteq	r4, r2, lsl #22
    313c:	00198903 	andseq	r8, r9, r3, lsl #18
    3140:	06cd4100 	strbeq	r4, [sp], r0, lsl #2
    3144:	ab020000 	blge	8314c <__Stack_Size+0x82d4c>
    3148:	00006529 	andeq	r6, r0, r9, lsr #10
    314c:	75624200 	strbvc	r4, [r2, #-512]!	; 0xfffffe00
    3150:	ab020066 	blge	832f0 <__Stack_Size+0x82ef0>
    3154:	0019503f 	andseq	r5, r9, pc, lsr r0
    3158:	06d64100 	ldrbeq	r4, [r6], r0, lsl #2
    315c:	ab020000 	blge	83164 <__Stack_Size+0x82d64>
    3160:	0000824d 	andeq	r8, r0, sp, asr #4
    3164:	9a450000 	bls	114316c <__Stack_Size+0x1142d6c>
    3168:	03000003 	movweq	r0, #3
    316c:	011605de 			; <UNDEFINED> instruction: 0x011605de
    3170:	0019a603 	andseq	sl, r9, r3, lsl #12
    3174:	03044600 	movweq	r4, #17920	; 0x4600
    3178:	de030000 	cdple	0, 0, cr0, cr3, cr0, {0}
    317c:	026d2f05 	rsbeq	r2, sp, #5, 30
    3180:	47000000 	strmi	r0, [r0, -r0]
    3184:	075d0101 	ldrbeq	r0, [sp, -r1, lsl #2]
    3188:	075d0000 	ldrbeq	r0, [sp, -r0]
    318c:	26020000 	strcs	r0, [r2], -r0
    3190:	01014706 	tsteq	r1, r6, lsl #14
    3194:	00000379 	andeq	r0, r0, r9, ror r3
    3198:	00000379 	andeq	r0, r0, r9, ror r3
    319c:	4706aa02 	strmi	sl, [r6, -r2, lsl #20]
    31a0:	048a0101 	streq	r0, [sl], #257	; 0x101
    31a4:	048a0000 	streq	r0, [sl], #0
    31a8:	b3020000 	movwlt	r0, #8192	; 0x2000
    31ac:	01014805 	tsteq	r1, r5, lsl #16
    31b0:	0000091d 	andeq	r0, r0, sp, lsl r9
    31b4:	00000913 	andeq	r0, r0, r3, lsl r9
    31b8:	2200000b 	andcs	r0, r0, #11
    31bc:	02000000 	andeq	r0, r0, #0
    31c0:	000b8f00 	andeq	r8, fp, r0, lsl #30
    31c4:	fc010400 	stc2	4, cr0, [r1], {-0}
    31c8:	0c00000d 	stceq	0, cr0, [r0], {13}
    31cc:	f808000a 			; <UNDEFINED> instruction: 0xf808000a
    31d0:	b008000a 	andlt	r0, r8, sl
    31d4:	f300000d 	vhadd.u8	d0, d0, d13
    31d8:	5100000d 	tstpl	r0, sp
    31dc:	0100000e 	tsteq	r0, lr
    31e0:	Address 0x00000000000031e0 is out of bounds.


Disassembly of section .debug_abbrev:

00000000 <.debug_abbrev>:
   0:	25011101 	strcs	r1, [r1, #-257]	; 0xfffffeff
   4:	030b130e 	movweq	r1, #45838	; 0xb30e
   8:	550e1b0e 	strpl	r1, [lr, #-2830]	; 0xfffff4f2
   c:	52011106 	andpl	r1, r1, #-2147483647	; 0x80000001
  10:	00061001 	andeq	r1, r6, r1
  14:	00240200 	eoreq	r0, r4, r0, lsl #4
  18:	0b3e0b0b 	bleq	f82c4c <__Stack_Size+0xf8284c>
  1c:	00000e03 	andeq	r0, r0, r3, lsl #28
  20:	03001603 	movweq	r1, #1539	; 0x603
  24:	3b0b3a0e 	blcc	2ce864 <__Stack_Size+0x2ce464>
  28:	490b390b 	stmdbmi	fp, {r0, r1, r3, r8, fp, ip, sp}
  2c:	04000013 	streq	r0, [r0], #-19	; 0xffffffed
  30:	13490026 	movtne	r0, #36902	; 0x9026
  34:	35050000 	strcc	r0, [r5, #-0]
  38:	00134900 	andseq	r4, r3, r0, lsl #18
  3c:	00240600 	eoreq	r0, r4, r0, lsl #12
  40:	0b3e0b0b 	bleq	f82c74 <__Stack_Size+0xf82874>
  44:	00000803 	andeq	r0, r0, r3, lsl #16
  48:	03003407 	movweq	r3, #1031	; 0x407
  4c:	3b0b3a0e 	blcc	2ce88c <__Stack_Size+0x2ce48c>
  50:	490b3905 	stmdbmi	fp, {r0, r2, r8, fp, ip, sp}
  54:	3c0c3f13 	stccc	15, cr3, [ip], {19}
  58:	0800000c 	stmdaeq	r0, {r2, r3}
  5c:	0e030034 	mcreq	0, 0, r0, cr3, cr4, {1}
  60:	0b3b0b3a 	bleq	ec2d50 <__Stack_Size+0xec2950>
  64:	13490b39 	movtne	r0, #39737	; 0x9b39
  68:	0c3c0c3f 	ldceq	12, cr0, [ip], #-252	; 0xffffff04
  6c:	01090000 	mrseq	r0, (UNDEF: 9)
  70:	01134901 	tsteq	r3, r1, lsl #18
  74:	0a000013 	beq	c8 <_Minimum_Stack_Size-0x38>
  78:	13490021 	movtne	r0, #36897	; 0x9021
  7c:	00000b2f 	andeq	r0, r0, pc, lsr #22
  80:	0b01130b 	bleq	44cb4 <__Stack_Size+0x448b4>
  84:	3b0b3a0b 	blcc	2ce8b8 <__Stack_Size+0x2ce4b8>
  88:	010b3905 	tsteq	fp, r5, lsl #18
  8c:	0c000013 	stceq	0, cr0, [r0], {19}
  90:	0803000d 	stmdaeq	r3, {r0, r2, r3}
  94:	053b0b3a 	ldreq	r0, [fp, #-2874]!	; 0xfffff4c6
  98:	13490b39 	movtne	r0, #39737	; 0x9b39
  9c:	00000a38 	andeq	r0, r0, r8, lsr sl
  a0:	03000d0d 	movweq	r0, #3341	; 0xd0d
  a4:	3b0b3a0e 	blcc	2ce8e4 <__Stack_Size+0x2ce4e4>
  a8:	490b3905 	stmdbmi	fp, {r0, r2, r8, fp, ip, sp}
  ac:	000a3813 	andeq	r3, sl, r3, lsl r8
  b0:	00160e00 	andseq	r0, r6, r0, lsl #28
  b4:	0b3a0e03 	bleq	e838c8 <__Stack_Size+0xe834c8>
  b8:	0b39053b 	bleq	e415ac <__Stack_Size+0xe411ac>
  bc:	00001349 	andeq	r1, r0, r9, asr #6
  c0:	3f012e0f 	svccc	0x00012e0f
  c4:	3a0e030c 	bcc	380cfc <__Stack_Size+0x3808fc>
  c8:	390b3b0b 	stmdbcc	fp, {r0, r1, r3, r8, r9, fp, ip, sp}
  cc:	490c270b 	stmdbmi	ip, {r0, r1, r3, r8, r9, sl, sp}
  d0:	12011113 	andne	r1, r1, #-1073741820	; 0xc0000004
  d4:	97064001 	strls	r4, [r6, -r1]
  d8:	13010c42 	movwne	r0, #7234	; 0x1c42
  dc:	0b100000 	bleq	4000e4 <__Stack_Size+0x3ffce4>
  e0:	01065501 	tsteq	r6, r1, lsl #10
  e4:	11000013 	tstne	r0, r3, lsl r0
  e8:	0e030034 	mcreq	0, 0, r0, cr3, cr4, {1}
  ec:	0b3b0b3a 	bleq	ec2ddc <__Stack_Size+0xec29dc>
  f0:	13490b39 	movtne	r0, #39737	; 0x9b39
  f4:	42b70602 	adcsmi	r0, r7, #2097152	; 0x200000
  f8:	12000006 	andne	r0, r0, #6
  fc:	1301010b 	movwne	r0, #4363	; 0x110b
 100:	34130000 	ldrcc	r0, [r3], #-0
 104:	3a0e0300 	bcc	380d0c <__Stack_Size+0x38090c>
 108:	390b3b0b 	stmdbcc	fp, {r0, r1, r3, r8, r9, fp, ip, sp}
 10c:	0013490b 	andseq	r4, r3, fp, lsl #18
 110:	010b1400 	tsteq	fp, r0, lsl #8
 114:	01120111 	tsteq	r2, r1, lsl r1
 118:	00001301 	andeq	r1, r0, r1, lsl #6
 11c:	31001d15 	tstcc	r0, r5, lsl sp
 120:	b8015213 	stmdalt	r1, {r0, r1, r4, r9, ip, lr}
 124:	01110b42 	tsteq	r1, r2, asr #22
 128:	0b580112 	bleq	1600578 <__Stack_Size+0x1600178>
 12c:	0b570b59 	bleq	15c2e98 <__Stack_Size+0x15c2a98>
 130:	89160000 	ldmdbhi	r6, {}	; <UNPREDICTABLE>
 134:	11000182 	smlabbne	r0, r2, r1, r0
 138:	00133101 	andseq	r3, r3, r1, lsl #2
 13c:	82891700 	addhi	r1, r9, #0, 14
 140:	01110101 	tsteq	r1, r1, lsl #2
 144:	00001331 	andeq	r1, r0, r1, lsr r3
 148:	01828a18 	orreq	r8, r2, r8, lsl sl
 14c:	910a0200 	mrsls	r0, R10_fiq
 150:	00000a42 	andeq	r0, r0, r2, asr #20
 154:	3f012e19 	svccc	0x00012e19
 158:	3a0e030c 	bcc	380d90 <__Stack_Size+0x380990>
 15c:	390b3b0b 	stmdbcc	fp, {r0, r1, r3, r8, r9, fp, ip, sp}
 160:	110c270b 	tstne	ip, fp, lsl #14
 164:	40011201 	andmi	r1, r1, r1, lsl #4
 168:	0c42970a 	mcrreq	7, 0, r9, r2, cr10
 16c:	00001301 	andeq	r1, r0, r1, lsl #6
 170:	0300051a 	movweq	r0, #1306	; 0x51a
 174:	3b0b3a0e 	blcc	2ce9b4 <__Stack_Size+0x2ce5b4>
 178:	490b390b 	stmdbmi	fp, {r0, r1, r3, r8, fp, ip, sp}
 17c:	b7060213 	smladlt	r6, r3, r2, r0
 180:	00000642 	andeq	r0, r0, r2, asr #12
 184:	3f002e1b 	svccc	0x00002e1b
 188:	3a0e030c 	bcc	380dc0 <__Stack_Size+0x3809c0>
 18c:	390b3b0b 	stmdbcc	fp, {r0, r1, r3, r8, r9, fp, ip, sp}
 190:	110c270b 	tstne	ip, fp, lsl #14
 194:	40011201 	andmi	r1, r1, r1, lsl #4
 198:	0c42970a 	mcrreq	7, 0, r9, r2, cr10
 19c:	2e1c0000 	cdpcs	0, 1, cr0, cr12, cr0, {0}
 1a0:	030c3f00 	movweq	r3, #52992	; 0xcf00
 1a4:	3b0b3a0e 	blcc	2ce9e4 <__Stack_Size+0x2ce5e4>
 1a8:	270b390b 	strcs	r3, [fp, -fp, lsl #18]
 1ac:	1d00000c 	stcne	0, cr0, [r0, #-48]	; 0xffffffd0
 1b0:	0c3f012e 	ldfeqs	f0, [pc], #-184	; 100 <_Minimum_Stack_Size>
 1b4:	0b3a0e03 	bleq	e839c8 <__Stack_Size+0xe835c8>
 1b8:	0b390b3b 	bleq	e42eac <__Stack_Size+0xe42aac>
 1bc:	0b201349 	bleq	804ee8 <__Stack_Size+0x804ae8>
 1c0:	00001301 	andeq	r1, r0, r1, lsl #6
 1c4:	0300341e 	movweq	r3, #1054	; 0x41e
 1c8:	3b0b3a08 	blcc	2ce9f0 <__Stack_Size+0x2ce5f0>
 1cc:	490b390b 	stmdbmi	fp, {r0, r1, r3, r8, fp, ip, sp}
 1d0:	1f000013 	svcne	0x00000013
 1d4:	0e03002e 	cdpeq	0, 0, cr0, cr3, cr14, {1}
 1d8:	053b0b3a 	ldreq	r0, [fp, #-2874]!	; 0xfffff4c6
 1dc:	0b200b39 	bleq	802ec8 <__Stack_Size+0x802ac8>
 1e0:	2e200000 	cdpcs	0, 2, cr0, cr0, cr0, {0}
 1e4:	11133101 	tstne	r3, r1, lsl #2
 1e8:	40011201 	andmi	r1, r1, r1, lsl #4
 1ec:	0c42970a 	mcrreq	7, 0, r9, r2, cr10
 1f0:	00001301 	andeq	r1, r0, r1, lsl #6
 1f4:	31003421 	tstcc	r0, r1, lsr #8
 1f8:	b7060213 	smladlt	r6, r3, r2, r0
 1fc:	00000642 	andeq	r0, r0, r2, asr #12
 200:	31003422 	tstcc	r0, r2, lsr #8
 204:	23000013 	movwcs	r0, #19
 208:	1331011d 	teqne	r1, #1073741831	; 0x40000007
 20c:	42b80152 	adcsmi	r0, r8, #-2147483628	; 0x80000014
 210:	5806550b 	stmdapl	r6, {r0, r1, r3, r8, sl, ip, lr}
 214:	570b590b 	strpl	r5, [fp, -fp, lsl #18]
 218:	2400000b 	strcs	r0, [r0], #-11
 21c:	0655010b 	ldrbeq	r0, [r5], -fp, lsl #2
 220:	2e250000 	cdpcs	0, 2, cr0, cr5, cr0, {0}
 224:	3c0c3f00 	stccc	15, cr3, [ip], {-0}
 228:	0e40870c 	cdpeq	7, 4, cr8, cr0, cr12, {0}
 22c:	0b3a0e03 	bleq	e83a40 <__Stack_Size+0xe83640>
 230:	0b390b3b 	bleq	e42f24 <__Stack_Size+0xe42b24>
 234:	01000000 	mrseq	r0, (UNDEF: 0)
 238:	0e250111 	mcreq	1, 1, r0, cr5, cr1, {0}
 23c:	0e030b13 	vmoveq.32	d3[0], r0
 240:	01110e1b 	tsteq	r1, fp, lsl lr
 244:	06100112 			; <UNDEFINED> instruction: 0x06100112
 248:	24020000 	strcs	r0, [r2], #-0
 24c:	3e0b0b00 	vmlacc.f64	d0, d11, d0
 250:	000e030b 	andeq	r0, lr, fp, lsl #6
 254:	00160300 	andseq	r0, r6, r0, lsl #6
 258:	0b3a0e03 	bleq	e83a6c <__Stack_Size+0xe8366c>
 25c:	0b390b3b 	bleq	e42f50 <__Stack_Size+0xe42b50>
 260:	00001349 	andeq	r1, r0, r9, asr #6
 264:	49003504 	stmdbmi	r0, {r2, r8, sl, ip, sp}
 268:	05000013 	streq	r0, [r0, #-19]	; 0xffffffed
 26c:	13490026 	movtne	r0, #36902	; 0x9026
 270:	24060000 	strcs	r0, [r6], #-0
 274:	3e0b0b00 	vmlacc.f64	d0, d11, d0
 278:	0008030b 	andeq	r0, r8, fp, lsl #6
 27c:	000f0700 	andeq	r0, pc, r0, lsl #14
 280:	13490b0b 	movtne	r0, #39691	; 0x9b0b
 284:	15080000 	strne	r0, [r8, #-0]
 288:	010c2701 	tsteq	ip, r1, lsl #14
 28c:	09000013 	stmdbeq	r0, {r0, r1, r4}
 290:	13490005 	movtne	r0, #36869	; 0x9005
 294:	130a0000 	movwne	r0, #40960	; 0xa000
 298:	3a0b0b01 	bcc	2c2ea4 <__Stack_Size+0x2c2aa4>
 29c:	390b3b0b 	stmdbcc	fp, {r0, r1, r3, r8, r9, fp, ip, sp}
 2a0:	0013010b 	andseq	r0, r3, fp, lsl #2
 2a4:	000d0b00 	andeq	r0, sp, r0, lsl #22
 2a8:	0b3a0e03 	bleq	e83abc <__Stack_Size+0xe836bc>
 2ac:	0b390b3b 	bleq	e42fa0 <__Stack_Size+0xe42ba0>
 2b0:	0a381349 	beq	e04fdc <__Stack_Size+0xe04bdc>
 2b4:	040c0000 	streq	r0, [ip], #-0
 2b8:	0b0b3e01 	bleq	2cfac4 <__Stack_Size+0x2cf6c4>
 2bc:	3a13490b 	bcc	4d26f0 <__Stack_Size+0x4d22f0>
 2c0:	390b3b0b 	stmdbcc	fp, {r0, r1, r3, r8, r9, fp, ip, sp}
 2c4:	0013010b 	andseq	r0, r3, fp, lsl #2
 2c8:	00280d00 	eoreq	r0, r8, r0, lsl #26
 2cc:	0d1c0e03 	ldceq	14, cr0, [ip, #-12]
 2d0:	280e0000 	stmdacs	lr, {}	; <UNPREDICTABLE>
 2d4:	1c0e0300 	stcne	3, cr0, [lr], {-0}
 2d8:	0f00000b 	svceq	0x0000000b
 2dc:	050b0113 	streq	r0, [fp, #-275]	; 0xfffffeed
 2e0:	0b3b0b3a 	bleq	ec2fd0 <__Stack_Size+0xec2bd0>
 2e4:	13010b39 	movwne	r0, #6969	; 0x1b39
 2e8:	0d100000 	ldceq	0, cr0, [r0, #-0]
 2ec:	3a080300 	bcc	200ef4 <__Stack_Size+0x200af4>
 2f0:	390b3b0b 	stmdbcc	fp, {r0, r1, r3, r8, r9, fp, ip, sp}
 2f4:	3813490b 	ldmdacc	r3, {r0, r1, r3, r8, fp, lr}
 2f8:	1100000a 	tstne	r0, sl
 2fc:	13490101 	movtne	r0, #37121	; 0x9101
 300:	00001301 	andeq	r1, r0, r1, lsl #6
 304:	49002112 	stmdbmi	r0, {r1, r4, r8, sp}
 308:	000b2f13 	andeq	r2, fp, r3, lsl pc
 30c:	00211300 	eoreq	r1, r1, r0, lsl #6
 310:	052f1349 	streq	r1, [pc, #-841]!	; ffffffcf <BootRAM+0xef70770>
 314:	34140000 	ldrcc	r0, [r4], #-0
 318:	3a0e0300 	bcc	380f20 <__Stack_Size+0x380b20>
 31c:	39053b0b 	stmdbcc	r5, {r0, r1, r3, r8, r9, fp, ip, sp}
 320:	3f13490b 	svccc	0x0013490b
 324:	000c3c0c 	andeq	r3, ip, ip, lsl #24
 328:	00341500 	eorseq	r1, r4, r0, lsl #10
 32c:	0b3a0e03 	bleq	e83b40 <__Stack_Size+0xe83740>
 330:	0b390b3b 	bleq	e43024 <__Stack_Size+0xe42c24>
 334:	0c3f1349 	ldceq	3, cr1, [pc], #-292	; 218 <_Minimum_Stack_Size+0x118>
 338:	00000c3c 	andeq	r0, r0, ip, lsr ip
 33c:	0b011316 	bleq	44f9c <__Stack_Size+0x44b9c>
 340:	3b0b3a0b 	blcc	2ceb74 <__Stack_Size+0x2ce774>
 344:	010b3905 	tsteq	fp, r5, lsl #18
 348:	17000013 	smladne	r0, r3, r0, r0
 34c:	0803000d 	stmdaeq	r3, {r0, r2, r3}
 350:	053b0b3a 	ldreq	r0, [fp, #-2874]!	; 0xfffff4c6
 354:	13490b39 	movtne	r0, #39737	; 0x9b39
 358:	00000a38 	andeq	r0, r0, r8, lsr sl
 35c:	03000d18 	movweq	r0, #3352	; 0xd18
 360:	3b0b3a0e 	blcc	2ceba0 <__Stack_Size+0x2ce7a0>
 364:	490b3905 	stmdbmi	fp, {r0, r2, r8, fp, ip, sp}
 368:	000a3813 	andeq	r3, sl, r3, lsl r8
 36c:	00161900 	andseq	r1, r6, r0, lsl #18
 370:	0b3a0e03 	bleq	e83b84 <__Stack_Size+0xe83784>
 374:	0b39053b 	bleq	e41868 <__Stack_Size+0xe41468>
 378:	00001349 	andeq	r1, r0, r9, asr #6
 37c:	03000d1a 	movweq	r0, #3354	; 0xd1a
 380:	3b0b3a0e 	blcc	2cebc0 <__Stack_Size+0x2ce7c0>
 384:	490b390b 	stmdbmi	fp, {r0, r1, r3, r8, fp, ip, sp}
 388:	0d0b0b13 	vstreq	d0, [fp, #-76]	; 0xffffffb4
 38c:	380b0c0b 	stmdacc	fp, {r0, r1, r3, sl, fp}
 390:	1b00000a 	blne	3c0 <_Minimum_Stack_Size+0x2c0>
 394:	0b0b0117 	bleq	2c07f8 <__Stack_Size+0x2c03f8>
 398:	0b3b0b3a 	bleq	ec3088 <__Stack_Size+0xec2c88>
 39c:	13010b39 	movwne	r0, #6969	; 0x1b39
 3a0:	0d1c0000 	ldceq	0, cr0, [ip, #-0]
 3a4:	3a0e0300 	bcc	380fac <__Stack_Size+0x380bac>
 3a8:	390b3b0b 	stmdbcc	fp, {r0, r1, r3, r8, r9, fp, ip, sp}
 3ac:	0013490b 	andseq	r4, r3, fp, lsl #18
 3b0:	000d1d00 	andeq	r1, sp, r0, lsl #26
 3b4:	00001349 	andeq	r1, r0, r9, asr #6
 3b8:	49000d1e 	stmdbmi	r0, {r1, r2, r3, r4, r8, sl, fp}
 3bc:	000a3813 	andeq	r3, sl, r3, lsl r8
 3c0:	00341f00 	eorseq	r1, r4, r0, lsl #30
 3c4:	0b3a0e03 	bleq	e83bd8 <__Stack_Size+0xe837d8>
 3c8:	0b390b3b 	bleq	e430bc <__Stack_Size+0xe42cbc>
 3cc:	0c3f1349 	ldceq	3, cr1, [pc], #-292	; 2b0 <_Minimum_Stack_Size+0x1b0>
 3d0:	00000a02 	andeq	r0, r0, r2, lsl #20
 3d4:	03003420 	movweq	r3, #1056	; 0x420
 3d8:	3b0b3a0e 	blcc	2cec18 <__Stack_Size+0x2ce818>
 3dc:	490b390b 	stmdbmi	fp, {r0, r1, r3, r8, fp, ip, sp}
 3e0:	000a0213 	andeq	r0, sl, r3, lsl r2
 3e4:	000d2100 	andeq	r2, sp, r0, lsl #2
 3e8:	0b3a0e03 	bleq	e83bfc <__Stack_Size+0xe837fc>
 3ec:	0b39053b 	bleq	e418e0 <__Stack_Size+0xe414e0>
 3f0:	0b0b1349 	bleq	2c511c <__Stack_Size+0x2c4d1c>
 3f4:	0b0c0b0d 	bleq	303030 <__Stack_Size+0x302c30>
 3f8:	00000a38 	andeq	r0, r0, r8, lsr sl
 3fc:	0b011722 	bleq	4608c <__Stack_Size+0x45c8c>
 400:	3b0b3a0b 	blcc	2cec34 <__Stack_Size+0x2ce834>
 404:	010b3905 	tsteq	fp, r5, lsl #18
 408:	23000013 	movwcs	r0, #19
 40c:	0e03000d 	cdpeq	0, 0, cr0, cr3, cr13, {0}
 410:	053b0b3a 	ldreq	r0, [fp, #-2874]!	; 0xfffff4c6
 414:	13490b39 	movtne	r0, #39737	; 0x9b39
 418:	2e240000 	cdpcs	0, 2, cr0, cr4, cr0, {0}
 41c:	030c3f01 	movweq	r3, #52993	; 0xcf01
 420:	3b0b3a0e 	blcc	2cec60 <__Stack_Size+0x2ce860>
 424:	270b3905 	strcs	r3, [fp, -r5, lsl #18]
 428:	1113490c 	tstne	r3, ip, lsl #18
 42c:	40011201 	andmi	r1, r1, r1, lsl #4
 430:	0c429706 	mcrreq	7, 0, r9, r2, cr6
 434:	00001301 	andeq	r1, r0, r1, lsl #6
 438:	03000525 	movweq	r0, #1317	; 0x525
 43c:	3b0b3a08 	blcc	2cec64 <__Stack_Size+0x2ce864>
 440:	490b3905 	stmdbmi	fp, {r0, r2, r8, fp, ip, sp}
 444:	b7060213 	smladlt	r6, r3, r2, r0
 448:	00000642 	andeq	r0, r0, r2, asr #12
 44c:	03003426 	movweq	r3, #1062	; 0x426
 450:	3b0b3a0e 	blcc	2cec90 <__Stack_Size+0x2ce890>
 454:	490b3905 	stmdbmi	fp, {r0, r2, r8, fp, ip, sp}
 458:	b7060213 	smladlt	r6, r3, r2, r0
 45c:	00000642 	andeq	r0, r0, r2, asr #12
 460:	03003427 	movweq	r3, #1063	; 0x427
 464:	3b0b3a08 	blcc	2cec8c <__Stack_Size+0x2ce88c>
 468:	490b3905 	stmdbmi	fp, {r0, r2, r8, fp, ip, sp}
 46c:	b7060213 	smladlt	r6, r3, r2, r0
 470:	00000642 	andeq	r0, r0, r2, asr #12
 474:	55010b28 	strpl	r0, [r1, #-2856]	; 0xfffff4d8
 478:	29000006 	stmdbcs	r0, {r1, r2}
 47c:	0c3f012e 	ldfeqs	f0, [pc], #-184	; 3cc <_Minimum_Stack_Size+0x2cc>
 480:	0b3a0e03 	bleq	e83c94 <__Stack_Size+0xe83894>
 484:	0b39053b 	bleq	e41978 <__Stack_Size+0xe41578>
 488:	01110c27 	tsteq	r1, r7, lsr #24
 48c:	06400112 			; <UNDEFINED> instruction: 0x06400112
 490:	010c4297 			; <UNDEFINED> instruction: 0x010c4297
 494:	2a000013 	bcs	4e8 <__Stack_Size+0xe8>
 498:	08030005 	stmdaeq	r3, {r0, r2}
 49c:	053b0b3a 	ldreq	r0, [fp, #-2874]!	; 0xfffff4c6
 4a0:	13490b39 	movtne	r0, #39737	; 0x9b39
 4a4:	00000a02 	andeq	r0, r0, r2, lsl #20
 4a8:	0300052b 	movweq	r0, #1323	; 0x52b
 4ac:	3b0b3a0e 	blcc	2cecec <__Stack_Size+0x2ce8ec>
 4b0:	490b3905 	stmdbmi	fp, {r0, r2, r8, fp, ip, sp}
 4b4:	000a0213 	andeq	r0, sl, r3, lsl r2
 4b8:	012e2c00 			; <UNDEFINED> instruction: 0x012e2c00
 4bc:	0e030c3f 	mcreq	12, 0, r0, cr3, cr15, {1}
 4c0:	053b0b3a 	ldreq	r0, [fp, #-2874]!	; 0xfffff4c6
 4c4:	01110b39 	tsteq	r1, r9, lsr fp
 4c8:	06400112 			; <UNDEFINED> instruction: 0x06400112
 4cc:	010c4297 			; <UNDEFINED> instruction: 0x010c4297
 4d0:	2d000013 	stccs	0, cr0, [r0, #-76]	; 0xffffffb4
 4d4:	0655010b 	ldrbeq	r0, [r5], -fp, lsl #2
 4d8:	00001301 	andeq	r1, r0, r1, lsl #6
 4dc:	11010b2e 	tstne	r1, lr, lsr #22
 4e0:	01011201 	tsteq	r1, r1, lsl #4
 4e4:	2f000013 	svccs	0x00000013
 4e8:	01018289 	smlabbeq	r1, r9, r2, r8
 4ec:	13010111 	movwne	r0, #4369	; 0x1111
 4f0:	8a300000 	bhi	c004f8 <__Stack_Size+0xc000f8>
 4f4:	02000182 	andeq	r0, r0, #-2147483616	; 0x80000020
 4f8:	0a42910a 	beq	10a4928 <__Stack_Size+0x10a4528>
 4fc:	89310000 	ldmdbhi	r1!, {}	; <UNPREDICTABLE>
 500:	11010182 	smlabbne	r1, r2, r1, r0
 504:	32000001 	andcc	r0, r0, #1
 508:	00018289 	andeq	r8, r1, r9, lsl #5
 50c:	13310111 	teqne	r1, #1073741828	; 0x40000004
 510:	89330000 	ldmdbhi	r3!, {}	; <UNPREDICTABLE>
 514:	11010182 	smlabbne	r1, r2, r1, r0
 518:	01133101 	tsteq	r3, r1, lsl #2
 51c:	34000013 	strcc	r0, [r0], #-19	; 0xffffffed
 520:	0c3f012e 	ldfeqs	f0, [pc], #-184	; 470 <__Stack_Size+0x70>
 524:	0b3a0e03 	bleq	e83d38 <__Stack_Size+0xe83938>
 528:	0b390b3b 	bleq	e4321c <__Stack_Size+0xe42e1c>
 52c:	01110c27 	tsteq	r1, r7, lsr #24
 530:	06400112 			; <UNDEFINED> instruction: 0x06400112
 534:	010c4297 			; <UNDEFINED> instruction: 0x010c4297
 538:	35000013 	strcc	r0, [r0, #-19]	; 0xffffffed
 53c:	0e030005 	cdpeq	0, 0, cr0, cr3, cr5, {0}
 540:	0b3b0b3a 	bleq	ec3230 <__Stack_Size+0xec2e30>
 544:	13490b39 	movtne	r0, #39737	; 0x9b39
 548:	42b70602 	adcsmi	r0, r7, #2097152	; 0x200000
 54c:	36000006 	strcc	r0, [r0], -r6
 550:	0e030005 	cdpeq	0, 0, cr0, cr3, cr5, {0}
 554:	0b3b0b3a 	bleq	ec3244 <__Stack_Size+0xec2e44>
 558:	13490b39 	movtne	r0, #39737	; 0x9b39
 55c:	00000a02 	andeq	r0, r0, r2, lsl #20
 560:	03003437 	movweq	r3, #1079	; 0x437
 564:	3b0b3a0e 	blcc	2ceda4 <__Stack_Size+0x2ce9a4>
 568:	490b390b 	stmdbmi	fp, {r0, r1, r3, r8, fp, ip, sp}
 56c:	b7060213 	smladlt	r6, r3, r2, r0
 570:	00000642 	andeq	r0, r0, r2, asr #12
 574:	03003438 	movweq	r3, #1080	; 0x438
 578:	3b0b3a08 	blcc	2ceda0 <__Stack_Size+0x2ce9a0>
 57c:	490b390b 	stmdbmi	fp, {r0, r1, r3, r8, fp, ip, sp}
 580:	b7060213 	smladlt	r6, r3, r2, r0
 584:	00000642 	andeq	r0, r0, r2, asr #12
 588:	03012e39 	movweq	r2, #7737	; 0x1e39
 58c:	3b0b3a0e 	blcc	2cedcc <__Stack_Size+0x2ce9cc>
 590:	270b390b 	strcs	r3, [fp, -fp, lsl #18]
 594:	1201110c 	andne	r1, r1, #12, 2
 598:	97064001 	strls	r4, [r6, -r1]
 59c:	13010c42 	movwne	r0, #7234	; 0x1c42
 5a0:	893a0000 	ldmdbhi	sl!, {}	; <UNPREDICTABLE>
 5a4:	11010182 	smlabbne	r1, r2, r1, r0
 5a8:	00133101 	andseq	r3, r3, r1, lsl #2
 5ac:	011d3b00 	tsteq	sp, r0, lsl #22
 5b0:	01521331 	cmpeq	r2, r1, lsr r3
 5b4:	110b42b8 			; <UNDEFINED> instruction: 0x110b42b8
 5b8:	58011201 	stmdapl	r1, {r0, r9, ip}
 5bc:	570b590b 	strpl	r5, [fp, -fp, lsl #18]
 5c0:	0013010b 	andseq	r0, r3, fp, lsl #2
 5c4:	00053c00 	andeq	r3, r5, r0, lsl #24
 5c8:	06021331 			; <UNDEFINED> instruction: 0x06021331
 5cc:	000642b7 			; <UNDEFINED> instruction: 0x000642b7
 5d0:	011d3d00 	tsteq	sp, r0, lsl #26
 5d4:	01521331 	cmpeq	r2, r1, lsr r3
 5d8:	550b42b8 	strpl	r4, [fp, #-696]	; 0xfffffd48
 5dc:	590b5806 	stmdbpl	fp, {r1, r2, fp, ip, lr}
 5e0:	010b570b 	tsteq	fp, fp, lsl #14
 5e4:	3e000013 	mcrcc	0, 0, r0, cr0, cr3, {0}
 5e8:	0b0b000f 	bleq	2c062c <__Stack_Size+0x2c022c>
 5ec:	263f0000 	ldrtcs	r0, [pc], -r0
 5f0:	40000000 	andmi	r0, r0, r0
 5f4:	0e03012e 	adfeqsp	f0, f3, #0.5
 5f8:	0b3b0b3a 	bleq	ec32e8 <__Stack_Size+0xec2ee8>
 5fc:	0c270b39 			; <UNDEFINED> instruction: 0x0c270b39
 600:	13010b20 	movwne	r0, #6944	; 0x1b20
 604:	05410000 	strbeq	r0, [r1, #-0]
 608:	3a080300 	bcc	201210 <__Stack_Size+0x200e10>
 60c:	390b3b0b 	stmdbcc	fp, {r0, r1, r3, r8, r9, fp, ip, sp}
 610:	0013490b 	andseq	r4, r3, fp, lsl #18
 614:	00054200 	andeq	r4, r5, r0, lsl #4
 618:	0b3a0e03 	bleq	e83e2c <__Stack_Size+0xe83a2c>
 61c:	0b390b3b 	bleq	e43310 <__Stack_Size+0xe42f10>
 620:	00001349 	andeq	r1, r0, r9, asr #6
 624:	31011d43 	tstcc	r1, r3, asr #26
 628:	b8015213 	stmdalt	r1, {r0, r1, r4, r9, ip, lr}
 62c:	06550b42 	ldrbeq	r0, [r5], -r2, asr #22
 630:	0b590b58 	bleq	1643398 <__Stack_Size+0x1642f98>
 634:	00000b57 	andeq	r0, r0, r7, asr fp
 638:	3f012e44 	svccc	0x00012e44
 63c:	3a0e030c 	bcc	381274 <__Stack_Size+0x380e74>
 640:	390b3b0b 	stmdbcc	fp, {r0, r1, r3, r8, r9, fp, ip, sp}
 644:	1201110b 	andne	r1, r1, #-1073741822	; 0xc0000002
 648:	970a4001 	strls	r4, [sl, -r1]
 64c:	13010c42 	movwne	r0, #7234	; 0x1c42
 650:	0b450000 	bleq	1140658 <__Stack_Size+0x1140258>
 654:	00130101 	andseq	r0, r3, r1, lsl #2
 658:	00344600 	eorseq	r4, r4, r0, lsl #12
 65c:	0b3a0e03 	bleq	e83e70 <__Stack_Size+0xe83a70>
 660:	0b390b3b 	bleq	e43354 <__Stack_Size+0xe42f54>
 664:	00001349 	andeq	r1, r0, r9, asr #6
 668:	31011d47 	tstcc	r1, r7, asr #26
 66c:	b8015213 	stmdalt	r1, {r0, r1, r4, r9, ip, lr}
 670:	01110b42 	tsteq	r1, r2, asr #22
 674:	0b580112 	bleq	1600ac4 <__Stack_Size+0x16006c4>
 678:	0b570b59 	bleq	15c33e4 <__Stack_Size+0x15c2fe4>
 67c:	2e480000 	cdpcs	0, 4, cr0, cr8, cr0, {0}
 680:	030c3f01 	movweq	r3, #52993	; 0xcf01
 684:	3b0b3a0e 	blcc	2ceec4 <__Stack_Size+0x2ceac4>
 688:	270b390b 	strcs	r3, [fp, -fp, lsl #18]
 68c:	1113490c 	tstne	r3, ip, lsl #18
 690:	40011201 	andmi	r1, r1, r1, lsl #4
 694:	0c42970a 	mcrreq	7, 0, r9, r2, cr10
 698:	00001301 	andeq	r1, r0, r1, lsl #6
 69c:	03000549 	movweq	r0, #1353	; 0x549
 6a0:	3b0b3a08 	blcc	2ceec8 <__Stack_Size+0x2ceac8>
 6a4:	490b390b 	stmdbmi	fp, {r0, r1, r3, r8, fp, ip, sp}
 6a8:	b7060213 	smladlt	r6, r3, r2, r0
 6ac:	00000642 	andeq	r0, r0, r2, asr #12
 6b0:	3f002e4a 	svccc	0x00002e4a
 6b4:	3a0e030c 	bcc	3812ec <__Stack_Size+0x380eec>
 6b8:	390b3b0b 	stmdbcc	fp, {r0, r1, r3, r8, r9, fp, ip, sp}
 6bc:	4b00000b 	blmi	6f0 <__Stack_Size+0x2f0>
 6c0:	0c3f002e 	ldceq	0, cr0, [pc], #-184	; 610 <__Stack_Size+0x210>
 6c4:	0b3a0e03 	bleq	e83ed8 <__Stack_Size+0xe83ad8>
 6c8:	0b390b3b 	bleq	e433bc <__Stack_Size+0xe42fbc>
 6cc:	00000b20 	andeq	r0, r0, r0, lsr #22
 6d0:	03012e4c 	movweq	r2, #7756	; 0x1e4c
 6d4:	3b0b3a0e 	blcc	2cef14 <__Stack_Size+0x2ceb14>
 6d8:	270b390b 	strcs	r3, [fp, -fp, lsl #18]
 6dc:	2013490c 	andscs	r4, r3, ip, lsl #18
 6e0:	0013010b 	andseq	r0, r3, fp, lsl #2
 6e4:	012e4d00 			; <UNDEFINED> instruction: 0x012e4d00
 6e8:	0b3a0e03 	bleq	e83efc <__Stack_Size+0xe83afc>
 6ec:	0b39053b 	bleq	e41be0 <__Stack_Size+0xe417e0>
 6f0:	0b200c27 	bleq	803794 <__Stack_Size+0x803394>
 6f4:	00001301 	andeq	r1, r0, r1, lsl #6
 6f8:	0300054e 	movweq	r0, #1358	; 0x54e
 6fc:	3b0b3a0e 	blcc	2cef3c <__Stack_Size+0x2ceb3c>
 700:	490b3905 	stmdbmi	fp, {r0, r2, r8, fp, ip, sp}
 704:	4f000013 	svcmi	0x00000013
 708:	1331002e 	teqne	r1, #46	; 0x2e
 70c:	01120111 	tsteq	r2, r1, lsl r1
 710:	42970a40 	addsmi	r0, r7, #64, 20	; 0x40000
 714:	5000000c 	andpl	r0, r0, ip
 718:	0c3f002e 	ldceq	0, cr0, [pc], #-184	; 668 <__Stack_Size+0x268>
 71c:	40870c3c 	addmi	r0, r7, ip, lsr ip
 720:	3a0e030e 	bcc	381360 <__Stack_Size+0x380f60>
 724:	390b3b0b 	stmdbcc	fp, {r0, r1, r3, r8, r9, fp, ip, sp}
 728:	0000000b 	andeq	r0, r0, fp
 72c:	25011101 	strcs	r1, [r1, #-257]	; 0xfffffeff
 730:	030b130e 	movweq	r1, #45838	; 0xb30e
 734:	110e1b0e 	tstne	lr, lr, lsl #22
 738:	10011201 	andne	r1, r1, r1, lsl #4
 73c:	02000006 	andeq	r0, r0, #6
 740:	0b0b0024 	bleq	2c07d8 <__Stack_Size+0x2c03d8>
 744:	0e030b3e 	vmoveq.16	d3[0], r0
 748:	16030000 	strne	r0, [r3], -r0
 74c:	3a0e0300 	bcc	381354 <__Stack_Size+0x380f54>
 750:	390b3b0b 	stmdbcc	fp, {r0, r1, r3, r8, r9, fp, ip, sp}
 754:	0013490b 	andseq	r4, r3, fp, lsl #18
 758:	00260400 	eoreq	r0, r6, r0, lsl #8
 75c:	00001349 	andeq	r1, r0, r9, asr #6
 760:	49003505 	stmdbmi	r0, {r0, r2, r8, sl, ip, sp}
 764:	06000013 			; <UNDEFINED> instruction: 0x06000013
 768:	0b0b0024 	bleq	2c0800 <__Stack_Size+0x2c0400>
 76c:	08030b3e 	stmdaeq	r3, {r1, r2, r3, r4, r5, r8, r9, fp}
 770:	13070000 	movwne	r0, #28672	; 0x7000
 774:	3a0b0b01 	bcc	2c3380 <__Stack_Size+0x2c2f80>
 778:	390b3b0b 	stmdbcc	fp, {r0, r1, r3, r8, r9, fp, ip, sp}
 77c:	0013010b 	andseq	r0, r3, fp, lsl #2
 780:	000d0800 	andeq	r0, sp, r0, lsl #16
 784:	0b3a0e03 	bleq	e83f98 <__Stack_Size+0xe83b98>
 788:	0b390b3b 	bleq	e4347c <__Stack_Size+0xe4307c>
 78c:	0a381349 	beq	e054b8 <__Stack_Size+0xe050b8>
 790:	04090000 	streq	r0, [r9], #-0
 794:	0b0b3e01 	bleq	2cffa0 <__Stack_Size+0x2cfba0>
 798:	3a13490b 	bcc	4d2bcc <__Stack_Size+0x4d27cc>
 79c:	390b3b0b 	stmdbcc	fp, {r0, r1, r3, r8, r9, fp, ip, sp}
 7a0:	0013010b 	andseq	r0, r3, fp, lsl #2
 7a4:	00280a00 	eoreq	r0, r8, r0, lsl #20
 7a8:	0d1c0e03 	ldceq	14, cr0, [ip, #-12]
 7ac:	280b0000 	stmdacs	fp, {}	; <UNPREDICTABLE>
 7b0:	1c0e0300 	stcne	3, cr0, [lr], {-0}
 7b4:	0c00000b 	stceq	0, cr0, [r0], {11}
 7b8:	050b0113 	streq	r0, [fp, #-275]	; 0xfffffeed
 7bc:	0b3b0b3a 	bleq	ec34ac <__Stack_Size+0xec30ac>
 7c0:	13010b39 	movwne	r0, #6969	; 0x1b39
 7c4:	0d0d0000 	stceq	0, cr0, [sp, #-0]
 7c8:	3a080300 	bcc	2013d0 <__Stack_Size+0x200fd0>
 7cc:	390b3b0b 	stmdbcc	fp, {r0, r1, r3, r8, r9, fp, ip, sp}
 7d0:	3813490b 	ldmdacc	r3, {r0, r1, r3, r8, fp, lr}
 7d4:	0e00000a 	cdpeq	0, 0, cr0, cr0, cr10, {0}
 7d8:	13490101 	movtne	r0, #37121	; 0x9101
 7dc:	00001301 	andeq	r1, r0, r1, lsl #6
 7e0:	4900210f 	stmdbmi	r0, {r0, r1, r2, r3, r8, sp}
 7e4:	000b2f13 	andeq	r2, fp, r3, lsl pc
 7e8:	00211000 	eoreq	r1, r1, r0
 7ec:	052f1349 	streq	r1, [pc, #-841]!	; 4ab <__Stack_Size+0xab>
 7f0:	34110000 	ldrcc	r0, [r1], #-0
 7f4:	3a0e0300 	bcc	3813fc <__Stack_Size+0x380ffc>
 7f8:	39053b0b 	stmdbcc	r5, {r0, r1, r3, r8, r9, fp, ip, sp}
 7fc:	3f13490b 	svccc	0x0013490b
 800:	000c3c0c 	andeq	r3, ip, ip, lsl #24
 804:	00341200 	eorseq	r1, r4, r0, lsl #4
 808:	0b3a0e03 	bleq	e8401c <__Stack_Size+0xe83c1c>
 80c:	0b390b3b 	bleq	e43500 <__Stack_Size+0xe43100>
 810:	0c3f1349 	ldceq	3, cr1, [pc], #-292	; 6f4 <__Stack_Size+0x2f4>
 814:	00000c3c 	andeq	r0, r0, ip, lsr ip
 818:	0b011313 	bleq	4546c <__Stack_Size+0x4506c>
 81c:	3b0b3a0b 	blcc	2cf050 <__Stack_Size+0x2cec50>
 820:	010b3905 	tsteq	fp, r5, lsl #18
 824:	14000013 	strne	r0, [r0], #-19	; 0xffffffed
 828:	0803000d 	stmdaeq	r3, {r0, r2, r3}
 82c:	053b0b3a 	ldreq	r0, [fp, #-2874]!	; 0xfffff4c6
 830:	13490b39 	movtne	r0, #39737	; 0x9b39
 834:	00000a38 	andeq	r0, r0, r8, lsr sl
 838:	03000d15 	movweq	r0, #3349	; 0xd15
 83c:	3b0b3a0e 	blcc	2cf07c <__Stack_Size+0x2cec7c>
 840:	490b3905 	stmdbmi	fp, {r0, r2, r8, fp, ip, sp}
 844:	000a3813 	andeq	r3, sl, r3, lsl r8
 848:	00161600 	andseq	r1, r6, r0, lsl #12
 84c:	0b3a0e03 	bleq	e84060 <__Stack_Size+0xe83c60>
 850:	0b39053b 	bleq	e41d44 <__Stack_Size+0xe41944>
 854:	00001349 	andeq	r1, r0, r9, asr #6
 858:	0b011717 	bleq	464bc <__Stack_Size+0x460bc>
 85c:	3b0b3a0b 	blcc	2cf090 <__Stack_Size+0x2cec90>
 860:	010b390b 	tsteq	fp, fp, lsl #18
 864:	18000013 	stmdane	r0, {r0, r1, r4}
 868:	0e03000d 	cdpeq	0, 0, cr0, cr3, cr13, {0}
 86c:	0b3b0b3a 	bleq	ec355c <__Stack_Size+0xec315c>
 870:	13490b39 	movtne	r0, #39737	; 0x9b39
 874:	0f190000 	svceq	0x00190000
 878:	000b0b00 	andeq	r0, fp, r0, lsl #22
 87c:	01131a00 	tsteq	r3, r0, lsl #20
 880:	0b0b0e03 	bleq	2c4094 <__Stack_Size+0x2c3c94>
 884:	0b3b0b3a 	bleq	ec3574 <__Stack_Size+0xec3174>
 888:	13010b39 	movwne	r0, #6969	; 0x1b39
 88c:	0f1b0000 	svceq	0x001b0000
 890:	490b0b00 	stmdbmi	fp, {r8, r9, fp}
 894:	1c000013 	stcne	0, cr0, [r0], {19}
 898:	0e030113 	mcreq	1, 0, r0, cr3, cr3, {0}
 89c:	0b3a050b 	bleq	e81cd0 <__Stack_Size+0xe818d0>
 8a0:	0b390b3b 	bleq	e43594 <__Stack_Size+0xe43194>
 8a4:	00001301 	andeq	r1, r0, r1, lsl #6
 8a8:	2700151d 	smladcs	r0, sp, r5, r1
 8ac:	1e00000c 	cdpne	0, 0, cr0, cr0, cr12, {0}
 8b0:	0c270115 	stfeqs	f0, [r7], #-84	; 0xffffffac
 8b4:	13011349 	movwne	r1, #4937	; 0x1349
 8b8:	051f0000 	ldreq	r0, [pc, #-0]	; 8c0 <__Stack_Size+0x4c0>
 8bc:	00134900 	andseq	r4, r3, r0, lsl #18
 8c0:	01132000 	tsteq	r3, r0
 8c4:	050b0e03 	streq	r0, [fp, #-3587]	; 0xfffff1fd
 8c8:	053b0b3a 	ldreq	r0, [fp, #-2874]!	; 0xfffff4c6
 8cc:	13010b39 	movwne	r0, #6969	; 0x1b39
 8d0:	13210000 			; <UNDEFINED> instruction: 0x13210000
 8d4:	0b0e0301 	bleq	3814e0 <__Stack_Size+0x3810e0>
 8d8:	3b0b3a0b 	blcc	2cf10c <__Stack_Size+0x2ced0c>
 8dc:	010b3905 	tsteq	fp, r5, lsl #18
 8e0:	22000013 	andcs	r0, r0, #19
 8e4:	0b0b0117 	bleq	2c0d48 <__Stack_Size+0x2c0948>
 8e8:	053b0b3a 	ldreq	r0, [fp, #-2874]!	; 0xfffff4c6
 8ec:	13010b39 	movwne	r0, #6969	; 0x1b39
 8f0:	0d230000 	stceq	0, cr0, [r3, #-0]
 8f4:	3a0e0300 	bcc	3814fc <__Stack_Size+0x3810fc>
 8f8:	39053b0b 	stmdbcc	r5, {r0, r1, r3, r8, r9, fp, ip, sp}
 8fc:	0013490b 	andseq	r4, r3, fp, lsl #18
 900:	00132400 	andseq	r2, r3, r0, lsl #8
 904:	0c3c0e03 	ldceq	14, cr0, [ip], #-12
 908:	15250000 	strne	r0, [r5, #-0]!
 90c:	010c2701 	tsteq	ip, r1, lsl #14
 910:	26000013 			; <UNDEFINED> instruction: 0x26000013
 914:	0e030034 	mcreq	0, 0, r0, cr3, cr4, {1}
 918:	0b3b0b3a 	bleq	ec3608 <__Stack_Size+0xec3208>
 91c:	13490b39 	movtne	r0, #39737	; 0x9b39
 920:	00000a02 	andeq	r0, r0, r2, lsl #20
 924:	03003427 	movweq	r3, #1063	; 0x427
 928:	3b0b3a0e 	blcc	2cf168 <__Stack_Size+0x2ced68>
 92c:	490b3905 	stmdbmi	fp, {r0, r2, r8, fp, ip, sp}
 930:	000a0213 	andeq	r0, sl, r3, lsl r2
 934:	00342800 	eorseq	r2, r4, r0, lsl #16
 938:	0b3a0e03 	bleq	e8414c <__Stack_Size+0xe83d4c>
 93c:	0b39053b 	bleq	e41e30 <__Stack_Size+0xe41a30>
 940:	0c3f1349 	ldceq	3, cr1, [pc], #-292	; 824 <__Stack_Size+0x424>
 944:	00000a02 	andeq	r0, r0, r2, lsl #20
 948:	3f002e29 	svccc	0x00002e29
 94c:	3a0e030c 	bcc	381584 <__Stack_Size+0x381184>
 950:	39053b0b 	stmdbcc	r5, {r0, r1, r3, r8, r9, fp, ip, sp}
 954:	1201110b 	andne	r1, r1, #-1073741822	; 0xc0000002
 958:	970a4001 	strls	r4, [sl, -r1]
 95c:	00000c42 	andeq	r0, r0, r2, asr #24
 960:	3f012e2a 	svccc	0x00012e2a
 964:	3a0e030c 	bcc	38159c <__Stack_Size+0x38119c>
 968:	39053b0b 	stmdbcc	r5, {r0, r1, r3, r8, r9, fp, ip, sp}
 96c:	1201110b 	andne	r1, r1, #-1073741822	; 0xc0000002
 970:	97064001 	strls	r4, [r6, -r1]
 974:	13010c42 	movwne	r0, #7234	; 0x1c42
 978:	1d2b0000 	stcne	0, cr0, [fp, #-0]
 97c:	52133101 	andspl	r3, r3, #1073741824	; 0x40000000
 980:	0b42b801 	bleq	10ae98c <__Stack_Size+0x10ae58c>
 984:	0b580655 	bleq	16022e0 <__Stack_Size+0x1601ee0>
 988:	0b570559 	bleq	15c1ef4 <__Stack_Size+0x15c1af4>
 98c:	00001301 	andeq	r1, r0, r1, lsl #6
 990:	3100052c 	tstcc	r0, ip, lsr #10
 994:	b7060213 	smladlt	r6, r3, r2, r0
 998:	00000642 	andeq	r0, r0, r2, asr #12
 99c:	0182892d 	orreq	r8, r2, sp, lsr #18
 9a0:	31011101 	tstcc	r1, r1, lsl #2
 9a4:	00130113 	andseq	r0, r3, r3, lsl r1
 9a8:	828a2e00 	addhi	r2, sl, #0, 28
 9ac:	0a020001 	beq	809b8 <__Stack_Size+0x805b8>
 9b0:	000a4291 	muleq	sl, r1, r2
 9b4:	82892f00 	addhi	r2, r9, #0, 30
 9b8:	01110101 	tsteq	r1, r1, lsl #2
 9bc:	00001331 	andeq	r1, r0, r1, lsr r3
 9c0:	3f012e30 	svccc	0x00012e30
 9c4:	3a0e030c 	bcc	3815fc <__Stack_Size+0x3811fc>
 9c8:	39053b0b 	stmdbcc	r5, {r0, r1, r3, r8, r9, fp, ip, sp}
 9cc:	110c270b 	tstne	ip, fp, lsl #14
 9d0:	40011201 	andmi	r1, r1, r1, lsl #4
 9d4:	0c429706 	mcrreq	7, 0, r9, r2, cr6
 9d8:	00001301 	andeq	r1, r0, r1, lsl #6
 9dc:	03000531 	movweq	r0, #1329	; 0x531
 9e0:	3b0b3a0e 	blcc	2cf220 <__Stack_Size+0x2cee20>
 9e4:	490b3905 	stmdbmi	fp, {r0, r2, r8, fp, ip, sp}
 9e8:	b7060213 	smladlt	r6, r3, r2, r0
 9ec:	00000642 	andeq	r0, r0, r2, asr #12
 9f0:	03003432 	movweq	r3, #1074	; 0x432
 9f4:	3b0b3a08 	blcc	2cf21c <__Stack_Size+0x2cee1c>
 9f8:	490b3905 	stmdbmi	fp, {r0, r2, r8, fp, ip, sp}
 9fc:	000a0213 	andeq	r0, sl, r3, lsl r2
 a00:	00343300 	eorseq	r3, r4, r0, lsl #6
 a04:	0b3a0e03 	bleq	e84218 <__Stack_Size+0xe83e18>
 a08:	0b39053b 	bleq	e41efc <__Stack_Size+0xe41afc>
 a0c:	06021349 	streq	r1, [r2], -r9, asr #6
 a10:	000642b7 			; <UNDEFINED> instruction: 0x000642b7
 a14:	010b3400 	tsteq	fp, r0, lsl #8
 a18:	13010655 	movwne	r0, #5717	; 0x1655
 a1c:	34350000 	ldrtcc	r0, [r5], #-0
 a20:	3a080300 	bcc	201628 <__Stack_Size+0x201228>
 a24:	39053b0b 	stmdbcc	r5, {r0, r1, r3, r8, r9, fp, ip, sp}
 a28:	0213490b 	andseq	r4, r3, #180224	; 0x2c000
 a2c:	0642b706 	strbeq	fp, [r2], -r6, lsl #14
 a30:	1d360000 	ldcne	0, cr0, [r6, #-0]
 a34:	52133101 	andspl	r3, r3, #1073741824	; 0x40000000
 a38:	0b42b801 	bleq	10aea44 <__Stack_Size+0x10ae644>
 a3c:	0b580655 	bleq	1602398 <__Stack_Size+0x1601f98>
 a40:	0b570559 	bleq	15c1fac <__Stack_Size+0x15c1bac>
 a44:	0b370000 	bleq	dc0a4c <__Stack_Size+0xdc064c>
 a48:	00065501 	andeq	r5, r6, r1, lsl #10
 a4c:	00343800 	eorseq	r3, r4, r0, lsl #16
 a50:	06021331 			; <UNDEFINED> instruction: 0x06021331
 a54:	000642b7 			; <UNDEFINED> instruction: 0x000642b7
 a58:	012e3900 			; <UNDEFINED> instruction: 0x012e3900
 a5c:	0e030c3f 	mcreq	12, 0, r0, cr3, cr15, {1}
 a60:	053b0b3a 	ldreq	r0, [fp, #-2874]!	; 0xfffff4c6
 a64:	0c270b39 			; <UNDEFINED> instruction: 0x0c270b39
 a68:	01111349 	tsteq	r1, r9, asr #6
 a6c:	06400112 			; <UNDEFINED> instruction: 0x06400112
 a70:	010c4297 			; <UNDEFINED> instruction: 0x010c4297
 a74:	3a000013 	bcc	ac8 <__Stack_Size+0x6c8>
 a78:	08030005 	stmdaeq	r3, {r0, r2}
 a7c:	053b0b3a 	ldreq	r0, [fp, #-2874]!	; 0xfffff4c6
 a80:	13490b39 	movtne	r0, #39737	; 0x9b39
 a84:	42b70602 	adcsmi	r0, r7, #2097152	; 0x200000
 a88:	3b000006 	blcc	aa8 <__Stack_Size+0x6a8>
 a8c:	1331011d 	teqne	r1, #1073741831	; 0x40000007
 a90:	42b80152 	adcsmi	r0, r8, #-2147483628	; 0x80000014
 a94:	1201110b 	andne	r1, r1, #-1073741822	; 0xc0000002
 a98:	590b5801 	stmdbpl	fp, {r0, fp, ip, lr}
 a9c:	000b5705 	andeq	r5, fp, r5, lsl #14
 aa0:	012e3c00 			; <UNDEFINED> instruction: 0x012e3c00
 aa4:	0e030c3f 	mcreq	12, 0, r0, cr3, cr15, {1}
 aa8:	053b0b3a 	ldreq	r0, [fp, #-2874]!	; 0xfffff4c6
 aac:	0c270b39 			; <UNDEFINED> instruction: 0x0c270b39
 ab0:	01111349 	tsteq	r1, r9, asr #6
 ab4:	0a400112 	beq	1000f04 <__Stack_Size+0x1000b04>
 ab8:	010c4297 			; <UNDEFINED> instruction: 0x010c4297
 abc:	3d000013 	stccc	0, cr0, [r0, #-76]	; 0xffffffb4
 ac0:	0e030005 	cdpeq	0, 0, cr0, cr3, cr5, {0}
 ac4:	053b0b3a 	ldreq	r0, [fp, #-2874]!	; 0xfffff4c6
 ac8:	13490b39 	movtne	r0, #39737	; 0x9b39
 acc:	00000a02 	andeq	r0, r0, r2, lsl #20
 ad0:	3f012e3e 	svccc	0x00012e3e
 ad4:	3a0e030c 	bcc	38170c <__Stack_Size+0x38130c>
 ad8:	39053b0b 	stmdbcc	r5, {r0, r1, r3, r8, r9, fp, ip, sp}
 adc:	110c270b 	tstne	ip, fp, lsl #14
 ae0:	40011201 	andmi	r1, r1, r1, lsl #4
 ae4:	0c42970a 	mcrreq	7, 0, r9, r2, cr10
 ae8:	00001301 	andeq	r1, r0, r1, lsl #6
 aec:	0000263f 	andeq	r2, r0, pc, lsr r6
 af0:	012e4000 			; <UNDEFINED> instruction: 0x012e4000
 af4:	0b3a0e03 	bleq	e84308 <__Stack_Size+0xe83f08>
 af8:	0b390b3b 	bleq	e437ec <__Stack_Size+0xe433ec>
 afc:	13490c27 	movtne	r0, #39975	; 0x9c27
 b00:	13010b20 	movwne	r0, #6944	; 0x1b20
 b04:	05410000 	strbeq	r0, [r1, #-0]
 b08:	3a0e0300 	bcc	381710 <__Stack_Size+0x381310>
 b0c:	390b3b0b 	stmdbcc	fp, {r0, r1, r3, r8, r9, fp, ip, sp}
 b10:	0013490b 	andseq	r4, r3, fp, lsl #18
 b14:	00054200 	andeq	r4, r5, r0, lsl #4
 b18:	0b3a0803 	bleq	e82b2c <__Stack_Size+0xe8272c>
 b1c:	0b390b3b 	bleq	e43810 <__Stack_Size+0xe43410>
 b20:	00001349 	andeq	r1, r0, r9, asr #6
 b24:	03003443 	movweq	r3, #1091	; 0x443
 b28:	3b0b3a08 	blcc	2cf350 <__Stack_Size+0x2cef50>
 b2c:	490b390b 	stmdbmi	fp, {r0, r1, r3, r8, fp, ip, sp}
 b30:	44000013 	strmi	r0, [r0], #-19	; 0xffffffed
 b34:	0e03012e 	adfeqsp	f0, f3, #0.5
 b38:	0b3b0b3a 	bleq	ec3828 <__Stack_Size+0xec3428>
 b3c:	0c270b39 			; <UNDEFINED> instruction: 0x0c270b39
 b40:	13010b20 	movwne	r0, #6944	; 0x1b20
 b44:	2e450000 	cdpcs	0, 4, cr0, cr5, cr0, {0}
 b48:	3a0e0301 	bcc	381754 <__Stack_Size+0x381354>
 b4c:	39053b0b 	stmdbcc	r5, {r0, r1, r3, r8, r9, fp, ip, sp}
 b50:	200c270b 	andcs	r2, ip, fp, lsl #14
 b54:	0013010b 	andseq	r0, r3, fp, lsl #2
 b58:	00054600 	andeq	r4, r5, r0, lsl #12
 b5c:	0b3a0e03 	bleq	e84370 <__Stack_Size+0xe83f70>
 b60:	0b39053b 	bleq	e42054 <__Stack_Size+0xe41c54>
 b64:	00001349 	andeq	r1, r0, r9, asr #6
 b68:	3f002e47 	svccc	0x00002e47
 b6c:	870c3c0c 	strhi	r3, [ip, -ip, lsl #24]
 b70:	0e030e40 	cdpeq	14, 0, cr0, cr3, cr0, {2}
 b74:	0b3b0b3a 	bleq	ec3864 <__Stack_Size+0xec3464>
 b78:	00000b39 	andeq	r0, r0, r9, lsr fp
 b7c:	3f002e48 	svccc	0x00002e48
 b80:	870c3c0c 	strhi	r3, [ip, -ip, lsl #24]
 b84:	0e030e40 	cdpeq	14, 0, cr0, cr3, cr0, {2}
 b88:	0b3b0b3a 	bleq	ec3878 <__Stack_Size+0xec3478>
 b8c:	01000000 	mrseq	r0, (UNDEF: 0)
 b90:	06100011 			; <UNDEFINED> instruction: 0x06100011
 b94:	01120111 	tsteq	r2, r1, lsl r1
 b98:	0e1b0e03 	cdpeq	14, 1, cr0, cr11, cr3, {0}
 b9c:	05130e25 	ldreq	r0, [r3, #-3621]	; 0xfffff1db
 ba0:	Address 0x0000000000000ba0 is out of bounds.


Disassembly of section .debug_line:

00000000 <.debug_line>:
   0:	000002a1 	andeq	r0, r0, r1, lsr #5
   4:	00af0003 	adceq	r0, pc, r3
   8:	01020000 	mrseq	r0, (UNDEF: 2)
   c:	000d0efb 	strdeq	r0, [sp], -fp
  10:	01010101 	tsteq	r1, r1, lsl #2
  14:	01000000 	mrseq	r0, (UNDEF: 0)
  18:	73010000 	movwvc	r0, #4096	; 0x1000
  1c:	6c006372 	stcvs	3, cr6, [r0], {114}	; 0x72
  20:	692f6269 	stmdbvs	pc!, {r0, r3, r5, r6, r9, sp, lr}	; <UNPREDICTABLE>
  24:	756c636e 	strbvc	r6, [ip, #-878]!	; 0xfffffc92
  28:	2f006564 	svccs	0x00006564
  2c:	2f727375 	svccs	0x00727375
  30:	2f62696c 	svccs	0x0062696c
  34:	2f636367 	svccs	0x00636367
  38:	2d6d7261 	sfmcs	f7, 2, [sp, #-388]!	; 0xfffffe7c
  3c:	656e6f6e 	strbvs	r6, [lr, #-3950]!	; 0xfffff092
  40:	6261652d 	rsbvs	r6, r1, #188743680	; 0xb400000
  44:	2e382f69 	cdpcs	15, 3, cr2, cr8, cr9, {3}
  48:	2f312e33 	svccs	0x00312e33
  4c:	6c636e69 	stclvs	14, cr6, [r3], #-420	; 0xfffffe5c
  50:	00656475 	rsbeq	r6, r5, r5, ror r4
  54:	6f6c6300 	svcvs	0x006c6300
  58:	682e6b63 	stmdavs	lr!, {r0, r1, r5, r6, r8, r9, fp, sp, lr}
  5c:	00000100 	andeq	r0, r0, r0, lsl #2
  60:	6e69616d 	powvsez	f6, f1, #5.0
  64:	0100632e 	tsteq	r0, lr, lsr #6
  68:	6f630000 	svcvs	0x00630000
  6c:	635f6572 	cmpvs	pc, #478150656	; 0x1c800000
  70:	682e336d 	stmdavs	lr!, {r0, r2, r3, r5, r6, r8, r9, ip, sp}
  74:	00000200 	andeq	r0, r0, r0, lsl #4
  78:	69647473 	stmdbvs	r4!, {r0, r1, r4, r5, r6, sl, ip, sp, lr}^
  7c:	682e746e 	stmdavs	lr!, {r1, r2, r3, r5, r6, sl, ip, sp, lr}
  80:	00000300 	andeq	r0, r0, r0, lsl #6
  84:	74737973 	ldrbtvc	r7, [r3], #-2419	; 0xfffff68d
  88:	735f6d65 	cmpvc	pc, #6464	; 0x1940
  8c:	32336d74 	eorscc	r6, r3, #116, 26	; 0x1d00
  90:	78783166 	ldmdavc	r8!, {r1, r2, r5, r6, r8, ip, sp}^
  94:	0200682e 	andeq	r6, r0, #3014656	; 0x2e0000
  98:	74730000 	ldrbtvc	r0, [r3], #-0
  9c:	6632336d 	ldrtvs	r3, [r2], -sp, ror #6
  a0:	78333031 	ldmdavc	r3!, {r0, r4, r5, ip, sp}
  a4:	00682e62 	rsbeq	r2, r8, r2, ror #28
  a8:	75000002 	strvc	r0, [r0, #-2]
  ac:	6c5f6273 	lfmvs	f6, 2, [pc], {115}	; 0x73
  b0:	682e6269 	stmdavs	lr!, {r0, r3, r5, r6, r9, sp, lr}
  b4:	00000100 	andeq	r0, r0, r0, lsl #2
  b8:	00150500 	andseq	r0, r5, r0, lsl #10
  bc:	01200205 			; <UNDEFINED> instruction: 0x01200205
  c0:	0c030800 	stceq	8, cr0, [r3], {-0}
  c4:	13030501 	movwne	r0, #13569	; 0x3501
  c8:	0b051313 	bleq	144d1c <__Stack_Size+0x14491c>
  cc:	03050106 	movweq	r0, #20742	; 0x5106
  d0:	0b055906 	bleq	1564f0 <__Stack_Size+0x1560f0>
  d4:	03050106 	movweq	r0, #20742	; 0x5106
  d8:	0b054b06 	bleq	152cf8 <__Stack_Size+0x1528f8>
  dc:	03050106 	movweq	r0, #20742	; 0x5106
  e0:	0b054b06 	bleq	152d00 <__Stack_Size+0x152900>
  e4:	05051106 	streq	r1, [r5, #-262]	; 0xfffffefa
  e8:	0b053006 	bleq	14c108 <__Stack_Size+0x14bd08>
  ec:	07050106 	streq	r0, [r5, -r6, lsl #2]
  f0:	00030520 	andeq	r0, r3, r0, lsr #10
  f4:	2d020402 	cfstrscs	mvf0, [r2, #-8]
  f8:	02040200 	andeq	r0, r4, #0, 4
  fc:	23190520 	tstcs	r9, #32, 10	; 0x8000000
 100:	24030a05 	strcs	r0, [r3], #-2565	; 0xfffff5fb
 104:	2101052e 	tstcs	r1, lr, lsr #10
 108:	03060305 	movweq	r0, #25349	; 0x6305
 10c:	05132076 	ldreq	r2, [r3, #-118]	; 0xffffff8a
 110:	05010607 	streq	r0, [r1, #-1543]	; 0xfffff9f9
 114:	05210603 	streq	r0, [r1, #-1539]!	; 0xfffff9fd
 118:	05010607 	streq	r0, [r1, #-1543]	; 0xfffff9f9
 11c:	052f0603 	streq	r0, [pc, #-1539]!	; fffffb21 <BootRAM+0xef702c2>
 120:	05010607 	streq	r0, [r1, #-1543]	; 0xfffff9f9
 124:	052f0603 	streq	r0, [pc, #-1539]!	; fffffb29 <BootRAM+0xef702ca>
 128:	0501060d 	streq	r0, [r1, #-1549]	; 0xfffff9f3
 12c:	05210603 	streq	r0, [r1, #-1539]!	; 0xfffff9fd
 130:	0511060d 	ldreq	r0, [r1, #-1549]	; 0xfffff9f3
 134:	05300605 	ldreq	r0, [r0, #-1541]!	; 0xfffff9fb
 138:	0501060c 	streq	r0, [r1, #-1548]	; 0xfffff9f4
 13c:	07052013 	smladeq	r5, r3, r0, r2
 140:	2d03052e 	cfstr32cs	mvfx0, [r3, #-184]	; 0xffffff48
 144:	23190520 	tstcs	r9, #32, 10	; 0x8000000
 148:	0603052e 	streq	r0, [r3], -lr, lsr #10
 14c:	05015d03 	streq	r5, [r1, #-3331]	; 0xfffff2fd
 150:	01770308 	cmneq	r7, r8, lsl #6
 154:	0a030305 	beq	c0d70 <__Stack_Size+0xc0970>
 158:	060e0501 	streq	r0, [lr], -r1, lsl #10
 15c:	06030501 	streq	r0, [r3], -r1, lsl #10
 160:	060e0559 			; <UNDEFINED> instruction: 0x060e0559
 164:	06030501 	streq	r0, [r3], -r1, lsl #10
 168:	060e054c 	streq	r0, [lr], -ip, asr #10
 16c:	06030501 	streq	r0, [r3], -r1, lsl #10
 170:	060e054b 	streq	r0, [lr], -fp, asr #10
 174:	06030501 	streq	r0, [r3], -r1, lsl #10
 178:	0607054c 	streq	r0, [r7], -ip, asr #10
 17c:	06030501 	streq	r0, [r3], -r1, lsl #10
 180:	13151321 	tstne	r5, #-2080374784	; 0x84000000
 184:	2f141314 	svccs	0x00141314
 188:	01060705 	tsteq	r6, r5, lsl #14
 18c:	0603052e 	streq	r0, [r3], -lr, lsr #10
 190:	060d0530 			; <UNDEFINED> instruction: 0x060d0530
 194:	06030501 	streq	r0, [r3], -r1, lsl #10
 198:	060b0522 	streq	r0, [fp], -r2, lsr #10
 19c:	03052001 	movweq	r2, #20481	; 0x5001
 1a0:	0b053d06 	bleq	14f5c0 <__Stack_Size+0x14f1c0>
 1a4:	05051106 	streq	r1, [r5, #-262]	; 0xfffffefa
 1a8:	0b053006 	bleq	14c1c8 <__Stack_Size+0x14bdc8>
 1ac:	07050106 	streq	r0, [r5, -r6, lsl #2]
 1b0:	2d030520 	cfstr32cs	mvfx0, [r3, #-128]	; 0xffffff80
 1b4:	23190520 	tstcs	r9, #32, 10	; 0x8000000
 1b8:	2c050204 	sfmcs	f0, 4, [r5], {4}
 1bc:	02050006 	andeq	r0, r5, #6
 1c0:	080001ce 	stmdaeq	r0, {r1, r2, r3, r6, r7, r8}
 1c4:	05015703 	streq	r5, [r1, #-1795]	; 0xfffff8fd
 1c8:	0105012d 	tsteq	r5, sp, lsr #2
 1cc:	1a050106 	bne	1405ec <__Stack_Size+0x1401ec>
 1d0:	03052206 	movweq	r2, #20998	; 0x5206
 1d4:	00080513 	andeq	r0, r8, r3, lsl r5
 1d8:	06010402 	streq	r0, [r1], -r2, lsl #8
 1dc:	04020001 	streq	r0, [r2], #-1
 1e0:	01052e01 	tsteq	r5, r1, lsl #28
 1e4:	00100521 	andseq	r0, r0, r1, lsr #10
 1e8:	06020402 	streq	r0, [r2], -r2, lsl #8
 1ec:	0002021f 	andeq	r0, r2, pc, lsl r2
 1f0:	02040101 	andeq	r0, r4, #1073741824	; 0x40000000
 1f4:	05000f05 	streq	r0, [r0, #-3845]	; 0xfffff0fb
 1f8:	000b4002 	andeq	r4, fp, r2
 1fc:	010d0308 	tsteq	sp, r8, lsl #6
 200:	05130305 	ldreq	r0, [r3, #-773]	; 0xfffffcfb
 204:	0511060f 	ldreq	r0, [r1, #-1551]	; 0xfffff9f1
 208:	2f062103 	svccs	0x00062103
 20c:	01061005 	tsteq	r6, r5
 210:	05220305 	streq	r0, [r2, #-773]!	; 0xfffffcfb
 214:	03051e10 	movweq	r1, #24080	; 0x5e10
 218:	01014c06 	tsteq	r1, r6, lsl #24
 21c:	06200101 	strteq	r0, [r0], -r1, lsl #2
 220:	2e062d13 	mcrcs	13, 0, r2, cr6, cr3, {0}
 224:	1605202e 	strne	r2, [r5], -lr, lsr #32
 228:	01010101 	tsteq	r1, r1, lsl #2
 22c:	2e2e2001 	cdpcs	0, 2, cr2, cr14, cr1, {0}
 230:	01062006 	tsteq	r6, r6
 234:	01012905 	tsteq	r1, r5, lsl #18
 238:	20010101 	andcs	r0, r1, r1, lsl #2
 23c:	20062e2e 	andcs	r2, r6, lr, lsr #28
 240:	03050106 	movweq	r0, #20742	; 0x5106
 244:	01010113 	tsteq	r1, r3, lsl r1
 248:	2e2e2001 	cdpcs	0, 2, cr2, cr14, cr1, {0}
 24c:	01062006 	tsteq	r6, r6
 250:	01011605 	tsteq	r1, r5, lsl #12
 254:	20010101 	andcs	r0, r1, r1, lsl #2
 258:	20062e2e 	andcs	r2, r6, lr, lsr #28
 25c:	03050106 	movweq	r0, #20742	; 0x5106
 260:	03042f14 	movweq	r2, #20244	; 0x4f14
 264:	9e031605 	cfmadd32ls	mvax0, mvfx1, mvfx3, mvfx5
 268:	35050109 	strcc	r0, [r5, #-265]	; 0xfffffef7
 26c:	05020401 	streq	r0, [r2, #-1025]	; 0xfffffbff
 270:	e7030605 	str	r0, [r3, -r5, lsl #12]
 274:	03052076 	movweq	r2, #20598	; 0x5076
 278:	01040200 	mrseq	r0, R12_usr
 27c:	05051d06 	streq	r1, [r5, #-3334]	; 0xfffff2fa
 280:	01040200 	mrseq	r0, R12_usr
 284:	04020013 	streq	r0, [r2], #-19	; 0xffffffed
 288:	02002f01 	andeq	r2, r0, #1, 30
 28c:	00010104 	andeq	r0, r1, r4, lsl #2
 290:	06010402 	streq	r0, [r1], -r2, lsl #8
 294:	04020021 	streq	r0, [r2], #-33	; 0xffffffdf
 298:	02001f01 	andeq	r1, r0, #1, 30
 29c:	3d060104 	stfccs	f0, [r6, #-16]
 2a0:	01000a02 	tsteq	r0, r2, lsl #20
 2a4:	00076601 	andeq	r6, r7, r1, lsl #12
 2a8:	a7000300 	strge	r0, [r0, -r0, lsl #6]
 2ac:	02000000 	andeq	r0, r0, #0
 2b0:	0d0efb01 	vstreq	d15, [lr, #-4]
 2b4:	01010100 	mrseq	r0, (UNDEF: 17)
 2b8:	00000001 	andeq	r0, r0, r1
 2bc:	01000001 	tsteq	r0, r1
 2c0:	00637273 	rsbeq	r7, r3, r3, ror r2
 2c4:	2f62696c 	svccs	0x0062696c
 2c8:	6c636e69 	stclvs	14, cr6, [r3], #-420	; 0xfffffe5c
 2cc:	00656475 	rsbeq	r6, r5, r5, ror r4
 2d0:	7273752f 	rsbsvc	r7, r3, #197132288	; 0xbc00000
 2d4:	62696c2f 	rsbvs	r6, r9, #12032	; 0x2f00
 2d8:	6363672f 	cmnvs	r3, #12320768	; 0xbc0000
 2dc:	6d72612f 	ldfvse	f6, [r2, #-188]!	; 0xffffff44
 2e0:	6e6f6e2d 	cdpvs	14, 6, cr6, cr15, cr13, {1}
 2e4:	61652d65 	cmnvs	r5, r5, ror #26
 2e8:	382f6962 	stmdacc	pc!, {r1, r5, r6, r8, fp, sp, lr}	; <UNPREDICTABLE>
 2ec:	312e332e 			; <UNDEFINED> instruction: 0x312e332e
 2f0:	636e692f 	cmnvs	lr, #770048	; 0xbc000
 2f4:	6564756c 	strbvs	r7, [r4, #-1388]!	; 0xfffffa94
 2f8:	73750000 	cmnvc	r5, #0
 2fc:	696c5f62 	stmdbvs	ip!, {r1, r5, r6, r8, r9, sl, fp, ip, lr}^
 300:	00632e62 	rsbeq	r2, r3, r2, ror #28
 304:	63000001 	movwvs	r0, #1
 308:	5f65726f 	svcpl	0x0065726f
 30c:	2e336d63 	cdpcs	13, 3, cr6, cr3, cr3, {3}
 310:	00020068 	andeq	r0, r2, r8, rrx
 314:	62737500 	rsbsvs	r7, r3, #0, 10
 318:	62696c5f 	rsbvs	r6, r9, #24320	; 0x5f00
 31c:	0100682e 	tsteq	r0, lr, lsr #16
 320:	74730000 	ldrbtvc	r0, [r3], #-0
 324:	746e6964 	strbtvc	r6, [lr], #-2404	; 0xfffff69c
 328:	0300682e 	movweq	r6, #2094	; 0x82e
 32c:	74730000 	ldrbtvc	r0, [r3], #-0
 330:	6632336d 	ldrtvs	r3, [r2], -sp, ror #6
 334:	78333031 	ldmdavc	r3!, {r0, r4, r5, ip, sp}
 338:	00682e62 	rsbeq	r2, r8, r2, ror #28
 33c:	73000002 	movwvc	r0, #2
 340:	65747379 	ldrbvs	r7, [r4, #-889]!	; 0xfffffc87
 344:	74735f6d 	ldrbtvc	r5, [r3], #-3949	; 0xfffff093
 348:	6632336d 	ldrtvs	r3, [r2], -sp, ror #6
 34c:	2e787831 	mrccs	8, 3, r7, cr8, cr1, {1}
 350:	00020068 	andeq	r0, r2, r8, rrx
 354:	2b050000 	blcs	14035c <__Stack_Size+0x13ff5c>
 358:	dc020500 	cfstr32le	mvfx0, [r2], {-0}
 35c:	03080001 	movweq	r0, #32769	; 0x8001
 360:	2c050116 	stfcss	f0, [r5], {22}
 364:	06010501 	streq	r0, [r1], -r1, lsl #10
 368:	065c0501 	ldrbeq	r0, [ip], -r1, lsl #10
 36c:	015d053f 	cmpeq	sp, pc, lsr r5
 370:	01060105 	tsteq	r6, r5, lsl #2
 374:	06630520 	strbteq	r0, [r3], -r0, lsr #10
 378:	01640521 	cmneq	r4, r1, lsr #10
 37c:	01060105 	tsteq	r6, r5, lsl #2
 380:	06110520 	ldreq	r0, [r1], -r0, lsr #10
 384:	05201c03 	streq	r1, [r0, #-3075]!	; 0xfffff3fd
 388:	10051303 	andne	r1, r5, r3, lsl #6
 38c:	03050106 	movweq	r0, #20742	; 0x5106
 390:	1f100521 	svcne	0x00100521
 394:	4b060305 	blmi	180fb0 <__Stack_Size+0x180bb0>
 398:	01010101 	tsteq	r1, r1, lsl #2
 39c:	060f0520 	streq	r0, [pc], -r0, lsr #10
 3a0:	1d030515 	cfstr32ne	mvfx0, [r3, #-84]	; 0xffffffac
 3a4:	202e2e06 	eorcs	r2, lr, r6, lsl #28
 3a8:	2e060114 	mcrcs	1, 0, r0, cr6, cr4, {0}
 3ac:	0f052106 	svceq	0x00052106
 3b0:	03050106 	movweq	r0, #20742	; 0x5106
 3b4:	07053d06 	streq	r3, [r5, -r6, lsl #26]
 3b8:	05010601 	streq	r0, [r1, #-1537]	; 0xfffff9ff
 3bc:	2e05110f 	adfcss	f1, f5, #10.0
 3c0:	03040200 	movweq	r0, #16896	; 0x4200
 3c4:	03052106 	movweq	r2, #20742	; 0x5106
 3c8:	03040200 	movweq	r0, #16896	; 0x4200
 3cc:	02002006 	andeq	r2, r0, #6
 3d0:	06200304 	strteq	r0, [r0], -r4, lsl #6
 3d4:	060f0521 	streq	r0, [pc], -r1, lsr #10
 3d8:	06030501 	streq	r0, [r3], -r1, lsl #10
 3dc:	060f052f 	streq	r0, [pc], -pc, lsr #10
 3e0:	06030501 	streq	r0, [r3], -r1, lsl #10
 3e4:	060f052f 	streq	r0, [pc], -pc, lsr #10
 3e8:	06030501 	streq	r0, [r3], -r1, lsl #10
 3ec:	060f052f 	streq	r0, [pc], -pc, lsr #10
 3f0:	06030501 	streq	r0, [r3], -r1, lsl #10
 3f4:	060f052f 	streq	r0, [pc], -pc, lsr #10
 3f8:	03052e01 	movweq	r2, #24065	; 0x5e01
 3fc:	02042f06 	andeq	r2, r4, #6, 30
 400:	9b031605 	blls	c5c1c <__Stack_Size+0xc581c>
 404:	0305010b 	movweq	r0, #20747	; 0x510b
 408:	06270514 			; <UNDEFINED> instruction: 0x06270514
 40c:	01044a01 	tsteq	r4, r1, lsl #20
 410:	03060305 	movweq	r0, #25349	; 0x6305
 414:	010174e4 	smlatteq	r1, r4, r4, r7
 418:	3d060105 	stfccs	f0, [r6, #-20]	; 0xffffffec
 41c:	03064f05 	movweq	r4, #28421	; 0x6f05
 420:	05ac00e6 	streq	r0, [ip, #230]!	; 0xe6
 424:	05131303 	ldreq	r1, [r3, #-771]	; 0xfffffcfd
 428:	0510064f 	ldreq	r0, [r0, #-1615]	; 0xfffff9b1
 42c:	03052209 	movweq	r2, #21001	; 0x5209
 430:	05053006 	streq	r3, [r5, #-6]
 434:	062d5906 	strteq	r5, [sp], -r6, lsl #18
 438:	3e060121 	adfccsp	f0, f6, f1
 43c:	061e222c 	ldreq	r2, [lr], -ip, lsr #4
 440:	03050130 	movweq	r0, #20784	; 0x5130
 444:	060c0569 	streq	r0, [ip], -r9, ror #10
 448:	06030501 	streq	r0, [r3], -r1, lsl #10
 44c:	06141321 	ldreq	r1, [r4], -r1, lsr #6
 450:	2e063c13 	mcrcs	12, 0, r3, cr6, cr3, {0}
 454:	054b1905 	strbeq	r1, [fp, #-2309]	; 0xfffff6fb
 458:	2e01061d 	mcrcs	6, 0, r0, cr1, cr13, {0}
 45c:	051e0705 	ldreq	r0, [lr, #-1797]	; 0xfffff8fb
 460:	03053312 	movweq	r3, #21266	; 0x5312
 464:	12053006 	andne	r3, r5, #6
 468:	03052006 	movweq	r2, #20486	; 0x5006
 46c:	05052206 	streq	r2, [r5, #-518]	; 0xfffffdfa
 470:	06583c06 	ldrbeq	r3, [r8], -r6, lsl #24
 474:	06230521 	strteq	r0, [r3], -r1, lsr #10
 478:	06050501 	streq	r0, [r5], -r1, lsl #10
 47c:	06160521 	ldreq	r0, [r6], -r1, lsr #10
 480:	06050501 	streq	r0, [r5], -r1, lsl #10
 484:	2006013d 	andcs	r0, r6, sp, lsr r1
 488:	0e030c05 	cdpeq	12, 0, cr0, cr3, cr5, {0}
 48c:	1e050582 	cfsh32ne	mvfx0, mvfx5, #-62
 490:	22060305 	andcs	r0, r6, #335544320	; 0x14000000
 494:	01060c05 	tsteq	r6, r5, lsl #24
 498:	05210105 	streq	r0, [r1, #-261]!	; 0xfffffefb
 49c:	69030619 	stmdbvs	r3, {r0, r3, r4, r9, sl}
 4a0:	061d0520 	ldreq	r0, [sp], -r0, lsr #10
 4a4:	0e052e01 	cdpeq	14, 0, cr2, cr5, cr1, {0}
 4a8:	12052106 	andne	r2, r5, #-2147483647	; 0x80000001
 4ac:	052e0106 	streq	r0, [lr, #-262]!	; 0xfffffefa
 4b0:	09030605 	stmdbeq	r3, {r0, r2, r9, sl}
 4b4:	06230520 	strteq	r0, [r3], -r0, lsr #10
 4b8:	06050501 	streq	r0, [r5], -r1, lsl #10
 4bc:	06260521 	strteq	r0, [r6], -r1, lsr #10
 4c0:	1f070513 	svcne	0x00070513
 4c4:	26052106 	strcs	r2, [r5], -r6, lsl #2
 4c8:	31391506 	teqcc	r9, r6, lsl #10
 4cc:	0607051d 			; <UNDEFINED> instruction: 0x0607051d
 4d0:	06270521 	strteq	r0, [r7], -r1, lsr #10
 4d4:	2e330516 	mrccs	5, 1, r0, cr3, cr6, {0}
 4d8:	052a2e05 	streq	r2, [sl, #-3589]!	; 0xfffff1fb
 4dc:	13300607 	teqne	r0, #7340032	; 0x700000
 4e0:	06330513 			; <UNDEFINED> instruction: 0x06330513
 4e4:	2e270501 	cfsh64cs	mvdx0, mvdx7, #1
 4e8:	4c060505 	cfstr32mi	mvfx0, [r6], {5}
 4ec:	01061705 	tsteq	r6, r5, lsl #14
 4f0:	3d060505 	cfstr32cc	mvfx0, [r6, #-20]	; 0xffffffec
 4f4:	05200601 	streq	r0, [r0, #-1537]!	; 0xfffff9ff
 4f8:	05e90656 	strbeq	r0, [r9, #1622]!	; 0x656
 4fc:	05131303 	ldreq	r1, [r3, #-771]	; 0xfffffcfd
 500:	05100656 	ldreq	r0, [r0, #-1622]	; 0xfffff9aa
 504:	09052403 	stmdbeq	r5, {r0, r1, sl, sp}
 508:	0603052c 	streq	r0, [r3], -ip, lsr #10
 50c:	6e060130 	fltvssp	f6, r0
 510:	06207803 	strteq	r7, [r0], -r3, lsl #16
 514:	05a00191 	streq	r0, [r0, #401]!	; 0x191
 518:	0501060c 	streq	r0, [r1, #-1548]	; 0xfffff9f4
 51c:	13210603 			; <UNDEFINED> instruction: 0x13210603
 520:	062e0614 			; <UNDEFINED> instruction: 0x062e0614
 524:	5919052f 	ldmdbpl	r9, {r0, r1, r2, r3, r5, r8, sl}
 528:	01061d05 	tsteq	r6, r5, lsl #26
 52c:	2e311205 	cdpcs	2, 3, cr1, cr1, cr5, {0}
 530:	051b0705 	ldreq	r0, [fp, #-1797]	; 0xfffff8fb
 534:	05350603 	ldreq	r0, [r5, #-1539]!	; 0xfffff9fd
 538:	052e0612 	streq	r0, [lr, #-1554]!	; 0xfffff9ee
 53c:	06220603 	strteq	r0, [r2], -r3, lsl #12
 540:	2e05053c 	mcrcs	5, 0, r0, cr5, cr12, {1}
 544:	05210674 	streq	r0, [r1, #-1652]!	; 0xfffff98c
 548:	05010623 	streq	r0, [r1, #-1571]	; 0xfffff9dd
 54c:	05210605 	streq	r0, [r1, #-1541]!	; 0xfffff9fb
 550:	05010623 	streq	r0, [r1, #-1571]	; 0xfffff9dd
 554:	01210605 			; <UNDEFINED> instruction: 0x01210605
 558:	0306019f 	movweq	r0, #24991	; 0x619f
 55c:	0305900d 	movweq	r9, #20493	; 0x500d
 560:	14052206 	strne	r2, [r5], #-518	; 0xfffffdfa
 564:	0c050106 	stfeqs	f0, [r5], {6}
 568:	2b140523 	blcs	5019fc <__Stack_Size+0x5015fc>
 56c:	2f060305 	svccs	0x00060305
 570:	01061405 	tsteq	r6, r5, lsl #8
 574:	05220c05 	streq	r0, [r2, #-3077]!	; 0xfffff3fb
 578:	03051e14 	movweq	r1, #24084	; 0x5e14
 57c:	01053006 	tsteq	r5, r6
 580:	19051306 	stmdbne	r5, {r1, r2, r8, r9, ip}
 584:	20640306 	rsbcs	r0, r4, r6, lsl #6
 588:	01061d05 	tsteq	r6, r5, lsl #26
 58c:	060e052e 	streq	r0, [lr], -lr, lsr #10
 590:	06120521 	ldreq	r0, [r2], -r1, lsr #10
 594:	05052e01 	streq	r2, [r5, #-3585]	; 0xfffff1ff
 598:	200a0306 	andcs	r0, sl, r6, lsl #6
 59c:	01062305 	tsteq	r6, r5, lsl #6
 5a0:	21060505 	tstcs	r6, r5, lsl #10
 5a4:	13060705 	movwne	r0, #26373	; 0x6705
 5a8:	051f2305 	ldreq	r2, [pc, #-773]	; 2ab <_Minimum_Stack_Size+0x1ab>
 5ac:	05210605 	streq	r0, [r1, #-1541]!	; 0xfffff9fb
 5b0:	05130647 	ldreq	r0, [r3, #-1607]	; 0xfffff9b9
 5b4:	21061f07 	tstcs	r6, r7, lsl #30
 5b8:	01064705 	tsteq	r6, r5, lsl #14
 5bc:	053c2605 	ldreq	r2, [ip, #-1541]!	; 0xfffff9fb
 5c0:	054b0607 	strbeq	r0, [fp, #-1543]	; 0xfffff9f9
 5c4:	05010650 	streq	r0, [r1, #-1616]	; 0xfffff9b0
 5c8:	27053249 	strcs	r3, [r5, -r9, asr #4]
 5cc:	06050566 	streq	r0, [r5], -r6, ror #10
 5d0:	019f0168 	orrseq	r0, pc, r8, ror #2
 5d4:	05990705 	ldreq	r0, [r9, #1797]	; 0x705
 5d8:	05010647 	streq	r0, [r1, #-1607]	; 0xfffff9b9
 5dc:	07053c26 	streq	r3, [r5, -r6, lsr #24]
 5e0:	05134b06 	ldreq	r4, [r3, #-2822]	; 0xfffff4fa
 5e4:	05010655 	streq	r0, [r1, #-1621]	; 0xfffff9ab
 5e8:	0c030619 	stceq	6, cr0, [r3], {25}
 5ec:	130305ac 	movwne	r0, #13740	; 0x35ac
 5f0:	11061905 	tstne	r6, r5, lsl #18
 5f4:	05210905 	streq	r0, [r1, #-2309]!	; 0xfffff6fb
 5f8:	2f063c05 	svccs	0x00063c05
 5fc:	060f052f 	streq	r0, [pc], -pc, lsr #10
 600:	2f0e0501 	svccs	0x000e0501
 604:	051f0f05 	ldreq	r0, [pc, #-3845]	; fffff707 <BootRAM+0xef6fea8>
 608:	052f0605 	streq	r0, [pc, #-1541]!	; b <_Minimum_Stack_Size-0xf5>
 60c:	0501060e 	streq	r0, [r1, #-1550]	; 0xfffff9f2
 610:	053d0605 	ldreq	r0, [sp, #-1541]!	; 0xfffff9fb
 614:	05010610 	streq	r0, [r1, #-1552]	; 0xfffff9f0
 618:	10052224 	andne	r2, r5, r4, lsr #4
 61c:	0605051e 			; <UNDEFINED> instruction: 0x0605051e
 620:	0109052f 	tsteq	r9, pc, lsr #10
 624:	10050106 	andne	r0, r5, r6, lsl #2
 628:	00070511 	andeq	r0, r7, r1, lsl r5
 62c:	06030402 	streq	r0, [r3], -r2, lsl #8
 630:	00050530 	andeq	r0, r5, r0, lsr r5
 634:	06030402 	streq	r0, [r3], -r2, lsl #8
 638:	0024051f 	eoreq	r0, r4, pc, lsl r5
 63c:	2f030402 	svccs	0x00030402
 640:	02001405 	andeq	r1, r0, #83886080	; 0x5000000
 644:	052e0304 	streq	r0, [lr, #-772]!	; 0xfffffcfc
 648:	04020005 	streq	r0, [r2], #-5
 64c:	24062d03 	strcs	r2, [r6], #-3331	; 0xfffff2fd
 650:	01060f05 	tsteq	r6, r5, lsl #30
 654:	053d0505 	ldreq	r0, [sp, #-1285]!	; 0xfffffafb
 658:	05051f0f 	streq	r1, [r5, #-3855]	; 0xfffff0f1
 65c:	67592f06 	ldrbvs	r2, [r9, -r6, lsl #30]
 660:	01060d05 	tsteq	r6, r5, lsl #26
 664:	2f060505 	svccs	0x00060505
 668:	05310305 	ldreq	r0, [r1, #-773]!	; 0xfffffcfb
 66c:	05010609 	streq	r0, [r1, #-1545]	; 0xfffff9f7
 670:	2f063c05 	svccs	0x00063c05
 674:	01061805 	tsteq	r6, r5, lsl #16
 678:	052e0d05 	streq	r0, [lr, #-3333]!	; 0xfffff2fb
 67c:	052f0605 	streq	r0, [pc, #-1541]!	; 7f <_Minimum_Stack_Size-0x81>
 680:	05010608 	streq	r0, [r1, #-1544]	; 0xfffff9f8
 684:	2f066607 	svccs	0x00066607
 688:	01061105 	tsteq	r6, r5, lsl #2
 68c:	06200705 	strteq	r0, [r0], -r5, lsl #14
 690:	0505014b 	streq	r0, [r5, #-331]	; 0xfffffeb5
 694:	06080584 	streq	r0, [r8], -r4, lsl #11
 698:	20070501 	andcs	r0, r7, r1, lsl #10
 69c:	10052f06 	andne	r2, r5, r6, lsl #30
 6a0:	07050106 	streq	r0, [r5, -r6, lsl #2]
 6a4:	01590620 	cmpeq	r9, r0, lsr #12
 6a8:	03058206 	movweq	r8, #20998	; 0x5206
 6ac:	09051606 	stmdbeq	r5, {r1, r2, r9, sl, ip}
 6b0:	05050106 	streq	r0, [r5, #-262]	; 0xfffffefa
 6b4:	2f2f063c 	svccs	0x002f063c
 6b8:	01060f05 	tsteq	r6, r5, lsl #30
 6bc:	67060505 	strvs	r0, [r6, -r5, lsl #10]
 6c0:	01060f05 	tsteq	r6, r5, lsl #30
 6c4:	4d060305 	stcmi	3, cr0, [r6, #-20]	; 0xffffffec
 6c8:	01060905 	tsteq	r6, r5, lsl #18
 6cc:	063c0505 	ldrteq	r0, [ip], -r5, lsl #10
 6d0:	060f052f 	streq	r0, [pc], -pc, lsr #10
 6d4:	06050501 	streq	r0, [r5], -r1, lsl #10
 6d8:	060f0583 	streq	r0, [pc], -r3, lsl #11
 6dc:	4c010501 	cfstr32mi	mvfx0, [r1], {1}
 6e0:	03064305 	movweq	r4, #25349	; 0x6305
 6e4:	0305f20e 	movweq	pc, #21006	; 0x520e	; <UNPREDICTABLE>
 6e8:	06430513 			; <UNDEFINED> instruction: 0x06430513
 6ec:	26030511 			; <UNDEFINED> instruction: 0x26030511
 6f0:	051b3305 	ldreq	r3, [fp, #-773]	; 0xfffffcfb
 6f4:	03052010 	movweq	r2, #20496	; 0x5010
 6f8:	3f054b06 	svccc	0x00054b06
 6fc:	17051506 	strne	r1, [r5, -r6, lsl #10]
 700:	2338051d 	teqcs	r8, #121634816	; 0x7400000
 704:	05470c05 	strbeq	r0, [r7, #-3077]	; 0xfffff3fb
 708:	13220603 			; <UNDEFINED> instruction: 0x13220603
 70c:	01063805 	tsteq	r6, r5, lsl #16
 710:	21060305 	tstcs	r6, r5, lsl #6
 714:	05010705 	streq	r0, [r1, #-1797]	; 0xfffff8fb
 718:	04020003 	streq	r0, [r2], #-3
 71c:	06010601 	streq	r0, [r1], -r1, lsl #12
 720:	2014063f 	andscs	r0, r4, pc, lsr r6
 724:	053a1005 	ldreq	r1, [sl, #-5]!
 728:	01220603 			; <UNDEFINED> instruction: 0x01220603
 72c:	01053c06 	tsteq	r5, r6, lsl #24
 730:	00050591 	muleq	r5, r1, r5
 734:	06030402 	streq	r0, [r3], -r2, lsl #8
 738:	0011051b 	andseq	r0, r1, fp, lsl r5
 73c:	06030402 	streq	r0, [r3], -r2, lsl #8
 740:	04020001 	streq	r0, [r2], #-1
 744:	02004a03 	andeq	r4, r0, #12288	; 0x3000
 748:	05200304 	streq	r0, [r0, #-772]!	; 0xfffffcfc
 74c:	05000622 	streq	r0, [r0, #-1570]	; 0xfffff9de
 750:	00060802 	andeq	r0, r6, r2, lsl #16
 754:	7e8b0308 	cdpvc	3, 8, cr0, cr11, cr8, {0}
 758:	13030501 	movwne	r0, #13569	; 0x3501
 75c:	11062205 	tstne	r6, r5, lsl #4
 760:	05210b05 	streq	r0, [r1, #-2821]!	; 0xfffff4fb
 764:	0b052024 	bleq	1487fc <__Stack_Size+0x1483fc>
 768:	2e240520 	cfsh64cs	mvdx0, mvdx4, #16
 76c:	06200505 	strteq	r0, [r0], -r5, lsl #10
 770:	0610053d 			; <UNDEFINED> instruction: 0x0610053d
 774:	06030501 	streq	r0, [r3], -r1, lsl #10
 778:	0608055b 			; <UNDEFINED> instruction: 0x0608055b
 77c:	20050501 	andcs	r0, r5, r1, lsl #10
 780:	4b060305 	blmi	18139c <__Stack_Size+0x180f9c>
 784:	01060e05 	tsteq	r6, r5, lsl #28
 788:	05200505 	streq	r0, [r0, #-1285]!	; 0xfffffafb
 78c:	05210603 	streq	r0, [r1, #-1539]!	; 0xfffff9fd
 790:	0501060c 	streq	r0, [r1, #-1548]	; 0xfffff9f4
 794:	04210603 	strteq	r0, [r1], #-1539	; 0xfffff9fd
 798:	d9030603 	stmdble	r3, {r0, r1, r9, sl}
 79c:	04580100 	ldrbeq	r0, [r8], #-256	; 0xffffff00
 7a0:	a8030601 	stmdage	r3, {r0, r9, sl}
 7a4:	0304017f 	movweq	r0, #16767	; 0x417f
 7a8:	d7031405 	strle	r1, [r3, -r5, lsl #8]
 7ac:	03050100 	movweq	r0, #20736	; 0x5100
 7b0:	3c200613 	stccc	6, cr0, [r0], #-76	; 0xffffffb4
 7b4:	03060104 	movweq	r0, #24836	; 0x6104
 7b8:	05017faa 	streq	r7, [r1, #-4010]	; 0xfffff056
 7bc:	05150605 	ldreq	r0, [r5, #-1541]	; 0xfffff9fb
 7c0:	03051d0d 	movweq	r1, #23821	; 0x5d0d
 7c4:	05143d06 	ldreq	r3, [r4, #-3334]	; 0xfffff2fa
 7c8:	0513060d 	ldreq	r0, [r3, #-1549]	; 0xfffff9f3
 7cc:	05052b0b 	streq	r2, [r5, #-2827]	; 0xfffff4f5
 7d0:	0d053106 	stfeqs	f3, [r5, #-24]	; 0xffffffe8
 7d4:	01050106 	tsteq	r5, r6, lsl #2
 7d8:	062d0522 	strteq	r0, [sp], -r2, lsr #10
 7dc:	6601eb03 	strvs	lr, [r1], -r3, lsl #22
 7e0:	05130305 	ldreq	r0, [r3, #-773]	; 0xfffffcfb
 7e4:	0511062d 	ldreq	r0, [r1, #-1581]	; 0xfffff9d3
 7e8:	10052133 	andne	r2, r5, r3, lsr r1
 7ec:	06030520 	streq	r0, [r3], -r0, lsr #10
 7f0:	062d054b 	strteq	r0, [sp], -fp, asr #10
 7f4:	22110510 	andscs	r0, r1, #16, 10	; 0x4000000
 7f8:	06030520 	streq	r0, [r3], -r0, lsr #10
 7fc:	0605052f 	streq	r0, [r5], -pc, lsr #10
 800:	06030501 	streq	r0, [r3], -r1, lsl #10
 804:	3e051321 	cdpcc	3, 0, cr1, cr5, cr1, {1}
 808:	0f050106 	svceq	0x00050106
 80c:	2137051f 	teqcs	r7, pc, lsl r5
 810:	59060305 	stmdbpl	r6, {r0, r2, r8, r9}
 814:	06010705 	streq	r0, [r1], -r5, lsl #14
 818:	20201001 	eorcs	r1, r0, r1
 81c:	02000505 	andeq	r0, r0, #20971520	; 0x1400000
 820:	31060304 	tstcc	r6, r4, lsl #6
 824:	02000e05 	andeq	r0, r0, #5, 28	; 0x50
 828:	01060304 	tsteq	r6, r4, lsl #6
 82c:	02000305 	andeq	r0, r0, #335544320	; 0x14000000
 830:	052d0304 	streq	r0, [sp, #-772]!	; 0xfffffcfc
 834:	0402000c 	streq	r0, [r2], #-12
 838:	03052103 	movweq	r2, #20739	; 0x5103
 83c:	03040200 	movweq	r0, #16896	; 0x4200
 840:	0123062d 			; <UNDEFINED> instruction: 0x0123062d
 844:	06662006 	strbteq	r2, [r6], -r6
 848:	06010591 			; <UNDEFINED> instruction: 0x06010591
 84c:	06230513 			; <UNDEFINED> instruction: 0x06230513
 850:	207e9403 	rsbscs	r9, lr, r3, lsl #8
 854:	13130305 	tstne	r3, #335544320	; 0x14000000
 858:	10062305 	andne	r2, r6, r5, lsl #6
 85c:	3d160522 	cfldr32cc	mvfx0, [r6, #-136]	; 0xffffff78
 860:	053b2305 	ldreq	r2, [fp, #-773]!	; 0xfffffcfb
 864:	142f0603 	strtne	r0, [pc], #-1539	; 86c <__Stack_Size+0x46c>
 868:	01060505 	tsteq	r6, r5, lsl #10
 86c:	07053d06 	streq	r3, [r5, -r6, lsl #26]
 870:	062e0106 	strteq	r0, [lr], -r6, lsl #2
 874:	0503042f 	streq	r0, [r3, #-1071]	; 0xfffffbd1
 878:	00c70313 	sbceq	r0, r7, r3, lsl r3
 87c:	13030501 	movwne	r0, #13569	; 0x3501
 880:	11050104 	tstne	r5, r4, lsl #2
 884:	7fb90306 	svcvc	0x00b90306
 888:	05030401 	streq	r0, [r3, #-1025]	; 0xfffffbff
 88c:	00c7030a 	sbceq	r0, r7, sl, lsl #6
 890:	042e2e20 	strteq	r2, [lr], #-3616	; 0xfffff1e0
 894:	06070501 	streq	r0, [r7], -r1, lsl #10
 898:	017fb903 	cmneq	pc, r3, lsl #18
 89c:	01061105 	tsteq	r6, r5, lsl #2
 8a0:	21060705 	tstcs	r6, r5, lsl #14
 8a4:	0a030305 	beq	c14c0 <__Stack_Size+0xc10c0>
 8a8:	061d0501 	ldreq	r0, [sp], -r1, lsl #10
 8ac:	200b0501 	andcs	r0, fp, r1, lsl #10
 8b0:	30060305 	andcc	r0, r6, r5, lsl #6
 8b4:	01060505 	tsteq	r6, r5, lsl #10
 8b8:	07053006 	streq	r3, [r5, -r6]
 8bc:	05050106 	streq	r0, [r5, #-262]	; 0xfffffefa
 8c0:	07052106 	streq	r2, [r5, -r6, lsl #2]
 8c4:	21060106 	tstcs	r6, r6, lsl #2
 8c8:	01061a05 	tsteq	r6, r5, lsl #20
 8cc:	05200705 	streq	r0, [r0, #-1797]!	; 0xfffff8fb
 8d0:	0a03060b 	beq	c2104 <__Stack_Size+0xc1d04>
 8d4:	05030458 	streq	r0, [r3, #-1112]	; 0xfffffba8
 8d8:	01220314 			; <UNDEFINED> instruction: 0x01220314
 8dc:	06130305 	ldreq	r0, [r3], -r5, lsl #6
 8e0:	01043c2e 	tsteq	r4, lr, lsr #24
 8e4:	03060705 	movweq	r0, #26373	; 0x6705
 8e8:	09050145 	stmdbeq	r5, {r0, r2, r6, r8}
 8ec:	0b050106 	bleq	140d0c <__Stack_Size+0x14090c>
 8f0:	58100306 	ldmdapl	r0, {r1, r2, r8, r9}
 8f4:	01061705 	tsteq	r6, r5, lsl #14
 8f8:	05220b05 	streq	r0, [r2, #-2821]!	; 0xfffff4fb
 8fc:	0b051e17 	bleq	148160 <__Stack_Size+0x147d60>
 900:	13062106 	movwne	r2, #24838	; 0x6106
 904:	053b1405 	ldreq	r1, [fp, #-1029]!	; 0xfffffbfb
 908:	2f2f060b 	svccs	0x002f060b
 90c:	0f030505 	svceq	0x00030505
 910:	06140501 	ldreq	r0, [r4], -r1, lsl #10
 914:	20070501 	andcs	r0, r7, r1, lsl #10
 918:	4e030305 	cdpmi	3, 0, cr0, cr3, cr5, {0}
 91c:	0307052e 	movweq	r0, #29998	; 0x752e
 920:	25052032 	strcs	r2, [r5, #-50]	; 0xffffffce
 924:	2a052006 	bcs	148944 <__Stack_Size+0x148544>
 928:	05050106 	streq	r0, [r5, #-262]	; 0xfffffefa
 92c:	14053d06 	strne	r3, [r5], #-3334	; 0xfffff2fa
 930:	05014a03 	streq	r4, [r1, #-2563]	; 0xfffff5fd
 934:	0d051303 	stceq	3, cr1, [r5, #-12]
 938:	03050106 	movweq	r0, #20742	; 0x5106
 93c:	0b053d06 	bleq	14fd5c <__Stack_Size+0x14f95c>
 940:	03050106 	movweq	r0, #20742	; 0x5106
 944:	2e062f06 	cdpcs	15, 0, cr2, cr6, cr6, {0}
 948:	c7030105 	strgt	r0, [r3, -r5, lsl #2]
 94c:	0b050100 	bleq	140d54 <__Stack_Size+0x140954>
 950:	2e640306 	cdpcs	3, 6, cr0, cr4, cr6, {0}
 954:	14050304 	strne	r0, [r5], #-772	; 0xfffffcfc
 958:	05011f03 	streq	r1, [r1, #-3843]	; 0xfffff0fd
 95c:	4a061303 	bmi	185570 <__Stack_Size+0x185170>
 960:	05050104 	streq	r0, [r5, #-260]	; 0xfffffefc
 964:	01640306 	cmneq	r4, r6, lsl #6
 968:	01060b05 	tsteq	r6, r5, lsl #22
 96c:	06050520 	streq	r0, [r5], -r0, lsr #10
 970:	060e0521 	streq	r0, [lr], -r1, lsr #10
 974:	21050501 	tstcs	r5, r1, lsl #10
 978:	05490e05 	strbeq	r0, [r9, #-3589]	; 0xfffff1fb
 97c:	062f0605 	strteq	r0, [pc], -r5, lsl #12
 980:	1706202e 	strne	r2, [r6, -lr, lsr #32]
 984:	01060705 	tsteq	r6, r5, lsl #14
 988:	16052106 	strne	r2, [r5], -r6, lsl #2
 98c:	09050106 	stmdbeq	r5, {r1, r2, r8}
 990:	052f0620 	streq	r0, [pc, #-1568]!	; 378 <_Minimum_Stack_Size+0x278>
 994:	05010612 	streq	r0, [r1, #-1554]	; 0xfffff9ee
 998:	042f0609 	strteq	r0, [pc], #-1545	; 9a0 <__Stack_Size+0x5a0>
 99c:	03140503 	tsteq	r4, #12582912	; 0xc00000
 9a0:	03050111 	movweq	r0, #20753	; 0x5111
 9a4:	04010613 	streq	r0, [r1], #-1555	; 0xfffff9ed
 9a8:	062c0501 	strteq	r0, [ip], -r1, lsl #10
 9ac:	04017a03 	streq	r7, [r1], #-2563	; 0xfffff5fd
 9b0:	17140503 	ldrne	r0, [r4, -r3, lsl #10]
 9b4:	06130305 	ldreq	r0, [r3], -r5, lsl #6
 9b8:	0501044a 	streq	r0, [r1, #-1098]	; 0xfffffbb6
 9bc:	7003060d 	andvc	r0, r3, sp, lsl #12
 9c0:	060f0501 	streq	r0, [pc], -r1, lsl #10
 9c4:	06090501 	streq	r0, [r9], -r1, lsl #10
 9c8:	0617052f 	ldreq	r0, [r7], -pc, lsr #10
 9cc:	06090501 	streq	r0, [r9], -r1, lsl #10
 9d0:	0503042f 	streq	r0, [r3, #-1071]	; 0xfffffbd1
 9d4:	010d0314 	tsteq	sp, r4, lsl r3
 9d8:	06130305 	ldreq	r0, [r3], -r5, lsl #6
 9dc:	05010420 	streq	r0, [r1, #-1056]	; 0xfffffbe0
 9e0:	76030605 	strvc	r0, [r3], -r5, lsl #12
 9e4:	06090501 	streq	r0, [r9], -r1, lsl #10
 9e8:	58070501 	stmdapl	r7, {r0, r8, sl}
 9ec:	05012106 	streq	r2, [r1, #-262]	; 0xfffffefa
 9f0:	0f05ae05 	svceq	0x0005ae05
 9f4:	07050106 	streq	r0, [r5, -r6, lsl #2]
 9f8:	1f0f052f 	svcne	0x000f052f
 9fc:	05210705 	streq	r0, [r1, #-1797]!	; 0xfffff8fb
 a00:	05051f0f 	streq	r1, [r5, #-3855]	; 0xfffff0f1
 a04:	07052106 	streq	r2, [r5, -r6, lsl #2]
 a08:	0f020106 	svceq	0x00020106
 a0c:	e9010100 	stmdb	r1, {r8}
 a10:	03000003 	movweq	r0, #3
 a14:	00010200 	andeq	r0, r1, r0, lsl #4
 a18:	fb010200 	blx	41222 <__Stack_Size+0x40e22>
 a1c:	01000d0e 	tsteq	r0, lr, lsl #26
 a20:	00010101 	andeq	r0, r1, r1, lsl #2
 a24:	00010000 	andeq	r0, r1, r0
 a28:	72730100 	rsbsvc	r0, r3, #0, 2
 a2c:	696c0063 	stmdbvs	ip!, {r0, r1, r5, r6}^
 a30:	6e692f62 	cdpvs	15, 6, cr2, cr9, cr2, {3}
 a34:	64756c63 	ldrbtvs	r6, [r5], #-3171	; 0xfffff39d
 a38:	752f0065 	strvc	r0, [pc, #-101]!	; 9db <__Stack_Size+0x5db>
 a3c:	6c2f7273 	sfmvs	f7, 4, [pc], #-460	; 878 <__Stack_Size+0x478>
 a40:	672f6269 	strvs	r6, [pc, -r9, ror #4]!
 a44:	612f6363 			; <UNDEFINED> instruction: 0x612f6363
 a48:	6e2d6d72 	mcrvs	13, 1, r6, cr13, cr2, {3}
 a4c:	2d656e6f 	stclcs	14, cr6, [r5, #-444]!	; 0xfffffe44
 a50:	69626165 	stmdbvs	r2!, {r0, r2, r5, r6, r8, sp, lr}^
 a54:	332e382f 			; <UNDEFINED> instruction: 0x332e382f
 a58:	692f312e 	stmdbvs	pc!, {r1, r2, r3, r5, r8, ip, sp}	; <UNPREDICTABLE>
 a5c:	756c636e 	strbvc	r6, [ip, #-878]!	; 0xfffffc92
 a60:	2f006564 	svccs	0x00006564
 a64:	2f727375 	svccs	0x00727375
 a68:	6c636e69 	stclvs	14, cr6, [r3], #-420	; 0xfffffe5c
 a6c:	2f656475 	svccs	0x00656475
 a70:	6c77656e 	cfldr64vs	mvdx6, [r7], #-440	; 0xfffffe48
 a74:	732f6269 			; <UNDEFINED> instruction: 0x732f6269
 a78:	00007379 	andeq	r7, r0, r9, ror r3
 a7c:	5f627375 	svcpl	0x00627375
 a80:	73616c63 	cmnvc	r1, #25344	; 0x6300
 a84:	75615f73 	strbvc	r5, [r1, #-3955]!	; 0xfffff08d
 a88:	2e6f6964 	vnmulcs.f16	s13, s30, s9	; <UNPREDICTABLE>
 a8c:	00010063 	andeq	r0, r1, r3, rrx
 a90:	62737500 	rsbsvs	r7, r3, #0, 10
 a94:	62696c5f 	rsbvs	r6, r9, #24320	; 0x5f00
 a98:	0100682e 	tsteq	r0, lr, lsr #16
 a9c:	6f630000 	svcvs	0x00630000
 aa0:	635f6572 	cmpvs	pc, #478150656	; 0x1c800000
 aa4:	682e336d 	stmdavs	lr!, {r0, r2, r3, r5, r6, r8, r9, ip, sp}
 aa8:	00000200 	andeq	r0, r0, r0, lsl #4
 aac:	69647473 	stmdbvs	r4!, {r0, r1, r4, r5, r6, sl, ip, sp, lr}^
 ab0:	682e746e 	stmdavs	lr!, {r1, r2, r3, r5, r6, sl, ip, sp, lr}
 ab4:	00000300 	andeq	r0, r0, r0, lsl #6
 ab8:	336d7473 	cmncc	sp, #1929379840	; 0x73000000
 abc:	30316632 	eorscc	r6, r1, r2, lsr r6
 ac0:	2e627833 	mcrcs	8, 3, r7, cr2, cr3, {1}
 ac4:	00020068 	andeq	r0, r2, r8, rrx
 ac8:	73797300 	cmnvc	r9, #0, 6
 acc:	5f6d6574 	svcpl	0x006d6574
 ad0:	336d7473 	cmncc	sp, #1929379840	; 0x73000000
 ad4:	78316632 	ldmdavc	r1!, {r1, r4, r5, r9, sl, sp, lr}
 ad8:	00682e78 	rsbeq	r2, r8, r8, ror lr
 adc:	73000002 	movwvc	r0, #2
 ae0:	65646474 	strbvs	r6, [r4, #-1140]!	; 0xfffffb8c
 ae4:	00682e66 	rsbeq	r2, r8, r6, ror #28
 ae8:	5f000003 	svcpl	0x00000003
 aec:	65707974 	ldrbvs	r7, [r0, #-2420]!	; 0xfffff68c
 af0:	00682e73 	rsbeq	r2, r8, r3, ror lr
 af4:	72000004 	andvc	r0, r0, #4
 af8:	746e6565 	strbtvc	r6, [lr], #-1381	; 0xfffffa9b
 afc:	0400682e 	streq	r6, [r0], #-2094	; 0xfffff7d2
 b00:	6f6c0000 	svcvs	0x006c0000
 b04:	682e6b63 	stmdavs	lr!, {r0, r1, r5, r6, r8, r9, fp, sp, lr}
 b08:	00000400 	andeq	r0, r0, r0, lsl #8
 b0c:	6975623c 	ldmdbvs	r5!, {r2, r3, r4, r5, r9, sp, lr}^
 b10:	692d746c 	pushvs	{r2, r3, r5, r6, sl, ip, sp, lr}
 b14:	00003e6e 	andeq	r3, r0, lr, ror #28
 b18:	05000000 	streq	r0, [r0, #-0]
 b1c:	02050026 	andeq	r0, r5, #38	; 0x26
 b20:	080007d8 	stmdaeq	r0, {r3, r4, r6, r7, r8, r9, sl}
 b24:	0102e003 	tsteq	r2, r3
 b28:	13130305 	tstne	r3, #335544320	; 0x14000000
 b2c:	06260513 			; <UNDEFINED> instruction: 0x06260513
 b30:	0502040f 	streq	r0, [r2, #-1039]	; 0xfffffbf1
 b34:	7ed70313 	mrcvc	3, 6, r0, cr7, cr3, {0}
 b38:	05010420 	streq	r0, [r1, #-1056]	; 0xfffffbe0
 b3c:	01a90326 			; <UNDEFINED> instruction: 0x01a90326
 b40:	05020420 	streq	r0, [r2, #-1056]	; 0xfffffbe0
 b44:	d6030613 			; <UNDEFINED> instruction: 0xd6030613
 b48:	0305207e 	movweq	r2, #20606	; 0x507e
 b4c:	06130513 			; <UNDEFINED> instruction: 0x06130513
 b50:	06030501 	streq	r0, [r3], -r1, lsl #10
 b54:	060a0521 	streq	r0, [sl], -r1, lsr #10
 b58:	1f110501 	svcne	0x00110501
 b5c:	2f0a052e 	svccs	0x000a052e
 b60:	0501043c 	streq	r0, [r1, #-1084]	; 0xfffffbc4
 b64:	ac030603 	stcge	6, cr0, [r3], {3}
 b68:	13060101 	movwne	r0, #24833	; 0x6101
 b6c:	053e0705 	ldreq	r0, [lr, #-1797]!	; 0xfffff8fb
 b70:	17052c03 	strne	r2, [r5, -r3, lsl #24]
 b74:	1f0b0522 	svcne	0x000b0522
 b78:	2e1e0705 	cdpcs	7, 1, cr0, cr14, cr5, {0}
 b7c:	21060305 	tstcs	r6, r5, lsl #6
 b80:	07051301 	streq	r1, [r5, -r1, lsl #6]
 b84:	00030501 	andeq	r0, r3, r1, lsl #10
 b88:	06010402 	streq	r0, [r1], -r2, lsl #8
 b8c:	31010501 	tstcc	r1, r1, lsl #10
 b90:	2c060505 	cfstr32cs	mvfx0, [r6], {5}
 b94:	01060705 	tsteq	r6, r5, lsl #14
 b98:	052d1805 	streq	r1, [sp, #-2053]!	; 0xfffff7fb
 b9c:	17052107 	strne	r2, [r5, -r7, lsl #2]
 ba0:	06012006 	streq	r2, [r1], -r6
 ba4:	06500501 	ldrbeq	r0, [r0], -r1, lsl #10
 ba8:	747fb703 	ldrbtvc	fp, [pc], #-1795	; bb0 <__Stack_Size+0x7b0>
 bac:	05130305 	ldreq	r0, [r3, #-773]	; 0xfffffcfb
 bb0:	05140807 	ldreq	r0, [r4, #-2055]	; 0xfffff7f9
 bb4:	0501060d 	streq	r0, [r1, #-1549]	; 0xfffff9f3
 bb8:	052f0607 	streq	r0, [pc, #-1543]!	; 5b9 <__Stack_Size+0x1b9>
 bbc:	0501060d 	streq	r0, [r1, #-1549]	; 0xfffff9f3
 bc0:	201b0320 	andscs	r0, fp, r0, lsr #6
 bc4:	21060705 	tstcs	r6, r5, lsl #14
 bc8:	16060105 	strne	r0, [r6], -r5, lsl #2
 bcc:	03060705 	movweq	r0, #26373	; 0x6705
 bd0:	0d052063 	stceq	0, cr2, [r5, #-396]	; 0xfffffe74
 bd4:	07050106 	streq	r0, [r5, -r6, lsl #2]
 bd8:	0d052f06 	stceq	15, cr2, [r5, #-24]	; 0xffffffe8
 bdc:	07050106 	streq	r0, [r5, -r6, lsl #2]
 be0:	0d053106 	stfeqs	f3, [r5, #-24]	; 0xffffffe8
 be4:	07050106 	streq	r0, [r5, -r6, lsl #2]
 be8:	0d052f06 	stceq	15, cr2, [r5, #-24]	; 0xffffffe8
 bec:	07050106 	streq	r0, [r5, -r6, lsl #2]
 bf0:	20063106 	andcs	r3, r6, r6, lsl #2
 bf4:	68060b05 	stmdavs	r6, {r0, r2, r8, r9, fp}
 bf8:	01061105 	tsteq	r6, r5, lsl #2
 bfc:	05200903 	streq	r0, [r0, #-2307]!	; 0xfffff6fd
 c00:	0521060b 	streq	r0, [r1, #-1547]!	; 0xfffff9f5
 c04:	20051607 	andcs	r1, r5, r7, lsl #12
 c08:	0b050106 	bleq	141028 <__Stack_Size+0x140c28>
 c0c:	3c750306 	ldclcc	3, cr0, [r5], #-24	; 0xffffffe8
 c10:	01061105 	tsteq	r6, r5, lsl #2
 c14:	31060b05 	tstcc	r6, r5, lsl #22
 c18:	01061105 	tsteq	r6, r5, lsl #2
 c1c:	31060b05 	tstcc	r6, r5, lsl #22
 c20:	01061105 	tsteq	r6, r5, lsl #2
 c24:	00064705 	andeq	r4, r6, r5, lsl #14
 c28:	08a00205 	stmiaeq	r0!, {r0, r2, r9}
 c2c:	0e030800 	cdpeq	8, 0, cr0, cr3, cr0, {0}
 c30:	14030501 	strne	r0, [r3], #-1281	; 0xfffffaff
 c34:	13060105 	movwne	r0, #24837	; 0x6105
 c38:	064e0520 	strbeq	r0, [lr], -r0, lsr #10
 c3c:	13030521 	movwne	r0, #13601	; 0x3521
 c40:	11064e05 	tstne	r6, r5, lsl #28
 c44:	05210905 	streq	r0, [r1, #-2309]!	; 0xfffff6fb
 c48:	2f062005 	svccs	0x00062005
 c4c:	01060705 	tsteq	r6, r5, lsl #14
 c50:	1e053d06 	cdpne	13, 0, cr3, cr5, cr6, {0}
 c54:	14050106 	strne	r0, [r5], #-262	; 0xfffffefa
 c58:	201e0520 	andscs	r0, lr, r0, lsr #10
 c5c:	06070520 	streq	r0, [r7], -r0, lsr #10
 c60:	05020421 	streq	r0, [r2, #-1057]	; 0xfffffbdf
 c64:	7edc0314 	mrcvc	3, 6, r0, cr12, cr4, {0}
 c68:	13030501 	movwne	r0, #13569	; 0x3501
 c6c:	042e3c06 	strteq	r3, [lr], #-3078	; 0xfffff3fa
 c70:	06070501 	streq	r0, [r7], -r1, lsl #10
 c74:	0101a403 	tsteq	r1, r3, lsl #8
 c78:	16060105 	strne	r0, [r6], -r5, lsl #2
 c7c:	052d0a05 	streq	r0, [sp, #-2565]!	; 0xfffff5fb
 c80:	05000618 	streq	r0, [r0, #-1560]	; 0xfffff9e8
 c84:	0008d002 	andeq	sp, r8, r2
 c88:	03051508 	movweq	r1, #21768	; 0x5508
 c8c:	06180513 			; <UNDEFINED> instruction: 0x06180513
 c90:	4b110511 	blmi	4420dc <__Stack_Size+0x441cdc>
 c94:	0603054a 	streq	r0, [r3], -sl, asr #10
 c98:	06010531 			; <UNDEFINED> instruction: 0x06010531
 c9c:	06250513 			; <UNDEFINED> instruction: 0x06250513
 ca0:	05821203 	streq	r1, [r2, #515]	; 0x203
 ca4:	05131303 	ldreq	r1, [r3, #-771]	; 0xfffffcfd
 ca8:	05100625 	ldreq	r0, [r0, #-1573]	; 0xfffff9db
 cac:	2e090303 	cdpcs	3, 0, cr0, cr9, cr3, {0}
 cb0:	79030b05 	stmdbvc	r3, {r0, r2, r8, r9, fp}
 cb4:	27030520 	strcs	r0, [r3, -r0, lsr #10]
 cb8:	79030b05 	stmdbvc	r3, {r0, r2, r8, r9, fp}
 cbc:	06030520 	streq	r0, [r3], -r0, lsr #10
 cc0:	060c0522 	streq	r0, [ip], -r2, lsr #10
 cc4:	26300501 	ldrtcs	r0, [r0], -r1, lsl #10
 cc8:	7a030505 	bvc	c20e4 <__Stack_Size+0xc1ce4>
 ccc:	4236052e 	eorsmi	r0, r6, #192937984	; 0xb800000
 cd0:	76032505 	strvc	r2, [r3], -r5, lsl #10
 cd4:	0603053c 			; <UNDEFINED> instruction: 0x0603053c
 cd8:	07051336 	smladxeq	r5, r6, r3, r1
 cdc:	00030501 	andeq	r0, r3, r1, lsl #10
 ce0:	06010402 	streq	r0, [r1], -r2, lsl #8
 ce4:	045d0601 	ldrbeq	r0, [sp], #-1537	; 0xfffff9ff
 ce8:	06130502 	ldreq	r0, [r3], -r2, lsl #10
 cec:	017eb403 	cmneq	lr, r3, lsl #8
 cf0:	03050104 	movweq	r0, #20740	; 0x5104
 cf4:	2001cc03 	andcs	ip, r1, r3, lsl #24
 cf8:	14050204 	strne	r0, [r5], #-516	; 0xfffffdfc
 cfc:	7eb30306 	cdpvc	3, 11, cr0, cr3, cr6, {0}
 d00:	13030520 	movwne	r0, #13600	; 0x3520
 d04:	01061305 	tsteq	r6, r5, lsl #6
 d08:	21060305 	tstcs	r6, r5, lsl #6
 d0c:	1f061105 	svcne	0x00061105
 d10:	2f03052e 	svccs	0x0003052e
 d14:	0601044a 	streq	r0, [r1], -sl, asr #8
 d18:	0101cd03 	tsteq	r1, r3, lsl #26
 d1c:	01060905 	tsteq	r6, r5, lsl #18
 d20:	054b0105 	strbeq	r0, [fp, #-261]	; 0xfffffefb
 d24:	79030605 	stmdbvc	r3, {r0, r2, r9, sl}
 d28:	0630053c 			; <UNDEFINED> instruction: 0x0630053c
 d2c:	2e360501 	cdpcs	5, 3, cr0, cr6, cr1, {0}
 d30:	052e0e05 	streq	r0, [lr, #-3589]!	; 0xfffff1fb
 d34:	07053d08 	streq	r3, [r5, -r8, lsl #26]
 d38:	2e1c0521 	cfmul64cs	mvdx0, mvdx12, mvdx1
 d3c:	05480c05 	strbeq	r0, [r8, #-3077]	; 0xfffff3fb
 d40:	132f0605 			; <UNDEFINED> instruction: 0x132f0605
 d44:	06011805 	streq	r1, [r1], -r5, lsl #16
 d48:	2b030501 	blcs	c2154 <__Stack_Size+0xc1d54>
 d4c:	03061705 	movweq	r1, #26373	; 0x6705
 d50:	0305740a 	movweq	r7, #21514	; 0x540a
 d54:	060c0513 			; <UNDEFINED> instruction: 0x060c0513
 d58:	06030501 	streq	r0, [r3], -r1, lsl #10
 d5c:	0609054c 	streq	r0, [r9], -ip, asr #10
 d60:	06030501 	streq	r0, [r3], -r1, lsl #10
 d64:	060c0559 			; <UNDEFINED> instruction: 0x060c0559
 d68:	20050501 	andcs	r0, r5, r1, lsl #10
 d6c:	3d013d06 	stccc	13, cr3, [r1, #-24]	; 0xffffffe8
 d70:	01060b05 	tsteq	r6, r5, lsl #22
 d74:	05300105 	ldreq	r0, [r0, #-261]!	; 0xfffffefb
 d78:	05840616 	streq	r0, [r4, #1558]	; 0x616
 d7c:	16051303 	strne	r1, [r5], -r3, lsl #6
 d80:	03051f06 	movweq	r1, #24326	; 0x5f06
 d84:	69590621 	ldmdbvs	r9, {r0, r5, r9, sl}^
 d88:	01061005 	tsteq	r6, r5
 d8c:	27050304 	strcs	r0, [r5, -r4, lsl #6]
 d90:	2008d103 	andcs	sp, r8, r3, lsl #2
 d94:	10050104 	andne	r0, r5, r4, lsl #2
 d98:	2e77af03 	cdpcs	15, 7, cr10, cr7, cr3, {0}
 d9c:	27050304 	strcs	r0, [r5, -r4, lsl #6]
 da0:	2008d103 	andcs	sp, r8, r3, lsl #2
 da4:	10050104 	andne	r0, r5, r4, lsl #2
 da8:	2077af03 	rsbscs	sl, r7, r3, lsl #30
 dac:	3d060305 	stccc	3, cr0, [r6, #-20]	; 0xffffffec
 db0:	01060d05 	tsteq	r6, r5, lsl #26
 db4:	3d060305 	stccc	3, cr0, [r6, #-20]	; 0xffffffec
 db8:	01060d05 	tsteq	r6, r5, lsl #26
 dbc:	3d060305 	stccc	3, cr0, [r6, #-20]	; 0xffffffec
 dc0:	01060d05 	tsteq	r6, r5, lsl #26
 dc4:	4b060305 	blmi	1819e0 <__Stack_Size+0x1815e0>
 dc8:	01060e05 	tsteq	r6, r5, lsl #28
 dcc:	2f060305 	svccs	0x00060305
 dd0:	16050304 	strne	r0, [r5], -r4, lsl #6
 dd4:	0108ca03 	tsteq	r8, r3, lsl #20
 dd8:	05140305 	ldreq	r0, [r4, #-773]	; 0xfffffcfb
 ddc:	20010627 	andcs	r0, r1, r7, lsr #12
 de0:	03050104 	movweq	r0, #20740	; 0x5104
 de4:	77b50306 	ldrvc	r0, [r5, r6, lsl #6]!
 de8:	060d0501 	streq	r0, [sp], -r1, lsl #10
 dec:	21010501 	tstcs	r1, r1, lsl #10
 df0:	ae061605 	cfmadd32ge	mvax0, mvfx1, mvfx6, mvfx5
 df4:	02140105 	andseq	r0, r4, #1073741825	; 0x40000001
 df8:	01010001 	tsteq	r1, r1
 dfc:	000000bd 	strheq	r0, [r0], -sp
 e00:	00590003 	subseq	r0, r9, r3
 e04:	01020000 	mrseq	r0, (UNDEF: 2)
 e08:	000d0efb 	strdeq	r0, [sp], -fp
 e0c:	01010101 	tsteq	r1, r1, lsl #2
 e10:	01000000 	mrseq	r0, (UNDEF: 0)
 e14:	2e010000 	cdpcs	0, 0, cr0, cr1, cr0, {0}
 e18:	2e2e2f2e 	cdpcs	15, 2, cr2, cr14, cr14, {1}
 e1c:	2f2e2e2f 	svccs	0x002e2e2f
 e20:	2e2f2e2e 	cdpcs	14, 2, cr2, cr15, cr14, {1}
 e24:	2e2e2f2e 	cdpcs	15, 2, cr2, cr14, cr14, {1}
 e28:	2f2e2e2f 	svccs	0x002e2e2f
 e2c:	2e2f2e2e 	cdpcs	14, 2, cr2, cr15, cr14, {1}
 e30:	656e2f2e 	strbvs	r2, [lr, #-3886]!	; 0xfffff0d2
 e34:	62696c77 	rsbvs	r6, r9, #30464	; 0x7700
 e38:	62696c2f 	rsbvs	r6, r9, #12032	; 0x2f00
 e3c:	616d2f63 	cmnvs	sp, r3, ror #30
 e40:	6e696863 	cdpvs	8, 6, cr6, cr9, cr3, {3}
 e44:	72612f65 	rsbvc	r2, r1, #404	; 0x194
 e48:	6d00006d 	stcvs	0, cr0, [r0, #-436]	; 0xfffffe4c
 e4c:	70636d65 	rsbvc	r6, r3, r5, ror #26
 e50:	72612d79 	rsbvc	r2, r1, #7744	; 0x1e40
 e54:	6d37766d 	ldcvs	6, cr7, [r7, #-436]!	; 0xfffffe4c
 e58:	0100532e 	tsteq	r0, lr, lsr #6
 e5c:	00000000 	andeq	r0, r0, r0
 e60:	0a0c0205 	beq	30167c <__Stack_Size+0x30127c>
 e64:	df030800 	svcle	0x00030800
 e68:	2f240100 	svccs	0x00240100
 e6c:	0321232f 			; <UNDEFINED> instruction: 0x0321232f
 e70:	e508200d 	str	r2, [r8, #-13]
 e74:	23212221 			; <UNDEFINED> instruction: 0x23212221
 e78:	200d0321 	andcs	r0, sp, r1, lsr #6
 e7c:	21222183 	smlawbcs	r2, r3, r1, r2
 e80:	2f252123 	svccs	0x00252123
 e84:	2123212f 			; <UNDEFINED> instruction: 0x2123212f
 e88:	2f212122 	svccs	0x00212122
 e8c:	03212230 			; <UNDEFINED> instruction: 0x03212230
 e90:	0324200a 			; <UNDEFINED> instruction: 0x0324200a
 e94:	23212e0c 			; <UNDEFINED> instruction: 0x23212e0c
 e98:	200f0321 	andcs	r0, pc, r1, lsr #6
 e9c:	222f222f 	eorcs	r2, pc, #-268435454	; 0xf0000002
 ea0:	302f2121 	eorcc	r2, pc, r1, lsr #2
 ea4:	032f2f23 			; <UNDEFINED> instruction: 0x032f2f23
 ea8:	212000c8 	smlawtcs	r0, r8, r0, r0
 eac:	2f2f2123 	svccs	0x002f2123
 eb0:	21212122 			; <UNDEFINED> instruction: 0x21212122
 eb4:	24232121 	strtcs	r2, [r3], #-289	; 0xfffffedf
 eb8:	01000102 	tsteq	r0, r2, lsl #2
 ebc:	Address 0x0000000000000ebc is out of bounds.


Disassembly of section .debug_frame:

00000000 <.debug_frame>:
   0:	0000000c 	andeq	r0, r0, ip
   4:	ffffffff 			; <UNDEFINED> instruction: 0xffffffff
   8:	7c020001 	stcvc	0, cr0, [r2], {1}
   c:	000d0c0e 	andeq	r0, sp, lr, lsl #24
  10:	0000000c 	andeq	r0, r0, ip
  14:	00000000 	andeq	r0, r0, r0
  18:	08000120 	stmdaeq	r0, {r5, r8}
  1c:	000000ac 	andeq	r0, r0, ip, lsr #1
  20:	0000000c 	andeq	r0, r0, ip
  24:	00000000 	andeq	r0, r0, r0
  28:	080001cc 	stmdaeq	r0, {r2, r3, r6, r7, r8}
  2c:	00000002 	andeq	r0, r0, r2
  30:	0000000c 	andeq	r0, r0, ip
  34:	00000000 	andeq	r0, r0, r0
  38:	080001ce 	stmdaeq	r0, {r1, r2, r3, r6, r7, r8}
  3c:	00000002 	andeq	r0, r0, r2
  40:	0000000c 	andeq	r0, r0, ip
  44:	00000000 	andeq	r0, r0, r0
  48:	080001d0 	stmdaeq	r0, {r4, r6, r7, r8}
  4c:	0000000c 	andeq	r0, r0, ip
  50:	00000018 	andeq	r0, r0, r8, lsl r0
  54:	00000000 	andeq	r0, r0, r0
  58:	08000b40 	stmdaeq	r0, {r6, r8, r9, fp}
  5c:	0000007c 	andeq	r0, r0, ip, ror r0
  60:	83100e41 	tsthi	r0, #1040	; 0x410
  64:	85038404 	strhi	r8, [r3, #-1028]	; 0xfffffbfc
  68:	00018e02 	andeq	r8, r1, r2, lsl #28
  6c:	0000000c 	andeq	r0, r0, ip
  70:	ffffffff 			; <UNDEFINED> instruction: 0xffffffff
  74:	7c020001 	stcvc	0, cr0, [r2], {1}
  78:	000d0c0e 	andeq	r0, sp, lr, lsl #24
  7c:	0000000c 	andeq	r0, r0, ip
  80:	0000006c 	andeq	r0, r0, ip, rrx
  84:	080001dc 	stmdaeq	r0, {r2, r3, r4, r6, r7, r8}
  88:	00000002 	andeq	r0, r0, r2
  8c:	0000000c 	andeq	r0, r0, ip
  90:	0000006c 	andeq	r0, r0, ip, rrx
  94:	080001de 	stmdaeq	r0, {r1, r2, r3, r4, r6, r7, r8}
  98:	00000002 	andeq	r0, r0, r2
  9c:	0000000c 	andeq	r0, r0, ip
  a0:	0000006c 	andeq	r0, r0, ip, rrx
  a4:	080001e0 	stmdaeq	r0, {r5, r6, r7, r8}
  a8:	00000002 	andeq	r0, r0, r2
  ac:	0000000c 	andeq	r0, r0, ip
  b0:	0000006c 	andeq	r0, r0, ip, rrx
  b4:	080001e2 	stmdaeq	r0, {r1, r5, r6, r7, r8}
  b8:	00000004 	andeq	r0, r0, r4
  bc:	0000000c 	andeq	r0, r0, ip
  c0:	0000006c 	andeq	r0, r0, ip, rrx
  c4:	080001e6 	stmdaeq	r0, {r1, r2, r5, r6, r7, r8}
  c8:	00000004 	andeq	r0, r0, r4
  cc:	0000000c 	andeq	r0, r0, ip
  d0:	0000006c 	andeq	r0, r0, ip, rrx
  d4:	080001ea 	stmdaeq	r0, {r1, r3, r5, r6, r7, r8}
  d8:	0000006a 	andeq	r0, r0, sl, rrx
  dc:	0000001c 	andeq	r0, r0, ip, lsl r0
  e0:	0000006c 	andeq	r0, r0, ip, rrx
  e4:	08000254 	stmdaeq	r0, {r2, r4, r6, r9}
  e8:	000000ec 	andeq	r0, r0, ip, ror #1
  ec:	84140e41 	ldrhi	r0, [r4], #-3649	; 0xfffff1bf
  f0:	86048505 	strhi	r8, [r4], -r5, lsl #10
  f4:	8e028703 	cdphi	7, 0, cr8, cr2, cr3, {0}
  f8:	00000001 	andeq	r0, r0, r1
  fc:	0000001c 	andeq	r0, r0, ip, lsl r0
 100:	0000006c 	andeq	r0, r0, ip, rrx
 104:	08000340 	stmdaeq	r0, {r6, r8, r9}
 108:	0000014c 	andeq	r0, r0, ip, asr #2
 10c:	84140e41 	ldrhi	r0, [r4], #-3649	; 0xfffff1bf
 110:	86048505 	strhi	r8, [r4], -r5, lsl #10
 114:	8e028703 	cdphi	7, 0, cr8, cr2, cr3, {0}
 118:	00000001 	andeq	r0, r0, r1
 11c:	00000018 	andeq	r0, r0, r8, lsl r0
 120:	0000006c 	andeq	r0, r0, ip, rrx
 124:	0800048c 	stmdaeq	r0, {r2, r3, r7, sl}
 128:	00000128 	andeq	r0, r0, r8, lsr #2
 12c:	83100e41 	tsthi	r0, #1040	; 0x410
 130:	85038404 	strhi	r8, [r3, #-1028]	; 0xfffffbfc
 134:	00018e02 	andeq	r8, r1, r2, lsl #28
 138:	0000001c 	andeq	r0, r0, ip, lsl r0
 13c:	0000006c 	andeq	r0, r0, ip, rrx
 140:	080005b4 	stmdaeq	r0, {r2, r4, r5, r7, r8, sl}
 144:	00000054 	andeq	r0, r0, r4, asr r0
 148:	84140e41 	ldrhi	r0, [r4], #-3649	; 0xfffff1bf
 14c:	86048505 	strhi	r8, [r4], -r5, lsl #10
 150:	8e028703 	cdphi	7, 0, cr8, cr2, cr3, {0}
 154:	00000001 	andeq	r0, r0, r1
 158:	0000001c 	andeq	r0, r0, ip, lsl r0
 15c:	0000006c 	andeq	r0, r0, ip, rrx
 160:	08000608 	stmdaeq	r0, {r3, r9, sl}
 164:	0000005c 	andeq	r0, r0, ip, asr r0
 168:	83180e41 	tsthi	r8, #1040	; 0x410
 16c:	85058406 	strhi	r8, [r5, #-1030]	; 0xfffffbfa
 170:	87038604 	strhi	r8, [r3, -r4, lsl #12]
 174:	00018e02 	andeq	r8, r1, r2, lsl #28
 178:	00000018 	andeq	r0, r0, r8, lsl r0
 17c:	0000006c 	andeq	r0, r0, ip, rrx
 180:	08000664 	stmdaeq	r0, {r2, r5, r6, r9, sl}
 184:	0000005a 	andeq	r0, r0, sl, asr r0
 188:	840c0e41 	strhi	r0, [ip], #-3649	; 0xfffff1bf
 18c:	8e028503 	cfsh32hi	mvfx8, mvfx2, #3
 190:	00000001 	andeq	r0, r0, r1
 194:	00000020 	andeq	r0, r0, r0, lsr #32
 198:	0000006c 	andeq	r0, r0, ip, rrx
 19c:	080006be 	stmdaeq	r0, {r1, r2, r3, r4, r5, r7, r9, sl}
 1a0:	0000011a 	andeq	r0, r0, sl, lsl r1
 1a4:	84180e41 	ldrhi	r0, [r8], #-3649	; 0xfffff1bf
 1a8:	86038504 	strhi	r8, [r3], -r4, lsl #10
 1ac:	02018e02 	andeq	r8, r1, #2, 28
 1b0:	100e0a46 	andne	r0, lr, r6, asr #20
 1b4:	00000b41 	andeq	r0, r0, r1, asr #22
 1b8:	0000000c 	andeq	r0, r0, ip
 1bc:	ffffffff 			; <UNDEFINED> instruction: 0xffffffff
 1c0:	7c020001 	stcvc	0, cr0, [r2], {1}
 1c4:	000d0c0e 	andeq	r0, sp, lr, lsl #24
 1c8:	00000020 	andeq	r0, r0, r0, lsr #32
 1cc:	000001b8 			; <UNDEFINED> instruction: 0x000001b8
 1d0:	080007d8 	stmdaeq	r0, {r3, r4, r6, r7, r8, r9, sl}
 1d4:	0000004c 	andeq	r0, r0, ip, asr #32
 1d8:	840c0e41 	strhi	r0, [ip], #-3649	; 0xfffff1bf
 1dc:	8e028503 	cfsh32hi	mvfx8, mvfx2, #3
 1e0:	500e4201 	andpl	r4, lr, r1, lsl #4
 1e4:	0c0e0a57 			; <UNDEFINED> instruction: 0x0c0e0a57
 1e8:	00000b41 	andeq	r0, r0, r1, asr #22
 1ec:	0000000c 	andeq	r0, r0, ip
 1f0:	000001b8 			; <UNDEFINED> instruction: 0x000001b8
 1f4:	08000824 	stmdaeq	r0, {r2, r5, fp}
 1f8:	0000007c 	andeq	r0, r0, ip, ror r0
 1fc:	0000000c 	andeq	r0, r0, ip
 200:	000001b8 			; <UNDEFINED> instruction: 0x000001b8
 204:	080008a0 	stmdaeq	r0, {r5, r7, fp}
 208:	00000004 	andeq	r0, r0, r4
 20c:	00000014 	andeq	r0, r0, r4, lsl r0
 210:	000001b8 			; <UNDEFINED> instruction: 0x000001b8
 214:	080008a4 	stmdaeq	r0, {r2, r5, r7, fp}
 218:	0000002c 	andeq	r0, r0, ip, lsr #32
 21c:	84080e41 	strhi	r0, [r8], #-3649	; 0xfffff1bf
 220:	00018e02 	andeq	r8, r1, r2, lsl #28
 224:	0000001c 	andeq	r0, r0, ip, lsl r0
 228:	000001b8 			; <UNDEFINED> instruction: 0x000001b8
 22c:	080008d0 	stmdaeq	r0, {r4, r6, r7, fp}
 230:	00000024 	andeq	r0, r0, r4, lsr #32
 234:	84080e41 	strhi	r0, [r8], #-3649	; 0xfffff1bf
 238:	43018e02 	movwmi	r8, #7682	; 0x1e02
 23c:	4a04880e 	bmi	12227c <__Stack_Size+0x121e7c>
 240:	0000080e 	andeq	r0, r0, lr, lsl #16
 244:	00000028 	andeq	r0, r0, r8, lsr #32
 248:	000001b8 			; <UNDEFINED> instruction: 0x000001b8
 24c:	080008f4 	stmdaeq	r0, {r2, r4, r5, r6, r7, fp}
 250:	00000084 	andeq	r0, r0, r4, lsl #1
 254:	841c0e42 	ldrhi	r0, [ip], #-3650	; 0xfffff1be
 258:	86068507 	strhi	r8, [r6], -r7, lsl #10
 25c:	88048705 	stmdahi	r4, {r0, r2, r8, r9, sl, pc}
 260:	8e028903 	vmlahi.f16	s16, s4, s6	; <UNPREDICTABLE>
 264:	a00e4e01 	andge	r4, lr, r1, lsl #28
 268:	0e0a5701 	cdpeq	7, 0, cr5, cr10, cr1, {0}
 26c:	000b421c 	andeq	r4, fp, ip, lsl r2
 270:	0000000c 	andeq	r0, r0, ip
 274:	000001b8 			; <UNDEFINED> instruction: 0x000001b8
 278:	08000978 	stmdaeq	r0, {r3, r4, r5, r6, r8, fp}
 27c:	00000034 	andeq	r0, r0, r4, lsr r0
 280:	00000014 	andeq	r0, r0, r4, lsl r0
 284:	000001b8 			; <UNDEFINED> instruction: 0x000001b8
 288:	080009ac 	stmdaeq	r0, {r2, r3, r5, r7, r8, fp}
 28c:	0000005c 	andeq	r0, r0, ip, asr r0
 290:	83080e42 	movwhi	r0, #36418	; 0x8e42
 294:	00018e02 	andeq	r8, r1, r2, lsl #28
 298:	0000000c 	andeq	r0, r0, ip
 29c:	000001b8 			; <UNDEFINED> instruction: 0x000001b8
 2a0:	08000a08 	stmdaeq	r0, {r3, r9, fp}
 2a4:	00000002 	andeq	r0, r0, r2

Disassembly of section .debug_str:

00000000 <.debug_str>:
   0:	32425041 	subcc	r5, r2, #65	; 0x41
   4:	00524e45 	subseq	r4, r2, r5, asr #28
   8:	52434442 	subpl	r4, r3, #1107296256	; 0x42000000
   c:	47464300 	strbmi	r4, [r6, -r0, lsl #6]
  10:	4e470052 	mcrmi	0, 2, r0, cr7, cr2, {2}
  14:	31432055 	qdaddcc	r2, r5, r3
  18:	2e382037 	mrccs	0, 1, r2, cr8, cr7, {1}
  1c:	20312e33 	eorscs	r2, r1, r3, lsr lr
  20:	39313032 	ldmdbcc	r1!, {r1, r4, r5, ip, sp}
  24:	33303730 	teqcc	r0, #48, 14	; 0xc00000
  28:	65722820 	ldrbvs	r2, [r2, #-2080]!	; 0xfffff7e0
  2c:	7361656c 	cmnvc	r1, #108, 10	; 0x1b000000
  30:	5b202965 	blpl	80a5cc <__Stack_Size+0x80a1cc>
  34:	2d636367 	stclcs	3, cr6, [r3, #-412]!	; 0xfffffe64
  38:	72622d38 	rsbvc	r2, r2, #56, 26	; 0xe00
  3c:	68636e61 	stmdavs	r3!, {r0, r5, r6, r9, sl, fp, sp, lr}^
  40:	76657220 	strbtvc	r7, [r5], -r0, lsr #4
  44:	6f697369 	svcvs	0x00697369
  48:	3732206e 	ldrcc	r2, [r2, -lr, rrx]!
  4c:	37323033 			; <UNDEFINED> instruction: 0x37323033
  50:	6d2d205d 	stcvs	0, cr2, [sp, #-372]!	; 0xfffffe8c
  54:	6d756874 	ldclvs	8, cr6, [r5, #-464]!	; 0xfffffe30
  58:	6d2d2062 	stcvs	0, cr2, [sp, #-392]!	; 0xfffffe78
  5c:	3d757063 	ldclcc	0, cr7, [r5, #-396]!	; 0xfffffe74
  60:	74726f63 	ldrbtvc	r6, [r2], #-3939	; 0xfffff09d
  64:	6d2d7865 	stcvs	8, cr7, [sp, #-404]!	; 0xfffffe6c
  68:	6d2d2033 	stcvs	0, cr2, [sp, #-204]!	; 0xffffff34
  6c:	616f6c66 	cmnvs	pc, r6, ror #24
  70:	62612d74 	rsbvs	r2, r1, #116, 26	; 0x1d00
  74:	6f733d69 	svcvs	0x00733d69
  78:	2d207466 	cfstrscs	mvf7, [r0, #-408]!	; 0xfffffe68
  7c:	6372616d 	cmnvs	r2, #1073741851	; 0x4000001b
  80:	72613d68 	rsbvc	r3, r1, #104, 26	; 0x1a00
  84:	2d37766d 	ldccs	6, cr7, [r7, #-436]!	; 0xfffffe4c
  88:	672d206d 	strvs	r2, [sp, -sp, rrx]!
  8c:	72617764 	rsbvc	r7, r1, #100, 14	; 0x1900000
  90:	20322d66 	eorscs	r2, r2, r6, ror #26
  94:	20734f2d 	rsbscs	r4, r3, sp, lsr #30
  98:	6f6e662d 	svcvs	0x006e662d
  9c:	6975622d 	ldmdbvs	r5!, {r0, r2, r3, r5, r9, sp, lr}^
  a0:	6e69746c 	cdpvs	4, 6, cr7, cr9, cr12, {3}
  a4:	414c4600 	cmpmi	ip, r0, lsl #12
  a8:	545f4853 	ldrbpl	r4, [pc], #-2131	; b0 <_Minimum_Stack_Size-0x50>
  ac:	44657079 	strbtmi	r7, [r5], #-121	; 0xffffff87
  b0:	42006665 	andmi	r6, r0, #105906176	; 0x6500000
  b4:	00525253 	subseq	r5, r2, r3, asr r2
  b8:	45424841 	strbmi	r4, [r2, #-2113]	; 0xfffff7bf
  bc:	5500524e 	strpl	r5, [r0, #-590]	; 0xfffffdb2
  c0:	735f4253 	cmpvc	pc, #805306373	; 0x30000005
  c4:	70757465 	rsbsvc	r7, r5, r5, ror #8
  c8:	50525700 	subspl	r5, r2, r0, lsl #14
  cc:	79530052 	ldmdbvc	r3, {r1, r4, r6}^
  d0:	6f6c4373 	svcvs	0x006c4373
  d4:	614d6b63 	cmpvs	sp, r3, ror #22
  d8:	50470078 	subpl	r0, r7, r8, ror r0
  dc:	545f4f49 	ldrbpl	r4, [pc], #-3913	; e4 <_Minimum_Stack_Size-0x1c>
  e0:	44657079 	strbtmi	r7, [r5], #-121	; 0xffffff87
  e4:	75006665 	strvc	r6, [r0, #-1637]	; 0xfffff99b
  e8:	635f6273 	cmpvs	pc, #805306375	; 0x30000007
  ec:	7373616c 	cmnvc	r3, #108, 2
  f0:	6c6f705f 	stclvs	0, cr7, [pc], #-380	; ffffff7c <BootRAM+0xef7071d>
  f4:	4841006c 	stmdami	r1, {r2, r3, r5, r6}^
  f8:	65725042 	ldrbvs	r5, [r2, #-66]!	; 0xffffffbe
  fc:	61546373 	cmpvs	r4, r3, ror r3
 100:	00656c62 	rsbeq	r6, r5, r2, ror #24
 104:	64656d2f 	strbtvs	r6, [r5], #-3375	; 0xfffff2d1
 108:	652f6169 	strvs	r6, [pc, #-361]!	; ffffffa7 <BootRAM+0xef70748>
 10c:	642f7478 	strtvs	r7, [pc], #-1144	; 114 <_Minimum_Stack_Size+0x14>
 110:	702f7665 	eorvc	r7, pc, r5, ror #12
 114:	2f676f72 	svccs	0x00676f72
 118:	2f6d7261 	svccs	0x006d7261
 11c:	2f627375 	svccs	0x00627375
 120:	75412e34 	strbvc	r2, [r1, #-3636]	; 0xfffff1cc
 124:	5f6f6964 	svcpl	0x006f6964
 128:	73003146 	movwvc	r3, #326	; 0x146
 12c:	74726f68 	ldrbtvc	r6, [r2], #-3944	; 0xfffff098
 130:	736e7520 	cmnvc	lr, #32, 10	; 0x8000000
 134:	656e6769 	strbvs	r6, [lr, #-1897]!	; 0xfffff897
 138:	6e692064 	cdpvs	0, 6, cr2, cr9, cr4, {3}
 13c:	54490074 	strbpl	r0, [r9], #-116	; 0xffffff8c
 140:	78525f4d 	ldmdavc	r2, {r0, r2, r3, r6, r8, r9, sl, fp, ip, lr}^
 144:	66667542 	strbtvs	r7, [r6], -r2, asr #10
 148:	4f007265 	svcmi	0x00007265
 14c:	454b5450 	strbmi	r5, [fp, #-1104]	; 0xfffffbb0
 150:	75005259 	strvc	r5, [r0, #-601]	; 0xfffffda7
 154:	6769736e 	strbvs	r7, [r9, -lr, ror #6]!
 158:	2064656e 	rsbcs	r6, r4, lr, ror #10
 15c:	72616863 	rsbvc	r6, r1, #6488064	; 0x630000
 160:	53455200 	movtpl	r5, #20992	; 0x5200
 164:	45565245 	ldrbmi	r5, [r6, #-581]	; 0xfffffdbb
 168:	50410044 	subpl	r0, r1, r4, asr #32
 16c:	53523142 	cmppl	r2, #-2147483632	; 0x80000010
 170:	6d005254 	sfmvs	f5, 4, [r0, #-336]	; 0xfffffeb0
 174:	006e6961 	rsbeq	r6, lr, r1, ror #18
 178:	31425041 	cmpcc	r2, r1, asr #32
 17c:	00524e45 	subseq	r4, r2, r5, asr #28
 180:	32425041 	subcc	r5, r2, #65	; 0x41
 184:	52545352 	subspl	r5, r4, #1207959553	; 0x48000001
 188:	6d657400 	cfstrdvs	mvd7, [r5, #-0]
 18c:	6f6c0070 	svcvs	0x006c0070
 190:	6c20676e 	stcvs	7, cr6, [r0], #-440	; 0xfffffe48
 194:	20676e6f 	rsbcs	r6, r7, pc, ror #28
 198:	69736e75 	ldmdbvs	r3!, {r0, r2, r4, r5, r6, r9, sl, fp, sp, lr}^
 19c:	64656e67 	strbtvs	r6, [r5], #-3687	; 0xfffff199
 1a0:	746e6920 	strbtvc	r6, [lr], #-2336	; 0xfffff6e0
 1a4:	6e697500 	cdpvs	5, 6, cr7, cr9, cr0, {0}
 1a8:	745f3874 	ldrbvc	r3, [pc], #-2164	; 1b0 <_Minimum_Stack_Size+0xb0>
 1ac:	6d697400 	cfstrdvs	mvd7, [r9, #-0]
 1b0:	79530065 	ldmdbvc	r3, {r0, r2, r5, r6}^
 1b4:	6d657473 	cfstrdvs	mvd7, [r5, #-460]!	; 0xfffffe34
 1b8:	74696e49 	strbtvc	r6, [r9], #-3657	; 0xfffff1b7
 1bc:	6e6f6c00 	cdpvs	12, 6, cr6, cr15, cr0, {0}
 1c0:	6f6c2067 	svcvs	0x006c2067
 1c4:	6920676e 	stmdbvs	r0!, {r1, r2, r3, r5, r6, r8, r9, sl, sp, lr}
 1c8:	5300746e 	movwpl	r7, #1134	; 0x46e
 1cc:	65747379 	ldrbvs	r7, [r4, #-889]!	; 0xfffffc87
 1d0:	726f436d 	rsbvc	r4, pc, #-1275068415	; 0xb4000001
 1d4:	6f6c4365 	svcvs	0x006c4365
 1d8:	73006b63 	movwvc	r6, #2915	; 0xb63
 1dc:	6d2f6372 	stcvs	3, cr6, [pc, #-456]!	; 1c <_Minimum_Stack_Size-0xe4>
 1e0:	2e6e6961 	vnmulcs.f16	s13, s28, s3	; <UNPREDICTABLE>
 1e4:	50410063 	subpl	r0, r1, r3, rrx
 1e8:	65725042 	ldrbvs	r5, [r2, #-66]!	; 0xffffffbe
 1ec:	61546373 	cmpvs	r4, r3, ror r3
 1f0:	00656c62 	rsbeq	r6, r5, r2, ror #24
 1f4:	726f6873 	rsbvc	r6, pc, #7536640	; 0x730000
 1f8:	6e692074 	mcrvs	0, 3, r2, cr9, cr4, {3}
 1fc:	43520074 	cmpmi	r2, #116	; 0x74
 200:	79545f43 	ldmdbvc	r4, {r0, r1, r6, r8, r9, sl, fp, ip, lr}^
 204:	65446570 	strbvs	r6, [r4, #-1392]	; 0xfffffa90
 208:	69750066 	ldmdbvs	r5!, {r1, r2, r5, r6}^
 20c:	3233746e 	eorscc	r7, r3, #1845493760	; 0x6e000000
 210:	5f00745f 	svcpl	0x0000745f
 214:	616e655f 	cmnvs	lr, pc, asr r5
 218:	5f656c62 	svcpl	0x00656c62
 21c:	00717269 	rsbseq	r7, r1, r9, ror #4
 220:	65656c73 	strbvs	r6, [r5, #-3187]!	; 0xfffff38d
 224:	434c0070 	movtmi	r0, #49264	; 0xc070
 228:	5500524b 	strpl	r5, [r0, #-587]	; 0xfffffdb5
 22c:	4c5f4253 	lfmmi	f4, 2, [pc], {83}	; 0x53
 230:	41435f50 	cmpmi	r3, r0, asr pc
 234:	525f314e 	subspl	r3, pc, #-2147483629	; 0x80000013
 238:	495f3058 	ldmdbmi	pc, {r3, r4, r6, ip, sp}^	; <UNPREDICTABLE>
 23c:	006e5152 	rsbeq	r5, lr, r2, asr r1
 240:	646e4977 	strbtvs	r4, [lr], #-2423	; 0xfffff689
 244:	62007865 	andvs	r7, r0, #6619136	; 0x650000
 248:	36316675 			; <UNDEFINED> instruction: 0x36316675
 24c:	4e414300 	cdpmi	3, 4, cr4, cr1, cr0, {0}
 250:	43535f31 	cmpmi	r3, #49, 30	; 0xc4
 254:	52495f45 	subpl	r5, r9, #276	; 0x114
 258:	44006e51 	strmi	r6, [r0], #-3665	; 0xfffff1af
 25c:	5f31414d 	svcpl	0x0031414d
 260:	6e616843 	cdpvs	8, 6, cr6, cr1, cr3, {2}
 264:	376c656e 	strbcc	r6, [ip, -lr, ror #10]!
 268:	5152495f 	cmppl	r2, pc, asr r9
 26c:	3249006e 	subcc	r0, r9, #110	; 0x6e
 270:	455f3243 	ldrbmi	r3, [pc, #-579]	; 35 <_Minimum_Stack_Size-0xcb>
 274:	52495f52 	subpl	r5, r9, #328	; 0x148
 278:	54006e51 	strpl	r6, [r0], #-3665	; 0xfffff1af
 27c:	5f344d49 	svcpl	0x00344d49
 280:	6e515249 	cdpvs	2, 5, cr5, cr1, cr9, {2}
 284:	414d4400 	cmpmi	sp, r0, lsl #8
 288:	68435f31 	stmdavs	r3, {r0, r4, r5, r8, r9, sl, fp, ip, lr}^
 28c:	656e6e61 	strbvs	r6, [lr, #-3681]!	; 0xfffff19f
 290:	495f326c 	ldmdbmi	pc, {r2, r3, r5, r6, r9, ip, sp}^	; <UNPREDICTABLE>
 294:	006e5152 	rsbeq	r5, lr, r2, asr r1
 298:	5f616d70 	svcpl	0x00616d70
 29c:	63736564 	cmnvs	r3, #100, 10	; 0x19000000
 2a0:	00745f72 	rsbseq	r5, r4, r2, ror pc
 2a4:	65526d62 	ldrbvs	r6, [r2, #-3426]	; 0xfffff29e
 2a8:	73657571 	cmnvc	r5, #473956352	; 0x1c400000
 2ac:	70795474 	rsbsvc	r5, r9, r4, ror r4
 2b0:	65730065 	ldrbvs	r0, [r3, #-101]!	; 0xffffff9b
 2b4:	5f707574 	svcpl	0x00707574
 2b8:	6b636170 	blvs	18d8880 <__Stack_Size+0x18d8480>
 2bc:	46007465 	strmi	r7, [r0], -r5, ror #8
 2c0:	4853414c 	ldmdami	r3, {r2, r3, r6, r8, lr}^
 2c4:	5152495f 	cmppl	r2, pc, asr r9
 2c8:	7962006e 	stmdbvc	r2!, {r1, r2, r3, r5, r6}^
 2cc:	72736574 	rsbsvc	r6, r3, #116, 10	; 0x1d000000
 2d0:	00646165 	rsbeq	r6, r4, r5, ror #2
 2d4:	49545845 	ldmdbmi	r4, {r0, r2, r6, fp, ip, lr}^
 2d8:	52495f30 	subpl	r5, r9, #48, 30	; 0xc0
 2dc:	55006e51 	strpl	r6, [r0, #-3665]	; 0xfffff1af
 2e0:	4c5f4253 	lfmmi	f4, 2, [pc], {83}	; 0x53
 2e4:	41435f50 	cmpmi	r3, r0, asr pc
 2e8:	525f314e 	subspl	r3, pc, #-2147483629	; 0x80000013
 2ec:	495f3058 	ldmdbmi	pc, {r3, r4, r6, ip, sp}^	; <UNPREDICTABLE>
 2f0:	61485152 	cmpvs	r8, r2, asr r1
 2f4:	656c646e 	strbvs	r6, [ip, #-1134]!	; 0xfffffb92
 2f8:	58450072 	stmdapl	r5, {r1, r4, r5, r6}^
 2fc:	35314954 	ldrcc	r4, [r1, #-2388]!	; 0xfffff6ac
 300:	5f30315f 	svcpl	0x0030315f
 304:	6e515249 	cdpvs	2, 5, cr5, cr1, cr9, {2}
 308:	73616c00 	cmnvc	r1, #0, 24
 30c:	64646174 	strbtvs	r6, [r4], #-372	; 0xfffffe8c
 310:	65500072 	ldrbvs	r0, [r0, #-114]	; 0xffffff8e
 314:	5653646e 	ldrbpl	r6, [r3], -lr, ror #8
 318:	5152495f 	cmppl	r2, pc, asr r9
 31c:	4352006e 	cmpmi	r2, #110	; 0x6e
 320:	52495f43 	subpl	r5, r9, #268	; 0x10c
 324:	77006e51 	smlsdvc	r0, r1, lr, r6
 328:	756c6156 	strbvc	r6, [ip, #-342]!	; 0xfffffeaa
 32c:	654d0065 	strbvs	r0, [sp, #-101]	; 0xffffff9b
 330:	79726f6d 	ldmdbvc	r2!, {r0, r2, r3, r5, r6, r8, r9, sl, fp, sp, lr}^
 334:	616e614d 	cmnvs	lr, sp, asr #2
 338:	656d6567 	strbvs	r6, [sp, #-1383]!	; 0xfffffa99
 33c:	495f746e 	ldmdbmi	pc, {r1, r2, r3, r5, r6, sl, ip, sp, lr}^	; <UNPREDICTABLE>
 340:	006e5152 	rsbeq	r5, lr, r2, asr r1
 344:	5f307065 	svcpl	0x00307065
 348:	6e756f63 	cdpvs	15, 7, cr6, cr5, cr3, {3}
 34c:	53490074 	movtpl	r0, #36980	; 0x9074
 350:	49005254 	stmdbmi	r0, {r2, r4, r6, r9, ip, lr}
 354:	00524553 	subseq	r4, r2, r3, asr r5
 358:	314d4954 	cmpcc	sp, r4, asr r9
 35c:	4b52425f 	blmi	1490ce0 <__Stack_Size+0x14908e0>
 360:	5152495f 	cmppl	r2, pc, asr r9
 364:	5352006e 	cmppl	r2, #110	; 0x6e
 368:	45565245 	ldrbmi	r5, [r6, #-581]	; 0xfffffdbb
 36c:	53003144 	movwpl	r3, #324	; 0x144
 370:	5f314950 	svcpl	0x00314950
 374:	6e515249 	cdpvs	2, 5, cr5, cr1, cr9, {2}
 378:	73755f00 	cmnvc	r5, #0, 30
 37c:	70655f62 	rsbvc	r5, r5, r2, ror #30
 380:	6972775f 	ldmdbvs	r2!, {r0, r1, r2, r3, r4, r6, r8, r9, sl, ip, sp, lr}^
 384:	44006574 	strmi	r6, [r0], #-1396	; 0xfffffa8c
 388:	5f31414d 	svcpl	0x0031414d
 38c:	6e616843 	cdpvs	8, 6, cr6, cr1, cr3, {2}
 390:	346c656e 	strbtcc	r6, [ip], #-1390	; 0xfffffa92
 394:	5152495f 	cmppl	r2, pc, asr r9
 398:	564e006e 	strbpl	r0, [lr], -lr, rrx
 39c:	455f4349 	ldrbmi	r4, [pc, #-841]	; 5b <_Minimum_Stack_Size-0xa5>
 3a0:	6c62616e 	stfvse	f6, [r2], #-440	; 0xfffffe48
 3a4:	51524965 	cmppl	r2, r5, ror #18
 3a8:	42535500 	subsmi	r5, r3, #0, 10
 3ac:	7079545f 	rsbsvc	r5, r9, pc, asr r4
 3b0:	66654465 	strbtvs	r4, [r5], -r5, ror #8
 3b4:	44414400 	strbmi	r4, [r1], #-1024	; 0xfffffc00
 3b8:	43005244 	movwmi	r5, #580	; 0x244
 3bc:	5f314e41 	svcpl	0x00314e41
 3c0:	5f315852 	svcpl	0x00315852
 3c4:	6e515249 	cdpvs	2, 5, cr5, cr1, cr9, {2}
 3c8:	53455200 	movtpl	r5, #20992	; 0x5200
 3cc:	45565245 	ldrbmi	r5, [r6, #-581]	; 0xfffffdbb
 3d0:	75004244 	strvc	r4, [r0, #-580]	; 0xfffffdbc
 3d4:	635f6273 	cmpvs	pc, #805306375	; 0x30000007
 3d8:	7373616c 	cmnvc	r3, #108, 2
 3dc:	7465675f 	strbtvc	r6, [r5], #-1887	; 0xfffff8a1
 3e0:	6474735f 	ldrbtvs	r7, [r4], #-863	; 0xfffffca1
 3e4:	7365645f 	cmnvc	r5, #1593835520	; 0x5f000000
 3e8:	55007263 	strpl	r7, [r0, #-611]	; 0xfffffd9d
 3ec:	485f4253 	ldmdami	pc, {r0, r1, r4, r6, r9, lr}^	; <UNPREDICTABLE>
 3f0:	41435f50 	cmpmi	r3, r0, asr pc
 3f4:	545f314e 	ldrbpl	r3, [pc], #-334	; 3fc <_Minimum_Stack_Size+0x2fc>
 3f8:	52495f58 	subpl	r5, r9, #88, 30	; 0x160
 3fc:	49006e51 	stmdbmi	r0, {r0, r4, r6, r9, sl, fp, sp, lr}
 400:	5f6e5152 	svcpl	0x006e5152
 404:	65707954 	ldrbvs	r7, [r0, #-2388]!	; 0xfffff6ac
 408:	30706500 	rsbscc	r6, r0, r0, lsl #10
 40c:	6e65735f 	mcrvs	3, 3, r7, cr5, cr15, {2}
 410:	53550064 	cmppl	r5, #100	; 0x64
 414:	32545241 	subscc	r5, r4, #268435460	; 0x10000004
 418:	5152495f 	cmppl	r2, pc, asr r9
 41c:	6f63006e 	svcvs	0x0063006e
 420:	6769666e 	strbvs	r6, [r9, -lr, ror #12]!
 424:	74617275 	strbtvc	r7, [r1], #-629	; 0xfffffd8b
 428:	006e6f69 	rsbeq	r6, lr, r9, ror #30
 42c:	52305045 	eorspl	r5, r0, #69	; 0x45
 430:	42535500 	subsmi	r5, r3, #0, 10
 434:	6464415f 	strbtvs	r4, [r4], #-351	; 0xfffffea1
 438:	70650072 	rsbvc	r0, r5, r2, ror r0
 43c:	636e7566 	cmnvs	lr, #427819008	; 0x19800000
 440:	74756f5f 	ldrbtvc	r6, [r5], #-3935	; 0xfffff0a1
 444:	30706500 	rsbscc	r6, r0, r0, lsl #10
 448:	6675625f 			; <UNDEFINED> instruction: 0x6675625f
 44c:	54584500 	ldrbpl	r4, [r8], #-1280	; 0xfffffb00
 450:	495f3249 	ldmdbmi	pc, {r0, r3, r6, r9, ip, sp}^	; <UNPREDICTABLE>
 454:	006e5152 	rsbeq	r5, lr, r2, asr r1
 458:	32433249 	subcc	r3, r3, #-1879048188	; 0x90000004
 45c:	5f56455f 	svcpl	0x0056455f
 460:	6e515249 	cdpvs	2, 5, cr5, cr1, cr9, {2}
 464:	31504500 	cmpcc	r0, r0, lsl #10
 468:	73750052 	cmnvc	r5, #82	; 0x52
 46c:	70655f62 	rsbvc	r5, r5, r2, ror #30
 470:	61746164 	cmnvs	r4, r4, ror #2
 474:	4400745f 	strmi	r7, [r0], #-1119	; 0xfffffba1
 478:	5f31414d 	svcpl	0x0031414d
 47c:	6e616843 	cdpvs	8, 6, cr6, cr1, cr3, {2}
 480:	366c656e 	strbtcc	r6, [ip], -lr, ror #10
 484:	5152495f 	cmppl	r2, pc, asr r9
 488:	755f006e 	ldrbvc	r0, [pc, #-110]	; 422 <__Stack_Size+0x22>
 48c:	655f6273 	ldrbvs	r6, [pc, #-627]	; 221 <_Minimum_Stack_Size+0x121>
 490:	65725f70 	ldrbvs	r5, [r2, #-3952]!	; 0xfffff090
 494:	54006461 	strpl	r6, [r0], #-1121	; 0xfffffb9f
 498:	5f334d49 	svcpl	0x00334d49
 49c:	6e515249 	cdpvs	2, 5, cr5, cr1, cr9, {2}
 4a0:	414d4400 	cmpmi	sp, r0, lsl #8
 4a4:	68435f31 	stmdavs	r3, {r0, r4, r5, r8, r9, sl, fp, ip, lr}^
 4a8:	656e6e61 	strbvs	r6, [lr, #-3681]!	; 0xfffff19f
 4ac:	495f316c 	ldmdbmi	pc, {r2, r3, r5, r6, r8, ip, sp}^	; <UNPREDICTABLE>
 4b0:	006e5152 	rsbeq	r5, lr, r2, asr r1
 4b4:	52325045 	eorspl	r5, r2, #69	; 0x45
 4b8:	42535500 	subsmi	r5, r3, #0, 10
 4bc:	656b6157 	strbvs	r6, [fp, #-343]!	; 0xfffffea9
 4c0:	495f7055 	ldmdbmi	pc, {r0, r2, r4, r6, ip, sp, lr}^	; <UNPREDICTABLE>
 4c4:	006e5152 	rsbeq	r5, lr, r2, asr r1
 4c8:	47445757 	smlsldmi	r5, r4, r7, r7
 4cc:	5152495f 	cmppl	r2, pc, asr r9
 4d0:	7375006e 	cmnvc	r5, #110	; 0x6e
 4d4:	6c635f62 	stclvs	15, cr5, [r3], #-392	; 0xfffffe78
 4d8:	5f737361 	svcpl	0x00737361
 4dc:	63736964 	cmnvs	r3, #100, 18	; 0x190000
 4e0:	656e6e6f 	strbvs	r6, [lr, #-3695]!	; 0xfffff191
 4e4:	45007463 	strmi	r7, [r0, #-1123]	; 0xfffffb9d
 4e8:	00523350 	subseq	r3, r2, r0, asr r3
 4ec:	46737542 	ldrbtmi	r7, [r3], -r2, asr #10
 4f0:	746c7561 	strbtvc	r7, [ip], #-1377	; 0xfffffa9f
 4f4:	5152495f 	cmppl	r2, pc, asr r9
 4f8:	5845006e 	stmdapl	r5, {r1, r2, r3, r5, r6}^
 4fc:	5f344954 	svcpl	0x00344954
 500:	6e515249 	cdpvs	2, 5, cr5, cr1, cr9, {2}
 504:	62737500 	rsbsvs	r7, r3, #0, 10
 508:	616c635f 	cmnvs	ip, pc, asr r3
 50c:	695f7373 	ldmdbvs	pc, {r0, r1, r4, r5, r6, r8, r9, ip, sp, lr}^	; <UNPREDICTABLE>
 510:	0074696e 	rsbseq	r6, r4, lr, ror #18
 514:	5f445650 	svcpl	0x00445650
 518:	6e515249 	cdpvs	2, 5, cr5, cr1, cr9, {2}
 51c:	66706500 	ldrbtvs	r6, [r0], -r0, lsl #10
 520:	5f636e75 	svcpl	0x00636e75
 524:	73750074 	cmnvc	r5, #116	; 0x74
 528:	78745f62 	ldmdavc	r4!, {r1, r5, r6, r8, r9, sl, fp, ip, lr}^
 52c:	756f635f 	strbvc	r6, [pc, #-863]!	; 1d5 <_Minimum_Stack_Size+0xd5>
 530:	4900746e 	stmdbmi	r0, {r1, r2, r3, r5, r6, sl, ip, sp, lr}
 534:	00525043 	subseq	r5, r2, r3, asr #32
 538:	52345045 	eorspl	r5, r4, #69	; 0x45
 53c:	414d4400 	cmpmi	sp, r0, lsl #8
 540:	68435f31 	stmdavs	r3, {r0, r4, r5, r8, r9, sl, fp, ip, lr}^
 544:	656e6e61 	strbvs	r6, [lr, #-3681]!	; 0xfffff19f
 548:	495f336c 	ldmdbmi	pc, {r2, r3, r5, r6, r8, r9, ip, sp}^	; <UNPREDICTABLE>
 54c:	006e5152 	rsbeq	r5, lr, r2, asr r1
 550:	2f637273 	svccs	0x00637273
 554:	5f627375 	svcpl	0x00627375
 558:	2e62696c 	vnmulcs.f16	s13, s4, s25	; <UNPREDICTABLE>
 55c:	32490063 	subcc	r0, r9, #99	; 0x63
 560:	455f3143 	ldrbmi	r3, [pc, #-323]	; 425 <__Stack_Size+0x25>
 564:	52495f56 	subpl	r5, r9, #344	; 0x158
 568:	72006e51 	andvc	r6, r0, #1296	; 0x510
 56c:	756e5f78 	strbvc	r5, [lr, #-3960]!	; 0xfffff088
 570:	6c625f6d 	stclvs	15, cr5, [r2], #-436	; 0xfffffe4c
 574:	736b636f 	cmnvc	fp, #-1140850687	; 0xbc000001
 578:	62737500 	rsbsvs	r7, r3, #0, 10
 57c:	616c635f 	cmnvs	ip, pc, asr r3
 580:	655f7373 	ldrbvs	r7, [pc, #-883]	; 215 <_Minimum_Stack_Size+0x115>
 584:	695f3070 	ldmdbvs	pc, {r4, r5, r6, ip, sp}^	; <UNPREDICTABLE>
 588:	6975006e 	ldmdbvs	r5!, {r1, r2, r3, r5, r6}^
 58c:	3631746e 	ldrtcc	r7, [r1], -lr, ror #8
 590:	7400745f 	strvc	r7, [r0], #-1119	; 0xfffffba1
 594:	6c625f78 	stclvs	15, cr5, [r2], #-480	; 0xfffffe20
 598:	736b636f 	cmnvc	fp, #-1140850687	; 0xbc000001
 59c:	00657a69 	rsbeq	r7, r5, r9, ror #20
 5a0:	314d4954 	cmpcc	sp, r4, asr r9
 5a4:	5f50555f 	svcpl	0x0050555f
 5a8:	6e515249 	cdpvs	2, 5, cr5, cr1, cr9, {2}
 5ac:	49545300 	ldmdbmi	r4, {r8, r9, ip, lr}^
 5b0:	54520052 	ldrbpl	r0, [r2], #-82	; 0xffffffae
 5b4:	6c415f43 	mcrrvs	15, 4, r5, r1, cr3
 5b8:	5f6d7261 	svcpl	0x006d7261
 5bc:	6e515249 	cdpvs	2, 5, cr5, cr1, cr9, {2}
 5c0:	43545200 	cmpmi	r4, #0, 4
 5c4:	5152495f 	cmppl	r2, pc, asr r9
 5c8:	5045006e 	subpl	r0, r5, lr, rrx
 5cc:	52005235 	andpl	r5, r0, #1342177283	; 0x50000003
 5d0:	52455345 	subpl	r5, r5, #335544321	; 0x14000001
 5d4:	30444556 	subcc	r4, r4, r6, asr r5
 5d8:	53455200 	movtpl	r5, #20992	; 0x5200
 5dc:	45565245 	ldrbmi	r5, [r6, #-581]	; 0xfffffdbb
 5e0:	52003144 	andpl	r3, r0, #68, 2
 5e4:	52455345 	subpl	r5, r5, #335544321	; 0x14000001
 5e8:	32444556 	subcc	r4, r4, #360710144	; 0x15800000
 5ec:	53455200 	movtpl	r5, #20992	; 0x5200
 5f0:	45565245 	ldrbmi	r5, [r6, #-581]	; 0xfffffdbb
 5f4:	52003344 	andpl	r3, r0, #68, 6	; 0x10000001
 5f8:	52455345 	subpl	r5, r5, #335544321	; 0x14000001
 5fc:	34444556 	strbcc	r4, [r4], #-1366	; 0xfffffaaa
 600:	53455200 	movtpl	r5, #20992	; 0x5200
 604:	45565245 	ldrbmi	r5, [r6, #-581]	; 0xfffffdbb
 608:	52003544 	andpl	r3, r0, #68, 10	; 0x11000000
 60c:	52455345 	subpl	r5, r5, #335544321	; 0x14000001
 610:	36444556 			; <UNDEFINED> instruction: 0x36444556
 614:	53455200 	movtpl	r5, #20992	; 0x5200
 618:	45565245 	ldrbmi	r5, [r6, #-581]	; 0xfffffdbb
 61c:	52003844 	andpl	r3, r0, #68, 16	; 0x440000
 620:	52455345 	subpl	r5, r5, #335544321	; 0x14000001
 624:	39444556 	stmdbcc	r4, {r1, r2, r4, r6, r8, sl, lr}^
 628:	53455200 	movtpl	r5, #20992	; 0x5200
 62c:	45565245 	ldrbmi	r5, [r6, #-581]	; 0xfffffdbb
 630:	55004144 	strpl	r4, [r0, #-324]	; 0xfffffebc
 634:	54524153 	ldrbpl	r4, [r2], #-339	; 0xfffffead
 638:	52495f31 	subpl	r5, r9, #49, 30	; 0xc4
 63c:	75006e51 	strvc	r6, [r0, #-3665]	; 0xfffff1af
 640:	655f6273 	ldrbvs	r6, [pc, #-627]	; 3d5 <_Minimum_Stack_Size+0x2d5>
 644:	6e695f70 	mcrvs	15, 3, r5, cr9, cr0, {3}
 648:	4e007469 	cdpmi	4, 0, cr7, cr0, cr9, {3}
 64c:	614d6e6f 	cmpvs	sp, pc, ror #28
 650:	62616b73 	rsbvs	r6, r1, #117760	; 0x1cc00
 654:	6e49656c 	cdpvs	5, 4, cr6, cr9, cr12, {3}
 658:	52495f74 	subpl	r5, r9, #116, 30	; 0x1d0
 65c:	77006e51 	smlsdvc	r0, r1, lr, r6
 660:	676e654c 	strbvs	r6, [lr, -ip, asr #10]!
 664:	54006874 	strpl	r6, [r0], #-2164	; 0xfffff78c
 668:	5f314d49 	svcpl	0x00314d49
 66c:	495f4343 	ldmdbmi	pc, {r0, r1, r6, r8, r9, lr}^	; <UNPREDICTABLE>
 670:	006e5152 	rsbeq	r5, lr, r2, asr r1
 674:	52365045 	eorspl	r5, r6, #69	; 0x45
 678:	66656c00 	strbtvs	r6, [r5], -r0, lsl #24
 67c:	58450074 	stmdapl	r5, {r2, r4, r5, r6}^
 680:	5f314954 	svcpl	0x00314954
 684:	6e515249 	cdpvs	2, 5, cr5, cr1, cr9, {2}
 688:	65526200 	ldrbvs	r6, [r2, #-512]	; 0xfffffe00
 68c:	73657571 	cmnvc	r5, #473956352	; 0x1c400000
 690:	564e0074 			; <UNDEFINED> instruction: 0x564e0074
 694:	545f4349 	ldrbpl	r4, [pc], #-841	; 69c <__Stack_Size+0x29c>
 698:	00657079 	rsbeq	r7, r5, r9, ror r0
 69c:	52544e43 	subspl	r4, r4, #1072	; 0x430
 6a0:	4d495400 	cfstrdmi	mvd5, [r9, #-0]
 6a4:	52545f31 	subspl	r5, r4, #49, 30	; 0xc4
 6a8:	4f435f47 	svcmi	0x00435f47
 6ac:	52495f4d 	subpl	r5, r9, #308	; 0x134
 6b0:	49006e51 	stmdbmi	r0, {r0, r4, r6, r9, sl, fp, sp, lr}
 6b4:	5f314332 	svcpl	0x00314332
 6b8:	495f5245 	ldmdbmi	pc, {r0, r2, r6, r9, ip, lr}^	; <UNPREDICTABLE>
 6bc:	006e5152 	rsbeq	r5, lr, r2, asr r1
 6c0:	54737953 	ldrbtpl	r7, [r3], #-2387	; 0xfffff6ad
 6c4:	5f6b6369 	svcpl	0x006b6369
 6c8:	6e515249 	cdpvs	2, 5, cr5, cr1, cr9, {2}
 6cc:	6e706500 	cdpvs	5, 7, cr6, cr0, cr0, {0}
 6d0:	72006d75 	andvc	r6, r0, #7488	; 0x1d40
 6d4:	69735f78 	ldmdbvs	r3!, {r3, r4, r5, r6, r8, r9, sl, fp, ip, lr}^
 6d8:	5400657a 	strpl	r6, [r0], #-1402	; 0xfffffa86
 6dc:	5f324d49 	svcpl	0x00324d49
 6e0:	6e515249 	cdpvs	2, 5, cr5, cr1, cr9, {2}
 6e4:	62737500 	rsbsvs	r7, r3, #0, 10
 6e8:	616c635f 	cmnvs	ip, pc, asr r3
 6ec:	655f7373 	ldrbvs	r7, [pc, #-883]	; 381 <_Minimum_Stack_Size+0x281>
 6f0:	6f5f3070 	svcvs	0x005f3070
 6f4:	45007475 	strmi	r7, [r0, #-1141]	; 0xfffffb8b
 6f8:	00523750 	subseq	r3, r2, r0, asr r7
 6fc:	666e6f63 	strbtvs	r6, [lr], -r3, ror #30
 700:	705f6769 	subsvc	r6, pc, r9, ror #14
 704:	5f6b6361 	svcpl	0x006b6361
 708:	73750074 	cmnvc	r5, #116	; 0x74
 70c:	78725f62 	ldmdavc	r2!, {r1, r5, r6, r8, r9, sl, fp, ip, lr}^
 710:	6464615f 	strbtvs	r6, [r4], #-351	; 0xfffffea1
 714:	78740072 	ldmdavc	r4!, {r1, r4, r5, r6}^
 718:	6d756e5f 	ldclvs	14, cr6, [r5, #-380]!	; 0xfffffe84
 71c:	6f6c625f 	svcvs	0x006c625f
 720:	00736b63 	rsbseq	r6, r3, r3, ror #22
 724:	75626544 	strbvc	r6, [r2, #-1348]!	; 0xfffffabc
 728:	6e6f4d67 	cdpvs	13, 6, cr4, cr15, cr7, {3}
 72c:	726f7469 	rsbvc	r7, pc, #1761607680	; 0x69000000
 730:	5152495f 	cmppl	r2, pc, asr r9
 734:	7355006e 	cmpvc	r5, #110	; 0x6e
 738:	46656761 	strbtmi	r6, [r5], -r1, ror #14
 73c:	746c7561 	strbtvc	r7, [ip], #-1377	; 0xfffffa9f
 740:	5152495f 	cmppl	r2, pc, asr r9
 744:	7872006e 	ldmdavc	r2!, {r1, r2, r3, r5, r6}^
 748:	6f6c625f 	svcvs	0x006c625f
 74c:	69736b63 	ldmdbvs	r3!, {r0, r1, r5, r6, r8, r9, fp, sp, lr}^
 750:	6500657a 	strvs	r6, [r0, #-1402]	; 0xfffffa86
 754:	6e756670 	mrcvs	6, 3, r6, cr5, cr0, {3}
 758:	6e695f63 	cdpvs	15, 6, cr5, cr9, cr3, {3}
 75c:	62737500 	rsbsvs	r7, r3, #0, 10
 760:	5f70655f 	svcpl	0x0070655f
 764:	74696e69 	strbtvc	r6, [r9], #-3689	; 0xfffff197
 768:	756f645f 	strbvc	r6, [pc, #-1119]!	; 311 <_Minimum_Stack_Size+0x211>
 76c:	00656c62 	rsbeq	r6, r5, r2, ror #24
 770:	49545845 	ldmdbmi	r4, {r0, r2, r6, fp, ip, lr}^
 774:	5f355f39 	svcpl	0x00355f39
 778:	6e515249 	cdpvs	2, 5, cr5, cr1, cr9, {2}
 77c:	43565300 	cmpmi	r6, #0, 6
 780:	5f6c6c61 	svcpl	0x006c6c61
 784:	6e515249 	cdpvs	2, 5, cr5, cr1, cr9, {2}
 788:	45434900 	strbmi	r4, [r3, #-2304]	; 0xfffff700
 78c:	50530052 	subspl	r0, r3, r2, asr r0
 790:	495f3249 	ldmdbmi	pc, {r0, r3, r6, r9, ip, sp}^	; <UNPREDICTABLE>
 794:	006e5152 	rsbeq	r5, lr, r2, asr r1
 798:	52424149 	subpl	r4, r2, #1073741842	; 0x40000012
 79c:	62737500 	rsbsvs	r7, r3, #0, 10
 7a0:	5f78745f 	svcpl	0x0078745f
 7a4:	72646461 	rsbvc	r6, r4, #1627389952	; 0x61000000
 7a8:	414d4400 	cmpmi	sp, r0, lsl #8
 7ac:	68435f31 	stmdavs	r3, {r0, r4, r5, r8, r9, sl, fp, ip, lr}^
 7b0:	656e6e61 	strbvs	r6, [lr, #-3681]!	; 0xfffff19f
 7b4:	495f356c 	ldmdbmi	pc, {r2, r3, r5, r6, r8, sl, ip, sp}^	; <UNPREDICTABLE>
 7b8:	006e5152 	rsbeq	r5, lr, r2, asr r1
 7bc:	42415442 	submi	r5, r1, #1107296256	; 0x42000000
 7c0:	6500454c 	strvs	r4, [r0, #-1356]	; 0xfffffab4
 7c4:	79745f70 	ldmdbvc	r4!, {r4, r5, r6, r8, r9, sl, fp, ip, lr}^
 7c8:	45006570 	strmi	r6, [r0, #-1392]	; 0xfffffa90
 7cc:	33495458 	movtcc	r5, #37976	; 0x9458
 7d0:	5152495f 	cmppl	r2, pc, asr r9
 7d4:	6964006e 	stmdbvs	r4!, {r1, r2, r3, r5, r6}^
 7d8:	6e695f72 	mcrvs	15, 3, r5, cr9, cr2, {3}
 7dc:	72614800 	rsbvc	r4, r1, #0, 16
 7e0:	75614664 	strbvc	r4, [r1, #-1636]!	; 0xfffff99c
 7e4:	495f746c 	ldmdbmi	pc, {r2, r3, r5, r6, sl, ip, sp, lr}^	; <UNPREDICTABLE>
 7e8:	006e5152 	rsbeq	r5, lr, r2, asr r1
 7ec:	52505349 	subspl	r5, r0, #603979777	; 0x24000001
 7f0:	62737500 	rsbsvs	r7, r3, #0, 10
 7f4:	5f78725f 	svcpl	0x0078725f
 7f8:	6e756f63 	cdpvs	15, 7, cr6, cr5, cr3, {3}
 7fc:	78720074 	ldmdavc	r2!, {r2, r4, r5, r6}^
 800:	6e756f63 	cdpvs	15, 7, cr6, cr5, cr3, {3}
 804:	44410074 	strbmi	r0, [r1], #-116	; 0xffffff8c
 808:	325f3143 	subscc	r3, pc, #-1073741808	; 0xc0000010
 80c:	5152495f 	cmppl	r2, pc, asr r9
 810:	4552006e 	ldrbmi	r0, [r2, #-110]	; 0xffffff92
 814:	56524553 			; <UNDEFINED> instruction: 0x56524553
 818:	00374445 	eorseq	r4, r7, r5, asr #8
 81c:	52415355 	subpl	r5, r1, #1409286145	; 0x54000001
 820:	495f3354 	ldmdbmi	pc, {r2, r4, r6, r8, r9, ip, sp}^	; <UNPREDICTABLE>
 824:	006e5152 	rsbeq	r5, lr, r2, asr r1
 828:	504d4154 	subpl	r4, sp, r4, asr r1
 82c:	495f5245 	ldmdbmi	pc, {r0, r2, r6, r9, ip, lr}^	; <UNPREDICTABLE>
 830:	006e5152 	rsbeq	r5, lr, r2, asr r1
 834:	45534552 	ldrbmi	r4, [r3, #-1362]	; 0xfffffaae
 838:	44455652 	strbmi	r5, [r5], #-1618	; 0xfffff9ae
 83c:	73750043 	cmnvc	r5, #67	; 0x43
 840:	70655f62 	rsbvc	r5, r5, r2, ror #30
 844:	6165725f 	cmnvs	r5, pc, asr r2
 848:	6f645f64 	svcvs	0x00645f64
 84c:	656c6275 	strbvs	r6, [ip, #-629]!	; 0xfffffd8b
 850:	73787400 	cmnvc	r8, #0, 8
 854:	00657a69 	rsbeq	r7, r5, r9, ror #20
 858:	5f6e6f5f 	svcpl	0x006e6f5f
 85c:	74697865 	strbtvc	r7, [r9], #-2149	; 0xfffff79b
 860:	6772615f 			; <UNDEFINED> instruction: 0x6772615f
 864:	775f0073 			; <UNDEFINED> instruction: 0x775f0073
 868:	6d6f7463 	cfstrdvs	mvd7, [pc, #-396]!	; 6e4 <__Stack_Size+0x2e4>
 86c:	74735f62 	ldrbtvc	r5, [r3], #-3938	; 0xfffff09e
 870:	00657461 	rsbeq	r7, r5, r1, ror #8
 874:	3834725f 	ldmdacc	r4!, {r0, r1, r2, r3, r4, r6, r9, ip, sp, lr}
 878:	69735f00 	ldmdbvs	r3!, {r8, r9, sl, fp, ip, lr}^
 87c:	6c616e67 	stclvs	14, cr6, [r1], #-412	; 0xfffffe64
 880:	6675625f 			; <UNDEFINED> instruction: 0x6675625f
 884:	626c5f00 	rsbvs	r5, ip, #0, 30
 888:	7a697366 	bvc	1a5d628 <__Stack_Size+0x1a5d228>
 88c:	665f0065 	ldrbvs	r0, [pc], -r5, rrx
 890:	7367616c 	cmnvc	r7, #108, 2
 894:	6d6e5f00 	stclvs	15, cr5, [lr, #-0]
 898:	6f6c6c61 	svcvs	0x006c6c61
 89c:	61640063 	cmnvs	r4, r3, rrx
 8a0:	6f5f6174 	svcvs	0x005f6174
 8a4:	635f7475 	cmpvs	pc, #1962934272	; 0x75000000
 8a8:	626c6c61 	rsbvs	r6, ip, #24832	; 0x6100
 8ac:	006b6361 	rsbeq	r6, fp, r1, ror #6
 8b0:	5f627375 	svcpl	0x00627375
 8b4:	775f7065 	ldrbvc	r7, [pc, -r5, rrx]
 8b8:	65746972 	ldrbvs	r6, [r4, #-2418]!	; 0xfffff68e
 8bc:	756f645f 	strbvc	r6, [pc, #-1119]!	; 465 <__Stack_Size+0x65>
 8c0:	00656c62 	rsbeq	r6, r5, r2, ror #24
 8c4:	434f4c5f 	movtmi	r4, #64607	; 0xfc5f
 8c8:	45525f4b 	ldrbmi	r5, [r2, #-3915]	; 0xfffff0b5
 8cc:	53525543 	cmppl	r2, #281018368	; 0x10c00000
 8d0:	5f455649 	svcpl	0x00455649
 8d4:	72730054 	rsbsvc	r0, r3, #84	; 0x54
 8d8:	73752f63 	cmnvc	r5, #396	; 0x18c
 8dc:	6c635f62 	stclvs	15, cr5, [r3], #-392	; 0xfffffe78
 8e0:	5f737361 	svcpl	0x00737361
 8e4:	69647561 	stmdbvs	r4!, {r0, r5, r6, r8, sl, ip, sp, lr}^
 8e8:	00632e6f 	rsbeq	r2, r3, pc, ror #28
 8ec:	736e755f 	cmnvc	lr, #398458880	; 0x17c00000
 8f0:	69636570 	stmdbvs	r3!, {r4, r5, r6, r8, sl, sp, lr}^
 8f4:	64656966 	strbtvs	r6, [r5], #-2406	; 0xfffff69a
 8f8:	636f6c5f 	cmnvs	pc, #24320	; 0x5f00
 8fc:	5f656c61 	svcpl	0x00656c61
 900:	6f666e69 	svcvs	0x00666e69
 904:	626d5f00 	rsbvs	r5, sp, #0, 30
 908:	6e656c72 	mcrvs	12, 3, r6, cr5, cr2, {3}
 90c:	6174735f 	cmnvs	r4, pc, asr r3
 910:	5f006574 	svcpl	0x00006574
 914:	6975625f 	ldmdbvs	r5!, {r0, r1, r2, r3, r4, r6, r9, sp, lr}^
 918:	6e69746c 	cdpvs	4, 6, cr7, cr9, cr12, {3}
 91c:	6d656d5f 	stclvs	13, cr6, [r5, #-380]!	; 0xfffffe84
 920:	00797063 	rsbseq	r7, r9, r3, rrx
 924:	77656e5f 			; <UNDEFINED> instruction: 0x77656e5f
 928:	74735f00 	ldrbtvc	r5, [r3], #-3840	; 0xfffff100
 92c:	74756f64 	ldrbtvc	r6, [r5], #-3940	; 0xfffff09c
 930:	70665f00 	rsbvc	r5, r6, r0, lsl #30
 934:	745f736f 	ldrbvc	r7, [pc], #-879	; 93c <__Stack_Size+0x53c>
 938:	6e665f00 	cdpvs	15, 6, cr5, cr6, cr0, {0}
 93c:	635f0073 	cmpvs	pc, #115	; 0x73
 940:	696b6f6f 	stmdbvs	fp!, {r0, r1, r2, r3, r5, r6, r8, r9, sl, fp, sp, lr}^
 944:	6d5f0065 	ldclvs	0, cr0, [pc, #-404]	; 7b8 <__Stack_Size+0x3b8>
 948:	61747362 	cmnvs	r4, r2, ror #6
 94c:	5f006574 	svcpl	0x00006574
 950:	5f6d745f 	svcpl	0x006d745f
 954:	79616477 	stmdbvc	r1!, {r0, r1, r2, r4, r5, r6, sl, sp, lr}^
 958:	4d495400 	cfstrdmi	mvd5, [r9, #-0]
 95c:	7079545f 	rsbsvc	r5, r9, pc, asr r4
 960:	66654465 	strbtvs	r4, [r5], -r5, ror #8
 964:	65725f00 	ldrbvs	r5, [r2, #-3840]!	; 0xfffff100
 968:	746c7573 	strbtvc	r7, [ip], #-1395	; 0xfffffa8d
 96c:	465f5f00 	ldrbmi	r5, [pc], -r0, lsl #30
 970:	00454c49 	subeq	r4, r5, r9, asr #24
 974:	6d745f5f 	ldclvs	15, cr5, [r4, #-380]!	; 0xfffffe84
 978:	756f685f 	strbvc	r6, [pc, #-2143]!	; 121 <_Minimum_Stack_Size+0x21>
 97c:	44420072 	strbmi	r0, [r2], #-114	; 0xffffff8e
 980:	5f005254 	svcpl	0x00005254
 984:	756f635f 	strbvc	r6, [pc, #-863]!	; 62d <__Stack_Size+0x22d>
 988:	5f00746e 	svcpl	0x0000746e
 98c:	5f6d745f 	svcpl	0x006d745f
 990:	006e696d 	rsbeq	r6, lr, sp, ror #18
 994:	31524343 	cmpcc	r2, r3, asr #6
 998:	52434300 	subpl	r4, r3, #0, 6
 99c:	43430032 	movtmi	r0, #12338	; 0x3032
 9a0:	43003352 	movwmi	r3, #850	; 0x352
 9a4:	31524d43 	cmpcc	r2, r3, asr #26
 9a8:	4d434300 	stclmi	3, cr4, [r3, #-0]
 9ac:	5f003252 	svcpl	0x00003252
 9b0:	646e6172 	strbtvs	r6, [lr], #-370	; 0xfffffe8e
 9b4:	5f003834 	svcpl	0x00003834
 9b8:	75736572 	ldrbvc	r6, [r3, #-1394]!	; 0xfffffa8e
 9bc:	6b5f746c 	blvs	17ddb74 <__Stack_Size+0x17dd774>
 9c0:	42535500 	subsmi	r5, r3, #0, 10
 9c4:	6e6f435f 	mcrvs	3, 3, r4, cr15, cr15, {2}
 9c8:	44676966 	strbtmi	r6, [r7], #-2406	; 0xfffff69a
 9cc:	72637365 	rsbvc	r7, r3, #-1811939327	; 0x94000001
 9d0:	6f747069 	svcvs	0x00747069
 9d4:	615f0072 	cmpvs	pc, r2, ror r0	; <UNPREDICTABLE>
 9d8:	69746373 	ldmdbvs	r4!, {r0, r1, r4, r5, r6, r8, r9, sp, lr}^
 9dc:	625f656d 	subsvs	r6, pc, #457179136	; 0x1b400000
 9e0:	5f006675 	svcpl	0x00006675
 9e4:	4946735f 	stmdbmi	r6, {r0, r1, r2, r3, r4, r6, r8, r9, ip, sp, lr}^
 9e8:	5f00454c 	svcpl	0x0000454c
 9ec:	00736477 	rsbseq	r6, r3, r7, ror r4
 9f0:	655f685f 	ldrbvs	r6, [pc, #-2143]	; 199 <_Minimum_Stack_Size+0x99>
 9f4:	6f6e7272 	svcvs	0x006e7272
 9f8:	65735f00 	ldrbvs	r5, [r3, #-3840]!	; 0xfffff100
 9fc:	5f006b65 	svcpl	0x00006b65
 a00:	66756275 			; <UNDEFINED> instruction: 0x66756275
 a04:	6d655f00 	stclvs	15, cr5, [r5, #-0]
 a08:	65677265 	strbvs	r7, [r7, #-613]!	; 0xfffffd9b
 a0c:	0079636e 	rsbseq	r6, r9, lr, ror #6
 a10:	6d745f5f 	ldclvs	15, cr5, [r4, #-380]!	; 0xfffffe84
 a14:	6365735f 	cmnvs	r5, #2080374785	; 0x7c000001
 a18:	745f5f00 	ldrbvc	r5, [pc], #-3840	; a20 <__Stack_Size+0x620>
 a1c:	64795f6d 	ldrbtvs	r5, [r9], #-3949	; 0xfffff093
 a20:	5f007961 	svcpl	0x00007961
 a24:	00636e69 	rsbeq	r6, r3, r9, ror #28
 a28:	73626d5f 	cmnvc	r2, #6080	; 0x17c0
 a2c:	776f7472 			; <UNDEFINED> instruction: 0x776f7472
 a30:	735f7363 	cmpvc	pc, #-1946157055	; 0x8c000001
 a34:	65746174 	ldrbvs	r6, [r4, #-372]!	; 0xfffffe8c
 a38:	45494400 	strbmi	r4, [r9, #-1024]	; 0xfffffc00
 a3c:	5f5f0052 	svcpl	0x005f0052
 a40:	756c6176 	strbvc	r6, [ip, #-374]!	; 0xfffffe8a
 a44:	705f0065 	subsvc	r0, pc, r5, rrx
 a48:	5f007335 	svcpl	0x00007335
 a4c:	656c626d 	strbvs	r6, [ip, #-621]!	; 0xfffffd93
 a50:	74735f6e 	ldrbtvc	r5, [r3], #-3950	; 0xfffff092
 a54:	00657461 	rsbeq	r7, r5, r1, ror #8
 a58:	52454343 	subpl	r4, r5, #201326593	; 0xc000001
 a5c:	745f5f00 	ldrbvc	r5, [pc], #-3840	; a64 <__Stack_Size+0x664>
 a60:	646d5f6d 	strbtvs	r5, [sp], #-3949	; 0xfffff093
 a64:	5f007961 	svcpl	0x00007961
 a68:	5f676973 	svcpl	0x00676973
 a6c:	636e7566 	cmnvs	lr, #427819008	; 0x19800000
 a70:	626d5f00 	rsbvs	r5, sp, #0, 30
 a74:	776f7472 			; <UNDEFINED> instruction: 0x776f7472
 a78:	74735f63 	ldrbtvc	r5, [r3], #-3939	; 0xfffff09d
 a7c:	00657461 	rsbeq	r7, r5, r1, ror #8
 a80:	6574615f 	ldrbvs	r6, [r4, #-351]!	; 0xfffffea1
 a84:	30746978 	rsbscc	r6, r4, r8, ror r9
 a88:	6c665f00 	stclvs	15, cr5, [r6], #-0
 a8c:	5f6b636f 	svcpl	0x006b636f
 a90:	5f5f0074 	svcpl	0x005f0074
 a94:	00686377 	rsbeq	r6, r8, r7, ror r3
 a98:	626f695f 	rsbvs	r6, pc, #1556480	; 0x17c000
 a9c:	43430073 	movtmi	r0, #12403	; 0x3073
 aa0:	5f003452 	svcpl	0x00003452
 aa4:	736f6c63 	cmnvc	pc, #25344	; 0x6300
 aa8:	5f5f0065 	svcpl	0x005f0065
 aac:	64696473 	strbtvs	r6, [r9], #-1139	; 0xfffffb8d
 ab0:	74696e69 	strbtvc	r6, [r9], #-3689	; 0xfffff197
 ab4:	434d5300 	movtmi	r5, #54016	; 0xd300
 ab8:	735f0052 	cmpvc	pc, #82	; 0x52
 abc:	6e696474 	mcrvs	4, 3, r6, cr9, cr4, {3}
 ac0:	61675f00 	cmnvs	r7, r0, lsl #30
 ac4:	5f616d6d 	svcpl	0x00616d6d
 ac8:	6e676973 			; <UNDEFINED> instruction: 0x6e676973
 acc:	006d6167 	rsbeq	r6, sp, r7, ror #2
 ad0:	78656e5f 	stmdavc	r5!, {r0, r1, r2, r3, r4, r6, r9, sl, fp, sp, lr}^
 ad4:	5f006674 	svcpl	0x00006674
 ad8:	65736162 	ldrbvs	r6, [r3, #-354]!	; 0xfffffe9e
 adc:	72665f00 	rsbvc	r5, r6, #0, 30
 ae0:	696c6565 	stmdbvs	ip!, {r0, r2, r5, r6, r8, sl, sp, lr}^
 ae4:	5f007473 	svcpl	0x00007473
 ae8:	746c756d 	strbtvc	r7, [ip], #-1389	; 0xfffffa93
 aec:	555f5f00 	ldrbpl	r5, [pc, #-3840]	; fffffbf4 <BootRAM+0xef70395>
 af0:	676e6f4c 	strbvs	r6, [lr, -ip, asr #30]!
 af4:	63775f00 	cmnvs	r7, #0, 30
 af8:	6d6f7472 	cfstrdvs	mvd7, [pc, #-456]!	; 938 <__Stack_Size+0x538>
 afc:	74735f62 	ldrbtvc	r5, [r3], #-3938	; 0xfffff09e
 b00:	00657461 	rsbeq	r7, r5, r1, ror #8
 b04:	6c69665f 	stclvs	6, cr6, [r9], #-380	; 0xfffffe84
 b08:	5f5f0065 	svcpl	0x005f0065
 b0c:	61656c63 	cmnvs	r5, r3, ror #24
 b10:	0070756e 	rsbseq	r7, r0, lr, ror #10
 b14:	73626d5f 	cmnvc	r2, #6080	; 0x17c0
 b18:	65746174 	ldrbvs	r6, [r4, #-372]!	; 0xfffffe8c
 b1c:	6c00745f 	cfstrsvs	mvf7, [r0], {95}	; 0x5f
 b20:	20676e6f 	rsbcs	r6, r7, pc, ror #28
 b24:	62756f64 	rsbsvs	r6, r5, #100, 30	; 0x190
 b28:	5f00656c 	svcpl	0x0000656c
 b2c:	5f6d745f 	svcpl	0x006d745f
 b30:	73647369 	cmnvc	r4, #-1543503871	; 0xa4000001
 b34:	775f0074 			; <UNDEFINED> instruction: 0x775f0074
 b38:	74727363 	ldrbtvc	r7, [r2], #-867	; 0xfffffc9d
 b3c:	73626d6f 	cmnvc	r2, #7104	; 0x1bc0
 b40:	6174735f 	cmnvs	r4, pc, asr r3
 b44:	5f006574 	svcpl	0x00006574
 b48:	00646e69 	rsbeq	r6, r4, r9, ror #28
 b4c:	344d4954 	strbcc	r4, [sp], #-2388	; 0xfffff6ac
 b50:	5152495f 	cmppl	r2, pc, asr r9
 b54:	646e6148 	strbtvs	r6, [lr], #-328	; 0xfffffeb8
 b58:	0072656c 	rsbseq	r6, r2, ip, ror #10
 b5c:	6d745f5f 	ldclvs	15, cr5, [r4, #-380]!	; 0xfffffe84
 b60:	6e6f6d5f 	mcrvs	13, 3, r6, cr15, cr15, {2}
 b64:	69736400 	ldmdbvs	r3!, {sl, sp, lr}^
 b68:	5f5f006e 	svcpl	0x005f006e
 b6c:	66756273 			; <UNDEFINED> instruction: 0x66756273
 b70:	745f5f00 	ldrbvc	r5, [pc], #-3840	; b78 <__Stack_Size+0x778>
 b74:	65795f6d 	ldrbvs	r5, [r9, #-3949]!	; 0xfffff093
 b78:	5f007261 	svcpl	0x00007261
 b7c:	78657461 	stmdavc	r5!, {r0, r5, r6, sl, ip, sp, lr}^
 b80:	69007469 	stmdbvs	r0, {r0, r3, r5, r6, sl, ip, sp, lr}
 b84:	7265746e 	rsbvc	r7, r5, #1845493760	; 0x6e000000
 b88:	65636166 	strbvs	r6, [r3, #-358]!	; 0xfffffe9a
 b8c:	69425f00 	stmdbvs	r2, {r8, r9, sl, fp, ip, lr}^
 b90:	746e6967 	strbtvc	r6, [lr], #-2407	; 0xfffff699
 b94:	414d4400 	cmpmi	sp, r0, lsl #8
 b98:	53620052 	cmnpl	r2, #82	; 0x52
 b9c:	6e697274 	mcrvs	2, 3, r7, cr9, cr4, {3}
 ba0:	5f5f0067 	svcpl	0x005f0067
 ba4:	5f006673 	svcpl	0x00006673
 ba8:	6e676973 			; <UNDEFINED> instruction: 0x6e676973
 bac:	61645f00 	cmnvs	r4, r0, lsl #30
 bb0:	5f006174 	svcpl	0x00006174
 bb4:	6863775f 	stmdavs	r3!, {r0, r1, r2, r3, r4, r6, r8, r9, sl, ip, sp, lr}^
 bb8:	675f0062 	ldrbvs	r0, [pc, -r2, rrx]
 bbc:	61626f6c 	cmnvs	r2, ip, ror #30
 bc0:	6d695f6c 	stclvs	15, cr5, [r9, #-432]!	; 0xfffffe50
 bc4:	65727570 	ldrbvs	r7, [r2, #-1392]!	; 0xfffffa90
 bc8:	7274705f 	rsbsvc	r7, r4, #95	; 0x5f
 bcc:	666f5f00 	strbtvs	r5, [pc], -r0, lsl #30
 bd0:	74657366 	strbtvc	r7, [r5], #-870	; 0xfffffc9a
 bd4:	42535500 	subsmi	r5, r3, #0, 10
 bd8:	7274535f 	rsbsvc	r5, r4, #2080374785	; 0x7c000001
 bdc:	53676e69 	cmnpl	r7, #1680	; 0x690
 be0:	61697265 	cmnvs	r9, r5, ror #4
 be4:	7365446c 	cmnvc	r5, #108, 8	; 0x6c000000
 be8:	70697263 	rsbvc	r7, r9, r3, ror #4
 bec:	00726f74 	rsbseq	r6, r2, r4, ror pc
 bf0:	636f6c5f 	cmnvs	pc, #24320	; 0x5f00
 bf4:	69746c61 	ldmdbvs	r4!, {r0, r5, r6, sl, fp, sp, lr}^
 bf8:	625f656d 	subsvs	r6, pc, #457179136	; 0x1b400000
 bfc:	55006675 	strpl	r6, [r0, #-1653]	; 0xfffff98b
 c00:	535f4253 	cmppl	pc, #805306373	; 0x30000005
 c04:	6e697274 	mcrvs	2, 3, r7, cr9, cr4, {3}
 c08:	6e614c67 	cdpvs	12, 6, cr4, cr1, cr7, {3}
 c0c:	73654467 	cmnvc	r5, #1728053248	; 0x67000000
 c10:	70697263 	rsbvc	r7, r9, r3, ror #4
 c14:	00726f74 	rsbseq	r6, r2, r4, ror pc
 c18:	756e755f 	strbvc	r7, [lr, #-1375]!	; 0xfffffaa1
 c1c:	00646573 	rsbeq	r6, r4, r3, ror r5
 c20:	7476635f 	ldrbtvc	r6, [r6], #-863	; 0xfffffca1
 c24:	006e656c 	rsbeq	r6, lr, ip, ror #10
 c28:	78616d5f 	stmdavc	r1!, {r0, r1, r2, r3, r4, r6, r8, sl, fp, sp, lr}^
 c2c:	00736477 	rsbseq	r6, r3, r7, ror r4
 c30:	34366c5f 	ldrtcc	r6, [r6], #-3167	; 0xfffff3a1
 c34:	75625f61 	strbvc	r5, [r2, #-3937]!	; 0xfffff09f
 c38:	625f0066 	subsvs	r0, pc, #102	; 0x66
 c3c:	69736b6c 	ldmdbvs	r3!, {r2, r3, r5, r6, r8, r9, fp, sp, lr}^
 c40:	5f00657a 	svcpl	0x0000657a
 c44:	006d745f 	rsbeq	r7, sp, pc, asr r4
 c48:	636f6c5f 	cmnvs	pc, #24320	; 0x5f00
 c4c:	5355006b 	cmppl	r5, #107	; 0x6b
 c50:	65445f42 	strbvs	r5, [r4, #-3906]	; 0xfffff0be
 c54:	65636976 	strbvs	r6, [r3, #-2422]!	; 0xfffff68a
 c58:	6c617551 	cfstr64vs	mvdx7, [r1], #-324	; 0xfffffebc
 c5c:	65696669 	strbvs	r6, [r9, #-1641]!	; 0xfffff997
 c60:	73654472 	cmnvc	r5, #1912602624	; 0x72000000
 c64:	70697263 	rsbvc	r7, r9, r3, ror #4
 c68:	00726f74 	rsbseq	r6, r2, r4, ror pc
 c6c:	6f696e5f 	svcvs	0x00696e5f
 c70:	5f007362 	svcpl	0x00007362
 c74:	5f6f7364 	svcpl	0x006f7364
 c78:	646e6168 	strbtvs	r6, [lr], #-360	; 0xfffffe98
 c7c:	5f00656c 	svcpl	0x0000656c
 c80:	62747663 	rsbsvs	r7, r4, #103809024	; 0x6300000
 c84:	5f006675 	svcpl	0x00006675
 c88:	64746567 	ldrbtvs	r6, [r4], #-1383	; 0xfffffa99
 c8c:	5f657461 	svcpl	0x00657461
 c90:	00727265 	rsbseq	r7, r2, r5, ror #4
 c94:	5f425355 	svcpl	0x00425355
 c98:	69766544 	ldmdbvs	r6!, {r2, r6, r8, sl, sp, lr}^
 c9c:	65446563 	strbvs	r6, [r4, #-1379]	; 0xfffffa9d
 ca0:	69726373 	ldmdbvs	r2!, {r0, r1, r4, r5, r6, r8, r9, sp, lr}^
 ca4:	726f7470 	rsbvc	r7, pc, #112, 8	; 0x70000000
 ca8:	64615f00 	strbtvs	r5, [r1], #-3840	; 0xfffff100
 cac:	61640064 	cmnvs	r4, r4, rrx
 cb0:	695f6174 	ldmdbvs	pc, {r2, r4, r5, r6, r8, sp, lr}^	; <UNPREDICTABLE>
 cb4:	61635f6e 	cmnvs	r3, lr, ror #30
 cb8:	61626c6c 	cmnvs	r2, ip, ror #24
 cbc:	62006b63 	andvs	r6, r0, #101376	; 0x18c00
 cc0:	63736544 	cmnvs	r3, #68, 10	; 0x11000000
 cc4:	74706972 	ldrbtvc	r6, [r0], #-2418	; 0xfffff68e
 cc8:	7954726f 	ldmdbvc	r4, {r0, r1, r2, r3, r5, r6, r9, ip, sp, lr}^
 ccc:	55006570 	strpl	r6, [r0, #-1392]	; 0xfffffa90
 cd0:	535f4253 	cmppl	pc, #805306373	; 0x30000005
 cd4:	6e697274 	mcrvs	2, 3, r7, cr9, cr4, {3}
 cd8:	6e614d67 	cdpvs	13, 6, cr4, cr1, cr7, {3}
 cdc:	63616675 	cmnvs	r1, #122683392	; 0x7500000
 ce0:	69727574 	ldmdbvs	r2!, {r2, r4, r5, r6, r8, sl, ip, sp, lr}^
 ce4:	6544676e 	strbvs	r6, [r4, #-1902]	; 0xfffff892
 ce8:	69726373 	ldmdbvs	r2!, {r0, r1, r4, r5, r6, r8, r9, sp, lr}^
 cec:	726f7470 	rsbvc	r7, pc, #112, 8	; 0x70000000
 cf0:	6c675f00 	stclvs	15, cr5, [r7], #-0
 cf4:	5f006575 	svcpl	0x00006575
 cf8:	6c67735f 	stclvs	3, cr7, [r7], #-380	; 0xfffffe84
 cfc:	5f006575 	svcpl	0x00006575
 d00:	74727473 	ldrbtvc	r7, [r2], #-1139	; 0xfffffb8d
 d04:	6c5f6b6f 	mrrcvs	11, 6, r6, pc, cr15	; <UNPREDICTABLE>
 d08:	00747361 	rsbseq	r7, r4, r1, ror #6
 d0c:	74626d5f 	strbtvc	r6, [r2], #-3423	; 0xfffff2a1
 d10:	5f63776f 	svcpl	0x0063776f
 d14:	74617473 	strbtvc	r7, [r1], #-1139	; 0xfffffb8d
 d18:	6c5f0065 	mrrcvs	0, 6, r0, pc, cr5	; <UNPREDICTABLE>
 d1c:	6c61636f 	stclvs	3, cr6, [r1], #-444	; 0xfffffe44
 d20:	665f0065 	ldrbvs	r0, [pc], -r5, rrx
 d24:	6772616e 	ldrbvs	r6, [r2, -lr, ror #2]!
 d28:	725f0073 	subsvc	r0, pc, #115	; 0x73
 d2c:	746e6565 	strbtvc	r6, [lr], #-1381	; 0xfffffa9b
 d30:	42535500 	subsmi	r5, r3, #0, 10
 d34:	7274535f 	rsbsvc	r5, r4, #2080374785	; 0x7c000001
 d38:	50676e69 	rsbpl	r6, r7, r9, ror #28
 d3c:	44646f72 	strbtmi	r6, [r4], #-3954	; 0xfffff08e
 d40:	72637365 	rsbvc	r7, r3, #-1811939327	; 0x94000001
 d44:	6f747069 	svcvs	0x00747069
 d48:	665f0072 			; <UNDEFINED> instruction: 0x665f0072
 d4c:	7079746e 	rsbsvc	r7, r9, lr, ror #8
 d50:	5f007365 	svcpl	0x00007365
 d54:	5f66666f 	svcpl	0x0066666f
 d58:	6e5f0074 	mrcvs	0, 2, r0, cr15, cr4, {3}
 d5c:	00667562 	rsbeq	r7, r6, r2, ror #10
 d60:	756e755f 	strbvc	r7, [lr, #-1375]!	; 0xfffffaa1
 d64:	5f646573 	svcpl	0x00646573
 d68:	646e6172 	strbtvs	r6, [lr], #-370	; 0xfffffe8e
 d6c:	654c6200 	strbvs	r6, [ip, #-512]	; 0xfffffe00
 d70:	6874676e 	ldmdavs	r4!, {r1, r2, r3, r5, r6, r8, r9, sl, sp, lr}^
 d74:	6c665f00 	stclvs	15, cr5, [r6], #-0
 d78:	32736761 	rsbscc	r6, r3, #25427968	; 0x1840000
 d7c:	73695f00 	cmnvc	r9, #0, 30
 d80:	6178635f 	cmnvs	r8, pc, asr r3
 d84:	65735f00 	ldrbvs	r5, [r3, #-3840]!	; 0xfffff100
 d88:	5f006465 	svcpl	0x00006465
 d8c:	646e6172 	strbtvs	r6, [lr], #-370	; 0xfffffe8e
 d90:	78656e5f 	stmdavc	r5!, {r0, r1, r2, r3, r4, r6, r9, sl, fp, sp, lr}^
 d94:	5f5f0074 	svcpl	0x005f0074
 d98:	61636f6c 	cmnvs	r3, ip, ror #30
 d9c:	745f656c 	ldrbvc	r6, [pc], #-1388	; da4 <__Stack_Size+0x9a4>
 da0:	74735f00 	ldrbtvc	r5, [r3], #-3840	; 0xfffff100
 da4:	72726564 	rsbsvc	r6, r2, #100, 10	; 0x19000000
 da8:	6e697700 	cdpvs	7, 6, cr7, cr9, cr0, {0}
 dac:	00745f74 	rsbseq	r5, r4, r4, ror pc
 db0:	2e2f2e2e 	cdpcs	14, 2, cr2, cr15, cr14, {1}
 db4:	2e2e2f2e 	cdpcs	15, 2, cr2, cr14, cr14, {1}
 db8:	2f2e2e2f 	svccs	0x002e2e2f
 dbc:	2e2f2e2e 	cdpcs	14, 2, cr2, cr15, cr14, {1}
 dc0:	2e2e2f2e 	cdpcs	15, 2, cr2, cr14, cr14, {1}
 dc4:	2f2e2e2f 	svccs	0x002e2e2f
 dc8:	6e2f2e2e 	cdpvs	14, 2, cr2, cr15, cr14, {1}
 dcc:	696c7765 	stmdbvs	ip!, {r0, r2, r5, r6, r8, r9, sl, ip, sp, lr}^
 dd0:	696c2f62 	stmdbvs	ip!, {r1, r5, r6, r8, r9, sl, fp, sp}^
 dd4:	6d2f6362 	stcvs	3, cr6, [pc, #-392]!	; c54 <__Stack_Size+0x854>
 dd8:	69686361 	stmdbvs	r8!, {r0, r5, r6, r8, r9, sp, lr}^
 ddc:	612f656e 			; <UNDEFINED> instruction: 0x612f656e
 de0:	6d2f6d72 	stcvs	13, cr6, [pc, #-456]!	; c20 <__Stack_Size+0x820>
 de4:	70636d65 	rsbvc	r6, r3, r5, ror #26
 de8:	72612d79 	rsbvc	r2, r1, #7744	; 0x1e40
 dec:	6d37766d 	ldcvs	6, cr7, [r7, #-436]!	; 0xfffffe4c
 df0:	2f00532e 	svccs	0x0000532e
 df4:	6c697562 	cfstr64vs	mvdx7, [r9], #-392	; 0xfffffe78
 df8:	656e2f64 	strbvs	r2, [lr, #-3940]!	; 0xfffff09c
 dfc:	62696c77 	rsbvs	r6, r9, #30464	; 0x7700
 e00:	67476b2d 	strbvs	r6, [r7, -sp, lsr #22]
 e04:	2f457776 	svccs	0x00457776
 e08:	6c77656e 	cfldr64vs	mvdx6, [r7], #-440	; 0xfffffe48
 e0c:	332d6269 			; <UNDEFINED> instruction: 0x332d6269
 e10:	302e332e 	eorcc	r3, lr, lr, lsr #6
 e14:	6975622f 	ldmdbvs	r5!, {r0, r1, r2, r3, r5, r9, sp, lr}^
 e18:	612f646c 			; <UNDEFINED> instruction: 0x612f646c
 e1c:	6e2d6d72 	mcrvs	13, 1, r6, cr13, cr2, {3}
 e20:	2d656e6f 	stclcs	14, cr6, [r5, #-444]!	; 0xfffffe44
 e24:	69626165 	stmdbvs	r2!, {r0, r2, r5, r6, r8, sp, lr}^
 e28:	7568742f 	strbvc	r7, [r8, #-1071]!	; 0xfffffbd1
 e2c:	762f626d 	strtvc	r6, [pc], -sp, ror #4
 e30:	2f6d2d37 	svccs	0x006d2d37
 e34:	70666f6e 	rsbvc	r6, r6, lr, ror #30
 e38:	77656e2f 	strbvc	r6, [r5, -pc, lsr #28]!
 e3c:	2f62696c 	svccs	0x0062696c
 e40:	6362696c 	cmnvs	r2, #108, 18	; 0x1b0000
 e44:	63616d2f 	cmnvs	r1, #3008	; 0xbc0
 e48:	656e6968 	strbvs	r6, [lr, #-2408]!	; 0xfffff698
 e4c:	6d72612f 	ldfvse	f6, [r2, #-188]!	; 0xffffff44
 e50:	554e4700 	strbpl	r4, [lr, #-1792]	; 0xfffff900
 e54:	20534120 	subscs	r4, r3, r0, lsr #2
 e58:	32332e32 	eorscc	r2, r3, #800	; 0x320
 e5c:	0031352e 	eorseq	r3, r1, lr, lsr #10

Disassembly of section .debug_loc:

00000000 <.debug_loc>:
       0:	08000b40 	stmdaeq	r0, {r6, r8, r9, fp}
       4:	08000b42 	stmdaeq	r0, {r1, r6, r8, r9, fp}
       8:	007d0002 	rsbseq	r0, sp, r2
       c:	08000b42 	stmdaeq	r0, {r1, r6, r8, r9, fp}
      10:	08000bbc 	stmdaeq	r0, {r2, r3, r4, r5, r7, r8, r9, fp}
      14:	107d0002 	rsbsne	r0, sp, r2
	...
      24:	08000b54 	stmdaeq	r0, {r2, r4, r6, r8, r9, fp}
      28:	08000b64 	stmdaeq	r0, {r2, r5, r6, r8, r9, fp}
      2c:	64530001 	ldrbvs	r0, [r3], #-1
      30:	6e08000b 	cdpvs	0, 0, cr0, cr8, cr11, {0}
      34:	0208000b 	andeq	r0, r8, #11
      38:	00007400 	andeq	r7, r0, r0, lsl #8
	...
      44:	64000000 	strvs	r0, [r0], #-0
      48:	7008000b 	andvc	r0, r8, fp
      4c:	0108000b 	tsteq	r8, fp
      50:	0b705300 	bleq	1c14c58 <__Stack_Size+0x1c14858>
      54:	0b7a0800 	bleq	1e8205c <__Stack_Size+0x1e81c5c>
      58:	00020800 	andeq	r0, r2, r0, lsl #16
      5c:	00000074 	andeq	r0, r0, r4, ror r0
	...
      68:	0b700000 	bleq	1c00070 <__Stack_Size+0x1bffc70>
      6c:	0b7c0800 	bleq	1f02074 <__Stack_Size+0x1f01c74>
      70:	00010800 	andeq	r0, r1, r0, lsl #16
      74:	000b7c53 	andeq	r7, fp, r3, asr ip
      78:	000b8608 	andeq	r8, fp, r8, lsl #12
      7c:	74000208 	strvc	r0, [r0], #-520	; 0xfffffdf8
	...
      8c:	000b7c00 	andeq	r7, fp, r0, lsl #24
      90:	000b8808 	andeq	r8, fp, r8, lsl #16
      94:	53000108 	movwpl	r0, #264	; 0x108
      98:	08000b88 	stmdaeq	r0, {r3, r7, r8, r9, fp}
      9c:	08000b92 	stmdaeq	r0, {r1, r4, r7, r8, r9, fp}
      a0:	04720002 	ldrbteq	r0, [r2], #-2
	...
      ac:	0b880000 	bleq	fe2000b4 <BootRAM+0xd170855>
      b0:	0b950800 	bleq	fe5420b8 <BootRAM+0xd4b2859>
      b4:	00010800 	andeq	r0, r1, r0, lsl #16
      b8:	00000053 	andeq	r0, r0, r3, asr r0
      bc:	00000000 	andeq	r0, r0, r0
      c0:	02020000 	andeq	r0, r2, #0
      c4:	d0000000 	andle	r0, r0, r0
      c8:	d0080001 	andle	r0, r8, r1
      cc:	01080001 	tsteq	r8, r1
      d0:	01d05000 	bicseq	r5, r0, r0
      d4:	01d40800 	bicseq	r0, r4, r0, lsl #16
      d8:	00010800 	andeq	r0, r1, r0, lsl #16
      dc:	0001d450 	andeq	sp, r1, r0, asr r4
      e0:	0001dc08 	andeq	sp, r1, r8, lsl #24
      e4:	70000308 	andvc	r0, r0, r8, lsl #6
      e8:	00009f01 	andeq	r9, r0, r1, lsl #30
      ec:	00000000 	andeq	r0, r0, r0
      f0:	00010000 	andeq	r0, r1, r0
	...
      fc:	0800013a 	stmdaeq	r0, {r1, r3, r4, r5, r8}
     100:	0800013e 	stmdaeq	r0, {r1, r2, r3, r4, r5, r8}
     104:	9f300002 	svcls	0x00300002
     108:	0800013e 	stmdaeq	r0, {r1, r2, r3, r4, r5, r8}
     10c:	08000144 	stmdaeq	r0, {r2, r6, r8}
     110:	ff0a0007 			; <UNDEFINED> instruction: 0xff0a0007
     114:	1c00720f 	sfmne	f7, 4, [r0], {15}
     118:	0001449f 	muleq	r1, pc, r4	; <UNPREDICTABLE>
     11c:	00014608 	andeq	r4, r1, r8, lsl #12
     120:	0a000708 	beq	1d48 <__Stack_Size+0x1948>
     124:	00721000 	rsbseq	r1, r2, r0
     128:	01469f1c 	cmpeq	r6, ip, lsl pc
     12c:	014c0800 	cmpeq	ip, r0, lsl #16
     130:	00070800 	andeq	r0, r7, r0, lsl #16
     134:	720fff0a 	andvc	pc, pc, #10, 30	; 0x28
     138:	4c9f1c00 	ldcmi	12, cr1, [pc], {0}
     13c:	cc080001 	stcgt	0, cr0, [r8], {1}
     140:	04080001 	streq	r0, [r8], #-1
     144:	1fff0a00 	svcne	0x00ff0a00
     148:	0000009f 	muleq	r0, pc, r0	; <UNPREDICTABLE>
	...
     154:	00000101 	andeq	r0, r0, r1, lsl #2
     158:	00000000 	andeq	r0, r0, r0
     15c:	00000100 	andeq	r0, r0, r0, lsl #2
     160:	00000000 	andeq	r0, r0, r0
     164:	00014c00 	andeq	r4, r1, r0, lsl #24
     168:	00015008 	andeq	r5, r1, r8
     16c:	0a000708 	beq	1d94 <__Stack_Size+0x1994>
     170:	00720fff 	ldrshteq	r0, [r2], #-255	; 0xffffff01
     174:	01509f1c 	cmpeq	r0, ip, lsl pc
     178:	015c0800 	cmpeq	ip, r0, lsl #16
     17c:	00040800 	andeq	r0, r4, r0, lsl #16
     180:	9f1fff0a 	svcls	0x001fff0a
     184:	0800015c 	stmdaeq	r0, {r2, r3, r4, r6, r8}
     188:	08000160 	stmdaeq	r0, {r5, r6, r8}
     18c:	9f300002 	svcls	0x00300002
     190:	08000160 	stmdaeq	r0, {r5, r6, r8}
     194:	0800016a 	stmdaeq	r0, {r1, r3, r5, r6, r8}
     198:	ff0a0007 			; <UNDEFINED> instruction: 0xff0a0007
     19c:	1c00720f 	sfmne	f7, 4, [r0], {15}
     1a0:	00016a9f 	muleq	r1, pc, sl	; <UNPREDICTABLE>
     1a4:	00016c08 	andeq	r6, r1, r8, lsl #24
     1a8:	0a000708 	beq	1dd0 <__Stack_Size+0x19d0>
     1ac:	00721000 	rsbseq	r1, r2, r0
     1b0:	016c9f1c 	cmneq	ip, ip, lsl pc
     1b4:	01720800 	cmneq	r2, r0, lsl #16
     1b8:	00070800 	andeq	r0, r7, r0, lsl #16
     1bc:	720fff0a 	andvc	pc, pc, #10, 30	; 0x28
     1c0:	ac9f1c00 	ldcge	12, cr1, [pc], {0}
     1c4:	b0080001 	andlt	r0, r8, r1
     1c8:	02080001 	andeq	r0, r8, #1
     1cc:	b09f3000 	addslt	r3, pc, r0
     1d0:	b6080001 	strlt	r0, [r8], -r1
     1d4:	07080001 	streq	r0, [r8, -r1]
     1d8:	0fff0a00 	svceq	0x00ff0a00
     1dc:	9f1c0072 	svcls	0x001c0072
     1e0:	080001b6 	stmdaeq	r0, {r1, r2, r4, r5, r7, r8}
     1e4:	080001b8 	stmdaeq	r0, {r3, r4, r5, r7, r8}
     1e8:	000a0007 	andeq	r0, sl, r7
     1ec:	1c007210 	sfmne	f7, 4, [r0], {16}
     1f0:	0001b89f 	muleq	r1, pc, r8	; <UNPREDICTABLE>
     1f4:	0001cc08 	andeq	ip, r1, r8, lsl #24
     1f8:	0a000708 	beq	1e20 <__Stack_Size+0x1a20>
     1fc:	00720fff 	ldrshteq	r0, [r2], #-255	; 0xffffff01
     200:	00009f1c 	andeq	r9, r0, ip, lsl pc
	...
     210:	02010100 	andeq	r0, r1, #0, 2
     214:	05030302 	streq	r0, [r3, #-770]	; 0xfffffcfe
     218:	00000005 	andeq	r0, r0, r5
     21c:	00000000 	andeq	r0, r0, r0
     220:	014c0000 	mrseq	r0, (UNDEF: 76)
     224:	01500800 	cmpeq	r0, r0, lsl #16
     228:	00020800 	andeq	r0, r2, r0, lsl #16
     22c:	01520473 	cmpeq	r2, r3, ror r4
     230:	01600800 	cmneq	r0, r0, lsl #16
     234:	00010800 	andeq	r0, r1, r0, lsl #16
     238:	00016052 	andeq	r6, r1, r2, asr r0
     23c:	00017208 	andeq	r7, r1, r8, lsl #4
     240:	73000208 	movwvc	r0, #520	; 0x208
     244:	00019604 	andeq	r9, r1, r4, lsl #12
     248:	00019608 	andeq	r9, r1, r8, lsl #12
     24c:	51000108 	tstpl	r0, r8, lsl #2
     250:	08000196 	stmdaeq	r0, {r1, r2, r4, r7, r8}
     254:	08000196 	stmdaeq	r0, {r1, r2, r4, r7, r8}
     258:	00710009 	rsbseq	r0, r1, r9
     25c:	8bffff11 	blhi	fffffea8 <BootRAM+0xef70649>
     260:	969f1a7e 			; <UNDEFINED> instruction: 0x969f1a7e
     264:	96080001 	strls	r0, [r8], -r1
     268:	0d080001 	stceq	0, cr0, [r8, #-4]
     26c:	11007100 	mrsne	r7, (UNDEF: 16)
     270:	7e8bffff 	mcrvc	15, 4, pc, cr11, cr15, {7}	; <UNPREDICTABLE>
     274:	24404d1a 	strbcs	r4, [r0], #-3354	; 0xfffff2e6
     278:	01969f21 	orrseq	r9, r6, r1, lsr #30
     27c:	01960800 	orrseq	r0, r6, r0, lsl #16
     280:	000d0800 	andeq	r0, sp, r0, lsl #16
     284:	8f110071 	svchi	0x00110071
     288:	1a7e8bfe 	bne	1fa3288 <__Stack_Size+0x1fa2e88>
     28c:	2124404d 			; <UNDEFINED> instruction: 0x2124404d
     290:	0001969f 	muleq	r1, pc, r6	; <UNPREDICTABLE>
     294:	00019a08 	andeq	r9, r1, r8, lsl #20
     298:	71000d08 	tstvc	r0, r8, lsl #26
     29c:	8e8f1100 	rmfhie	f1, f7, f0
     2a0:	4d1a7e8b 	ldcmi	14, cr7, [sl, #-556]	; 0xfffffdd4
     2a4:	9f212440 	svcls	0x00212440
     2a8:	0800019a 	stmdaeq	r0, {r1, r3, r4, r7, r8}
     2ac:	0800019e 	stmdaeq	r0, {r1, r2, r3, r4, r7, r8}
     2b0:	00720007 	rsbseq	r0, r2, r7
     2b4:	2124404d 			; <UNDEFINED> instruction: 0x2124404d
     2b8:	00019e9f 	muleq	r1, pc, lr	; <UNPREDICTABLE>
     2bc:	0001a608 	andeq	sl, r1, r8, lsl #12
     2c0:	52000108 	andpl	r0, r0, #8, 2
     2c4:	080001a6 	stmdaeq	r0, {r1, r2, r5, r7, r8}
     2c8:	080001ac 	stmdaeq	r0, {r2, r3, r5, r7, r8}
     2cc:	04730002 	ldrbteq	r0, [r3], #-2
     2d0:	080001ac 	stmdaeq	r0, {r2, r3, r5, r7, r8}
     2d4:	080001b0 	stmdaeq	r0, {r4, r5, r7, r8}
     2d8:	0071000f 	rsbseq	r0, r1, pc
     2dc:	8b808f11 	blhi	fe023f28 <BootRAM+0xcf946c9>
     2e0:	000c1a7e 	andeq	r1, ip, lr, ror sl
     2e4:	21001d04 	tstcs	r0, r4, lsl #26
     2e8:	0000009f 	muleq	r0, pc, r0	; <UNPREDICTABLE>
     2ec:	00000000 	andeq	r0, r0, r0
     2f0:	00048800 	andeq	r8, r4, r0, lsl #16
     2f4:	00048a00 	andeq	r8, r4, r0, lsl #20
     2f8:	7d000200 	sfmvc	f0, 4, [r0, #-0]
     2fc:	00048a00 	andeq	r8, r4, r0, lsl #20
     300:	0004e200 	andeq	lr, r4, r0, lsl #4
     304:	7d000200 	sfmvc	f0, 4, [r0, #-0]
     308:	0000000c 	andeq	r0, r0, ip
	...
     314:	00048800 	andeq	r8, r4, r0, lsl #16
     318:	00049800 	andeq	r9, r4, r0, lsl #16
     31c:	50000100 	andpl	r0, r0, r0, lsl #2
     320:	00000498 	muleq	r0, r8, r4
     324:	000004e2 	andeq	r0, r0, r2, ror #9
     328:	01f30004 	mvnseq	r0, r4
     32c:	00009f50 	andeq	r9, r0, r0, asr pc
	...
     33c:	00000488 	andeq	r0, r0, r8, lsl #9
     340:	000004b0 			; <UNDEFINED> instruction: 0x000004b0
     344:	b0510001 	subslt	r0, r1, r1
     348:	b4000004 	strlt	r0, [r0], #-4
     34c:	03000004 	movweq	r0, #4
     350:	9f027100 	svcls	0x00027100
     354:	000004b4 			; <UNDEFINED> instruction: 0x000004b4
     358:	000004e2 	andeq	r0, r0, r2, ror #9
     35c:	01f30004 	mvnseq	r0, r4
     360:	00009f51 	andeq	r9, r0, r1, asr pc
	...
     36c:	04940000 	ldreq	r0, [r4], #0
     370:	04a00000 	strteq	r0, [r0], #0
     374:	00010000 	andeq	r0, r1, r0
     378:	0004a052 	andeq	sl, r4, r2, asr r0
     37c:	0004c200 	andeq	ip, r4, r0, lsl #4
     380:	73000b00 	movwvc	r0, #2816	; 0xb00
     384:	23243300 			; <UNDEFINED> instruction: 0x23243300
     388:	8081c080 	addhi	ip, r1, r0, lsl #1
     38c:	00009f04 	andeq	r9, r0, r4, lsl #30
	...
     398:	0000049c 	muleq	r0, ip, r4
     39c:	000004e2 	andeq	r0, r0, r2, ror #9
     3a0:	00500001 	subseq	r0, r0, r1
     3a4:	00000000 	andeq	r0, r0, r0
     3a8:	01000000 	mrseq	r0, (UNDEF: 0)
     3ac:	00000000 	andeq	r0, r0, r0
     3b0:	00049e01 	andeq	r9, r4, r1, lsl #28
     3b4:	0004ae00 	andeq	sl, r4, r0, lsl #28
     3b8:	70000500 	andvc	r0, r0, r0, lsl #10
     3bc:	9f263101 	svcls	0x00263101
     3c0:	000004ae 	andeq	r0, r0, lr, lsr #9
     3c4:	000004b4 			; <UNDEFINED> instruction: 0x000004b4
     3c8:	b4540001 	ldrblt	r0, [r4], #-1
     3cc:	e0000004 	and	r0, r0, r4
     3d0:	05000004 	streq	r0, [r0, #-4]
     3d4:	31017000 	mrscc	r7, (UNDEF: 1)
     3d8:	00009f26 	andeq	r9, r0, r6, lsr #30
	...
     3e8:	000004ac 	andeq	r0, r0, ip, lsr #9
     3ec:	000004b8 			; <UNDEFINED> instruction: 0x000004b8
     3f0:	b8520001 	ldmdalt	r2, {r0}^
     3f4:	be000004 	cdplt	0, 0, cr0, cr0, cr4, {0}
     3f8:	03000004 	movweq	r0, #4
     3fc:	9f7c7200 	svcls	0x007c7200
     400:	000004be 			; <UNDEFINED> instruction: 0x000004be
     404:	000004ce 	andeq	r0, r0, lr, asr #9
     408:	00520001 	subseq	r0, r2, r1
     40c:	00000000 	andeq	r0, r0, r0
     410:	02000000 	andeq	r0, r0, #0
     414:	0004ac00 	andeq	sl, r4, r0, lsl #24
     418:	0004b400 	andeq	fp, r4, r0, lsl #8
     41c:	30000200 	andcc	r0, r0, r0, lsl #4
     420:	0000009f 	muleq	r0, pc, r0	; <UNPREDICTABLE>
     424:	00000000 	andeq	r0, r0, r0
     428:	0003d800 	andeq	sp, r3, r0, lsl #16
     42c:	0003da00 	andeq	sp, r3, r0, lsl #20
     430:	7d000200 	sfmvc	f0, 4, [r0, #-0]
     434:	0003da00 	andeq	sp, r3, r0, lsl #20
     438:	00042c00 	andeq	r2, r4, r0, lsl #24
     43c:	7d000200 	sfmvc	f0, 4, [r0, #-0]
     440:	00000014 	andeq	r0, r0, r4, lsl r0
	...
     44c:	d8000000 	stmdale	r0, {}	; <UNPREDICTABLE>
     450:	fe000003 	cdp2	0, 0, cr0, cr0, cr3, {0}
     454:	01000003 	tsteq	r0, r3
     458:	03fe5000 	mvnseq	r5, #0
     45c:	04200000 	strteq	r0, [r0], #-0
     460:	00040000 	andeq	r0, r4, r0
     464:	9f5001f3 	svcls	0x005001f3
     468:	00000420 	andeq	r0, r0, r0, lsr #8
     46c:	0000042c 	andeq	r0, r0, ip, lsr #8
     470:	00500001 	subseq	r0, r0, r1
	...
     47c:	0003e600 	andeq	lr, r3, r0, lsl #12
     480:	00042c00 	andeq	r2, r4, r0, lsl #24
     484:	54000100 	strpl	r0, [r0], #-256	; 0xffffff00
	...
     490:	03f40000 	mvnseq	r0, #0
     494:	042c0000 	strteq	r0, [ip], #-0
     498:	00010000 	andeq	r0, r1, r0
     49c:	00000056 	andeq	r0, r0, r6, asr r0
     4a0:	00000000 	andeq	r0, r0, r0
     4a4:	f4000100 	vst4.8	{d0,d2,d4,d6}, [r0], r0
     4a8:	2c000003 	stccs	0, cr0, [r0], {3}
     4ac:	01000004 	tsteq	r0, r4
     4b0:	00005100 	andeq	r5, r0, r0, lsl #2
     4b4:	00000000 	andeq	r0, r0, r0
     4b8:	02000000 	andeq	r0, r0, #0
     4bc:	00000002 	andeq	r0, r0, r2
     4c0:	000003f6 	strdeq	r0, [r0], -r6
     4c4:	000003f6 	strdeq	r0, [r0], -r6
     4c8:	f6530001 			; <UNDEFINED> instruction: 0xf6530001
     4cc:	0c000003 	stceq	0, cr0, [r0], {3}
     4d0:	08000004 	stmdaeq	r0, {r2}
     4d4:	32007500 	andcc	r7, r0, #0, 10
     4d8:	22007324 	andcs	r7, r0, #36, 6	; 0x90000000
     4dc:	0004209f 	muleq	r4, pc, r0	; <UNPREDICTABLE>
     4e0:	00042800 	andeq	r2, r4, r0, lsl #16
     4e4:	75000800 	strvc	r0, [r0, #-2048]	; 0xfffff800
     4e8:	73243200 			; <UNDEFINED> instruction: 0x73243200
     4ec:	009f2200 	addseq	r2, pc, r0, lsl #4
     4f0:	00000000 	andeq	r0, r0, r0
     4f4:	02000000 	andeq	r0, r0, #0
     4f8:	f6000000 			; <UNDEFINED> instruction: 0xf6000000
     4fc:	28000003 	stmdacs	r0, {r0, r1}
     500:	01000004 	tsteq	r0, r4
     504:	04285500 	strteq	r5, [r8], #-1280	; 0xfffffb00
     508:	042a0000 	strteq	r0, [sl], #-0
     50c:	00030000 	andeq	r0, r3, r0
     510:	009f0175 	addseq	r0, pc, r5, ror r1	; <UNPREDICTABLE>
     514:	00000000 	andeq	r0, r0, r0
     518:	b0000000 	andlt	r0, r0, r0
     51c:	b2000002 	andlt	r0, r0, #2
     520:	02000002 	andeq	r0, r0, #2
     524:	b2007d00 	andlt	r7, r0, #0, 26
     528:	d8000002 	stmdale	r0, {r1}
     52c:	02000003 	andeq	r0, r0, #3
     530:	00107d00 	andseq	r7, r0, r0, lsl #26
     534:	00000000 	andeq	r0, r0, r0
     538:	02000000 	andeq	r0, r0, #0
     53c:	d8000000 	stmdale	r0, {}	; <UNPREDICTABLE>
     540:	dc000002 	stcle	0, cr0, [r0], {2}
     544:	02000002 	andeq	r0, r0, #2
     548:	dc9f3000 	ldcle	0, cr3, [pc], {0}
     54c:	de000002 	cdple	0, 0, cr0, cr0, cr2, {0}
     550:	05000002 	streq	r0, [r0, #-2]
     554:	00743800 	rsbseq	r3, r4, r0, lsl #16
     558:	00009f1c 	andeq	r9, r0, ip, lsl pc
	...
     564:	00000328 	andeq	r0, r0, r8, lsr #6
     568:	00000374 	andeq	r0, r0, r4, ror r3
     56c:	00550001 	subseq	r0, r5, r1
     570:	00000000 	andeq	r0, r0, r0
     574:	64000000 	strvs	r0, [r0], #-0
     578:	66000001 	strvs	r0, [r0], -r1
     57c:	02000001 	andeq	r0, r0, #1
     580:	66007d00 	strvs	r7, [r0], -r0, lsl #26
     584:	b0000001 	andlt	r0, r0, r1
     588:	02000002 	andeq	r0, r0, #2
     58c:	00147d00 	andseq	r7, r4, r0, lsl #26
	...
     598:	64000000 	strvs	r0, [r0], #-0
     59c:	6e000001 	cdpvs	0, 0, cr0, cr0, cr1, {0}
     5a0:	01000001 	tsteq	r0, r1
     5a4:	016e5000 	cmneq	lr, r0
     5a8:	02b00000 	adcseq	r0, r0, #0
     5ac:	00010000 	andeq	r0, r1, r0
     5b0:	00000056 	andeq	r0, r0, r6, asr r0
	...
     5c8:	00016400 	andeq	r6, r1, r0, lsl #8
     5cc:	0001ba00 	andeq	fp, r1, r0, lsl #20
     5d0:	51000100 	mrspl	r0, (UNDEF: 16)
     5d4:	000001ba 			; <UNDEFINED> instruction: 0x000001ba
     5d8:	000001c0 	andeq	r0, r0, r0, asr #3
     5dc:	01f30004 	mvnseq	r0, r4
     5e0:	01c09f51 	biceq	r9, r0, r1, asr pc
     5e4:	01c40000 	biceq	r0, r4, r0
     5e8:	00010000 	andeq	r0, r1, r0
     5ec:	0001c451 	andeq	ip, r1, r1, asr r4
     5f0:	00022400 	andeq	r2, r2, r0, lsl #8
     5f4:	f3000400 	vshl.u8	d0, d0, d0
     5f8:	249f5101 	ldrcs	r5, [pc], #257	; 600 <__Stack_Size+0x200>
     5fc:	28000002 	stmdacs	r0, {r1}
     600:	01000002 	tsteq	r0, r2
     604:	02285100 	eoreq	r5, r8, #0, 2
     608:	022a0000 	eoreq	r0, sl, #0
     60c:	00040000 	andeq	r0, r4, r0
     610:	9f5101f3 	svcls	0x005101f3
     614:	0000022a 	andeq	r0, r0, sl, lsr #4
     618:	0000022e 	andeq	r0, r0, lr, lsr #4
     61c:	2e510001 	cdpcs	0, 5, cr0, cr1, cr1, {0}
     620:	b0000002 	andlt	r0, r0, r2
     624:	04000002 	streq	r0, [r0], #-2
     628:	5101f300 	mrspl	pc, SP_irq	; <UNPREDICTABLE>
     62c:	0000009f 	muleq	r0, pc, r0	; <UNPREDICTABLE>
	...
     638:	64000000 	strvs	r0, [r0], #-0
     63c:	16000001 	strne	r0, [r0], -r1
     640:	01000002 	tsteq	r0, r2
     644:	02165200 	andseq	r5, r6, #0, 4
     648:	02240000 	eoreq	r0, r4, #0
     64c:	00040000 	andeq	r0, r4, r0
     650:	9f5201f3 	svcls	0x005201f3
     654:	00000224 	andeq	r0, r0, r4, lsr #4
     658:	000002b0 			; <UNDEFINED> instruction: 0x000002b0
     65c:	00520001 	subseq	r0, r2, r1
     660:	00000000 	andeq	r0, r0, r0
     664:	02000000 	andeq	r0, r0, #0
     668:	00000000 	andeq	r0, r0, r0
     66c:	64000000 	strvs	r0, [r0], #-0
     670:	e2000001 	and	r0, r0, #1
     674:	06000001 	streq	r0, [r0], -r1
     678:	09007000 	stmdbeq	r0, {ip, sp, lr}
     67c:	e29f1a80 	adds	r1, pc, #128, 20	; 0x80000
     680:	24000001 	strcs	r0, [r0], #-1
     684:	07000002 	streq	r0, [r0, -r2]
     688:	5001f300 	andpl	pc, r1, r0, lsl #6
     68c:	9f1a8009 	svcls	0x001a8009
     690:	00000224 	andeq	r0, r0, r4, lsr #4
     694:	00000230 	andeq	r0, r0, r0, lsr r2
     698:	00700006 	rsbseq	r0, r0, r6
     69c:	9f1a8009 	svcls	0x001a8009
     6a0:	00000230 	andeq	r0, r0, r0, lsr r2
     6a4:	000002b0 			; <UNDEFINED> instruction: 0x000002b0
     6a8:	01f30007 	mvnseq	r0, r7
     6ac:	1a800950 	bne	fe002bf4 <BootRAM+0xcf73395>
     6b0:	0000009f 	muleq	r0, pc, r0	; <UNPREDICTABLE>
     6b4:	00000000 	andeq	r0, r0, r0
     6b8:	01010000 	mrseq	r0, (UNDEF: 1)
     6bc:	00000202 	andeq	r0, r0, r2, lsl #4
	...
     6cc:	0001a400 	andeq	sl, r1, r0, lsl #8
     6d0:	0001a400 	andeq	sl, r1, r0, lsl #8
     6d4:	54000100 	strpl	r0, [r0], #-256	; 0xffffff00
     6d8:	000001a4 	andeq	r0, r0, r4, lsr #3
     6dc:	000001a4 	andeq	r0, r0, r4, lsr #3
     6e0:	0074000b 	rsbseq	r0, r4, fp
     6e4:	1a0f0f0a 	bne	3c4314 <__Stack_Size+0x3c3f14>
     6e8:	2180800b 	orrcs	r8, r0, fp
     6ec:	0001a49f 	muleq	r1, pc, r4	; <UNPREDICTABLE>
     6f0:	0001a800 	andeq	sl, r1, r0, lsl #16
     6f4:	74001100 	strvc	r1, [r0], #-256	; 0xffffff00
     6f8:	0f000a00 	svceq	0x00000a00
     6fc:	0800761a 	stmdaeq	r0, {r1, r3, r4, r9, sl, ip, sp, lr}
     700:	0b211aff 	bleq	847304 <__Stack_Size+0x846f04>
     704:	9f218080 	svcls	0x00218080
     708:	000001ac 	andeq	r0, r0, ip, lsr #3
     70c:	000001be 			; <UNDEFINED> instruction: 0x000001be
     710:	00740007 	rsbseq	r0, r4, r7
     714:	2180800b 	orrcs	r8, r0, fp
     718:	0001be9f 	muleq	r1, pc, lr	; <UNPREDICTABLE>
     71c:	0001c000 	andeq	ip, r1, r0
     720:	51000100 	mrspl	r0, (UNDEF: 16)
     724:	000001c0 	andeq	r0, r0, r0, asr #3
     728:	000001c4 	andeq	r0, r0, r4, asr #3
     72c:	00740007 	rsbseq	r0, r4, r7
     730:	2180800b 	orrcs	r8, r0, fp
     734:	0001c49f 	muleq	r1, pc, r4	; <UNPREDICTABLE>
     738:	0001d000 	andeq	sp, r1, r0
     73c:	51000100 	mrspl	r0, (UNDEF: 16)
     740:	000001d0 	ldrdeq	r0, [r0], -r0	; <UNPREDICTABLE>
     744:	000001e6 	andeq	r0, r0, r6, ror #3
     748:	00750002 	rsbseq	r0, r5, r2
     74c:	00000224 	andeq	r0, r0, r4, lsr #4
     750:	00000230 	andeq	r0, r0, r0, lsr r2
     754:	00740007 	rsbseq	r0, r4, r7
     758:	2180800b 	orrcs	r8, r0, fp
     75c:	0002309f 	muleq	r2, pc, r0	; <UNPREDICTABLE>
     760:	00023200 	andeq	r3, r2, r0, lsl #4
     764:	75000200 	strvc	r0, [r0, #-512]	; 0xfffffe00
	...
     770:	00007800 	andeq	r7, r0, r0, lsl #16
     774:	00007a00 	andeq	r7, r0, r0, lsl #20
     778:	7d000200 	sfmvc	f0, 4, [r0, #-0]
     77c:	00007a00 	andeq	r7, r0, r0, lsl #20
     780:	00016400 	andeq	r6, r1, r0, lsl #8
     784:	7d000200 	sfmvc	f0, 4, [r0, #-0]
     788:	00000014 	andeq	r0, r0, r4, lsl r0
	...
     794:	00007800 	andeq	r7, r0, r0, lsl #16
     798:	00007e00 	andeq	r7, r0, r0, lsl #28
     79c:	50000100 	andpl	r0, r0, r0, lsl #2
     7a0:	0000007e 	andeq	r0, r0, lr, ror r0
     7a4:	00000164 	andeq	r0, r0, r4, ror #2
     7a8:	00560001 	subseq	r0, r6, r1
	...
     7c0:	78000000 	stmdavc	r0, {}	; <UNPREDICTABLE>
     7c4:	c4000000 	strgt	r0, [r0], #-0
     7c8:	01000000 	mrseq	r0, (UNDEF: 0)
     7cc:	00c45100 	sbceq	r5, r4, r0, lsl #2
     7d0:	00c60000 	sbceq	r0, r6, r0
     7d4:	00040000 	andeq	r0, r4, r0
     7d8:	9f5101f3 	svcls	0x005101f3
     7dc:	000000c6 	andeq	r0, r0, r6, asr #1
     7e0:	000000ca 	andeq	r0, r0, sl, asr #1
     7e4:	ca510001 	bgt	14407f0 <__Stack_Size+0x14403f0>
     7e8:	06000000 	streq	r0, [r0], -r0
     7ec:	04000001 	streq	r0, [r0], #-1
     7f0:	5101f300 	mrspl	pc, SP_irq	; <UNPREDICTABLE>
     7f4:	0001069f 	muleq	r1, pc, r6	; <UNPREDICTABLE>
     7f8:	00010a00 	andeq	r0, r1, r0, lsl #20
     7fc:	51000100 	mrspl	r0, (UNDEF: 16)
     800:	0000010a 	andeq	r0, r0, sl, lsl #2
     804:	0000010c 	andeq	r0, r0, ip, lsl #2
     808:	01f30004 	mvnseq	r0, r4
     80c:	010c9f51 	tsteq	ip, r1, asr pc
     810:	01100000 	tsteq	r0, r0
     814:	00010000 	andeq	r0, r1, r0
     818:	00011051 	andeq	r1, r1, r1, asr r0
     81c:	00016400 	andeq	r6, r1, r0, lsl #8
     820:	f3000400 	vshl.u8	d0, d0, d0
     824:	009f5101 	addseq	r5, pc, r1, lsl #2
	...
     834:	00007800 	andeq	r7, r0, r0, lsl #16
     838:	00010000 	andeq	r0, r1, r0
     83c:	52000100 	andpl	r0, r0, #0, 2
     840:	00000100 	andeq	r0, r0, r0, lsl #2
     844:	00000102 	andeq	r0, r0, r2, lsl #2
     848:	01f30004 	mvnseq	r0, r4
     84c:	01069f52 	tsteq	r6, r2, asr pc
     850:	01640000 	cmneq	r4, r0
     854:	00010000 	andeq	r0, r1, r0
     858:	00000052 	andeq	r0, r0, r2, asr r0
	...
     868:	78000000 	stmdavc	r0, {}	; <UNPREDICTABLE>
     86c:	ee000000 	cdp	0, 0, cr0, cr0, cr0, {0}
     870:	01000000 	mrseq	r0, (UNDEF: 0)
     874:	00ee5300 	rsceq	r5, lr, r0, lsl #6
     878:	00fe0000 	rscseq	r0, lr, r0
     87c:	00070000 	andeq	r0, r7, r0
     880:	24320076 	ldrtcs	r0, [r2], #-118	; 0xffffff8a
     884:	fe220071 	mcr2	0, 1, r0, cr2, cr1, {3}
     888:	06000000 	streq	r0, [r0], -r0
     88c:	04000001 	streq	r0, [r0], #-1
     890:	5301f300 	movwpl	pc, #4864	; 0x1300	; <UNPREDICTABLE>
     894:	0001069f 	muleq	r1, pc, r6	; <UNPREDICTABLE>
     898:	00014600 	andeq	r4, r1, r0, lsl #12
     89c:	53000100 	movwpl	r0, #256	; 0x100
     8a0:	00000146 	andeq	r0, r0, r6, asr #2
     8a4:	00000164 	andeq	r0, r0, r4, ror #2
     8a8:	00760007 	rsbseq	r0, r6, r7
     8ac:	00712432 	rsbseq	r2, r1, r2, lsr r4
     8b0:	00000022 	andeq	r0, r0, r2, lsr #32
     8b4:	00000000 	andeq	r0, r0, r0
     8b8:	00000200 	andeq	r0, r0, r0, lsl #4
     8bc:	00007800 	andeq	r7, r0, r0, lsl #16
     8c0:	0000e200 	andeq	lr, r0, r0, lsl #4
     8c4:	70000600 	andvc	r0, r0, r0, lsl #12
     8c8:	1a800900 	bne	fe002cd0 <BootRAM+0xcf73471>
     8cc:	0000e29f 	muleq	r0, pc, r2	; <UNPREDICTABLE>
     8d0:	00016400 	andeq	r6, r1, r0, lsl #8
     8d4:	f3000700 	vabd.u8	d0, d0, d0
     8d8:	80095001 	andhi	r5, r9, r1
     8dc:	00009f1a 	andeq	r9, r0, sl, lsl pc
     8e0:	00000000 	andeq	r0, r0, r0
     8e4:	01000000 	mrseq	r0, (UNDEF: 0)
     8e8:	00020201 	andeq	r0, r2, r1, lsl #4
     8ec:	00000000 	andeq	r0, r0, r0
     8f0:	000000ae 	andeq	r0, r0, lr, lsr #1
     8f4:	000000ae 	andeq	r0, r0, lr, lsr #1
     8f8:	ae540001 	cdpge	0, 5, cr0, cr4, cr1, {0}
     8fc:	ae000000 	cdpge	0, 0, cr0, cr0, cr0, {0}
     900:	0b000000 	bleq	908 <__Stack_Size+0x508>
     904:	0a007400 	beq	1d90c <__Stack_Size+0x1d50c>
     908:	0b1a0f0f 	bleq	68454c <__Stack_Size+0x68414c>
     90c:	9f218080 	svcls	0x00218080
     910:	000000ae 	andeq	r0, r0, lr, lsr #1
     914:	000000b4 	strheq	r0, [r0], -r4
     918:	00740011 	rsbseq	r0, r4, r1, lsl r0
     91c:	1a0f000a 	bne	3c094c <__Stack_Size+0x3c054c>
     920:	ff080076 			; <UNDEFINED> instruction: 0xff080076
     924:	800b211a 	andhi	r2, fp, sl, lsl r1
     928:	b89f2180 	ldmlt	pc, {r7, r8, sp}	; <UNPREDICTABLE>
     92c:	ce000000 	cdpgt	0, 0, cr0, cr0, cr0, {0}
     930:	07000000 	streq	r0, [r0, -r0]
     934:	0b007400 	bleq	1d93c <__Stack_Size+0x1d53c>
     938:	9f218080 	svcls	0x00218080
     93c:	00000106 	andeq	r0, r0, r6, lsl #2
     940:	00000112 	andeq	r0, r0, r2, lsl r1
     944:	00740007 	rsbseq	r0, r4, r7
     948:	2180800b 	orrcs	r8, r0, fp
     94c:	0000009f 	muleq	r0, pc, r0	; <UNPREDICTABLE>
     950:	00000000 	andeq	r0, r0, r0
     954:	0004e200 	andeq	lr, r4, r0, lsl #4
     958:	0004e400 	andeq	lr, r4, r0, lsl #8
     95c:	7d000200 	sfmvc	f0, 4, [r0, #-0]
     960:	0004e400 	andeq	lr, r4, r0, lsl #8
     964:	00057000 	andeq	r7, r5, r0
     968:	7d000200 	sfmvc	f0, 4, [r0, #-0]
     96c:	00057018 	andeq	r7, r5, r8, lsl r0
     970:	00057200 	andeq	r7, r5, r0, lsl #4
     974:	7d000200 	sfmvc	f0, 4, [r0, #-0]
     978:	00057210 	andeq	r7, r5, r0, lsl r2
     97c:	0005fc00 	andeq	pc, r5, r0, lsl #24
     980:	7d000200 	sfmvc	f0, 4, [r0, #-0]
     984:	00000018 	andeq	r0, r0, r8, lsl r0
	...
     994:	0004e200 	andeq	lr, r4, r0, lsl #4
     998:	00050800 	andeq	r0, r5, r0, lsl #16
     99c:	50000100 	andpl	r0, r0, r0, lsl #2
     9a0:	00000508 	andeq	r0, r0, r8, lsl #10
     9a4:	00000532 	andeq	r0, r0, r2, lsr r5
     9a8:	01f30004 	mvnseq	r0, r4
     9ac:	05329f50 	ldreq	r9, [r2, #-3920]!	; 0xfffff0b0
     9b0:	053c0000 	ldreq	r0, [ip, #-0]!
     9b4:	00010000 	andeq	r0, r1, r0
     9b8:	00053c50 	andeq	r3, r5, r0, asr ip
     9bc:	0005fc00 	andeq	pc, r5, r0, lsl #24
     9c0:	f3000400 	vshl.u8	d0, d0, d0
     9c4:	009f5001 	addseq	r5, pc, r1
     9c8:	00000000 	andeq	r0, r0, r0
     9cc:	01000000 	mrseq	r0, (UNDEF: 0)
     9d0:	00000000 	andeq	r0, r0, r0
     9d4:	0e000003 	cdpeq	0, 0, cr0, cr0, cr3, {0}
     9d8:	2c000005 	stccs	0, cr0, [r0], {5}
     9dc:	01000005 	tsteq	r0, r5
     9e0:	053c5500 	ldreq	r5, [ip, #-1280]!	; 0xfffffb00
     9e4:	056e0000 	strbeq	r0, [lr, #-0]!
     9e8:	00010000 	andeq	r0, r1, r0
     9ec:	00057255 	andeq	r7, r5, r5, asr r2
     9f0:	00059e00 	andeq	r9, r5, r0, lsl #28
     9f4:	55000100 	strpl	r0, [r0, #-256]	; 0xffffff00
     9f8:	000005a6 	andeq	r0, r0, r6, lsr #11
     9fc:	000005d6 	ldrdeq	r0, [r0], -r6
     a00:	00550001 	subseq	r0, r5, r1
     a04:	00000000 	andeq	r0, r0, r0
     a08:	01000000 	mrseq	r0, (UNDEF: 0)
     a0c:	0004f400 	andeq	pc, r4, r0, lsl #8
     a10:	0004fe00 	andeq	pc, r4, r0, lsl #28
     a14:	73000b00 	movwvc	r0, #2816	; 0xb00
     a18:	08000a00 	stmdaeq	r0, {r9, fp}
     a1c:	3024401a 	eorcc	r4, r4, sl, lsl r0
     a20:	00009f2e 	andeq	r9, r0, lr, lsr #30
	...
     a30:	03000000 	movweq	r0, #0
     a34:	05140000 	ldreq	r0, [r4, #-0]
     a38:	052c0000 	streq	r0, [ip, #-0]!
     a3c:	00010000 	andeq	r0, r1, r0
     a40:	00053c53 	andeq	r3, r5, r3, asr ip
     a44:	00054f00 	andeq	r4, r5, r0, lsl #30
     a48:	53000100 	movwpl	r0, #256	; 0x100
     a4c:	00000572 	andeq	r0, r0, r2, ror r5
     a50:	0000057c 	andeq	r0, r0, ip, ror r5
     a54:	7c530001 	mrrcvc	0, 0, r0, r3, cr1
     a58:	8f000005 	svchi	0x00000005
     a5c:	0b000005 	bleq	a78 <__Stack_Size+0x678>
     a60:	000c0300 	andeq	r0, ip, r0, lsl #6
     a64:	01942000 	orrseq	r2, r4, r0
     a68:	9f1a7f08 	svcls	0x001a7f08
     a6c:	00000592 	muleq	r0, r2, r5
     a70:	0000059e 	muleq	r0, lr, r5
     a74:	a6530001 	ldrbge	r0, [r3], -r1
     a78:	b9000005 	stmdblt	r0, {r0, r2}
     a7c:	01000005 	tsteq	r0, r5
     a80:	00005300 	andeq	r5, r0, r0, lsl #6
     a84:	00000000 	andeq	r0, r0, r0
     a88:	00010000 	andeq	r0, r1, r0
     a8c:	00000528 	andeq	r0, r0, r8, lsr #10
     a90:	0000052c 	andeq	r0, r0, ip, lsr #10
     a94:	9f320002 	svcls	0x00320002
	...
     aa0:	05280001 	streq	r0, [r8, #-1]!
     aa4:	052c0000 	streq	r0, [ip, #-0]!
     aa8:	00060000 	andeq	r0, r6, r0
     aac:	000bbc03 	andeq	fp, fp, r3, lsl #24
     ab0:	00009f08 	andeq	r9, r0, r8, lsl #30
     ab4:	00000000 	andeq	r0, r0, r0
     ab8:	00010000 	andeq	r0, r1, r0
     abc:	00000528 	andeq	r0, r0, r8, lsr #10
     ac0:	0000052c 	andeq	r0, r0, ip, lsr #10
     ac4:	9f300002 	svcls	0x00300002
	...
     ad0:	05600001 	strbeq	r0, [r0, #-1]!
     ad4:	056d0000 	strbeq	r0, [sp, #-0]!
     ad8:	00020000 	andeq	r0, r2, r0
     adc:	00006a91 	muleq	r0, r1, sl
     ae0:	00000000 	andeq	r0, r0, r0
     ae4:	00010000 	andeq	r0, r1, r0
     ae8:	00000560 	andeq	r0, r0, r0, ror #10
     aec:	0000056d 	andeq	r0, r0, sp, ror #10
     af0:	6c910002 	ldcvs	0, cr0, [r1], {2}
	...
     afc:	05720001 	ldrbeq	r0, [r2, #-1]!
     b00:	057a0000 	ldrbeq	r0, [sl, #-0]!
     b04:	00020000 	andeq	r0, r2, r0
     b08:	00009f31 	andeq	r9, r0, r1, lsr pc
     b0c:	00000000 	andeq	r0, r0, r0
     b10:	00010000 	andeq	r0, r1, r0
     b14:	00000572 	andeq	r0, r0, r2, ror r5
     b18:	0000057a 	andeq	r0, r0, sl, ror r5
     b1c:	16030006 	strne	r0, [r3], -r6
     b20:	9f200000 	svcls	0x00200000
	...
     b2c:	05720001 	ldrbeq	r0, [r2, #-1]!
     b30:	057a0000 	ldrbeq	r0, [sl, #-0]!
     b34:	00020000 	andeq	r0, r2, r0
     b38:	00009f30 	andeq	r9, r0, r0, lsr pc
     b3c:	00000000 	andeq	r0, r0, r0
     b40:	00020000 	andeq	r0, r2, r0
     b44:	00000502 	andeq	r0, r0, r2, lsl #10
     b48:	0000050c 	andeq	r0, r0, ip, lsl #10
     b4c:	9f300002 	svcls	0x00300002
	...
     b58:	05020002 	streq	r0, [r2, #-2]
     b5c:	050c0000 	streq	r0, [ip, #-0]
     b60:	00060000 	andeq	r0, r6, r0
     b64:	00000c03 	andeq	r0, r0, r3, lsl #24
     b68:	00009f20 	andeq	r9, r0, r0, lsr #30
     b6c:	00000000 	andeq	r0, r0, r0
     b70:	00050000 	andeq	r0, r5, r0
     b74:	0000059e 	muleq	r0, lr, r5
     b78:	000005a6 	andeq	r0, r0, r6, lsr #11
     b7c:	9f300002 	svcls	0x00300002
	...
     b88:	059e0301 	ldreq	r0, [lr, #769]	; 0x301
     b8c:	059e0000 	ldreq	r0, [lr]
     b90:	00020000 	andeq	r0, r2, r0
     b94:	00009f30 	andeq	r9, r0, r0, lsr pc
     b98:	00000000 	andeq	r0, r0, r0
     b9c:	00010000 	andeq	r0, r1, r0
     ba0:	000005ae 	andeq	r0, r0, lr, lsr #11
     ba4:	000005b0 			; <UNDEFINED> instruction: 0x000005b0
     ba8:	9f300002 	svcls	0x00300002
	...
     bb4:	0000042c 	andeq	r0, r0, ip, lsr #8
     bb8:	0000042e 	andeq	r0, r0, lr, lsr #8
     bbc:	007d0002 	rsbseq	r0, sp, r2
     bc0:	0000042e 	andeq	r0, r0, lr, lsr #8
     bc4:	00000488 	andeq	r0, r0, r8, lsl #9
     bc8:	187d0002 	ldmdane	sp!, {r1}^
	...
     bd8:	0000042c 	andeq	r0, r0, ip, lsr #8
     bdc:	00000464 	andeq	r0, r0, r4, ror #8
     be0:	64500001 	ldrbvs	r0, [r0], #-1
     be4:	88000004 	stmdahi	r0, {r2}
     be8:	04000004 	streq	r0, [r0], #-4
     bec:	5001f300 	andpl	pc, r1, r0, lsl #6
     bf0:	0000009f 	muleq	r0, pc, r0	; <UNPREDICTABLE>
	...
     bfc:	00045800 	andeq	r5, r4, r0, lsl #16
     c00:	00046200 	andeq	r6, r4, r0, lsl #4
     c04:	57000100 	strpl	r0, [r0, -r0, lsl #2]
     c08:	00000462 	andeq	r0, r0, r2, ror #8
     c0c:	0000047c 	andeq	r0, r0, ip, ror r4
     c10:	00560001 	subseq	r0, r6, r1
     c14:	00000000 	andeq	r0, r0, r0
     c18:	02000000 	andeq	r0, r0, #0
     c1c:	00046200 	andeq	r6, r4, r0, lsl #4
     c20:	00046a00 	andeq	r6, r4, r0, lsl #20
     c24:	56000100 	strpl	r0, [r0], -r0, lsl #2
	...
     c30:	04620002 	strbteq	r0, [r2], #-2
     c34:	046a0000 	strbteq	r0, [sl], #-0
     c38:	00010000 	andeq	r0, r1, r0
     c3c:	00000051 	andeq	r0, r0, r1, asr r0
     c40:	00000000 	andeq	r0, r0, r0
     c44:	62000200 	andvs	r0, r0, #0, 4
     c48:	6a000004 	bvs	c60 <__Stack_Size+0x860>
     c4c:	02000004 	andeq	r0, r0, #4
     c50:	009f3000 	addseq	r3, pc, r0
	...
     c5c:	1c000000 	stcne	0, cr0, [r0], {-0}
     c60:	2c000000 	stccs	0, cr0, [r0], {-0}
     c64:	01000000 	mrseq	r0, (UNDEF: 0)
     c68:	002c5300 	eoreq	r5, ip, r0, lsl #6
     c6c:	002e0000 	eoreq	r0, lr, r0
     c70:	00020000 	andeq	r0, r2, r0
     c74:	00000471 	andeq	r0, r0, r1, ror r4
     c78:	00000000 	andeq	r0, r0, r0
     c7c:	00020000 	andeq	r0, r2, r0
     c80:	00000000 	andeq	r0, r0, r0
     c84:	00340000 	eorseq	r0, r4, r0
     c88:	00360000 	eorseq	r0, r6, r0
     c8c:	00020000 	andeq	r0, r2, r0
     c90:	00369f30 	eorseq	r9, r6, r0, lsr pc
     c94:	00380000 	eorseq	r0, r8, r0
     c98:	00090000 	andeq	r0, r9, r0
     c9c:	0186a00c 	orreq	sl, r6, ip
     ca0:	1c007200 	sfmne	f7, 4, [r0], {-0}
     ca4:	0000389f 	muleq	r0, pc, r8	; <UNPREDICTABLE>
     ca8:	00003a00 	andeq	r3, r0, r0, lsl #20
     cac:	0c000900 			; <UNDEFINED> instruction: 0x0c000900
     cb0:	000186a1 	andeq	r8, r1, r1, lsr #13
     cb4:	9f1c0072 	svcls	0x001c0072
     cb8:	0000003a 	andeq	r0, r0, sl, lsr r0
     cbc:	00000050 	andeq	r0, r0, r0, asr r0
     cc0:	a00c0009 	andge	r0, ip, r9
     cc4:	72000186 	andvc	r0, r0, #-2147483615	; 0x80000021
     cc8:	009f1c00 	addseq	r1, pc, r0, lsl #24
     ccc:	00000000 	andeq	r0, r0, r0
     cd0:	01000000 	mrseq	r0, (UNDEF: 0)
     cd4:	00005400 	andeq	r5, r0, r0, lsl #8
     cd8:	00005c00 	andeq	r5, r0, r0, lsl #24
     cdc:	44000200 	strmi	r0, [r0], #-512	; 0xfffffe00
     ce0:	0000009f 	muleq	r0, pc, r0	; <UNPREDICTABLE>
	...
     cec:	00000a00 	andeq	r0, r0, r0, lsl #20
     cf0:	00000c00 	andeq	r0, r0, r0, lsl #24
     cf4:	50000100 	andpl	r0, r0, r0, lsl #2
     cf8:	0000000c 	andeq	r0, r0, ip
     cfc:	0000000e 	andeq	r0, r0, lr
     d00:	01f30004 	mvnseq	r0, r4
     d04:	00009f50 	andeq	r9, r0, r0, asr pc
	...
     d10:	00060000 	andeq	r0, r6, r0
     d14:	00080000 	andeq	r0, r8, r0
     d18:	00010000 	andeq	r0, r1, r0
     d1c:	00000850 	andeq	r0, r0, r0, asr r8
     d20:	00000a00 	andeq	r0, r0, r0, lsl #20
     d24:	f3000400 	vshl.u8	d0, d0, d0
     d28:	009f5001 	addseq	r5, pc, r1
     d2c:	00000000 	andeq	r0, r0, r0
     d30:	d4000000 	strle	r0, [r0], #-0
     d34:	d8000001 	stmdale	r0, {r0}
     d38:	02000001 	andeq	r0, r0, #1
     d3c:	d8007d00 	stmdale	r0, {r8, sl, fp, ip, sp, lr}
     d40:	30000001 	andcc	r0, r0, r1
     d44:	02000002 	andeq	r0, r0, #2
     d48:	00087d00 	andeq	r7, r8, r0, lsl #26
     d4c:	00000000 	andeq	r0, r0, r0
     d50:	01000000 	mrseq	r0, (UNDEF: 0)
     d54:	00021600 	andeq	r1, r2, r0, lsl #12
     d58:	00021800 	andeq	r1, r2, r0, lsl #16
     d5c:	4e000200 	cdpmi	2, 0, cr0, cr0, cr0, {0}
     d60:	0000009f 	muleq	r0, pc, r0	; <UNPREDICTABLE>
     d64:	00000000 	andeq	r0, r0, r0
     d68:	00011c00 	andeq	r1, r1, r0, lsl #24
     d6c:	00012000 	andeq	r2, r1, r0
     d70:	7d000200 	sfmvc	f0, 4, [r0, #-0]
     d74:	00012000 	andeq	r2, r1, r0
     d78:	00013c00 	andeq	r3, r1, r0, lsl #24
     d7c:	7d000200 	sfmvc	f0, 4, [r0, #-0]
     d80:	00013c1c 	andeq	r3, r1, ip, lsl ip
     d84:	00016a00 	andeq	r6, r1, r0, lsl #20
     d88:	7d000300 	stcvc	3, cr0, [r0, #-0]
     d8c:	016a01a0 	smultbeq	sl, r0, r1
     d90:	016e0000 	cmneq	lr, r0
     d94:	00020000 	andeq	r0, r2, r0
     d98:	016e1c7d 	smceq	57805	; 0xe1cd
     d9c:	01a00000 	moveq	r0, r0
     da0:	00030000 	andeq	r0, r3, r0
     da4:	0001a07d 	andeq	sl, r1, sp, ror r0
	...
     db0:	1c000303 	stcne	3, cr0, [r0], {3}
     db4:	3e000001 	cdpcc	0, 0, cr0, cr0, cr1, {0}
     db8:	01000001 	tsteq	r0, r1
     dbc:	013e5000 	teqeq	lr, r0
     dc0:	01a00000 	moveq	r0, r0
     dc4:	00040000 	andeq	r0, r4, r0
     dc8:	9f5001f3 	svcls	0x005001f3
	...
     dd8:	01280000 			; <UNDEFINED> instruction: 0x01280000
     ddc:	01340000 	teqeq	r4, r0
     de0:	00010000 	andeq	r0, r1, r0
     de4:	00013e54 	andeq	r3, r1, r4, asr lr
     de8:	00014c00 	andeq	r4, r1, r0, lsl #24
     dec:	54000100 	strpl	r0, [r0], #-256	; 0xffffff00
     df0:	0000016e 	andeq	r0, r0, lr, ror #2
     df4:	000001a0 	andeq	r0, r0, r0, lsr #3
     df8:	00540001 	subseq	r0, r4, r1
     dfc:	00000000 	andeq	r0, r0, r0
     e00:	03000000 	movweq	r0, #0
     e04:	3e000303 	cdpcc	3, 0, cr0, cr0, cr3, {0}
     e08:	8e000001 	cdphi	0, 0, cr0, cr0, cr1, {0}
     e0c:	01000001 	tsteq	r0, r1
     e10:	018e5700 	orreq	r5, lr, r0, lsl #14
     e14:	01920000 	orrseq	r0, r2, r0
     e18:	00030000 	andeq	r0, r3, r0
     e1c:	009f0177 	addseq	r0, pc, r7, ror r1	; <UNPREDICTABLE>
     e20:	00000000 	andeq	r0, r0, r0
     e24:	01000000 	mrseq	r0, (UNDEF: 0)
     e28:	00014c00 	andeq	r4, r1, r0, lsl #24
     e2c:	00016000 	andeq	r6, r1, r0
     e30:	32000200 	andcc	r0, r0, #0, 4
     e34:	0000009f 	muleq	r0, pc, r0	; <UNPREDICTABLE>
     e38:	00000000 	andeq	r0, r0, r0
     e3c:	4c000000 	stcmi	0, cr0, [r0], {-0}
     e40:	60000001 	andvs	r0, r0, r1
     e44:	05000001 	streq	r0, [r0, #-1]
     e48:	31007400 	tstcc	r0, r0, lsl #8
     e4c:	00009f24 	andeq	r9, r0, r4, lsr #30
	...
     e58:	0000014c 	andeq	r0, r0, ip, asr #2
     e5c:	00000160 	andeq	r0, r0, r0, ror #2
     e60:	005d0001 	subseq	r0, sp, r1
	...
     e6c:	00014e00 	andeq	r4, r1, r0, lsl #28
     e70:	00015400 	andeq	r5, r1, r0, lsl #8
     e74:	70000a00 	andvc	r0, r0, r0, lsl #20
     e78:	1a400800 	bne	1002e80 <__Stack_Size+0x1002a80>
     e7c:	29302440 	ldmdbcs	r0!, {r6, sl, sp}
     e80:	0000009f 	muleq	r0, pc, r0	; <UNPREDICTABLE>
	...
     e8c:	00000200 	andeq	r0, r0, r0, lsl #4
     e90:	7d000200 	sfmvc	f0, 4, [r0, #-0]
     e94:	00000200 	andeq	r0, r0, r0, lsl #4
     e98:	00000600 	andeq	r0, r0, r0, lsl #12
     e9c:	7d000200 	sfmvc	f0, 4, [r0, #-0]
     ea0:	0000060c 	andeq	r0, r0, ip, lsl #12
     ea4:	00003400 	andeq	r3, r0, r0, lsl #8
     ea8:	7d000300 	stcvc	3, cr0, [r0, #-0]
     eac:	003400d0 	ldrsbteq	r0, [r4], -r0
     eb0:	00360000 	eorseq	r0, r6, r0
     eb4:	00020000 	andeq	r0, r2, r0
     eb8:	00360c7d 	eorseq	r0, r6, sp, ror ip
     ebc:	004c0000 	subeq	r0, ip, r0
     ec0:	00030000 	andeq	r0, r3, r0
     ec4:	0000d07d 	andeq	sp, r0, sp, ror r0
	...
     ed4:	08000000 	stmdaeq	r0, {}	; <UNPREDICTABLE>
     ed8:	01000000 	mrseq	r0, (UNDEF: 0)
     edc:	00085000 	andeq	r5, r8, r0
     ee0:	004c0000 	subeq	r0, ip, r0
     ee4:	00040000 	andeq	r0, r4, r0
     ee8:	9f5001f3 	svcls	0x005001f3
	...
     ef8:	00000018 	andeq	r0, r0, r8, lsl r0
     efc:	0000002c 	andeq	r0, r0, ip, lsr #32
     f00:	2e500001 	cdpcs	0, 5, cr0, cr0, cr1, {0}
     f04:	4c000000 	stcmi	0, cr0, [r0], {-0}
     f08:	01000000 	mrseq	r0, (UNDEF: 0)
     f0c:	00005000 	andeq	r5, r0, r0
     f10:	00000000 	andeq	r0, r0, r0
     f14:	00040000 	andeq	r0, r4, r0
     f18:	00020200 	andeq	r0, r2, r0, lsl #4
     f1c:	0000002e 	andeq	r0, r0, lr, lsr #32
     f20:	0000003c 	andeq	r0, r0, ip, lsr r0
     f24:	3c530001 	mrrccc	0, 0, r0, r3, cr1
     f28:	3e000000 	cdpcc	0, 0, cr0, cr0, cr0, {0}
     f2c:	03000000 	movweq	r0, #0
     f30:	9f7f7300 	svcls	0x007f7300
     f34:	0000003e 	andeq	r0, r0, lr, lsr r0
     f38:	0000004c 	andeq	r0, r0, ip, asr #32
     f3c:	00530001 	subseq	r0, r3, r1
     f40:	00000000 	andeq	r0, r0, r0
     f44:	01000000 	mrseq	r0, (UNDEF: 0)
     f48:	00000600 	andeq	r0, r0, r0, lsl #12
     f4c:	00001800 	andeq	r1, r0, r0, lsl #16
     f50:	31000200 	mrscc	r0, R8_usr
     f54:	0000009f 	muleq	r0, pc, r0	; <UNPREDICTABLE>
     f58:	00000000 	andeq	r0, r0, r0
     f5c:	06000000 	streq	r0, [r0], -r0
     f60:	18000000 	stmdane	r0, {}	; <UNPREDICTABLE>
     f64:	01000000 	mrseq	r0, (UNDEF: 0)
     f68:	00005d00 	andeq	r5, r0, r0, lsl #26
	...
     f74:	00000008 	andeq	r0, r0, r8
     f78:	0000000e 	andeq	r0, r0, lr
     f7c:	0070000a 	rsbseq	r0, r0, sl
     f80:	401a4008 	andsmi	r4, sl, r8
     f84:	9f293024 	svcls	0x00293024
	...
     f90:	000000f8 	strdeq	r0, [r0], -r8
     f94:	000000fa 	strdeq	r0, [r0], -sl
     f98:	007d0002 	rsbseq	r0, sp, r2
     f9c:	000000fa 	strdeq	r0, [r0], -sl
     fa0:	00000100 	andeq	r0, r0, r0, lsl #2
     fa4:	087d0002 	ldmdaeq	sp!, {r1}^
     fa8:	00000100 	andeq	r0, r0, r0, lsl #2
     fac:	00000114 	andeq	r0, r0, r4, lsl r1
     fb0:	887d0003 	ldmdahi	sp!, {r0, r1}^
     fb4:	00011404 	andeq	r1, r1, r4, lsl #8
     fb8:	00011c00 	andeq	r1, r1, r0, lsl #24
     fbc:	7d000200 	sfmvc	f0, 4, [r0, #-0]
     fc0:	00000008 	andeq	r0, r0, r8
	...
     fcc:	0000f800 	andeq	pc, r0, r0, lsl #16
     fd0:	00010800 	andeq	r0, r1, r0, lsl #16
     fd4:	50000100 	andpl	r0, r0, r0, lsl #2
     fd8:	00000108 	andeq	r0, r0, r8, lsl #2
     fdc:	0000011c 	andeq	r0, r0, ip, lsl r1
     fe0:	01f30004 	mvnseq	r0, r4
     fe4:	00009f50 	andeq	r9, r0, r0, asr pc
     fe8:	00000000 	andeq	r0, r0, r0
     fec:	00cc0000 	sbceq	r0, ip, r0
     ff0:	00ce0000 	sbceq	r0, lr, r0
     ff4:	00020000 	andeq	r0, r2, r0
     ff8:	00ce007d 	sbceq	r0, lr, sp, ror r0
     ffc:	00f80000 	rscseq	r0, r8, r0
    1000:	00020000 	andeq	r0, r2, r0
    1004:	0000087d 	andeq	r0, r0, sp, ror r8
	...
    1014:	000000cc 	andeq	r0, r0, ip, asr #1
    1018:	000000e8 	andeq	r0, r0, r8, ror #1
    101c:	e8500001 	ldmda	r0, {r0}^
    1020:	f0000000 			; <UNDEFINED> instruction: 0xf0000000
    1024:	04000000 	streq	r0, [r0], #-0
    1028:	5001f300 	andpl	pc, r1, r0, lsl #6
    102c:	0000f09f 	muleq	r0, pc, r0	; <UNPREDICTABLE>
    1030:	0000f800 	andeq	pc, r0, r0, lsl #16
    1034:	50000100 	andpl	r0, r0, r0, lsl #2
	...
    1044:	00cc0000 	sbceq	r0, ip, r0
    1048:	00dc0000 	sbcseq	r0, ip, r0
    104c:	00010000 	andeq	r0, r1, r0
    1050:	0000dc51 	andeq	sp, r0, r1, asr ip
    1054:	0000f000 	andeq	pc, r0, r0
    1058:	f3000400 	vshl.u8	d0, d0, d0
    105c:	f09f5101 			; <UNDEFINED> instruction: 0xf09f5101
    1060:	f8000000 			; <UNDEFINED> instruction: 0xf8000000
    1064:	01000000 	mrseq	r0, (UNDEF: 0)
    1068:	00005100 	andeq	r5, r0, r0, lsl #2
	...
    1078:	000000cc 	andeq	r0, r0, ip, asr #1
    107c:	000000e0 	andeq	r0, r0, r0, ror #1
    1080:	e0520001 	subs	r0, r2, r1
    1084:	f0000000 			; <UNDEFINED> instruction: 0xf0000000
    1088:	04000000 	streq	r0, [r0], #-0
    108c:	5201f300 	andpl	pc, r1, #0, 6
    1090:	0000f09f 	muleq	r0, pc, r0	; <UNPREDICTABLE>
    1094:	0000f800 	andeq	pc, r0, r0, lsl #16
    1098:	52000100 	andpl	r0, r0, #0, 2
	...
    10a4:	00e20001 	rsceq	r0, r2, r1
    10a8:	00ec0000 	rsceq	r0, ip, r0
    10ac:	00020000 	andeq	r0, r2, r0
    10b0:	00009f30 	andeq	r9, r0, r0, lsr pc
	...
    10bc:	00c80000 	sbceq	r0, r8, r0
    10c0:	00ca0000 	sbceq	r0, sl, r0
    10c4:	00010000 	andeq	r0, r1, r0
    10c8:	0000ca50 	andeq	ip, r0, r0, asr sl
    10cc:	0000cc00 	andeq	ip, r0, r0, lsl #24
    10d0:	f3000400 	vshl.u8	d0, d0, d0
    10d4:	009f5001 	addseq	r5, pc, r1
	...
    10e4:	4c000000 	stcmi	0, cr0, [r0], {-0}
    10e8:	74000000 	strvc	r0, [r0], #-0
    10ec:	01000000 	mrseq	r0, (UNDEF: 0)
    10f0:	00745000 	rsbseq	r5, r4, r0
    10f4:	00780000 	rsbseq	r0, r8, r0
    10f8:	00040000 	andeq	r0, r4, r0
    10fc:	9f5001f3 	svcls	0x005001f3
    1100:	00000078 	andeq	r0, r0, r8, ror r0
    1104:	0000008a 	andeq	r0, r0, sl, lsl #1
    1108:	8a500001 	bhi	1401114 <__Stack_Size+0x1400d14>
    110c:	c8000000 	stmdagt	r0, {}	; <UNPREDICTABLE>
    1110:	04000000 	streq	r0, [r0], #-0
    1114:	5001f300 	andpl	pc, r1, r0, lsl #6
    1118:	0000009f 	muleq	r0, pc, r0	; <UNPREDICTABLE>
    111c:	00000000 	andeq	r0, r0, r0
	...

Disassembly of section .debug_ranges:

00000000 <.debug_ranges>:
   0:	0800014c 	stmdaeq	r0, {r2, r3, r6, r8}
   4:	0800014e 	stmdaeq	r0, {r1, r2, r3, r6, r8}
   8:	08000150 	stmdaeq	r0, {r4, r6, r8}
   c:	08000172 	stmdaeq	r0, {r1, r4, r5, r6, r8}
  10:	08000172 	stmdaeq	r0, {r1, r4, r5, r6, r8}
  14:	080001cc 	stmdaeq	r0, {r2, r3, r6, r7, r8}
	...
  20:	08000b48 	stmdaeq	r0, {r3, r6, r8, r9, fp}
  24:	08000b4a 	stmdaeq	r0, {r1, r3, r6, r8, r9, fp}
  28:	08000b52 	stmdaeq	r0, {r1, r4, r6, r8, r9, fp}
  2c:	08000b54 	stmdaeq	r0, {r2, r4, r6, r8, r9, fp}
  30:	08000b58 	stmdaeq	r0, {r3, r4, r6, r8, r9, fp}
  34:	08000b62 	stmdaeq	r0, {r1, r5, r6, r8, r9, fp}
	...
  40:	08000b54 	stmdaeq	r0, {r2, r4, r6, r8, r9, fp}
  44:	08000b58 	stmdaeq	r0, {r3, r4, r6, r8, r9, fp}
  48:	08000b7a 	stmdaeq	r0, {r1, r3, r4, r5, r6, r8, r9, fp}
  4c:	08000b86 	stmdaeq	r0, {r1, r2, r7, r8, r9, fp}
	...
  58:	08000120 	stmdaeq	r0, {r5, r8}
  5c:	080001dc 	stmdaeq	r0, {r2, r3, r4, r6, r7, r8}
  60:	08000b40 	stmdaeq	r0, {r6, r8, r9, fp}
  64:	08000bbc 	stmdaeq	r0, {r2, r3, r4, r5, r7, r8, r9, fp}
	...
  70:	00000010 	andeq	r0, r0, r0, lsl r0
  74:	00000012 	andeq	r0, r0, r2, lsl r0
  78:	0000001a 	andeq	r0, r0, sl, lsl r0
  7c:	0000001c 	andeq	r0, r0, ip, lsl r0
  80:	0000001e 	andeq	r0, r0, lr, lsl r0
  84:	00000028 	andeq	r0, r0, r8, lsr #32
	...
  90:	00000034 	andeq	r0, r0, r4, lsr r0
  94:	00000034 	andeq	r0, r0, r4, lsr r0
  98:	00000036 	andeq	r0, r0, r6, lsr r0
  9c:	0000003c 	andeq	r0, r0, ip, lsr r0
	...
  a8:	000002d2 	ldrdeq	r0, [r0], -r2
  ac:	000002d4 	ldrdeq	r0, [r0], -r4
  b0:	000002d8 	ldrdeq	r0, [r0], -r8
  b4:	000002d8 	ldrdeq	r0, [r0], -r8
  b8:	000002dc 	ldrdeq	r0, [r0], -ip
  bc:	000002ec 	andeq	r0, r0, ip, ror #5
	...
  c8:	000003da 	ldrdeq	r0, [r0], -sl
  cc:	000003dc 	ldrdeq	r0, [r0], -ip
  d0:	000003f6 	strdeq	r0, [r0], -r6
  d4:	000003fc 	strdeq	r0, [r0], -ip
  d8:	00000420 	andeq	r0, r0, r0, lsr #8
  dc:	0000042c 	andeq	r0, r0, ip, lsr #8
	...
  e8:	00000458 	andeq	r0, r0, r8, asr r4
  ec:	00000462 	andeq	r0, r0, r2, ror #8
  f0:	00000462 	andeq	r0, r0, r2, ror #8
  f4:	0000046a 	andeq	r0, r0, sl, ror #8
	...
 100:	000004ac 	andeq	r0, r0, ip, lsr #9
 104:	000004ac 	andeq	r0, r0, ip, lsr #9
 108:	000004b4 			; <UNDEFINED> instruction: 0x000004b4
 10c:	000004c0 	andeq	r0, r0, r0, asr #9
	...
 118:	00000502 	andeq	r0, r0, r2, lsl #10
 11c:	00000502 	andeq	r0, r0, r2, lsl #10
 120:	00000504 	andeq	r0, r0, r4, lsl #10
 124:	0000050c 	andeq	r0, r0, ip, lsl #10
	...
 130:	00000518 	andeq	r0, r0, r8, lsl r5
 134:	0000052c 	andeq	r0, r0, ip, lsr #10
 138:	0000053c 	andeq	r0, r0, ip, lsr r5
 13c:	0000056e 	andeq	r0, r0, lr, ror #10
 140:	00000572 	andeq	r0, r0, r2, ror r5
 144:	00000592 	muleq	r0, r2, r5
	...
 150:	00000556 	andeq	r0, r0, r6, asr r5
 154:	00000558 	andeq	r0, r0, r8, asr r5
 158:	00000560 	andeq	r0, r0, r0, ror #10
 15c:	0000056e 	andeq	r0, r0, lr, ror #10
	...
 168:	0000052c 	andeq	r0, r0, ip, lsr #10
 16c:	00000532 	andeq	r0, r0, r2, lsr r5
 170:	0000059e 	muleq	r0, lr, r5
 174:	000005a6 	andeq	r0, r0, r6, lsr #11
	...
 180:	00000002 	andeq	r0, r0, r2
 184:	00000004 	andeq	r0, r0, r4
 188:	00000006 	andeq	r0, r0, r6
 18c:	00000018 	andeq	r0, r0, r8, lsl r0
	...
 198:	0000001e 	andeq	r0, r0, lr, lsl r0
 19c:	00000022 	andeq	r0, r0, r2, lsr #32
 1a0:	00000024 	andeq	r0, r0, r4, lsr #32
 1a4:	00000028 	andeq	r0, r0, r8, lsr #32
 1a8:	0000002e 	andeq	r0, r0, lr, lsr #32
 1ac:	00000032 	andeq	r0, r0, r2, lsr r0
 1b0:	00000036 	andeq	r0, r0, r6, lsr r0
 1b4:	0000004c 	andeq	r0, r0, ip, asr #32
	...
 1c0:	00000120 	andeq	r0, r0, r0, lsr #2
 1c4:	00000122 	andeq	r0, r0, r2, lsr #2
 1c8:	00000124 	andeq	r0, r0, r4, lsr #2
 1cc:	00000126 	andeq	r0, r0, r6, lsr #2
 1d0:	0000012a 	andeq	r0, r0, sl, lsr #2
 1d4:	0000012e 	andeq	r0, r0, lr, lsr #2
 1d8:	00000134 	andeq	r0, r0, r4, lsr r1
 1dc:	0000013a 	andeq	r0, r0, sl, lsr r1
 1e0:	0000013e 	andeq	r0, r0, lr, lsr r1
 1e4:	00000148 	andeq	r0, r0, r8, asr #2
 1e8:	0000016e 	andeq	r0, r0, lr, ror #2
 1ec:	000001a0 	andeq	r0, r0, r0, lsr #3
	...
 1f8:	00000148 	andeq	r0, r0, r8, asr #2
 1fc:	0000014a 	andeq	r0, r0, sl, asr #2
 200:	0000014c 	andeq	r0, r0, ip, asr #2
 204:	00000160 	andeq	r0, r0, r0, ror #2
	...
 210:	000001f0 	strdeq	r0, [r0], -r0	; <UNPREDICTABLE>
 214:	000001f4 	strdeq	r0, [r0], -r4
 218:	000001f6 	strdeq	r0, [r0], -r6
 21c:	000001f8 	strdeq	r0, [r0], -r8
 220:	00000216 	andeq	r0, r0, r6, lsl r2
 224:	00000218 	andeq	r0, r0, r8, lsl r2
	...
