
res/firmware.elf:     file format elf32-littlearm


Disassembly of section .isr_vector:

08000000 <g_pfnVectors>:
 8000000:	20007fff 	strdcs	r7, [r0], -pc	; <UNPREDICTABLE>
 8000004:	08000c21 	stmdaeq	r0, {r0, r5, sl, fp}
 8000008:	08000c69 	stmdaeq	r0, {r0, r3, r5, r6, sl, fp}
 800000c:	08000c69 	stmdaeq	r0, {r0, r3, r5, r6, sl, fp}
 8000010:	08000c69 	stmdaeq	r0, {r0, r3, r5, r6, sl, fp}
 8000014:	08000c69 	stmdaeq	r0, {r0, r3, r5, r6, sl, fp}
 8000018:	08000c69 	stmdaeq	r0, {r0, r3, r5, r6, sl, fp}
	...
 800002c:	08000c69 	stmdaeq	r0, {r0, r3, r5, r6, sl, fp}
 8000030:	08000c69 	stmdaeq	r0, {r0, r3, r5, r6, sl, fp}
 8000034:	00000000 	andeq	r0, r0, r0
 8000038:	08000c69 	stmdaeq	r0, {r0, r3, r5, r6, sl, fp}
 800003c:	08000c69 	stmdaeq	r0, {r0, r3, r5, r6, sl, fp}
 8000040:	08000c69 	stmdaeq	r0, {r0, r3, r5, r6, sl, fp}
 8000044:	08000c69 	stmdaeq	r0, {r0, r3, r5, r6, sl, fp}
 8000048:	08000c69 	stmdaeq	r0, {r0, r3, r5, r6, sl, fp}
 800004c:	08000c69 	stmdaeq	r0, {r0, r3, r5, r6, sl, fp}
 8000050:	08000c69 	stmdaeq	r0, {r0, r3, r5, r6, sl, fp}
 8000054:	08000c69 	stmdaeq	r0, {r0, r3, r5, r6, sl, fp}
 8000058:	08000c69 	stmdaeq	r0, {r0, r3, r5, r6, sl, fp}
 800005c:	08000c69 	stmdaeq	r0, {r0, r3, r5, r6, sl, fp}
 8000060:	08000c69 	stmdaeq	r0, {r0, r3, r5, r6, sl, fp}
 8000064:	08000c69 	stmdaeq	r0, {r0, r3, r5, r6, sl, fp}
 8000068:	08000c69 	stmdaeq	r0, {r0, r3, r5, r6, sl, fp}
 800006c:	08000c69 	stmdaeq	r0, {r0, r3, r5, r6, sl, fp}
 8000070:	08000c69 	stmdaeq	r0, {r0, r3, r5, r6, sl, fp}
 8000074:	08000c69 	stmdaeq	r0, {r0, r3, r5, r6, sl, fp}
 8000078:	08000c69 	stmdaeq	r0, {r0, r3, r5, r6, sl, fp}
 800007c:	08000c69 	stmdaeq	r0, {r0, r3, r5, r6, sl, fp}
 8000080:	08000c69 	stmdaeq	r0, {r0, r3, r5, r6, sl, fp}
 8000084:	08000c69 	stmdaeq	r0, {r0, r3, r5, r6, sl, fp}
 8000088:	08000c69 	stmdaeq	r0, {r0, r3, r5, r6, sl, fp}
 800008c:	08000c69 	stmdaeq	r0, {r0, r3, r5, r6, sl, fp}
 8000090:	08000629 	stmdaeq	r0, {r0, r3, r5, r9, sl}
 8000094:	08000c69 	stmdaeq	r0, {r0, r3, r5, r6, sl, fp}
 8000098:	08000c69 	stmdaeq	r0, {r0, r3, r5, r6, sl, fp}
 800009c:	08000c69 	stmdaeq	r0, {r0, r3, r5, r6, sl, fp}
 80000a0:	00000000 	andeq	r0, r0, r0
 80000a4:	08000c69 	stmdaeq	r0, {r0, r3, r5, r6, sl, fp}
 80000a8:	08000c69 	stmdaeq	r0, {r0, r3, r5, r6, sl, fp}
 80000ac:	08000c69 	stmdaeq	r0, {r0, r3, r5, r6, sl, fp}
 80000b0:	08000c69 	stmdaeq	r0, {r0, r3, r5, r6, sl, fp}
 80000b4:	08000c69 	stmdaeq	r0, {r0, r3, r5, r6, sl, fp}
 80000b8:	08000c69 	stmdaeq	r0, {r0, r3, r5, r6, sl, fp}
 80000bc:	08000c69 	stmdaeq	r0, {r0, r3, r5, r6, sl, fp}
 80000c0:	08000c69 	stmdaeq	r0, {r0, r3, r5, r6, sl, fp}
 80000c4:	08000c69 	stmdaeq	r0, {r0, r3, r5, r6, sl, fp}
 80000c8:	08000c69 	stmdaeq	r0, {r0, r3, r5, r6, sl, fp}
 80000cc:	08000c69 	stmdaeq	r0, {r0, r3, r5, r6, sl, fp}
 80000d0:	08000c69 	stmdaeq	r0, {r0, r3, r5, r6, sl, fp}
 80000d4:	08000c69 	stmdaeq	r0, {r0, r3, r5, r6, sl, fp}
 80000d8:	08000c69 	stmdaeq	r0, {r0, r3, r5, r6, sl, fp}
 80000dc:	08000c69 	stmdaeq	r0, {r0, r3, r5, r6, sl, fp}
 80000e0:	08000c69 	stmdaeq	r0, {r0, r3, r5, r6, sl, fp}
 80000e4:	08000c69 	stmdaeq	r0, {r0, r3, r5, r6, sl, fp}
 80000e8:	08000c69 	stmdaeq	r0, {r0, r3, r5, r6, sl, fp}
 80000ec:	08000c69 	stmdaeq	r0, {r0, r3, r5, r6, sl, fp}
 80000f0:	08000c69 	stmdaeq	r0, {r0, r3, r5, r6, sl, fp}
 80000f4:	00000000 	andeq	r0, r0, r0
 80000f8:	08000c69 	stmdaeq	r0, {r0, r3, r5, r6, sl, fp}
 80000fc:	08000c69 	stmdaeq	r0, {r0, r3, r5, r6, sl, fp}
	...
 8000108:	08000c69 	stmdaeq	r0, {r0, r3, r5, r6, sl, fp}
 800010c:	08000c69 	stmdaeq	r0, {r0, r3, r5, r6, sl, fp}
 8000110:	08000c69 	stmdaeq	r0, {r0, r3, r5, r6, sl, fp}
 8000114:	08000c69 	stmdaeq	r0, {r0, r3, r5, r6, sl, fp}
 8000118:	08000c69 	stmdaeq	r0, {r0, r3, r5, r6, sl, fp}
 800011c:	00000000 	andeq	r0, r0, r0
 8000120:	08000c69 	stmdaeq	r0, {r0, r3, r5, r6, sl, fp}
	...
 8000138:	f108f85f 			; <UNDEFINED> instruction: 0xf108f85f

Disassembly of section .text:

0800013c <init32-0x14>:
 800013c:	08000d80 	stmdaeq	r0, {r7, r8, sl, fp}
 8000140:	20000000 	andcs	r0, r0, r0
 8000144:	2000000c 	andcs	r0, r0, ip
 8000148:	2000000c 	andcs	r0, r0, ip
 800014c:	20000064 	andcs	r0, r0, r4, rrx

08000150 <init32>:
#define CLOCK_FAIL_LSI -4

#define RTC_LSE 1

void init32(uint8_t reinit){
  RCC->APB1ENR |= RCC_APB1ENR_PWREN;
 8000150:	4b21      	ldr	r3, [pc, #132]	; (80001d8 <init32+0x88>)
  PWR->CR |= PWR_CR_DBP;
 8000152:	4922      	ldr	r1, [pc, #136]	; (80001dc <init32+0x8c>)
  RCC->APB1ENR |= RCC_APB1ENR_PWREN;
 8000154:	6a5a      	ldr	r2, [r3, #36]	; 0x24
 8000156:	f042 5280 	orr.w	r2, r2, #268435456	; 0x10000000
 800015a:	625a      	str	r2, [r3, #36]	; 0x24
  PWR->CR |= PWR_CR_DBP;
 800015c:	680a      	ldr	r2, [r1, #0]
 800015e:	f442 7280 	orr.w	r2, r2, #256	; 0x100
 8000162:	600a      	str	r2, [r1, #0]
  
  if(!reinit){
    //if(RCC->CSR & RCC_CSR_RTCEN)return;
  }
  
  RCC->CSR |= RCC_CSR_RTCRST;
 8000164:	6b5a      	ldr	r2, [r3, #52]	; 0x34
 8000166:	f442 0200 	orr.w	r2, r2, #8388608	; 0x800000
 800016a:	635a      	str	r2, [r3, #52]	; 0x34
  RCC->CSR &=~RCC_CSR_RTCRST;
 800016c:	6b5a      	ldr	r2, [r3, #52]	; 0x34
 800016e:	f422 0200 	bic.w	r2, r2, #8388608	; 0x800000
 8000172:	635a      	str	r2, [r3, #52]	; 0x34
  
#if RTC_LSE
  RCC->CSR |= RCC_CSR_LSEON; while(!(RCC->CSR & RCC_CSR_LSERDY)){}
 8000174:	6b5a      	ldr	r2, [r3, #52]	; 0x34
 8000176:	f442 7280 	orr.w	r2, r2, #256	; 0x100
 800017a:	635a      	str	r2, [r3, #52]	; 0x34
 800017c:	6b5a      	ldr	r2, [r3, #52]	; 0x34
 800017e:	0591      	lsls	r1, r2, #22
 8000180:	d5fc      	bpl.n	800017c <init32+0x2c>
#else
  RCC->CSR |= RCC_CSR_LSION; while(!(RCC->CSR & RCC_CSR_LSIRDY)){}
#endif
  
  RCC->CSR &=~RCC_CSR_RTCSEL;
 8000182:	6b5a      	ldr	r2, [r3, #52]	; 0x34
 8000184:	f422 3240 	bic.w	r2, r2, #196608	; 0x30000
 8000188:	635a      	str	r2, [r3, #52]	; 0x34
#if RTC_LSE
  RCC->CSR |= RCC_CSR_RTCSEL_LSE; // NOCLOCK / LSI / LSE / HSE
 800018a:	6b5a      	ldr	r2, [r3, #52]	; 0x34
 800018c:	f442 3280 	orr.w	r2, r2, #65536	; 0x10000
 8000190:	635a      	str	r2, [r3, #52]	; 0x34
#else
  RCC->CSR |= RCC_CSR_RTCSEL_LSI; // NOCLOCK / LSI / LSE / HSE
#endif
  RCC->CSR |= RCC_CSR_RTCEN;
 8000192:	6b5a      	ldr	r2, [r3, #52]	; 0x34
 8000194:	f442 0280 	orr.w	r2, r2, #4194304	; 0x400000
 8000198:	635a      	str	r2, [r3, #52]	; 0x34
  
  RTC->WPR = 0xCA;
 800019a:	22ca      	movs	r2, #202	; 0xca
 800019c:	4b10      	ldr	r3, [pc, #64]	; (80001e0 <init32+0x90>)
 800019e:	625a      	str	r2, [r3, #36]	; 0x24
  RTC->WPR = 0x53;
 80001a0:	2253      	movs	r2, #83	; 0x53
 80001a2:	625a      	str	r2, [r3, #36]	; 0x24
  RTC->ISR |= RTC_ISR_INIT;
 80001a4:	68da      	ldr	r2, [r3, #12]
 80001a6:	f042 0280 	orr.w	r2, r2, #128	; 0x80
 80001aa:	60da      	str	r2, [r3, #12]
  while(!(RTC->ISR & RTC_ISR_INITF)){}
 80001ac:	68da      	ldr	r2, [r3, #12]
 80001ae:	0652      	lsls	r2, r2, #25
 80001b0:	d5fc      	bpl.n	80001ac <init32+0x5c>
  //LSE
  RTC->PRER &=~(RTC_PRER_PREDIV_A | RTC_PRER_PREDIV_S);
 80001b2:	6919      	ldr	r1, [r3, #16]
 80001b4:	4a0b      	ldr	r2, [pc, #44]	; (80001e4 <init32+0x94>)
 80001b6:	400a      	ands	r2, r1
 80001b8:	611a      	str	r2, [r3, #16]
#if RTC_LSE
  RTC->PRER |= 255;
 80001ba:	691a      	ldr	r2, [r3, #16]
 80001bc:	f042 02ff 	orr.w	r2, r2, #255	; 0xff
 80001c0:	611a      	str	r2, [r3, #16]
  RTC->PRER |= (127 << 16);
 80001c2:	691a      	ldr	r2, [r3, #16]
 80001c4:	f442 02fe 	orr.w	r2, r2, #8323072	; 0x7f0000
 80001c8:	611a      	str	r2, [r3, #16]
  //RTC->TR &=~RTC_TR_SU;
  //RTC->DR = 0;
  //RTC->DR &=~RTC_DR_DU;
  
  
  RTC->ISR &=~RTC_ISR_INIT;
 80001ca:	68da      	ldr	r2, [r3, #12]
 80001cc:	f022 0280 	bic.w	r2, r2, #128	; 0x80
 80001d0:	60da      	str	r2, [r3, #12]
  RTC->WPR = 0xFF;
 80001d2:	22ff      	movs	r2, #255	; 0xff
 80001d4:	625a      	str	r2, [r3, #36]	; 0x24
}
 80001d6:	4770      	bx	lr
 80001d8:	40023800 	andmi	r3, r2, r0, lsl #16
 80001dc:	40007000 	andmi	r7, r0, r0
 80001e0:	40002800 	andmi	r2, r0, r0, lsl #16
 80001e4:	ff808000 			; <UNDEFINED> instruction: 0xff808000

080001e8 <clock_HS>:
int8_t clock_HS(int8_t quartz){
  uint16_t i;
  uint32_t tmp;
  
  //clock by MSI
  tmp = RCC->CFGR;
 80001e8:	4b45      	ldr	r3, [pc, #276]	; (8000300 <clock_HS+0x118>)
 80001ea:	689a      	ldr	r2, [r3, #8]
  tmp &=~RCC_CFGR_SW;
 80001ec:	f022 0203 	bic.w	r2, r2, #3
  tmp |= RCC_CFGR_SW_MSI; // MSI / HSI / HSE / PLL
  RCC->CFGR = tmp;
 80001f0:	609a      	str	r2, [r3, #8]
 80001f2:	f640 72ff 	movw	r2, #4095	; 0xfff
  for(i=0;i<0x0FFF;i++){
    if((RCC->CFGR & RCC_CFGR_SWS)==RCC_CFGR_SWS_MSI){i=0x1FFF; break;}
 80001f6:	6899      	ldr	r1, [r3, #8]
 80001f8:	f011 0f0c 	tst.w	r1, #12
 80001fc:	d047      	beq.n	800028e <clock_HS+0xa6>
 80001fe:	3a01      	subs	r2, #1
 8000200:	b292      	uxth	r2, r2
  for(i=0;i<0x0FFF;i++){
 8000202:	2a00      	cmp	r2, #0
 8000204:	d1f7      	bne.n	80001f6 <clock_HS+0xe>
  }
  if(i != 0x1FFF)return CLOCK_FAIL_MSI;
 8000206:	f04f 30ff 	mov.w	r0, #4294967295	; 0xffffffff
 800020a:	4770      	bx	lr
 800020c:	2000      	movs	r0, #0
    }
    if(i != 0x1FFF)return CLOCK_FAIL_HSI;
  }
  
  // configure flash
  FLASH->ACR |= FLASH_ACR_ACC64;
 800020e:	4b3d      	ldr	r3, [pc, #244]	; (8000304 <clock_HS+0x11c>)
 8000210:	681a      	ldr	r2, [r3, #0]
 8000212:	f042 0204 	orr.w	r2, r2, #4
 8000216:	601a      	str	r2, [r3, #0]
  FLASH->ACR |= FLASH_ACR_PRFTEN;
 8000218:	681a      	ldr	r2, [r3, #0]
 800021a:	f042 0202 	orr.w	r2, r2, #2
 800021e:	601a      	str	r2, [r3, #0]
  FLASH->ACR |= FLASH_ACR_LATENCY;
 8000220:	681a      	ldr	r2, [r3, #0]
 8000222:	f042 0201 	orr.w	r2, r2, #1
 8000226:	601a      	str	r2, [r3, #0]

  
  tmp = RCC->CFGR;
 8000228:	4a35      	ldr	r2, [pc, #212]	; (8000300 <clock_HS+0x118>)
 800022a:	6893      	ldr	r3, [r2, #8]
  tmp &=~ (RCC_CFGR_PLLSRC | RCC_CFGR_PLLMUL | RCC_CFGR_PLLDIV);
 800022c:	f423 037d 	bic.w	r3, r3, #16580608	; 0xfd0000
  
  if(quartz){
 8000230:	b1a8      	cbz	r0, 800025e <clock_HS+0x76>
    tmp |= RCC_CFGR_PLLSRC;  //PLL src = HSE
    tmp |= RCC_CFGR_PLLMUL12;//PLLCLK = F_HSE * 12 = 96 MHz
    tmp |= RCC_CFGR_PLLDIV3; //PLLCLK = F_HSE * 12 / 3 = 32 MHz
 8000232:	f443 0311 	orr.w	r3, r3, #9502720	; 0x910000
  tmp |= RCC_CFGR_HPRE_DIV1;
  //AHB = PLLCLK/HPRE = 32 MHz
  tmp &=~RCC_CFGR_PPRE2;
  tmp |= RCC_CFGR_PPRE2_DIV1;
  //APB2 = HCLK/PPRE2 = 32 MHz
  tmp &=~RCC_CFGR_PPRE1;
 8000236:	4934      	ldr	r1, [pc, #208]	; (8000308 <clock_HS+0x120>)
 8000238:	4019      	ands	r1, r3
  tmp |= RCC_CFGR_PPRE1_DIV1;
  //APB1 = HCLK/PPRE1 = 32 MHz
  RCC->CFGR = tmp;
 800023a:	6091      	str	r1, [r2, #8]
  
  RCC->CR |= RCC_CR_PLLON;
 800023c:	6813      	ldr	r3, [r2, #0]
 800023e:	f043 7380 	orr.w	r3, r3, #16777216	; 0x1000000
 8000242:	6013      	str	r3, [r2, #0]
 8000244:	f640 73ff 	movw	r3, #4095	; 0xfff
  for(i=0;i<0x0FFF;i++){
    if(RCC->CR & RCC_CR_PLLRDY){i=0x1FFF; break;}
 8000248:	4a2d      	ldr	r2, [pc, #180]	; (8000300 <clock_HS+0x118>)
 800024a:	6811      	ldr	r1, [r2, #0]
 800024c:	0189      	lsls	r1, r1, #6
 800024e:	d40d      	bmi.n	800026c <clock_HS+0x84>
 8000250:	3b01      	subs	r3, #1
 8000252:	b29b      	uxth	r3, r3
  for(i=0;i<0x0FFF;i++){
 8000254:	2b00      	cmp	r3, #0
 8000256:	d1f8      	bne.n	800024a <clock_HS+0x62>
  }
  if(i != 0x1FFF)return CLOCK_FAIL_PLL; //can not enable PLL
 8000258:	f06f 0002 	mvn.w	r0, #2
 800025c:	4770      	bx	lr
    tmp |= RCC_CFGR_PLLDIV3; //PLLCLK = F_HSI * 6 / 3 = 32 MHz
 800025e:	f443 0308 	orr.w	r3, r3, #8912896	; 0x880000
 8000262:	e7e8      	b.n	8000236 <clock_HS+0x4e>
  tmp |= RCC_CFGR_SW_PLL; // MSI / HSI / HSE / PLL
  RCC->CFGR = tmp;
  for(i=0;i<0x0FFF;i++){
    if((RCC->CFGR & RCC_CFGR_SWS)==RCC_CFGR_SWS_PLL){i=0x1FFF; break;}
  }
  if(i != 0x1FFF)return CLOCK_FAIL_PLL;
 8000264:	3000      	adds	r0, #0
 8000266:	bf18      	it	ne
 8000268:	2001      	movne	r0, #1
  
  if(quartz)return CLOCK_HSE;
    else return CLOCK_HSI;
}
 800026a:	4770      	bx	lr
  tmp = RCC->CFGR;
 800026c:	6893      	ldr	r3, [r2, #8]
    if((RCC->CFGR & RCC_CFGR_SWS)==RCC_CFGR_SWS_PLL){i=0x1FFF; break;}
 800026e:	4924      	ldr	r1, [pc, #144]	; (8000300 <clock_HS+0x118>)
  tmp |= RCC_CFGR_SW_PLL; // MSI / HSI / HSE / PLL
 8000270:	f043 0303 	orr.w	r3, r3, #3
  RCC->CFGR = tmp;
 8000274:	6093      	str	r3, [r2, #8]
 8000276:	f640 73ff 	movw	r3, #4095	; 0xfff
    if((RCC->CFGR & RCC_CFGR_SWS)==RCC_CFGR_SWS_PLL){i=0x1FFF; break;}
 800027a:	688a      	ldr	r2, [r1, #8]
 800027c:	f002 020c 	and.w	r2, r2, #12
 8000280:	2a0c      	cmp	r2, #12
 8000282:	d0ef      	beq.n	8000264 <clock_HS+0x7c>
 8000284:	3b01      	subs	r3, #1
 8000286:	b29b      	uxth	r3, r3
  for(i=0;i<0x0FFF;i++){
 8000288:	2b00      	cmp	r3, #0
 800028a:	d1f6      	bne.n	800027a <clock_HS+0x92>
 800028c:	e7e4      	b.n	8000258 <clock_HS+0x70>
  RCC->CR &=~ RCC_CR_HSEON;
 800028e:	681a      	ldr	r2, [r3, #0]
 8000290:	f422 3280 	bic.w	r2, r2, #65536	; 0x10000
 8000294:	601a      	str	r2, [r3, #0]
  RCC->CR &=~ RCC_CR_HSION;
 8000296:	681a      	ldr	r2, [r3, #0]
 8000298:	f022 0201 	bic.w	r2, r2, #1
 800029c:	601a      	str	r2, [r3, #0]
  RCC->CR &=~ RCC_CR_HSEBYP;
 800029e:	681a      	ldr	r2, [r3, #0]
 80002a0:	f422 2280 	bic.w	r2, r2, #262144	; 0x40000
 80002a4:	601a      	str	r2, [r3, #0]
  RCC->CR &=~ RCC_CR_PLLON;
 80002a6:	681a      	ldr	r2, [r3, #0]
 80002a8:	f022 7280 	bic.w	r2, r2, #16777216	; 0x1000000
 80002ac:	601a      	str	r2, [r3, #0]
  RCC->CR &=~ RCC_CR_RTCPRE;
 80002ae:	681a      	ldr	r2, [r3, #0]
 80002b0:	f022 42c0 	bic.w	r2, r2, #1610612736	; 0x60000000
 80002b4:	601a      	str	r2, [r3, #0]
  RCC->CR |= RCC_CR_RTCPRE_1; //0b00=2 MHz ; 0b01=4MHz ; 0b10=8MHz ; 0b11=16MHz
 80002b6:	681a      	ldr	r2, [r3, #0]
 80002b8:	f042 4280 	orr.w	r2, r2, #1073741824	; 0x40000000
 80002bc:	601a      	str	r2, [r3, #0]
  if(quartz){
 80002be:	b168      	cbz	r0, 80002dc <clock_HS+0xf4>
    RCC->CR |= RCC_CR_HSEON;
 80002c0:	681a      	ldr	r2, [r3, #0]
 80002c2:	f442 3280 	orr.w	r2, r2, #65536	; 0x10000
 80002c6:	601a      	str	r2, [r3, #0]
 80002c8:	f640 73ff 	movw	r3, #4095	; 0xfff
      if(RCC->CR & RCC_CR_HSERDY){i=0x1FFF; break;}
 80002cc:	4a0c      	ldr	r2, [pc, #48]	; (8000300 <clock_HS+0x118>)
 80002ce:	6811      	ldr	r1, [r2, #0]
 80002d0:	0389      	lsls	r1, r1, #14
 80002d2:	d49c      	bmi.n	800020e <clock_HS+0x26>
 80002d4:	3b01      	subs	r3, #1
 80002d6:	b29b      	uxth	r3, r3
    for(i=0;i<0x0FFF;i++){
 80002d8:	2b00      	cmp	r3, #0
 80002da:	d1f8      	bne.n	80002ce <clock_HS+0xe6>
    RCC->CR |= RCC_CR_HSION;
 80002dc:	4a08      	ldr	r2, [pc, #32]	; (8000300 <clock_HS+0x118>)
 80002de:	6813      	ldr	r3, [r2, #0]
 80002e0:	f043 0301 	orr.w	r3, r3, #1
 80002e4:	6013      	str	r3, [r2, #0]
 80002e6:	f640 73ff 	movw	r3, #4095	; 0xfff
      if(RCC->CR & RCC_CR_HSIRDY){i=0x1FFF; break;}
 80002ea:	6811      	ldr	r1, [r2, #0]
 80002ec:	0788      	lsls	r0, r1, #30
 80002ee:	d48d      	bmi.n	800020c <clock_HS+0x24>
 80002f0:	3b01      	subs	r3, #1
 80002f2:	b29b      	uxth	r3, r3
    for(i=0;i<0x0FFF;i++){
 80002f4:	2b00      	cmp	r3, #0
 80002f6:	d1f8      	bne.n	80002ea <clock_HS+0x102>
    if(i != 0x1FFF)return CLOCK_FAIL_HSI;
 80002f8:	f06f 0001 	mvn.w	r0, #1
 80002fc:	4770      	bx	lr
 80002fe:	bf00      	nop
 8000300:	40023800 	andmi	r3, r2, r0, lsl #16
 8000304:	40023c00 	andmi	r3, r2, r0, lsl #24
 8000308:	ff9bc00f 			; <UNDEFINED> instruction: 0xff9bc00f

0800030c <clock_MS>:
void clock_MS(){
  uint16_t i;
  uint32_t tmp;
  
  //clock by MSI
  tmp = RCC->CFGR;
 800030c:	4b10      	ldr	r3, [pc, #64]	; (8000350 <clock_MS+0x44>)
 800030e:	689a      	ldr	r2, [r3, #8]
  tmp &=~RCC_CFGR_SW;
 8000310:	f022 0203 	bic.w	r2, r2, #3
  tmp |= RCC_CFGR_SW_MSI; // MSI / HSI / HSE / PLL
  RCC->CFGR = tmp;
 8000314:	609a      	str	r2, [r3, #8]
 8000316:	f640 72ff 	movw	r2, #4095	; 0xfff
  for(i=0;i<0x0FFF;i++){
    if((RCC->CFGR & RCC_CFGR_SWS)==RCC_CFGR_SWS_MSI){i=0x1FFF; break;}
 800031a:	6899      	ldr	r1, [r3, #8]
 800031c:	f011 0f0c 	tst.w	r1, #12
 8000320:	d004      	beq.n	800032c <clock_MS+0x20>
 8000322:	3a01      	subs	r2, #1
 8000324:	b292      	uxth	r2, r2
  for(i=0;i<0x0FFF;i++){
 8000326:	2a00      	cmp	r2, #0
 8000328:	d1f7      	bne.n	800031a <clock_MS+0xe>
 800032a:	4770      	bx	lr
  }
  if(i != 0x1FFF)return;;
  
  //disable HSE, PLL
  RCC->CR &=~ RCC_CR_HSEON;
 800032c:	681a      	ldr	r2, [r3, #0]
 800032e:	f422 3280 	bic.w	r2, r2, #65536	; 0x10000
 8000332:	601a      	str	r2, [r3, #0]
  RCC->CR &=~ RCC_CR_HSION;
 8000334:	681a      	ldr	r2, [r3, #0]
 8000336:	f022 0201 	bic.w	r2, r2, #1
 800033a:	601a      	str	r2, [r3, #0]
  RCC->CR &=~ RCC_CR_HSEBYP;
 800033c:	681a      	ldr	r2, [r3, #0]
 800033e:	f422 2280 	bic.w	r2, r2, #262144	; 0x40000
 8000342:	601a      	str	r2, [r3, #0]
  RCC->CR &=~ RCC_CR_PLLON;
 8000344:	681a      	ldr	r2, [r3, #0]
 8000346:	f022 7280 	bic.w	r2, r2, #16777216	; 0x1000000
 800034a:	601a      	str	r2, [r3, #0]
}
 800034c:	4770      	bx	lr
 800034e:	bf00      	nop
 8000350:	40023800 	andmi	r3, r2, r0, lsl #16

08000354 <_init>:
 8000354:	4770      	bx	lr

08000356 <SystemInit>:
#include "hardware.h"
#include "usb_lib.h"
#include "clock.h"

void __attribute__((weak)) _init(void){}
void __attribute__((weak)) SystemInit(void){}
 8000356:	4770      	bx	lr

08000358 <sleep>:

void sleep(uint32_t time){
  while(time--)asm volatile("nop");
 8000358:	f110 30ff 	adds.w	r0, r0, #4294967295	; 0xffffffff
 800035c:	d200      	bcs.n	8000360 <sleep+0x8>
}
 800035e:	4770      	bx	lr
  while(time--)asm volatile("nop");
 8000360:	bf00      	nop
 8000362:	e7f9      	b.n	8000358 <sleep>

#define STM32ENDPOINTS          8
#define usb_epdata   ((volatile usb_epdata_t*)(USB_PMAADDR))
#define LASTADDR_DEFAULT                (STM32ENDPOINTS * 8)

__attribute__((weak))void usb_class_init(){}
 8000364:	4770      	bx	lr

08000366 <usb_class_disconnect>:
 8000366:	4770      	bx	lr
 8000368:	4770      	bx	lr
__attribute__((weak))void usb_class_disconnect(){}
__attribute__((weak))void usb_class_poll(){}
__attribute__((weak))char usb_class_ep0_in(config_pack_t *req, void **data, uint16_t *size){return 0;}
 800036a:	2000      	movs	r0, #0
 800036c:	4770      	bx	lr
__attribute__((weak))char usb_class_ep0_out(config_pack_t *req, uint16_t offset, uint16_t rx_size){return 0;}
 800036e:	2000      	movs	r0, #0
 8000370:	4770      	bx	lr

08000372 <USB_setup>:
epfunc_t epfunc_out[STM32ENDPOINTS];

static config_pack_t setup_packet;

void USB_setup(){
  RCC->APB1ENR |= RCC_APB1ENR_USBEN;
 8000372:	4b16      	ldr	r3, [pc, #88]	; (80003cc <USB_setup+0x5a>)
 8000374:	6a5a      	ldr	r2, [r3, #36]	; 0x24
 8000376:	f442 0200 	orr.w	r2, r2, #8388608	; 0x800000
 800037a:	625a      	str	r2, [r3, #36]	; 0x24
  RCC->APB2ENR |= RCC_APB2ENR_SYSCFGEN;
 800037c:	6a1a      	ldr	r2, [r3, #32]
 800037e:	f042 0201 	orr.w	r2, r2, #1
 8000382:	621a      	str	r2, [r3, #32]
  
  SYSCFG->PMC &=~ SYSCFG_PMC_USB_PU;
 8000384:	4a12      	ldr	r2, [pc, #72]	; (80003d0 <USB_setup+0x5e>)
 8000386:	6853      	ldr	r3, [r2, #4]
 8000388:	f023 0301 	bic.w	r3, r3, #1
 800038c:	6053      	str	r3, [r2, #4]
  USB->CNTR   = USB_CNTR_FRES; // Force USB Reset
 800038e:	2201      	movs	r2, #1
 8000390:	4b10      	ldr	r3, [pc, #64]	; (80003d4 <USB_setup+0x62>)
 8000392:	f8a3 2040 	strh.w	r2, [r3, #64]	; 0x40
 8000396:	4a10      	ldr	r2, [pc, #64]	; (80003d8 <USB_setup+0x66>)
  for(uint32_t ctr = 0; ctr < 100000; ++ctr) asm volatile("nop"); // wait >1ms
 8000398:	bf00      	nop
 800039a:	3a01      	subs	r2, #1
 800039c:	d1fc      	bne.n	8000398 <USB_setup+0x26>
  USB->CNTR   = 0;
 800039e:	f8a3 2040 	strh.w	r2, [r3, #64]	; 0x40
  USB->BTABLE = 0;
 80003a2:	f8a3 2050 	strh.w	r2, [r3, #80]	; 0x50
  USB->DADDR  = 0;
 80003a6:	f8a3 204c 	strh.w	r2, [r3, #76]	; 0x4c
  USB->ISTR   = 0;
 80003aa:	f8a3 2044 	strh.w	r2, [r3, #68]	; 0x44
  USB->CNTR   = USB_CNTR_RESETM | USB_CNTR_WKUPM;
 80003ae:	f44f 52a0 	mov.w	r2, #5120	; 0x1400
 80003b2:	f8a3 2040 	strh.w	r2, [r3, #64]	; 0x40
 * Enable a device specific interupt in the NVIC interrupt controller.
 * The interrupt number cannot be a negative value.
 */
static __INLINE void NVIC_EnableIRQ(IRQn_Type IRQn)
{
  NVIC->ISER[((uint32_t)(IRQn) >> 5)] = (1 << ((uint32_t)(IRQn) & 0x1F)); /* enable interrupt */
 80003b6:	f44f 1280 	mov.w	r2, #1048576	; 0x100000
 80003ba:	4b08      	ldr	r3, [pc, #32]	; (80003dc <USB_setup+0x6a>)
 80003bc:	601a      	str	r2, [r3, #0]
  NVIC_EnableIRQ(USB_LP_IRQn);
  SYSCFG->PMC |= SYSCFG_PMC_USB_PU;
 80003be:	4a04      	ldr	r2, [pc, #16]	; (80003d0 <USB_setup+0x5e>)
 80003c0:	6853      	ldr	r3, [r2, #4]
 80003c2:	f043 0301 	orr.w	r3, r3, #1
 80003c6:	6053      	str	r3, [r2, #4]
}
 80003c8:	4770      	bx	lr
 80003ca:	bf00      	nop
 80003cc:	40023800 	andmi	r3, r2, r0, lsl #16
 80003d0:	40010000 	andmi	r0, r1, r0
 80003d4:	40005c00 	andmi	r5, r0, r0, lsl #24
 80003d8:	000186a0 	andeq	r8, r1, r0, lsr #13
 80003dc:	e000e100 	and	lr, r0, r0, lsl #2

080003e0 <usb_ep_init>:
    if( bytesread >= setup_packet.wLength )usb_ep_write(0, NULL, 0);
  }
}

static uint16_t lastaddr = LASTADDR_DEFAULT;
void usb_ep_init(uint8_t epnum, uint8_t ep_type, uint16_t size, epfunc_t func){
 80003e0:	b5f0      	push	{r4, r5, r6, r7, lr}
  uint8_t dir_in = (epnum & 0x80);
  epnum &= 0x0F;
 80003e2:	f000 070f 	and.w	r7, r0, #15
  
  if(dir_in){
 80003e6:	fa4f fc80 	sxtb.w	ip, r0
 80003ea:	00bd      	lsls	r5, r7, #2
 80003ec:	f105 4580 	add.w	r5, r5, #1073741824	; 0x40000000
 80003f0:	f1bc 0f00 	cmp.w	ip, #0
 80003f4:	f505 45b8 	add.w	r5, r5, #23552	; 0x5c00
 80003f8:	da17      	bge.n	800042a <usb_ep_init+0x4a>
    ENDP_STAT_TX(epnum, USB_EP_TX_DIS);
 80003fa:	8828      	ldrh	r0, [r5, #0]
 80003fc:	f020 00c0 	bic.w	r0, r0, #192	; 0xc0
 8000400:	0500      	lsls	r0, r0, #20
 8000402:	0d00      	lsrs	r0, r0, #20
 8000404:	f440 4000 	orr.w	r0, r0, #32768	; 0x8000
 8000408:	f040 0080 	orr.w	r0, r0, #128	; 0x80
 800040c:	8028      	strh	r0, [r5, #0]
  }else{
    ENDP_STAT_RX(epnum, USB_EP_RX_DIS);
  }
  
  uint16_t buf = USB_EPx(epnum);
 800040e:	882c      	ldrh	r4, [r5, #0]
  buf = (buf & ~(USB_EP_DTOG_RX | USB_EP_DTOG_TX | USB_EPTX_STAT | USB_EPRX_STAT)) | USB_EP_CTR_RX | USB_EP_CTR_TX;
  buf = (buf & ~USB_EPADDR_FIELD) | epnum;
  //buf = (buf & ~USB_EP_T_FIELD) | ep_type;
  buf &=~ USB_EP_T_FIELD;
  switch(ep_type){
 8000410:	2902      	cmp	r1, #2
 8000412:	f404 6410 	and.w	r4, r4, #2304	; 0x900
 8000416:	ea44 0407 	orr.w	r4, r4, r7
 800041a:	d011      	beq.n	8000440 <usb_ep_init+0x60>
 800041c:	2903      	cmp	r1, #3
 800041e:	d035      	beq.n	800048c <usb_ep_init+0xac>
 8000420:	2900      	cmp	r1, #0
 8000422:	d136      	bne.n	8000492 <usb_ep_init+0xb2>
    case USB_ENDP_CTRL: buf |= USB_EP_CONTROL; break;
 8000424:	f444 4402 	orr.w	r4, r4, #33280	; 0x8200
 8000428:	e00c      	b.n	8000444 <usb_ep_init+0x64>
    ENDP_STAT_RX(epnum, USB_EP_RX_DIS);
 800042a:	882c      	ldrh	r4, [r5, #0]
 800042c:	f024 04f0 	bic.w	r4, r4, #240	; 0xf0
 8000430:	04a4      	lsls	r4, r4, #18
 8000432:	0ca4      	lsrs	r4, r4, #18
 8000434:	f444 4400 	orr.w	r4, r4, #32768	; 0x8000
 8000438:	f044 0480 	orr.w	r4, r4, #128	; 0x80
 800043c:	802c      	strh	r4, [r5, #0]
 800043e:	e7e6      	b.n	800040e <usb_ep_init+0x2e>
  buf &=~ USB_EP_T_FIELD;
 8000440:	f444 4400 	orr.w	r4, r4, #32768	; 0x8000
    case USB_ENDP_BULK: buf |= USB_EP_BULK; break;
    case USB_ENDP_INTR: buf |= USB_EP_INTERRUPT; break;
    default: buf |= USB_EP_ISOCHRONOUS; //в дескрипторах изохронные точки могут иметь расширенные настройки
 8000444:	f044 0480 	orr.w	r4, r4, #128	; 0x80
  }
  USB_EPx(epnum) = buf;
 8000448:	802c      	strh	r4, [r5, #0]
  
  if( dir_in ){
 800044a:	4825      	ldr	r0, [pc, #148]	; (80004e0 <usb_ep_init+0x100>)
 800044c:	013c      	lsls	r4, r7, #4
 800044e:	f104 4480 	add.w	r4, r4, #1073741824	; 0x40000000
 8000452:	f1bc 0f00 	cmp.w	ip, #0
 8000456:	8806      	ldrh	r6, [r0, #0]
 8000458:	f504 44c0 	add.w	r4, r4, #24576	; 0x6000
 800045c:	da1c      	bge.n	8000498 <usb_ep_init+0xb8>
    usb_epdata[epnum].usb_tx_addr = lastaddr;
 800045e:	6026      	str	r6, [r4, #0]
    epfunc_in[epnum] = func;
 8000460:	4c20      	ldr	r4, [pc, #128]	; (80004e4 <usb_ep_init+0x104>)
    if((ep_type & 0x03) == USB_ENDP_ISO){
 8000462:	f001 0103 	and.w	r1, r1, #3
    epfunc_in[epnum] = func;
 8000466:	f844 3027 	str.w	r3, [r4, r7, lsl #2]
    if((ep_type & 0x03) == USB_ENDP_ISO){
 800046a:	f640 733f 	movw	r3, #3903	; 0xf3f
 800046e:	2901      	cmp	r1, #1
      ENDP_STAT_TX(epnum, USB_EP_TX_VALID);
 8000470:	8829      	ldrh	r1, [r5, #0]
 8000472:	ea03 0301 	and.w	r3, r3, r1
 8000476:	f483 4300 	eor.w	r3, r3, #32768	; 0x8000
 800047a:	bf0c      	ite	eq
 800047c:	f083 03b0 	eoreq.w	r3, r3, #176	; 0xb0
    }else{
      ENDP_STAT_TX(epnum, USB_EP_TX_NAK);
 8000480:	f083 03a0 	eorne.w	r3, r3, #160	; 0xa0
      usb_epdata[epnum].rx_num_blocks = size / 32 - 1;
    }
    epfunc_out[epnum] = func;
    ENDP_STAT_RX(epnum, USB_EP_RX_VALID);
  }
  lastaddr += size;
 8000484:	4432      	add	r2, r6
    ENDP_STAT_RX(epnum, USB_EP_RX_VALID);
 8000486:	802b      	strh	r3, [r5, #0]
  lastaddr += size;
 8000488:	8002      	strh	r2, [r0, #0]
}
 800048a:	bdf0      	pop	{r4, r5, r6, r7, pc}
    case USB_ENDP_INTR: buf |= USB_EP_INTERRUPT; break;
 800048c:	f444 4406 	orr.w	r4, r4, #34304	; 0x8600
 8000490:	e7d8      	b.n	8000444 <usb_ep_init+0x64>
    default: buf |= USB_EP_ISOCHRONOUS; //в дескрипторах изохронные точки могут иметь расширенные настройки
 8000492:	f444 4404 	orr.w	r4, r4, #33792	; 0x8400
 8000496:	e7d5      	b.n	8000444 <usb_ep_init+0x64>
    usb_epdata[epnum].usb_rx_addr = lastaddr;
 8000498:	60a6      	str	r6, [r4, #8]
      usb_epdata[epnum].rx_blocksize = 0;
 800049a:	89a1      	ldrh	r1, [r4, #12]
    if(size < 64){
 800049c:	2a3f      	cmp	r2, #63	; 0x3f
      usb_epdata[epnum].rx_blocksize = 1;
 800049e:	bf8b      	itete	hi
 80004a0:	f441 4100 	orrhi.w	r1, r1, #32768	; 0x8000
      usb_epdata[epnum].rx_blocksize = 0;
 80004a4:	f36f 31cf 	bfcls	r1, #15, #1
      usb_epdata[epnum].rx_blocksize = 1;
 80004a8:	81a1      	strhhi	r1, [r4, #12]
      usb_epdata[epnum].rx_blocksize = 0;
 80004aa:	81a1      	strhls	r1, [r4, #12]
      usb_epdata[epnum].rx_num_blocks = size / 32 - 1;
 80004ac:	f8b4 c00c 	ldrh.w	ip, [r4, #12]
 80004b0:	bf8a      	itet	hi
 80004b2:	0951      	lsrhi	r1, r2, #5
      usb_epdata[epnum].rx_num_blocks = size / 2;
 80004b4:	f3c2 0144 	ubfxls	r1, r2, #1, #5
      usb_epdata[epnum].rx_num_blocks = size / 32 - 1;
 80004b8:	f101 31ff 	addhi.w	r1, r1, #4294967295	; 0xffffffff
 80004bc:	f361 2c8e 	bfi	ip, r1, #10, #5
    epfunc_out[epnum] = func;
 80004c0:	4909      	ldr	r1, [pc, #36]	; (80004e8 <usb_ep_init+0x108>)
      usb_epdata[epnum].rx_num_blocks = size / 32 - 1;
 80004c2:	f8a4 c00c 	strh.w	ip, [r4, #12]
    epfunc_out[epnum] = func;
 80004c6:	f841 3027 	str.w	r3, [r1, r7, lsl #2]
    ENDP_STAT_RX(epnum, USB_EP_RX_VALID);
 80004ca:	882b      	ldrh	r3, [r5, #0]
 80004cc:	f023 03f0 	bic.w	r3, r3, #240	; 0xf0
 80004d0:	049b      	lsls	r3, r3, #18
 80004d2:	0c9b      	lsrs	r3, r3, #18
 80004d4:	f483 4330 	eor.w	r3, r3, #45056	; 0xb000
 80004d8:	f083 0380 	eor.w	r3, r3, #128	; 0x80
 80004dc:	e7d2      	b.n	8000484 <usb_ep_init+0xa4>
 80004de:	bf00      	nop
 80004e0:	20000000 	andcs	r0, r0, r0
 80004e4:	20000024 	andcs	r0, r0, r4, lsr #32
 80004e8:	20000044 	andcs	r0, r0, r4, asr #32

080004ec <usb_ep_init_double>:

void usb_ep_init_double(uint8_t epnum, uint8_t ep_type, uint16_t size, epfunc_t func){
 80004ec:	b5f0      	push	{r4, r5, r6, r7, lr}
  uint8_t dir_in = (epnum & 0x80);
  epnum &= 0x0F;
  
  ENDP_STAT_TX(epnum, USB_EP_TX_DIS);
 80004ee:	f248 0780 	movw	r7, #32896	; 0x8080
  epnum &= 0x0F;
 80004f2:	f000 060f 	and.w	r6, r0, #15
  ENDP_STAT_TX(epnum, USB_EP_TX_DIS);
 80004f6:	00b5      	lsls	r5, r6, #2
 80004f8:	f105 4580 	add.w	r5, r5, #1073741824	; 0x40000000
 80004fc:	f505 45b8 	add.w	r5, r5, #23552	; 0x5c00
 8000500:	882c      	ldrh	r4, [r5, #0]
  uint16_t buf = USB_EPx(epnum);
  buf = (buf & ~(USB_EP_DTOG_RX | USB_EP_DTOG_TX | USB_EPTX_STAT | USB_EPRX_STAT)) | USB_EP_CTR_RX | USB_EP_CTR_TX;
  buf = (buf & ~USB_EPADDR_FIELD) | epnum;
  
  buf &=~ USB_EP_T_FIELD;
  switch(ep_type){
 8000502:	2902      	cmp	r1, #2
  ENDP_STAT_TX(epnum, USB_EP_TX_DIS);
 8000504:	f024 04c0 	bic.w	r4, r4, #192	; 0xc0
 8000508:	ea4f 5404 	mov.w	r4, r4, lsl #20
 800050c:	ea4f 5414 	mov.w	r4, r4, lsr #20
 8000510:	ea44 0407 	orr.w	r4, r4, r7
 8000514:	802c      	strh	r4, [r5, #0]
  ENDP_STAT_RX(epnum, USB_EP_RX_DIS);
 8000516:	882c      	ldrh	r4, [r5, #0]
 8000518:	f024 04f0 	bic.w	r4, r4, #240	; 0xf0
 800051c:	ea4f 4484 	mov.w	r4, r4, lsl #18
 8000520:	ea4f 4494 	mov.w	r4, r4, lsr #18
 8000524:	ea47 0704 	orr.w	r7, r7, r4
 8000528:	802f      	strh	r7, [r5, #0]
  uint16_t buf = USB_EPx(epnum);
 800052a:	882c      	ldrh	r4, [r5, #0]
  buf &=~ USB_EP_T_FIELD;
 800052c:	f404 6410 	and.w	r4, r4, #2304	; 0x900
 8000530:	ea44 0406 	orr.w	r4, r4, r6
  switch(ep_type){
 8000534:	d02f      	beq.n	8000596 <usb_ep_init_double+0xaa>
 8000536:	2903      	cmp	r1, #3
 8000538:	d030      	beq.n	800059c <usb_ep_init_double+0xb0>
 800053a:	bb91      	cbnz	r1, 80005a2 <usb_ep_init_double+0xb6>
    case USB_ENDP_CTRL: buf |= USB_EP_CONTROL; break;
 800053c:	f444 4102 	orr.w	r1, r4, #33280	; 0x8200
 8000540:	f8df c0e0 	ldr.w	ip, [pc, #224]	; 8000624 <usb_ep_init_double+0x138>
    case USB_ENDP_BULK: buf |= USB_EP_BULK | USB_EP_KIND; break;
    case USB_ENDP_INTR: buf |= USB_EP_INTERRUPT; break;
    default: buf |= USB_EP_ISOCHRONOUS; //в дескрипторах изохронные точки могут иметь расширенные настройки
 8000544:	f041 0180 	orr.w	r1, r1, #128	; 0x80
  }
  USB_EPx(epnum) = buf;
 8000548:	8029      	strh	r1, [r5, #0]
  
#define USB_EP_SWBUF_TX     USB_EP_DTOG_RX
#define USB_EP_SWBUF_RX     USB_EP_DTOG_TX
  if( dir_in ){
 800054a:	f8bc 4000 	ldrh.w	r4, [ip]
 800054e:	0131      	lsls	r1, r6, #4
 8000550:	f101 4180 	add.w	r1, r1, #1073741824	; 0x40000000
 8000554:	f010 0f80 	tst.w	r0, #128	; 0x80
 8000558:	f501 41c0 	add.w	r1, r1, #24576	; 0x6000
 800055c:	eb02 0704 	add.w	r7, r2, r4
 8000560:	4660      	mov	r0, ip
 8000562:	d021      	beq.n	80005a8 <usb_ep_init_double+0xbc>
    usb_epdata[epnum].usb_tx_addr = lastaddr;
    usb_epdata[epnum].usb_tx_count = 0;
 8000564:	f04f 0c00 	mov.w	ip, #0
    usb_epdata[epnum].usb_tx_addr = lastaddr;
 8000568:	600c      	str	r4, [r1, #0]
    usb_epdata[epnum].usb_tx_count = 0;
 800056a:	f8c1 c004 	str.w	ip, [r1, #4]
    usb_epdata[epnum].usb_rx_addr = lastaddr + size;
 800056e:	608f      	str	r7, [r1, #8]
    usb_epdata[epnum].usb_rx_count = 0;
 8000570:	f8c1 c00c 	str.w	ip, [r1, #12]
    
    buf = USB_EPx(epnum);
 8000574:	8829      	ldrh	r1, [r5, #0]
    USB_EPx(epnum) = (buf ^ USB_EP_TX_VALID) & (USB_EPREG_MASK | USB_EPTX_STAT | USB_EP_DTOG_TX | USB_EP_SWBUF_TX);
 8000576:	f081 0130 	eor.w	r1, r1, #48	; 0x30
 800057a:	f421 5140 	bic.w	r1, r1, #12288	; 0x3000
 800057e:	b289      	uxth	r1, r1
      usb_epdata[epnum].rx_blocksize = usb_epdata[epnum].tx_blocksize = 1;
      if(size < 32)size = 32;
      usb_epdata[epnum].rx_num_blocks = usb_epdata[epnum].tx_num_blocks = size / 32 - 1;
    }
    ENDP_STAT_RX(epnum, USB_EP_RX_VALID);
    ENDP_STAT_TX(epnum, USB_EP_TX_VALID);
 8000580:	8029      	strh	r1, [r5, #0]
  }
  epfunc_in[epnum] = func;
 8000582:	4926      	ldr	r1, [pc, #152]	; (800061c <usb_ep_init_double+0x130>)
  epfunc_out[epnum]= func;
    
  lastaddr += 2*size;
 8000584:	eb04 0242 	add.w	r2, r4, r2, lsl #1
  epfunc_in[epnum] = func;
 8000588:	f841 3026 	str.w	r3, [r1, r6, lsl #2]
  epfunc_out[epnum]= func;
 800058c:	4924      	ldr	r1, [pc, #144]	; (8000620 <usb_ep_init_double+0x134>)
  lastaddr += 2*size;
 800058e:	8002      	strh	r2, [r0, #0]
  epfunc_out[epnum]= func;
 8000590:	f841 3026 	str.w	r3, [r1, r6, lsl #2]
}
 8000594:	bdf0      	pop	{r4, r5, r6, r7, pc}
    case USB_ENDP_BULK: buf |= USB_EP_BULK | USB_EP_KIND; break;
 8000596:	f444 4101 	orr.w	r1, r4, #33024	; 0x8100
 800059a:	e7d1      	b.n	8000540 <usb_ep_init_double+0x54>
    case USB_ENDP_INTR: buf |= USB_EP_INTERRUPT; break;
 800059c:	f444 4106 	orr.w	r1, r4, #34304	; 0x8600
 80005a0:	e7ce      	b.n	8000540 <usb_ep_init_double+0x54>
    default: buf |= USB_EP_ISOCHRONOUS; //в дескрипторах изохронные точки могут иметь расширенные настройки
 80005a2:	f444 4104 	orr.w	r1, r4, #33792	; 0x8400
 80005a6:	e7cb      	b.n	8000540 <usb_ep_init_double+0x54>
    usb_epdata[epnum].usb_rx_addr = lastaddr;
 80005a8:	608c      	str	r4, [r1, #8]
    if(size < 64){
 80005aa:	2a3f      	cmp	r2, #63	; 0x3f
    usb_epdata[epnum].usb_tx_addr = lastaddr + size;
 80005ac:	600f      	str	r7, [r1, #0]
      usb_epdata[epnum].rx_blocksize = usb_epdata[epnum].tx_blocksize = 0;
 80005ae:	888f      	ldrh	r7, [r1, #4]
    if(size < 64){
 80005b0:	d828      	bhi.n	8000604 <usb_ep_init_double+0x118>
      usb_epdata[epnum].rx_blocksize = usb_epdata[epnum].tx_blocksize = 0;
 80005b2:	f36f 37cf 	bfc	r7, #15, #1
 80005b6:	808f      	strh	r7, [r1, #4]
 80005b8:	898f      	ldrh	r7, [r1, #12]
 80005ba:	f36f 37cf 	bfc	r7, #15, #1
 80005be:	818f      	strh	r7, [r1, #12]
      usb_epdata[epnum].rx_num_blocks = usb_epdata[epnum].tx_num_blocks = size / 2;
 80005c0:	f3c2 0744 	ubfx	r7, r2, #1, #5
      usb_epdata[epnum].rx_num_blocks = usb_epdata[epnum].tx_num_blocks = size / 32 - 1;
 80005c4:	f8b1 c004 	ldrh.w	ip, [r1, #4]
 80005c8:	f367 2c8e 	bfi	ip, r7, #10, #5
 80005cc:	f8a1 c004 	strh.w	ip, [r1, #4]
 80005d0:	f8b1 c00c 	ldrh.w	ip, [r1, #12]
 80005d4:	f367 2c8e 	bfi	ip, r7, #10, #5
 80005d8:	f8a1 c00c 	strh.w	ip, [r1, #12]
    ENDP_STAT_RX(epnum, USB_EP_RX_VALID);
 80005dc:	8829      	ldrh	r1, [r5, #0]
 80005de:	f021 01f0 	bic.w	r1, r1, #240	; 0xf0
 80005e2:	0489      	lsls	r1, r1, #18
 80005e4:	0c89      	lsrs	r1, r1, #18
 80005e6:	f481 4130 	eor.w	r1, r1, #45056	; 0xb000
 80005ea:	f081 0180 	eor.w	r1, r1, #128	; 0x80
 80005ee:	8029      	strh	r1, [r5, #0]
    ENDP_STAT_TX(epnum, USB_EP_TX_VALID);
 80005f0:	8829      	ldrh	r1, [r5, #0]
 80005f2:	f021 01c0 	bic.w	r1, r1, #192	; 0xc0
 80005f6:	0509      	lsls	r1, r1, #20
 80005f8:	0d09      	lsrs	r1, r1, #20
 80005fa:	f481 4100 	eor.w	r1, r1, #32768	; 0x8000
 80005fe:	f081 01b0 	eor.w	r1, r1, #176	; 0xb0
 8000602:	e7bd      	b.n	8000580 <usb_ep_init_double+0x94>
      usb_epdata[epnum].rx_blocksize = usb_epdata[epnum].tx_blocksize = 1;
 8000604:	f447 4700 	orr.w	r7, r7, #32768	; 0x8000
 8000608:	808f      	strh	r7, [r1, #4]
 800060a:	898f      	ldrh	r7, [r1, #12]
 800060c:	f447 4700 	orr.w	r7, r7, #32768	; 0x8000
 8000610:	818f      	strh	r7, [r1, #12]
      usb_epdata[epnum].rx_num_blocks = usb_epdata[epnum].tx_num_blocks = size / 32 - 1;
 8000612:	0957      	lsrs	r7, r2, #5
 8000614:	3f01      	subs	r7, #1
 8000616:	f007 071f 	and.w	r7, r7, #31
 800061a:	e7d3      	b.n	80005c4 <usb_ep_init_double+0xd8>
 800061c:	20000024 	andcs	r0, r0, r4, lsr #32
 8000620:	20000044 	andcs	r0, r0, r4, asr #32
 8000624:	20000000 	andcs	r0, r0, r0

08000628 <USB_LP_IRQHandler>:

// standard IRQ handler
void USB_LP_IRQHandler(){
 8000628:	b538      	push	{r3, r4, r5, lr}
  if(USB->ISTR & USB_ISTR_RESET){
 800062a:	4c42      	ldr	r4, [pc, #264]	; (8000734 <USB_LP_IRQHandler+0x10c>)
 800062c:	f8b4 3044 	ldrh.w	r3, [r4, #68]	; 0x44
 8000630:	055d      	lsls	r5, r3, #21
 8000632:	d52c      	bpl.n	800068e <USB_LP_IRQHandler+0x66>
    usb_class_disconnect();
 8000634:	f7ff fe97 	bl	8000366 <usb_class_disconnect>
    USB->CNTR = USB_CNTR_RESETM | USB_CNTR_CTRM | USB_CNTR_SUSPM | USB_CNTR_WKUPM;
 8000638:	f44f 431c 	mov.w	r3, #39936	; 0x9c00
    lastaddr = LASTADDR_DEFAULT;
 800063c:	2240      	movs	r2, #64	; 0x40
    USB->CNTR = USB_CNTR_RESETM | USB_CNTR_CTRM | USB_CNTR_SUSPM | USB_CNTR_WKUPM;
 800063e:	f8a4 3040 	strh.w	r3, [r4, #64]	; 0x40
    lastaddr = LASTADDR_DEFAULT;
 8000642:	4b3d      	ldr	r3, [pc, #244]	; (8000738 <USB_LP_IRQHandler+0x110>)
 8000644:	493d      	ldr	r1, [pc, #244]	; (800073c <USB_LP_IRQHandler+0x114>)
 8000646:	801a      	strh	r2, [r3, #0]
    USB->DADDR = USB_DADDR_EF;
 8000648:	2380      	movs	r3, #128	; 0x80
    for(uint8_t i=0; i<STM32ENDPOINTS; i++){
      epfunc_in[i] = epfunc_out[i] = NULL;
 800064a:	2200      	movs	r2, #0
    USB->DADDR = USB_DADDR_EF;
 800064c:	f8a4 304c 	strh.w	r3, [r4, #76]	; 0x4c
 8000650:	2408      	movs	r4, #8
 8000652:	4b3b      	ldr	r3, [pc, #236]	; (8000740 <USB_LP_IRQHandler+0x118>)
      epfunc_in[i] = epfunc_out[i] = NULL;
 8000654:	3c01      	subs	r4, #1
    for(uint8_t i=0; i<STM32ENDPOINTS; i++){
 8000656:	f014 04ff 	ands.w	r4, r4, #255	; 0xff
      epfunc_in[i] = epfunc_out[i] = NULL;
 800065a:	f841 2b04 	str.w	r2, [r1], #4
 800065e:	f843 2b04 	str.w	r2, [r3], #4
    for(uint8_t i=0; i<STM32ENDPOINTS; i++){
 8000662:	d1f7      	bne.n	8000654 <USB_LP_IRQHandler+0x2c>
    }
    // state is default - wait for enumeration
    USB->ISTR = (uint16_t)~USB_ISTR_RESET;
 8000664:	f64f 32ff 	movw	r2, #64511	; 0xfbff
 8000668:	4b32      	ldr	r3, [pc, #200]	; (8000734 <USB_LP_IRQHandler+0x10c>)
    usb_ep_init(0x00, USB_ENDP_CTRL, USB_EP0_BUFSZ, ep0_out);
 800066a:	4621      	mov	r1, r4
    USB->ISTR = (uint16_t)~USB_ISTR_RESET;
 800066c:	f8a3 2044 	strh.w	r2, [r3, #68]	; 0x44
    usb_ep_init(0x00, USB_ENDP_CTRL, USB_EP0_BUFSZ, ep0_out);
 8000670:	4620      	mov	r0, r4
 8000672:	4b34      	ldr	r3, [pc, #208]	; (8000744 <USB_LP_IRQHandler+0x11c>)
 8000674:	2208      	movs	r2, #8
 8000676:	f7ff feb3 	bl	80003e0 <usb_ep_init>
    usb_ep_init(0x80, USB_ENDP_CTRL, USB_EP0_BUFSZ, ep0_in);
 800067a:	4b33      	ldr	r3, [pc, #204]	; (8000748 <USB_LP_IRQHandler+0x120>)
 800067c:	2208      	movs	r2, #8
 800067e:	4621      	mov	r1, r4
 8000680:	2080      	movs	r0, #128	; 0x80
 8000682:	f7ff fead 	bl	80003e0 <usb_ep_init>
    ep0_buf = NULL;
 8000686:	4b31      	ldr	r3, [pc, #196]	; (800074c <USB_LP_IRQHandler+0x124>)
 8000688:	601c      	str	r4, [r3, #0]
    usb_class_init();
 800068a:	f000 fa57 	bl	8000b3c <usb_class_init>
  }
  
  if(USB->ISTR & USB_ISTR_CTR){
 800068e:	4b29      	ldr	r3, [pc, #164]	; (8000734 <USB_LP_IRQHandler+0x10c>)
 8000690:	f8b3 2044 	ldrh.w	r2, [r3, #68]	; 0x44
 8000694:	0414      	lsls	r4, r2, #16
 8000696:	d529      	bpl.n	80006ec <USB_LP_IRQHandler+0xc4>
    uint8_t epnum = USB->ISTR & USB_ISTR_EP_ID;
 8000698:	f8b3 5044 	ldrh.w	r5, [r3, #68]	; 0x44
 800069c:	f005 050f 	and.w	r5, r5, #15
    if(USB_EPx(epnum) & USB_EP_CTR_RX){ //OUT
 80006a0:	00ac      	lsls	r4, r5, #2
 80006a2:	f104 4480 	add.w	r4, r4, #1073741824	; 0x40000000
 80006a6:	f504 44b8 	add.w	r4, r4, #23552	; 0x5c00
 80006aa:	8823      	ldrh	r3, [r4, #0]
 80006ac:	0418      	lsls	r0, r3, #16
 80006ae:	d50c      	bpl.n	80006ca <USB_LP_IRQHandler+0xa2>
      epfunc_out[epnum](epnum);
 80006b0:	4b22      	ldr	r3, [pc, #136]	; (800073c <USB_LP_IRQHandler+0x114>)
 80006b2:	4628      	mov	r0, r5
 80006b4:	f853 3025 	ldr.w	r3, [r3, r5, lsl #2]
 80006b8:	4798      	blx	r3
      ENDP_CTR_RX_CLR(epnum);
 80006ba:	8823      	ldrh	r3, [r4, #0]
 80006bc:	f023 03f0 	bic.w	r3, r3, #240	; 0xf0
 80006c0:	051b      	lsls	r3, r3, #20
 80006c2:	0d1b      	lsrs	r3, r3, #20
 80006c4:	f043 0380 	orr.w	r3, r3, #128	; 0x80
 80006c8:	8023      	strh	r3, [r4, #0]
    }
    if(USB_EPx(epnum) & USB_EP_CTR_TX){//IN
 80006ca:	8823      	ldrh	r3, [r4, #0]
 80006cc:	0619      	lsls	r1, r3, #24
 80006ce:	d50d      	bpl.n	80006ec <USB_LP_IRQHandler+0xc4>
      epfunc_in[epnum](epnum | 0x80);
 80006d0:	4b1b      	ldr	r3, [pc, #108]	; (8000740 <USB_LP_IRQHandler+0x118>)
 80006d2:	f045 0080 	orr.w	r0, r5, #128	; 0x80
 80006d6:	f853 3025 	ldr.w	r3, [r3, r5, lsl #2]
 80006da:	4798      	blx	r3
      ENDP_CTR_TX_CLR(epnum);
 80006dc:	8823      	ldrh	r3, [r4, #0]
 80006de:	f023 03f0 	bic.w	r3, r3, #240	; 0xf0
 80006e2:	051b      	lsls	r3, r3, #20
 80006e4:	0d1b      	lsrs	r3, r3, #20
 80006e6:	f443 4300 	orr.w	r3, r3, #32768	; 0x8000
 80006ea:	8023      	strh	r3, [r4, #0]
    }
  }
  
  if(USB->ISTR & USB_ISTR_SUSP){ // suspend -> still no connection, may sleep
 80006ec:	4c11      	ldr	r4, [pc, #68]	; (8000734 <USB_LP_IRQHandler+0x10c>)
 80006ee:	f8b4 3044 	ldrh.w	r3, [r4, #68]	; 0x44
 80006f2:	051a      	lsls	r2, r3, #20
 80006f4:	d50b      	bpl.n	800070e <USB_LP_IRQHandler+0xe6>
    usb_class_disconnect();
 80006f6:	f7ff fe36 	bl	8000366 <usb_class_disconnect>
    USB->CNTR |= USB_CNTR_FSUSP | USB_CNTR_LP_MODE;
 80006fa:	f8b4 3040 	ldrh.w	r3, [r4, #64]	; 0x40
 80006fe:	f043 030c 	orr.w	r3, r3, #12
 8000702:	f8a4 3040 	strh.w	r3, [r4, #64]	; 0x40
    USB->ISTR = (uint16_t)~USB_ISTR_SUSP;
 8000706:	f24f 73ff 	movw	r3, #63487	; 0xf7ff
 800070a:	f8a4 3044 	strh.w	r3, [r4, #68]	; 0x44
  }
  
  if(USB->ISTR & USB_ISTR_WKUP){ // wakeup
 800070e:	4a09      	ldr	r2, [pc, #36]	; (8000734 <USB_LP_IRQHandler+0x10c>)
 8000710:	f8b2 3044 	ldrh.w	r3, [r2, #68]	; 0x44
 8000714:	04db      	lsls	r3, r3, #19
 8000716:	d50b      	bpl.n	8000730 <USB_LP_IRQHandler+0x108>
    USB->CNTR &= ~(USB_CNTR_FSUSP | USB_CNTR_LP_MODE); // clear suspend flags
 8000718:	f8b2 3040 	ldrh.w	r3, [r2, #64]	; 0x40
 800071c:	f023 030c 	bic.w	r3, r3, #12
 8000720:	041b      	lsls	r3, r3, #16
 8000722:	0c1b      	lsrs	r3, r3, #16
 8000724:	f8a2 3040 	strh.w	r3, [r2, #64]	; 0x40
    USB->ISTR = (uint16_t)~USB_ISTR_WKUP;
 8000728:	f64e 73ff 	movw	r3, #61439	; 0xefff
 800072c:	f8a2 3044 	strh.w	r3, [r2, #68]	; 0x44
  }
}
 8000730:	bd38      	pop	{r3, r4, r5, pc}
 8000732:	bf00      	nop
 8000734:	40005c00 	andmi	r5, r0, r0, lsl #24
 8000738:	20000000 	andcs	r0, r0, r0
 800073c:	20000044 	andcs	r0, r0, r4, asr #32
 8000740:	20000024 	andcs	r0, r0, r4, lsr #32
 8000744:	0800085b 	stmdaeq	r0, {r0, r1, r3, r4, r6, fp}
 8000748:	080007a5 	stmdaeq	r0, {r0, r2, r5, r7, r8, r9, sl}
 800074c:	2000000c 	andcs	r0, r0, ip

08000750 <_usb_ep_write>:
      uint32_t rx_blocksize:1;
    };
  };
}pma_descr_t;

void _usb_ep_write(uint8_t idx, const uint8_t *buf, uint16_t size){
 8000750:	b5f0      	push	{r4, r5, r6, r7, lr}
  pma_descr_t *descr = &((pma_descr_t*)usb_epdata)[idx];
  uint16_t N2 = (size + 1) >> 1;
  // the buffer is 16-bit, so we should copy data as it would be uint16_t
  uint16_t *buf16 = (uint16_t *)buf;
  uint32_t *out = (uint32_t*)((uint16_t *)(USB_PMAADDR + descr->addr*2));
  for(uint16_t i = 0; i < N2; ++i, ++out){
 8000752:	2500      	movs	r5, #0
  pma_descr_t *descr = &((pma_descr_t*)usb_epdata)[idx];
 8000754:	00c4      	lsls	r4, r0, #3
 8000756:	f104 4480 	add.w	r4, r4, #1073741824	; 0x40000000
 800075a:	f504 44c0 	add.w	r4, r4, #24576	; 0x6000
  uint32_t *out = (uint32_t*)((uint16_t *)(USB_PMAADDR + descr->addr*2));
 800075e:	6823      	ldr	r3, [r4, #0]
  uint16_t N2 = (size + 1) >> 1;
 8000760:	1c56      	adds	r6, r2, #1
  uint32_t *out = (uint32_t*)((uint16_t *)(USB_PMAADDR + descr->addr*2));
 8000762:	f103 5300 	add.w	r3, r3, #536870912	; 0x20000000
 8000766:	f503 5340 	add.w	r3, r3, #12288	; 0x3000
  uint16_t N2 = (size + 1) >> 1;
 800076a:	0876      	lsrs	r6, r6, #1
  uint32_t *out = (uint32_t*)((uint16_t *)(USB_PMAADDR + descr->addr*2));
 800076c:	005b      	lsls	r3, r3, #1
  for(uint16_t i = 0; i < N2; ++i, ++out){
 800076e:	b2af      	uxth	r7, r5
 8000770:	42be      	cmp	r6, r7
 8000772:	d811      	bhi.n	8000798 <_usb_ep_write+0x48>
    *out = buf16[i];
  }
  descr->count = size;
  
  ENDP_STAT_TX((idx/2), USB_EP_TX_VALID);
 8000774:	0840      	lsrs	r0, r0, #1
 8000776:	0080      	lsls	r0, r0, #2
 8000778:	f100 4080 	add.w	r0, r0, #1073741824	; 0x40000000
  descr->count = size;
 800077c:	6062      	str	r2, [r4, #4]
  ENDP_STAT_TX((idx/2), USB_EP_TX_VALID);
 800077e:	f500 40b8 	add.w	r0, r0, #23552	; 0x5c00
 8000782:	8803      	ldrh	r3, [r0, #0]
 8000784:	f023 03c0 	bic.w	r3, r3, #192	; 0xc0
 8000788:	051b      	lsls	r3, r3, #20
 800078a:	0d1b      	lsrs	r3, r3, #20
 800078c:	f483 4300 	eor.w	r3, r3, #32768	; 0x8000
 8000790:	f083 03b0 	eor.w	r3, r3, #176	; 0xb0
 8000794:	8003      	strh	r3, [r0, #0]
}
 8000796:	bdf0      	pop	{r4, r5, r6, r7, pc}
    *out = buf16[i];
 8000798:	f831 7015 	ldrh.w	r7, [r1, r5, lsl #1]
 800079c:	f843 7025 	str.w	r7, [r3, r5, lsl #2]
 80007a0:	3501      	adds	r5, #1
 80007a2:	e7e4      	b.n	800076e <_usb_ep_write+0x1e>

080007a4 <ep0_in>:
static void ep0_in(uint8_t epnum){
 80007a4:	b5f8      	push	{r3, r4, r5, r6, r7, lr}
  if( (USB->DADDR & USB_DADDR_ADD) != USB_Addr ){
 80007a6:	4b14      	ldr	r3, [pc, #80]	; (80007f8 <ep0_in+0x54>)
 80007a8:	4c14      	ldr	r4, [pc, #80]	; (80007fc <ep0_in+0x58>)
 80007aa:	f8b3 104c 	ldrh.w	r1, [r3, #76]	; 0x4c
 80007ae:	7922      	ldrb	r2, [r4, #4]
 80007b0:	f001 017f 	and.w	r1, r1, #127	; 0x7f
 80007b4:	4291      	cmp	r1, r2
    USB->DADDR = USB_DADDR_EF | USB_Addr;
 80007b6:	bf1c      	itt	ne
 80007b8:	f042 0280 	orrne.w	r2, r2, #128	; 0x80
 80007bc:	f8a3 204c 	strhne.w	r2, [r3, #76]	; 0x4c
  if( (USB_EPx(0) & USB_EPTX_STAT) == USB_EP_TX_VALID )return;
 80007c0:	881b      	ldrh	r3, [r3, #0]
 80007c2:	f003 0330 	and.w	r3, r3, #48	; 0x30
 80007c6:	2b30      	cmp	r3, #48	; 0x30
 80007c8:	d014      	beq.n	80007f4 <ep0_in+0x50>
  if(ep0_buf == NULL)return;
 80007ca:	6825      	ldr	r5, [r4, #0]
 80007cc:	b195      	cbz	r5, 80007f4 <ep0_in+0x50>
  uint16_t left = ep0_count;
 80007ce:	88e7      	ldrh	r7, [r4, #6]

#define ENDP_TOG(num, tog) do{USB_EPx(num) = ((USB_EPx(num) & ~(USB_EP_DTOG_RX | USB_EP_DTOG_TX | USB_EPRX_STAT | USB_EPTX_STAT)) | USB_EP_CTR_RX | USB_EP_CTR_TX) | tog; }while(0)

void _usb_ep_write(uint8_t idx, const uint8_t *buf, uint16_t size);
static inline void usb_ep_write(uint8_t epnum, const uint8_t *buf, uint16_t size){
  _usb_ep_write((epnum & 0x0F)*2, buf, size);
 80007d0:	4629      	mov	r1, r5
 80007d2:	2f08      	cmp	r7, #8
 80007d4:	463e      	mov	r6, r7
 80007d6:	bf28      	it	cs
 80007d8:	2608      	movcs	r6, #8
 80007da:	2000      	movs	r0, #0
 80007dc:	4632      	mov	r2, r6
 80007de:	f7ff ffb7 	bl	8000750 <_usb_ep_write>
  if(left < USB_EP0_BUFSZ){
 80007e2:	2f07      	cmp	r7, #7
  ep0_count -= left;
 80007e4:	eba7 0306 	sub.w	r3, r7, r6
 80007e8:	80e3      	strh	r3, [r4, #6]
    ep0_buf = NULL;
 80007ea:	bf93      	iteet	ls
 80007ec:	2300      	movls	r3, #0
  ep0_buf += left;
 80007ee:	19ad      	addhi	r5, r5, r6
 80007f0:	6025      	strhi	r5, [r4, #0]
    ep0_buf = NULL;
 80007f2:	6023      	strls	r3, [r4, #0]
}
 80007f4:	bdf8      	pop	{r3, r4, r5, r6, r7, pc}
 80007f6:	bf00      	nop
 80007f8:	40005c00 	andmi	r5, r0, r0, lsl #24
 80007fc:	2000000c 	andcs	r0, r0, ip

08000800 <_usb_ep_read>:

int _usb_ep_read(uint8_t idx, uint16_t *buf){
 8000800:	b530      	push	{r4, r5, lr}
  pma_descr_t *descr = &((pma_descr_t*)usb_epdata)[idx];
 8000802:	00c2      	lsls	r2, r0, #3
 8000804:	f102 4280 	add.w	r2, r2, #1073741824	; 0x40000000
 8000808:	f502 42c0 	add.w	r2, r2, #24576	; 0x6000
int _usb_ep_read(uint8_t idx, uint16_t *buf){
 800080c:	4603      	mov	r3, r0
  int sz = descr->rx_count;
 800080e:	6850      	ldr	r0, [r2, #4]
 8000810:	f3c0 0009 	ubfx	r0, r0, #0, #10
  if(!sz) return 0;
 8000814:	b300      	cbz	r0, 8000858 <_usb_ep_read+0x58>
  int n = (sz + 1) >> 1;
  uint32_t *in = (uint32_t*)((uint16_t *)(USB_PMAADDR + descr->addr*2));
 8000816:	6812      	ldr	r2, [r2, #0]
  int n = (sz + 1) >> 1;
 8000818:	1c44      	adds	r4, r0, #1
  uint32_t *in = (uint32_t*)((uint16_t *)(USB_PMAADDR + descr->addr*2));
 800081a:	f102 5200 	add.w	r2, r2, #536870912	; 0x20000000
 800081e:	f502 5240 	add.w	r2, r2, #12288	; 0x3000
 8000822:	0052      	lsls	r2, r2, #1
  int n = (sz + 1) >> 1;
 8000824:	1064      	asrs	r4, r4, #1
 8000826:	3902      	subs	r1, #2
 8000828:	eb02 0484 	add.w	r4, r2, r4, lsl #2
  for(int i = 0; i < n; ++i, ++in)
    buf[i] = *(uint16_t*)in;
 800082c:	f832 5b04 	ldrh.w	r5, [r2], #4
  for(int i = 0; i < n; ++i, ++in)
 8000830:	42a2      	cmp	r2, r4
    buf[i] = *(uint16_t*)in;
 8000832:	f821 5f02 	strh.w	r5, [r1, #2]!
  for(int i = 0; i < n; ++i, ++in)
 8000836:	d1f9      	bne.n	800082c <_usb_ep_read+0x2c>
  
  ENDP_STAT_RX((idx/2), USB_EP_RX_VALID);
 8000838:	085b      	lsrs	r3, r3, #1
 800083a:	009b      	lsls	r3, r3, #2
 800083c:	f103 4380 	add.w	r3, r3, #1073741824	; 0x40000000
 8000840:	f503 43b8 	add.w	r3, r3, #23552	; 0x5c00
 8000844:	881a      	ldrh	r2, [r3, #0]
 8000846:	f022 02f0 	bic.w	r2, r2, #240	; 0xf0
 800084a:	0492      	lsls	r2, r2, #18
 800084c:	0c92      	lsrs	r2, r2, #18
 800084e:	f482 4230 	eor.w	r2, r2, #45056	; 0xb000
 8000852:	f082 0280 	eor.w	r2, r2, #128	; 0x80
 8000856:	801a      	strh	r2, [r3, #0]
  return sz;
}
 8000858:	bd30      	pop	{r4, r5, pc}

0800085a <ep0_out>:
static void ep0_out(uint8_t epnum){
 800085a:	b573      	push	{r0, r1, r4, r5, r6, lr}
  uint16_t rxcount = usb_epdata[0].rx_count;
 800085c:	4b3f      	ldr	r3, [pc, #252]	; (800095c <ep0_out+0x102>)
 800085e:	4c40      	ldr	r4, [pc, #256]	; (8000960 <ep0_out+0x106>)
 8000860:	68dd      	ldr	r5, [r3, #12]
  uint8_t setup = !!(USB_EPx(0) & USB_EP_SETUP);
 8000862:	f5a3 6380 	sub.w	r3, r3, #1024	; 0x400
 8000866:	881b      	ldrh	r3, [r3, #0]
  uint16_t rxcount = usb_epdata[0].rx_count;
 8000868:	f3c5 0509 	ubfx	r5, r5, #0, #10
  if( setup ){
 800086c:	f413 6600 	ands.w	r6, r3, #2048	; 0x800
 8000870:	d009      	beq.n	8000886 <ep0_out+0x2c>
    if( setup_packet.bmRequestType & 0x80 ){ //предыдущий пакет=IN, этот точно будет запросом
 8000872:	f994 3008 	ldrsb.w	r3, [r4, #8]
 8000876:	2b00      	cmp	r3, #0
 8000878:	da17      	bge.n	80008aa <ep0_out+0x50>
      bytesread = 0;
 800087a:	2500      	movs	r5, #0
  _usb_ep_write(idx, buf, size);
}

int _usb_ep_read(uint8_t idx, uint16_t *buf);
static inline int usb_ep_read(uint8_t epnum, uint16_t *buf){
  return _usb_ep_read((epnum & 0x0F)*2 + 1, buf);
 800087c:	4939      	ldr	r1, [pc, #228]	; (8000964 <ep0_out+0x10a>)
 800087e:	2001      	movs	r0, #1
 8000880:	f7ff ffbe 	bl	8000800 <_usb_ep_read>
 8000884:	8225      	strh	r5, [r4, #16]
  uint8_t req = setup_packet.bmRequestType & 0x7F;
 8000886:	7a22      	ldrb	r2, [r4, #8]
 8000888:	f002 037f 	and.w	r3, r2, #127	; 0x7f
  if(setup_packet.bmRequestType & 0x80){
 800088c:	0612      	lsls	r2, r2, #24
 800088e:	d53c      	bpl.n	800090a <ep0_out+0xb0>
    if( !setup )return; //какой-то костыль. Иначе вызывается два раза
 8000890:	b34e      	cbz	r6, 80008e6 <ep0_out+0x8c>
    if(req == (USB_REQ_STANDARD | USB_REQ_DEVICE)){
 8000892:	bb73      	cbnz	r3, 80008f2 <ep0_out+0x98>
      switch(setup_packet.bRequest){
 8000894:	7a60      	ldrb	r0, [r4, #9]
 8000896:	2806      	cmp	r0, #6
 8000898:	d00c      	beq.n	80008b4 <ep0_out+0x5a>
 800089a:	2808      	cmp	r0, #8
 800089c:	d025      	beq.n	80008ea <ep0_out+0x90>
 800089e:	bb40      	cbnz	r0, 80008f2 <ep0_out+0x98>
  _usb_ep_write((epnum & 0x0F)*2, buf, size);
 80008a0:	2202      	movs	r2, #2
 80008a2:	4931      	ldr	r1, [pc, #196]	; (8000968 <ep0_out+0x10e>)
 80008a4:	f7ff ff54 	bl	8000750 <_usb_ep_write>
 80008a8:	e01d      	b.n	80008e6 <ep0_out+0x8c>
      if( bytesread >= setup_packet.wLength ){
 80008aa:	89e2      	ldrh	r2, [r4, #14]
 80008ac:	8a23      	ldrh	r3, [r4, #16]
 80008ae:	429a      	cmp	r2, r3
 80008b0:	d8e9      	bhi.n	8000886 <ep0_out+0x2c>
 80008b2:	e7e2      	b.n	800087a <ep0_out+0x20>
          const void *data = ZLPP;
 80008b4:	2201      	movs	r2, #1
          usb_class_get_std_descr(setup_packet.wValue, &data, &size);
 80008b6:	a901      	add	r1, sp, #4
          const void *data = ZLPP;
 80008b8:	9201      	str	r2, [sp, #4]
          usb_class_get_std_descr(setup_packet.wValue, &data, &size);
 80008ba:	8960      	ldrh	r0, [r4, #10]
 80008bc:	f10d 0202 	add.w	r2, sp, #2
          uint16_t size = 0;
 80008c0:	f8ad 3002 	strh.w	r3, [sp, #2]
          usb_class_get_std_descr(setup_packet.wValue, &data, &size);
 80008c4:	f000 f89a 	bl	80009fc <usb_class_get_std_descr>
    if(setup_packet.wLength < size) size = setup_packet.wLength;
 80008c8:	89e3      	ldrh	r3, [r4, #14]
 80008ca:	f8bd 2002 	ldrh.w	r2, [sp, #2]
  ep0_in(0x80);
 80008ce:	2080      	movs	r0, #128	; 0x80
    if(setup_packet.wLength < size) size = setup_packet.wLength;
 80008d0:	429a      	cmp	r2, r3
 80008d2:	bf88      	it	hi
 80008d4:	f8ad 3002 	strhhi.w	r3, [sp, #2]
  ep0_count = size;
 80008d8:	f8bd 3002 	ldrh.w	r3, [sp, #2]
 80008dc:	80e3      	strh	r3, [r4, #6]
  ep0_buf = buf;
 80008de:	9b01      	ldr	r3, [sp, #4]
 80008e0:	6023      	str	r3, [r4, #0]
  ep0_in(0x80);
 80008e2:	f7ff ff5f 	bl	80007a4 <ep0_in>
}
 80008e6:	b002      	add	sp, #8
 80008e8:	bd70      	pop	{r4, r5, r6, pc}
 80008ea:	2201      	movs	r2, #1
 80008ec:	491f      	ldr	r1, [pc, #124]	; (800096c <ep0_out+0x112>)
 80008ee:	4618      	mov	r0, r3
 80008f0:	e7d8      	b.n	80008a4 <ep0_out+0x4a>
    void *data = ZLPP;
 80008f2:	2301      	movs	r3, #1
 80008f4:	9301      	str	r3, [sp, #4]
    uint16_t size = 0;
 80008f6:	2300      	movs	r3, #0
    usb_class_ep0_in( &setup_packet, &data, &size );
 80008f8:	f10d 0202 	add.w	r2, sp, #2
 80008fc:	a901      	add	r1, sp, #4
 80008fe:	4819      	ldr	r0, [pc, #100]	; (8000964 <ep0_out+0x10a>)
    uint16_t size = 0;
 8000900:	f8ad 3002 	strh.w	r3, [sp, #2]
    usb_class_ep0_in( &setup_packet, &data, &size );
 8000904:	f000 f8b8 	bl	8000a78 <usb_class_ep0_in>
 8000908:	e7de      	b.n	80008c8 <ep0_out+0x6e>
    if(req == (USB_REQ_STANDARD | USB_REQ_DEVICE)){
 800090a:	b96b      	cbnz	r3, 8000928 <ep0_out+0xce>
      if(setup_packet.bRequest == SET_ADDRESS){
 800090c:	7a62      	ldrb	r2, [r4, #9]
 800090e:	2a05      	cmp	r2, #5
 8000910:	d105      	bne.n	800091e <ep0_out+0xc4>
        USB_Addr = setup_packet.wValue;
 8000912:	8962      	ldrh	r2, [r4, #10]
 8000914:	7122      	strb	r2, [r4, #4]
 8000916:	2200      	movs	r2, #0
 8000918:	4611      	mov	r1, r2
 800091a:	4610      	mov	r0, r2
 800091c:	e7c2      	b.n	80008a4 <ep0_out+0x4a>
      }else if(setup_packet.bRequest == SET_CONFIGURATION){
 800091e:	2a09      	cmp	r2, #9
 8000920:	d102      	bne.n	8000928 <ep0_out+0xce>
        configuration = setup_packet.wValue;
 8000922:	8962      	ldrh	r2, [r4, #10]
 8000924:	74a2      	strb	r2, [r4, #18]
 8000926:	e7f6      	b.n	8000916 <ep0_out+0xbc>
    if(!usb_class_ep0_out( &setup_packet, bytesread, rxcount )){
 8000928:	462a      	mov	r2, r5
 800092a:	8a21      	ldrh	r1, [r4, #16]
 800092c:	480d      	ldr	r0, [pc, #52]	; (8000964 <ep0_out+0x10a>)
 800092e:	f000 f8b5 	bl	8000a9c <usb_class_ep0_out>
 8000932:	b950      	cbnz	r0, 800094a <ep0_out+0xf0>
      ENDP_STAT_RX(0, USB_EP_RX_VALID);
 8000934:	4a0e      	ldr	r2, [pc, #56]	; (8000970 <ep0_out+0x116>)
 8000936:	8813      	ldrh	r3, [r2, #0]
 8000938:	f023 03f0 	bic.w	r3, r3, #240	; 0xf0
 800093c:	049b      	lsls	r3, r3, #18
 800093e:	0c9b      	lsrs	r3, r3, #18
 8000940:	f483 4330 	eor.w	r3, r3, #45056	; 0xb000
 8000944:	f083 0380 	eor.w	r3, r3, #128	; 0x80
 8000948:	8013      	strh	r3, [r2, #0]
    bytesread += rxcount;
 800094a:	8a23      	ldrh	r3, [r4, #16]
 800094c:	441d      	add	r5, r3
    if( bytesread >= setup_packet.wLength )usb_ep_write(0, NULL, 0);
 800094e:	89e3      	ldrh	r3, [r4, #14]
    bytesread += rxcount;
 8000950:	b2ad      	uxth	r5, r5
    if( bytesread >= setup_packet.wLength )usb_ep_write(0, NULL, 0);
 8000952:	42ab      	cmp	r3, r5
    bytesread += rxcount;
 8000954:	8225      	strh	r5, [r4, #16]
    if( bytesread >= setup_packet.wLength )usb_ep_write(0, NULL, 0);
 8000956:	d8c6      	bhi.n	80008e6 <ep0_out+0x8c>
 8000958:	e7dd      	b.n	8000916 <ep0_out+0xbc>
 800095a:	bf00      	nop
 800095c:	40006000 	andmi	r6, r0, r0
 8000960:	2000000c 	andcs	r0, r0, ip
 8000964:	20000014 	andcs	r0, r0, r4, lsl r0
 8000968:	08000cf0 	stmdaeq	r0, {r4, r5, r6, r7, sl, fp}
 800096c:	2000001e 	andcs	r0, r0, lr, lsl r0
 8000970:	40005c00 	andmi	r5, r0, r0, lsl #24

08000974 <ctl_callback>:
  return 0;
}

void ctl_callback(uint8_t epnum){
  
}
 8000974:	4770      	bx	lr

08000976 <data_out_callback>:

void data_out_callback(uint8_t epnum){
 8000976:	b510      	push	{r4, lr}
}
static inline int usb_ep_read_double(uint8_t epnum, uint16_t *buf){
  uint8_t idx = !(USB_EPx(epnum) & USB_EP_DTOG_RX);
 8000978:	4c12      	ldr	r4, [pc, #72]	; (80009c4 <data_out_callback+0x4e>)
 800097a:	b090      	sub	sp, #64	; 0x40
 800097c:	8820      	ldrh	r0, [r4, #0]
  int res = _usb_ep_read((epnum & 0x0F)*2 + idx, buf);
 800097e:	4669      	mov	r1, sp
  uint8_t idx = !(USB_EPx(epnum) & USB_EP_DTOG_RX);
 8000980:	f480 4080 	eor.w	r0, r0, #16384	; 0x4000
 8000984:	f3c0 3080 	ubfx	r0, r0, #14, #1
  int res = _usb_ep_read((epnum & 0x0F)*2 + idx, buf);
 8000988:	3002      	adds	r0, #2
 800098a:	f7ff ff39 	bl	8000800 <_usb_ep_read>
  ENDP_TOG( (epnum & 0x0F), USB_EP_DTOG_TX );
 800098e:	8823      	ldrh	r3, [r4, #0]
 8000990:	f023 03f0 	bic.w	r3, r3, #240	; 0xf0
 8000994:	051b      	lsls	r3, r3, #20
 8000996:	0d1b      	lsrs	r3, r3, #20
 8000998:	f443 4300 	orr.w	r3, r3, #32768	; 0x8000
 800099c:	f043 03c0 	orr.w	r3, r3, #192	; 0xc0
 80009a0:	8023      	strh	r3, [r4, #0]
  uint8_t buf[ ENDP_DATA_SIZE ];
  int len = usb_ep_read_double( ENDP_DATA_OUT, buf);
  if(len == 0)return;
 80009a2:	b138      	cbz	r0, 80009b4 <data_out_callback+0x3e>
  if(buf[0] == 'a')GPO_ON(GLED);
 80009a4:	f89d 3000 	ldrb.w	r3, [sp]
 80009a8:	2b61      	cmp	r3, #97	; 0x61
 80009aa:	d105      	bne.n	80009b8 <data_out_callback+0x42>
 80009ac:	f44f 7200 	mov.w	r2, #512	; 0x200
 80009b0:	4b05      	ldr	r3, [pc, #20]	; (80009c8 <data_out_callback+0x52>)
  if(buf[0] == 's')GPO_OFF(GLED);
 80009b2:	619a      	str	r2, [r3, #24]
}
 80009b4:	b010      	add	sp, #64	; 0x40
 80009b6:	bd10      	pop	{r4, pc}
  if(buf[0] == 's')GPO_OFF(GLED);
 80009b8:	2b73      	cmp	r3, #115	; 0x73
 80009ba:	d1fb      	bne.n	80009b4 <data_out_callback+0x3e>
 80009bc:	4b02      	ldr	r3, [pc, #8]	; (80009c8 <data_out_callback+0x52>)
 80009be:	f04f 7200 	mov.w	r2, #33554432	; 0x2000000
 80009c2:	e7f6      	b.n	80009b2 <data_out_callback+0x3c>
 80009c4:	40005c04 	andmi	r5, r0, r4, lsl #24
 80009c8:	40020400 	andmi	r0, r2, r0, lsl #8

080009cc <usb_ep_write_double.constprop.4>:
  uint8_t idx = !!( USB_EPx(epnum) & USB_EP_DTOG_RX );
 80009cc:	4a0a      	ldr	r2, [pc, #40]	; (80009f8 <usb_ep_write_double.constprop.4+0x2c>)
static inline void usb_ep_write_double(uint8_t epnum, const uint8_t *buf, uint16_t size){
 80009ce:	b410      	push	{r4}
  uint8_t idx = !!( USB_EPx(epnum) & USB_EP_DTOG_RX );
 80009d0:	8814      	ldrh	r4, [r2, #0]
  ENDP_TOG( epnum, USB_EP_DTOG_RX );
 80009d2:	8813      	ldrh	r3, [r2, #0]
  uint8_t idx = !!( USB_EPx(epnum) & USB_EP_DTOG_RX );
 80009d4:	f3c4 3480 	ubfx	r4, r4, #14, #1
  ENDP_TOG( epnum, USB_EP_DTOG_RX );
 80009d8:	f023 03f0 	bic.w	r3, r3, #240	; 0xf0
 80009dc:	051b      	lsls	r3, r3, #20
 80009de:	0d1b      	lsrs	r3, r3, #20
 80009e0:	f443 4340 	orr.w	r3, r3, #49152	; 0xc000
 80009e4:	f043 0380 	orr.w	r3, r3, #128	; 0x80
 80009e8:	8013      	strh	r3, [r2, #0]
  _usb_ep_write(idx, buf, size);
 80009ea:	460a      	mov	r2, r1
 80009ec:	4601      	mov	r1, r0
 80009ee:	1d20      	adds	r0, r4, #4
}
 80009f0:	bc10      	pop	{r4}
  _usb_ep_write(idx, buf, size);
 80009f2:	f7ff bead 	b.w	8000750 <_usb_ep_write>
 80009f6:	bf00      	nop
 80009f8:	40005c08 	andmi	r5, r0, r8, lsl #24

080009fc <usb_class_get_std_descr>:
  switch(descr & 0xFF00){
 80009fc:	f400 437f 	and.w	r3, r0, #65280	; 0xff00
 8000a00:	f5b3 7f00 	cmp.w	r3, #512	; 0x200
 8000a04:	d010      	beq.n	8000a28 <usb_class_get_std_descr+0x2c>
 8000a06:	d803      	bhi.n	8000a10 <usb_class_get_std_descr+0x14>
 8000a08:	f5b3 7f80 	cmp.w	r3, #256	; 0x100
 8000a0c:	d007      	beq.n	8000a1e <usb_class_get_std_descr+0x22>
 8000a0e:	4770      	bx	lr
 8000a10:	f5b3 7f40 	cmp.w	r3, #768	; 0x300
 8000a14:	d010      	beq.n	8000a38 <usb_class_get_std_descr+0x3c>
 8000a16:	f5b3 6fc0 	cmp.w	r3, #1536	; 0x600
 8000a1a:	d009      	beq.n	8000a30 <usb_class_get_std_descr+0x34>
 8000a1c:	4770      	bx	lr
      *data = &USB_DeviceDescriptor;
 8000a1e:	4b0f      	ldr	r3, [pc, #60]	; (8000a5c <usb_class_get_std_descr+0x60>)
 8000a20:	600b      	str	r3, [r1, #0]
      *size = sizeof(USB_DeviceDescriptor);
 8000a22:	2312      	movs	r3, #18
      *size = ((uint8_t*)*data)[0]; //data->bLength
 8000a24:	8013      	strh	r3, [r2, #0]
}
 8000a26:	4770      	bx	lr
      *data = &USB_ConfigDescriptor;
 8000a28:	4b0d      	ldr	r3, [pc, #52]	; (8000a60 <usb_class_get_std_descr+0x64>)
 8000a2a:	600b      	str	r3, [r1, #0]
      *size = sizeof(USB_ConfigDescriptor);
 8000a2c:	2343      	movs	r3, #67	; 0x43
 8000a2e:	e7f9      	b.n	8000a24 <usb_class_get_std_descr+0x28>
      *data = &USB_DeviceQualifierDescriptor;
 8000a30:	4b0c      	ldr	r3, [pc, #48]	; (8000a64 <usb_class_get_std_descr+0x68>)
 8000a32:	600b      	str	r3, [r1, #0]
      *size = USB_DeviceQualifierDescriptor[0];
 8000a34:	230a      	movs	r3, #10
 8000a36:	e7f5      	b.n	8000a24 <usb_class_get_std_descr+0x28>
      switch(descr & 0xFF){
 8000a38:	b2c0      	uxtb	r0, r0
 8000a3a:	2803      	cmp	r0, #3
 8000a3c:	d8f3      	bhi.n	8000a26 <usb_class_get_std_descr+0x2a>
 8000a3e:	e8df f000 	tbb	[pc, r0]
 8000a42:	0b090702 	bleq	8242652 <__exidx_end+0x2418d2>
          *data = &USB_StringLangDescriptor;
 8000a46:	4b08      	ldr	r3, [pc, #32]	; (8000a68 <usb_class_get_std_descr+0x6c>)
          *data = &USB_StringSerialDescriptor;
 8000a48:	600b      	str	r3, [r1, #0]
      *size = ((uint8_t*)*data)[0]; //data->bLength
 8000a4a:	680b      	ldr	r3, [r1, #0]
 8000a4c:	781b      	ldrb	r3, [r3, #0]
 8000a4e:	e7e9      	b.n	8000a24 <usb_class_get_std_descr+0x28>
          *data = &USB_StringManufacturingDescriptor;
 8000a50:	4b06      	ldr	r3, [pc, #24]	; (8000a6c <usb_class_get_std_descr+0x70>)
 8000a52:	e7f9      	b.n	8000a48 <usb_class_get_std_descr+0x4c>
          *data = &USB_StringProdDescriptor;
 8000a54:	4b06      	ldr	r3, [pc, #24]	; (8000a70 <usb_class_get_std_descr+0x74>)
 8000a56:	e7f7      	b.n	8000a48 <usb_class_get_std_descr+0x4c>
          *data = &USB_StringSerialDescriptor;
 8000a58:	4b06      	ldr	r3, [pc, #24]	; (8000a74 <usb_class_get_std_descr+0x78>)
 8000a5a:	e7f5      	b.n	8000a48 <usb_class_get_std_descr+0x4c>
 8000a5c:	08000cf2 	stmdaeq	r0, {r1, r4, r5, r6, r7, sl, fp}
 8000a60:	08000d04 	stmdaeq	r0, {r2, r8, sl, fp}
 8000a64:	08000d47 	stmdaeq	r0, {r0, r1, r2, r6, r8, sl, fp}
 8000a68:	08000d52 	stmdaeq	r0, {r1, r4, r6, r8, sl, fp}
 8000a6c:	08000d56 	stmdaeq	r0, {r1, r2, r4, r6, r8, sl, fp}
 8000a70:	08000d6c 	stmdaeq	r0, {r2, r3, r5, r6, r8, sl, fp}
 8000a74:	08000d7c 	stmdaeq	r0, {r2, r3, r4, r5, r6, r8, sl, fp}

08000a78 <usb_class_ep0_in>:
  if( (req->bmRequestType & 0x7F) == (USB_REQ_CLASS | USB_REQ_INTERFACE) ){
 8000a78:	7803      	ldrb	r3, [r0, #0]
 8000a7a:	f003 037f 	and.w	r3, r3, #127	; 0x7f
 8000a7e:	2b21      	cmp	r3, #33	; 0x21
 8000a80:	d108      	bne.n	8000a94 <usb_class_ep0_in+0x1c>
    if( req->bRequest == CDC_GET_LINE_CODING ){
 8000a82:	7843      	ldrb	r3, [r0, #1]
 8000a84:	2b21      	cmp	r3, #33	; 0x21
 8000a86:	d105      	bne.n	8000a94 <usb_class_ep0_in+0x1c>
      *data = (void*)&linecoding;
 8000a88:	4b03      	ldr	r3, [pc, #12]	; (8000a98 <usb_class_ep0_in+0x20>)
      return 1;
 8000a8a:	2001      	movs	r0, #1
      *data = (void*)&linecoding;
 8000a8c:	600b      	str	r3, [r1, #0]
      *size = sizeof(linecoding);
 8000a8e:	2307      	movs	r3, #7
 8000a90:	8013      	strh	r3, [r2, #0]
      return 1;
 8000a92:	4770      	bx	lr
  return 0;
 8000a94:	2000      	movs	r0, #0
}
 8000a96:	4770      	bx	lr
 8000a98:	20000002 	andcs	r0, r0, r2

08000a9c <usb_class_ep0_out>:
char usb_class_ep0_out(config_pack_t *req, uint16_t offset, uint16_t rx_size){
 8000a9c:	b508      	push	{r3, lr}
  if( (req->bmRequestType & 0x7F) == (USB_REQ_CLASS | USB_REQ_INTERFACE) ){
 8000a9e:	7803      	ldrb	r3, [r0, #0]
 8000aa0:	f003 037f 	and.w	r3, r3, #127	; 0x7f
 8000aa4:	2b21      	cmp	r3, #33	; 0x21
 8000aa6:	d109      	bne.n	8000abc <usb_class_ep0_out+0x20>
    if( req->bRequest == CDC_SET_LINE_CODING ){
 8000aa8:	7843      	ldrb	r3, [r0, #1]
 8000aaa:	2b20      	cmp	r3, #32
 8000aac:	d106      	bne.n	8000abc <usb_class_ep0_out+0x20>
      if(rx_size == 0)return 1;
 8000aae:	b11a      	cbz	r2, 8000ab8 <usb_class_ep0_out+0x1c>
  return _usb_ep_read((epnum & 0x0F)*2 + 1, buf);
 8000ab0:	4903      	ldr	r1, [pc, #12]	; (8000ac0 <usb_class_ep0_out+0x24>)
 8000ab2:	2001      	movs	r0, #1
 8000ab4:	f7ff fea4 	bl	8000800 <_usb_ep_read>
 8000ab8:	2001      	movs	r0, #1
 8000aba:	e000      	b.n	8000abe <usb_class_ep0_out+0x22>
  return 0;
 8000abc:	2000      	movs	r0, #0
}
 8000abe:	bd08      	pop	{r3, pc}
 8000ac0:	20000002 	andcs	r0, r0, r2

08000ac4 <fmtu8>:

void fmtu8(uint8_t x, char *buf){
  buf[0] = x/100 + '0';
 8000ac4:	2264      	movs	r2, #100	; 0x64
 8000ac6:	fbb0 f2f2 	udiv	r2, r0, r2
 8000aca:	3230      	adds	r2, #48	; 0x30
 8000acc:	700a      	strb	r2, [r1, #0]
  buf[1] = (x/10)%10 + '0';
 8000ace:	220a      	movs	r2, #10
 8000ad0:	fbb0 f3f2 	udiv	r3, r0, r2
void fmtu8(uint8_t x, char *buf){
 8000ad4:	b510      	push	{r4, lr}
  buf[1] = (x/10)%10 + '0';
 8000ad6:	fbb3 f4f2 	udiv	r4, r3, r2
 8000ada:	fb04 3412 	mls	r4, r4, r2, r3
  buf[2] = x % 10 + '0';
 8000ade:	fb02 0313 	mls	r3, r2, r3, r0
 8000ae2:	3330      	adds	r3, #48	; 0x30
 8000ae4:	708b      	strb	r3, [r1, #2]
  buf[3] = '\n';
  buf[4] = '\r';
 8000ae6:	230d      	movs	r3, #13
 8000ae8:	710b      	strb	r3, [r1, #4]
  buf[5] = 0;
 8000aea:	2300      	movs	r3, #0
  buf[1] = (x/10)%10 + '0';
 8000aec:	3430      	adds	r4, #48	; 0x30
 8000aee:	704c      	strb	r4, [r1, #1]
  buf[3] = '\n';
 8000af0:	70ca      	strb	r2, [r1, #3]
  buf[5] = 0;
 8000af2:	714b      	strb	r3, [r1, #5]
}
 8000af4:	bd10      	pop	{r4, pc}

08000af6 <test>:

char test(){
 8000af6:	b513      	push	{r0, r1, r4, lr}
  static uint8_t x = 0;
  uint8_t ch[6];
  fmtu8(x, ch);
 8000af8:	4c07      	ldr	r4, [pc, #28]	; (8000b18 <test+0x22>)
 8000afa:	4669      	mov	r1, sp
 8000afc:	7820      	ldrb	r0, [r4, #0]
 8000afe:	f7ff ffe1 	bl	8000ac4 <fmtu8>
  usb_ep_write_double( ENDP_DATA_IN | 0x80, ch, sizeof(ch)-1);
 8000b02:	4668      	mov	r0, sp
 8000b04:	2105      	movs	r1, #5
 8000b06:	f7ff ff61 	bl	80009cc <usb_ep_write_double.constprop.4>
  x++;
  return 1;
}
 8000b0a:	2001      	movs	r0, #1
  x++;
 8000b0c:	7823      	ldrb	r3, [r4, #0]
 8000b0e:	3301      	adds	r3, #1
 8000b10:	7023      	strb	r3, [r4, #0]
}
 8000b12:	b002      	add	sp, #8
 8000b14:	bd10      	pop	{r4, pc}
 8000b16:	bf00      	nop
 8000b18:	2000001f 	andcs	r0, r0, pc, lsl r0

08000b1c <data_in_callback>:

void data_in_callback(uint8_t epnum){
 8000b1c:	b510      	push	{r4, lr}
  static uint8_t cnt = 0;
  if(cnt >= 2){cnt = 0; return;}
 8000b1e:	4c06      	ldr	r4, [pc, #24]	; (8000b38 <data_in_callback+0x1c>)
 8000b20:	7863      	ldrb	r3, [r4, #1]
 8000b22:	2b01      	cmp	r3, #1
 8000b24:	d902      	bls.n	8000b2c <data_in_callback+0x10>
 8000b26:	2300      	movs	r3, #0
  test();
  cnt++;
 8000b28:	7063      	strb	r3, [r4, #1]
}
 8000b2a:	bd10      	pop	{r4, pc}
  test();
 8000b2c:	f7ff ffe3 	bl	8000af6 <test>
  cnt++;
 8000b30:	7863      	ldrb	r3, [r4, #1]
 8000b32:	3301      	adds	r3, #1
 8000b34:	e7f8      	b.n	8000b28 <data_in_callback+0xc>
 8000b36:	bf00      	nop
 8000b38:	2000001f 	andcs	r0, r0, pc, lsl r0

08000b3c <usb_class_init>:

void usb_class_init(){
 8000b3c:	b510      	push	{r4, lr}
  usb_ep_init( ENDP_CTL_NUM | 0x80, USB_ENDP_INTR, ENDP_CTL_SIZE, ctl_callback );
 8000b3e:	4b0a      	ldr	r3, [pc, #40]	; (8000b68 <usb_class_init+0x2c>)
 8000b40:	2208      	movs	r2, #8
 8000b42:	2103      	movs	r1, #3
 8000b44:	2083      	movs	r0, #131	; 0x83
 8000b46:	f7ff fc4b 	bl	80003e0 <usb_ep_init>
  
  usb_ep_init_double( ENDP_DATA_IN | 0x80, USB_ENDP_BULK, ENDP_DATA_SIZE, data_in_callback );
 8000b4a:	4b08      	ldr	r3, [pc, #32]	; (8000b6c <usb_class_init+0x30>)
 8000b4c:	2240      	movs	r2, #64	; 0x40
 8000b4e:	2102      	movs	r1, #2
 8000b50:	2082      	movs	r0, #130	; 0x82
 8000b52:	f7ff fccb 	bl	80004ec <usb_ep_init_double>
  usb_ep_init_double( ENDP_DATA_OUT, USB_ENDP_BULK, ENDP_DATA_SIZE, data_out_callback );
  
}
 8000b56:	e8bd 4010 	ldmia.w	sp!, {r4, lr}
  usb_ep_init_double( ENDP_DATA_OUT, USB_ENDP_BULK, ENDP_DATA_SIZE, data_out_callback );
 8000b5a:	4b05      	ldr	r3, [pc, #20]	; (8000b70 <usb_class_init+0x34>)
 8000b5c:	2240      	movs	r2, #64	; 0x40
 8000b5e:	2102      	movs	r1, #2
 8000b60:	2001      	movs	r0, #1
 8000b62:	f7ff bcc3 	b.w	80004ec <usb_ep_init_double>
 8000b66:	bf00      	nop
 8000b68:	08000975 	stmdaeq	r0, {r0, r2, r4, r5, r6, r8, fp}
 8000b6c:	08000b1d 	stmdaeq	r0, {r0, r2, r3, r4, r8, r9, fp}
 8000b70:	08000977 	stmdaeq	r0, {r0, r1, r2, r4, r5, r6, r8, fp}

08000b74 <usb_class_poll>:

void usb_class_poll(){
 8000b74:	b513      	push	{r0, r1, r4, lr}
  if(GPI_ON( LBTN )){
 8000b76:	4b15      	ldr	r3, [pc, #84]	; (8000bcc <usb_class_poll+0x58>)
 8000b78:	691a      	ldr	r2, [r3, #16]
 8000b7a:	0494      	lsls	r4, r2, #18
 8000b7c:	d5fc      	bpl.n	8000b78 <usb_class_poll+0x4>
    while( GPI_ON(LBTN) ){}
  }
  if(GPI_ON( JBTN )){
 8000b7e:	4c14      	ldr	r4, [pc, #80]	; (8000bd0 <usb_class_poll+0x5c>)
 8000b80:	6923      	ldr	r3, [r4, #16]
 8000b82:	0698      	lsls	r0, r3, #26
 8000b84:	d412      	bmi.n	8000bac <usb_class_poll+0x38>
    while( GPI_ON(JBTN) ){}
 8000b86:	6923      	ldr	r3, [r4, #16]
 8000b88:	0699      	lsls	r1, r3, #26
 8000b8a:	d5fc      	bpl.n	8000b86 <usb_class_poll+0x12>
    uint8_t ch = 'a';
 8000b8c:	2361      	movs	r3, #97	; 0x61
    usb_ep_write_double(ENDP_DATA_IN | 0x80, &ch, 1);
 8000b8e:	2101      	movs	r1, #1
 8000b90:	f10d 0007 	add.w	r0, sp, #7
    uint8_t ch = 'a';
 8000b94:	f88d 3007 	strb.w	r3, [sp, #7]
    usb_ep_write_double(ENDP_DATA_IN | 0x80, &ch, 1);
 8000b98:	f7ff ff18 	bl	80009cc <usb_ep_write_double.constprop.4>
    GPO_T(RLED);
 8000b9c:	6963      	ldr	r3, [r4, #20]
 8000b9e:	05da      	lsls	r2, r3, #23
 8000ba0:	bf4c      	ite	mi
 8000ba2:	f04f 7380 	movmi.w	r3, #16777216	; 0x1000000
 8000ba6:	f44f 7380 	movpl.w	r3, #256	; 0x100
 8000baa:	61a3      	str	r3, [r4, #24]
  }
  
  GPO_T(RLED);
 8000bac:	6963      	ldr	r3, [r4, #20]
 8000bae:	05db      	lsls	r3, r3, #23
 8000bb0:	bf4c      	ite	mi
 8000bb2:	f04f 7380 	movmi.w	r3, #16777216	; 0x1000000
 8000bb6:	f44f 7380 	movpl.w	r3, #256	; 0x100
 8000bba:	61a3      	str	r3, [r4, #24]
void usb_class_poll(){
 8000bbc:	4b05      	ldr	r3, [pc, #20]	; (8000bd4 <usb_class_poll+0x60>)
  while(time--)asm volatile("nop");
 8000bbe:	3b01      	subs	r3, #1
 8000bc0:	d101      	bne.n	8000bc6 <usb_class_poll+0x52>
  sleep(5000000);
}
 8000bc2:	b002      	add	sp, #8
 8000bc4:	bd10      	pop	{r4, pc}
  while(time--)asm volatile("nop");
 8000bc6:	bf00      	nop
 8000bc8:	e7f9      	b.n	8000bbe <usb_class_poll+0x4a>
 8000bca:	bf00      	nop
 8000bcc:	40020800 	andmi	r0, r2, r0, lsl #16
 8000bd0:	40020400 	andmi	r0, r2, r0, lsl #8
 8000bd4:	004c4b41 	subeq	r4, ip, r1, asr #22

08000bd8 <__libc_init_array>:
 8000bd8:	b570      	push	{r4, r5, r6, lr}
 8000bda:	4e0d      	ldr	r6, [pc, #52]	; (8000c10 <__libc_init_array+0x38>)
 8000bdc:	4d0d      	ldr	r5, [pc, #52]	; (8000c14 <__libc_init_array+0x3c>)
 8000bde:	1b76      	subs	r6, r6, r5
 8000be0:	10b6      	asrs	r6, r6, #2
 8000be2:	d006      	beq.n	8000bf2 <__libc_init_array+0x1a>
 8000be4:	2400      	movs	r4, #0
 8000be6:	3401      	adds	r4, #1
 8000be8:	f855 3b04 	ldr.w	r3, [r5], #4
 8000bec:	4798      	blx	r3
 8000bee:	42a6      	cmp	r6, r4
 8000bf0:	d1f9      	bne.n	8000be6 <__libc_init_array+0xe>
 8000bf2:	4e09      	ldr	r6, [pc, #36]	; (8000c18 <__libc_init_array+0x40>)
 8000bf4:	4d09      	ldr	r5, [pc, #36]	; (8000c1c <__libc_init_array+0x44>)
 8000bf6:	f7ff fbad 	bl	8000354 <_init>
 8000bfa:	1b76      	subs	r6, r6, r5
 8000bfc:	10b6      	asrs	r6, r6, #2
 8000bfe:	d006      	beq.n	8000c0e <__libc_init_array+0x36>
 8000c00:	2400      	movs	r4, #0
 8000c02:	3401      	adds	r4, #1
 8000c04:	f855 3b04 	ldr.w	r3, [r5], #4
 8000c08:	4798      	blx	r3
 8000c0a:	42a6      	cmp	r6, r4
 8000c0c:	d1f9      	bne.n	8000c02 <__libc_init_array+0x2a>
 8000c0e:	bd70      	pop	{r4, r5, r6, pc}
 8000c10:	08000d80 	stmdaeq	r0, {r7, r8, sl, fp}
 8000c14:	08000d80 	stmdaeq	r0, {r7, r8, sl, fp}
 8000c18:	08000d80 	stmdaeq	r0, {r7, r8, sl, fp}
 8000c1c:	08000d80 	stmdaeq	r0, {r7, r8, sl, fp}

08000c20 <Reset_Handler>:
 8000c20:	2100      	movs	r1, #0
 8000c22:	e003      	b.n	8000c2c <LoopCopyDataInit>

08000c24 <CopyDataInit>:
 8000c24:	4b0b      	ldr	r3, [pc, #44]	; (8000c54 <LoopFillZerobss+0x14>)
 8000c26:	585b      	ldr	r3, [r3, r1]
 8000c28:	5043      	str	r3, [r0, r1]
 8000c2a:	3104      	adds	r1, #4

08000c2c <LoopCopyDataInit>:
 8000c2c:	480a      	ldr	r0, [pc, #40]	; (8000c58 <LoopFillZerobss+0x18>)
 8000c2e:	4b0b      	ldr	r3, [pc, #44]	; (8000c5c <LoopFillZerobss+0x1c>)
 8000c30:	1842      	adds	r2, r0, r1
 8000c32:	429a      	cmp	r2, r3
 8000c34:	d3f6      	bcc.n	8000c24 <CopyDataInit>
 8000c36:	4a0a      	ldr	r2, [pc, #40]	; (8000c60 <LoopFillZerobss+0x20>)
 8000c38:	e002      	b.n	8000c40 <LoopFillZerobss>

08000c3a <FillZerobss>:
 8000c3a:	2300      	movs	r3, #0
 8000c3c:	f842 3b04 	str.w	r3, [r2], #4

08000c40 <LoopFillZerobss>:
 8000c40:	4b08      	ldr	r3, [pc, #32]	; (8000c64 <LoopFillZerobss+0x24>)
 8000c42:	429a      	cmp	r2, r3
 8000c44:	d3f9      	bcc.n	8000c3a <FillZerobss>
 8000c46:	f7ff fb86 	bl	8000356 <SystemInit>
 8000c4a:	f7ff ffc5 	bl	8000bd8 <__libc_init_array>
 8000c4e:	f000 f80d 	bl	8000c6c <main>
 8000c52:	4770      	bx	lr
 8000c54:	08000d80 	stmdaeq	r0, {r7, r8, sl, fp}
 8000c58:	20000000 	andcs	r0, r0, r0
 8000c5c:	2000000c 	andcs	r0, r0, ip
 8000c60:	2000000c 	andcs	r0, r0, ip
 8000c64:	20000064 	andcs	r0, r0, r4, rrx

08000c68 <ADC1_IRQHandler>:
 8000c68:	e7fe      	b.n	8000c68 <ADC1_IRQHandler>
	...

08000c6c <main>:

int main(void){
 8000c6c:	b510      	push	{r4, lr}
  clock_HS(1);
 8000c6e:	2001      	movs	r0, #1
 8000c70:	f7ff faba 	bl	80001e8 <clock_HS>
  RCC->AHBENR |= RCC_AHBENR_GPIOAEN | RCC_AHBENR_GPIOBEN | RCC_AHBENR_GPIOCEN | RCC_AHBENR_GPIODEN;
 8000c74:	4a1a      	ldr	r2, [pc, #104]	; (8000ce0 <main+0x74>)
 8000c76:	69d3      	ldr	r3, [r2, #28]
 8000c78:	f043 030f 	orr.w	r3, r3, #15
 8000c7c:	61d3      	str	r3, [r2, #28]
  GPIO_config(GLED); GPIO_config(RLED);
 8000c7e:	4b19      	ldr	r3, [pc, #100]	; (8000ce4 <main+0x78>)
 8000c80:	681a      	ldr	r2, [r3, #0]
 8000c82:	f422 2240 	bic.w	r2, r2, #786432	; 0xc0000
 8000c86:	f442 2280 	orr.w	r2, r2, #262144	; 0x40000
 8000c8a:	601a      	str	r2, [r3, #0]
 8000c8c:	689a      	ldr	r2, [r3, #8]
 8000c8e:	f442 2240 	orr.w	r2, r2, #786432	; 0xc0000
 8000c92:	609a      	str	r2, [r3, #8]
 8000c94:	681a      	ldr	r2, [r3, #0]
 8000c96:	f422 3240 	bic.w	r2, r2, #196608	; 0x30000
 8000c9a:	f442 3280 	orr.w	r2, r2, #65536	; 0x10000
 8000c9e:	601a      	str	r2, [r3, #0]
 8000ca0:	689a      	ldr	r2, [r3, #8]
 8000ca2:	f442 3240 	orr.w	r2, r2, #196608	; 0x30000
 8000ca6:	609a      	str	r2, [r3, #8]
  GPIO_config(LBTN); GPIO_config(JBTN);
 8000ca8:	4a0f      	ldr	r2, [pc, #60]	; (8000ce8 <main+0x7c>)
 8000caa:	6811      	ldr	r1, [r2, #0]
 8000cac:	f021 6140 	bic.w	r1, r1, #201326592	; 0xc000000
 8000cb0:	6011      	str	r1, [r2, #0]
 8000cb2:	6891      	ldr	r1, [r2, #8]
 8000cb4:	f041 6140 	orr.w	r1, r1, #201326592	; 0xc000000
 8000cb8:	6091      	str	r1, [r2, #8]
 8000cba:	681a      	ldr	r2, [r3, #0]
 8000cbc:	f422 6240 	bic.w	r2, r2, #3072	; 0xc00
 8000cc0:	601a      	str	r2, [r3, #0]
 8000cc2:	689a      	ldr	r2, [r3, #8]
 8000cc4:	f442 6240 	orr.w	r2, r2, #3072	; 0xc00
 8000cc8:	609a      	str	r2, [r3, #8]
  
  USB_setup();
 8000cca:	f7ff fb52 	bl	8000372 <USB_setup>
static __INLINE void __enable_irq()               { __ASM volatile ("cpsie i"); }
 8000cce:	b662      	cpsie	i
  __enable_irq();
  while (1){
    usb_class_poll();
    sleep(100000);
 8000cd0:	4c06      	ldr	r4, [pc, #24]	; (8000cec <main+0x80>)
    usb_class_poll();
 8000cd2:	f7ff ff4f 	bl	8000b74 <usb_class_poll>
    sleep(100000);
 8000cd6:	4620      	mov	r0, r4
 8000cd8:	f7ff fb3e 	bl	8000358 <sleep>
 8000cdc:	e7f9      	b.n	8000cd2 <main+0x66>
 8000cde:	bf00      	nop
 8000ce0:	40023800 	andmi	r3, r2, r0, lsl #16
 8000ce4:	40020400 	andmi	r0, r2, r0, lsl #8
 8000ce8:	40020800 	andmi	r0, r2, r0, lsl #16
 8000cec:	000186a0 	andeq	r8, r1, r0, lsr #13

Disassembly of section .rodata:

08000cf0 <USB_DeviceDescriptor-0x2>:
	...

08000cf2 <USB_DeviceDescriptor>:
static const uint8_t USB_DeviceDescriptor[] = {
 8000cf2:	01100112 	tsteq	r0, r2, lsl r1
 8000cf6:	08000000 	stmdaeq	r0, {}	; <UNPREDICTABLE>
 8000cfa:	05df16c0 	ldrbeq	r1, [pc, #1728]	; 80013c2 <__exidx_end+0x642>
 8000cfe:	02010001 	andeq	r0, r1, #1
 8000d02:	 	andeq	r0, r9, #-1073741824	; 0xc0000000

08000d04 <USB_ConfigDescriptor>:
static const uint8_t USB_ConfigDescriptor[] = {
 8000d04:	00430209 	subeq	r0, r3, r9, lsl #4
 8000d08:	80000102 	andhi	r0, r0, r2, lsl #2
 8000d0c:	00040932 	andeq	r0, r4, r2, lsr r9
 8000d10:	02020100 	andeq	r0, r2, #0, 2
 8000d14:	24050000 	strcs	r0, [r5], #-0
 8000d18:	05011000 	streq	r1, [r1, #-0]
 8000d1c:	01000124 	tsteq	r0, r4, lsr #2
 8000d20:	02022404 	andeq	r2, r2, #4, 8	; 0x4000000
 8000d24:	00062405 	andeq	r2, r6, r5, lsl #8
 8000d28:	83050701 	movwhi	r0, #22273	; 0x5701
 8000d2c:	64000803 	strvs	r0, [r0], #-2051	; 0xfffff7fd
 8000d30:	00010409 	andeq	r0, r1, r9, lsl #8
 8000d34:	00000a02 	andeq	r0, r0, r2, lsl #20
 8000d38:	01050700 	tsteq	r5, r0, lsl #14
 8000d3c:	00004002 	andeq	r4, r0, r2
 8000d40:	02820507 	addeq	r0, r2, #29360128	; 0x1c00000
 8000d44:	 	beq	8000e4c <__exidx_end+0xcc>

08000d47 <USB_DeviceQualifierDescriptor>:
static const uint8_t USB_DeviceQualifierDescriptor[] = {
 8000d47:	0200060a 	andeq	r0, r0, #10485760	; 0xa00000
 8000d4b:	08000000 	stmdaeq	r0, {}	; <UNPREDICTABLE>
 8000d4f:	 	streq	r0, [r0], #-1

08000d52 <USB_StringLangDescriptor>:
USB_STRING(USB_StringLangDescriptor, u"\x0409"); //lang US
 8000d52:	04090304 	streq	r0, [r9], #-772	; 0xfffffcfc

08000d56 <USB_StringManufacturingDescriptor>:
USB_STRING(USB_StringManufacturingDescriptor, u"COKPOWEHEU"); //Vendor
 8000d56:	00430316 	subeq	r0, r3, r6, lsl r3
 8000d5a:	004b004f 	subeq	r0, fp, pc, asr #32
 8000d5e:	004f0050 	subeq	r0, pc, r0, asr r0	; <UNPREDICTABLE>
 8000d62:	00450057 	subeq	r0, r5, r7, asr r0
 8000d66:	00450048 	subeq	r0, r5, r8, asr #32
 8000d6a:	 	tsteq	r0, #85	; 0x55

08000d6c <USB_StringProdDescriptor>:
USB_STRING(USB_StringProdDescriptor, u"USB CDC"); //Product
 8000d6c:	00550310 	subseq	r0, r5, r0, lsl r3
 8000d70:	00420053 	subeq	r0, r2, r3, asr r0
 8000d74:	00430020 	subeq	r0, r3, r0, lsr #32
 8000d78:	00430044 	subeq	r0, r3, r4, asr #32

08000d7c <USB_StringSerialDescriptor>:
USB_STRING(USB_StringSerialDescriptor, u"1"); //Serial (BCD)
 8000d7c:	00310304 	eorseq	r0, r1, r4, lsl #6

Disassembly of section .data:

20000000 <lastaddr>:
20000000:	 	strcs	r0, [r0, #64]	; 0x40

20000002 <linecoding>:
volatile struct cdc_linecoding linecoding = {
20000002:	00002580 	andeq	r2, r0, r0, lsl #11
20000006:	00080000 	andeq	r0, r8, r0
	...

Disassembly of section .bss:

2000000c <ep0_buf>:
2000000c:	00000000 	andeq	r0, r0, r0

20000010 <USB_Addr>:
	...

20000012 <ep0_count>:
	...

20000014 <setup_packet>:
	...

2000001c <bytesread.4441>:
	...

2000001e <configuration>:
	...

2000001f <x.5145>:
	...

20000020 <cnt.5150>:
20000020:	00000000 	andeq	r0, r0, r0

20000024 <epfunc_in>:
	...

20000044 <epfunc_out>:
	...

Disassembly of section ._user_heap_stack:

20000064 <._user_heap_stack>:
	...

Disassembly of section .ARM.attributes:

00000000 <.ARM.attributes>:
   0:	00002e41 	andeq	r2, r0, r1, asr #28
   4:	61656100 	cmnvs	r5, r0, lsl #2
   8:	01006962 	tsteq	r0, r2, ror #18
   c:	00000024 	andeq	r0, r0, r4, lsr #32
  10:	726f4305 	rsbvc	r4, pc, #335544320	; 0x14000000
  14:	2d786574 	cfldr64cs	mvdx6, [r8, #-464]!	; 0xfffffe30
  18:	0600334d 	streq	r3, [r0], -sp, asr #6
  1c:	094d070a 	stmdbeq	sp, {r1, r3, r8, r9, sl}^
  20:	14041202 	strne	r1, [r4], #-514	; 0xfffffdfe
  24:	17011501 	strne	r1, [r1, -r1, lsl #10]
  28:	1a011803 	bne	4603c <_Min_Stack_Size+0x45c3c>
  2c:	Address 0x000000000000002c is out of bounds.


Disassembly of section .debug_info:

00000000 <.debug_info>:
       0:	00000928 	andeq	r0, r0, r8, lsr #18
       4:	00000002 	andeq	r0, r0, r2
       8:	01040000 	mrseq	r0, (UNDEF: 4)
       c:	00000345 	andeq	r0, r0, r5, asr #6
      10:	0000120c 	andeq	r1, r0, ip, lsl #4
      14:	00022600 	andeq	r2, r2, r0, lsl #12
	...
      28:	06010200 	streq	r0, [r1], -r0, lsl #4
      2c:	0000027d 	andeq	r0, r0, sp, ror r2
      30:	00031703 	andeq	r1, r3, r3, lsl #14
      34:	17220400 	strne	r0, [r2, -r0, lsl #8]!
      38:	00000029 	andeq	r0, r0, r9, lsr #32
      3c:	96050202 	strls	r0, [r5], -r2, lsl #4
      40:	02000002 	andeq	r0, r0, #2
      44:	00820504 	addeq	r0, r2, r4, lsl #10
      48:	08020000 	stmdaeq	r2, {}	; <UNPREDICTABLE>
      4c:	00007d05 	andeq	r7, r0, r5, lsl #26
      50:	03160300 	tsteq	r6, #0, 6
      54:	2e040000 	cdpcs	0, 0, cr0, cr4, cr0, {0}
      58:	00005d18 	andeq	r5, r0, r8, lsl sp
      5c:	08010200 	stmdaeq	r1, {r9}
      60:	0000027b 	andeq	r0, r0, fp, ror r2
      64:	0000ff03 	andeq	pc, r0, r3, lsl #30
      68:	19310400 	ldmdbne	r1!, {sl}
      6c:	00000070 	andeq	r0, r0, r0, ror r0
      70:	7e070202 	cdpvc	2, 0, cr0, cr7, cr2, {0}
      74:	03000001 	movweq	r0, #1
      78:	000002d0 	ldrdeq	r0, [r0], -r0	; <UNPREDICTABLE>
      7c:	88193404 	ldmdahi	r9, {r2, sl, ip, sp}
      80:	04000000 	streq	r0, [r0], #-0
      84:	00000077 	andeq	r0, r0, r7, ror r0
      88:	4d070402 	cfstrsmi	mvf0, [r7, #-8]
      8c:	02000000 	andeq	r0, r0, #0
      90:	00480708 	subeq	r0, r8, r8, lsl #14
      94:	04050000 	streq	r0, [r5], #-0
      98:	746e6905 	strbtvc	r6, [lr], #-2309	; 0xfffff6fb
      9c:	00960400 	addseq	r0, r6, r0, lsl #8
      a0:	04020000 	streq	r0, [r2], #-0
      a4:	00005207 	andeq	r5, r0, r7, lsl #4
      a8:	02890600 	addeq	r0, r9, #0, 12
      ac:	ce030000 	cdpgt	0, 0, cr0, cr3, cr0, {0}
      b0:	009d1506 	addseq	r1, sp, r6, lsl #10
      b4:	01010000 	mrseq	r0, (UNDEF: 1)
      b8:	00013a07 	andeq	r3, r1, r7, lsl #20
      bc:	114c0500 	cmpne	ip, r0, lsl #10
      c0:	00000077 	andeq	r0, r0, r7, ror r0
      c4:	84080101 	strhi	r0, [r8], #-257	; 0xfffffeff
      c8:	09012506 	stmdbeq	r1, {r1, r2, r8, sl, sp}
      cc:	00000181 	andeq	r0, r0, r1, lsl #3
      d0:	52434109 	subpl	r4, r3, #1073741826	; 0x40000002
      d4:	01270600 			; <UNDEFINED> instruction: 0x01270600
      d8:	00008311 	andeq	r8, r0, r1, lsl r3
      dc:	00230200 	eoreq	r0, r3, r0, lsl #4
      e0:	00009e0a 	andeq	r9, r0, sl, lsl #28
      e4:	01280600 			; <UNDEFINED> instruction: 0x01280600
      e8:	00008311 	andeq	r8, r0, r1, lsl r3
      ec:	04230200 	strteq	r0, [r3], #-512	; 0xfffffe00
      f0:	00010f0a 	andeq	r0, r1, sl, lsl #30
      f4:	01290600 			; <UNDEFINED> instruction: 0x01290600
      f8:	00008311 	andeq	r8, r0, r1, lsl r3
      fc:	08230200 	stmdaeq	r3!, {r9}
     100:	00031e0a 	andeq	r1, r3, sl, lsl #28
     104:	012a0600 			; <UNDEFINED> instruction: 0x012a0600
     108:	00008311 	andeq	r8, r0, r1, lsl r3
     10c:	0c230200 	sfmeq	f0, 4, [r3], #-0
     110:	00005f0a 	andeq	r5, r0, sl, lsl #30
     114:	012b0600 			; <UNDEFINED> instruction: 0x012b0600
     118:	00008311 	andeq	r8, r0, r1, lsl r3
     11c:	10230200 	eorne	r0, r3, r0, lsl #4
     120:	0000e80a 	andeq	lr, r0, sl, lsl #16
     124:	012c0600 			; <UNDEFINED> instruction: 0x012c0600
     128:	00008311 	andeq	r8, r0, r1, lsl r3
     12c:	14230200 	strtne	r0, [r3], #-512	; 0xfffffe00
     130:	00525309 	subseq	r5, r2, r9, lsl #6
     134:	11012d06 	tstne	r1, r6, lsl #26
     138:	00000083 	andeq	r0, r0, r3, lsl #1
     13c:	09182302 	ldmdbeq	r8, {r1, r8, r9, sp}
     140:	0052424f 	subseq	r4, r2, pc, asr #4
     144:	11012e06 	tstne	r1, r6, lsl #28
     148:	00000083 	andeq	r0, r0, r3, lsl #1
     14c:	0a1c2302 	beq	708d5c <_Min_Stack_Size+0x70895c>
     150:	000001f0 	strdeq	r0, [r0], -r0	; <UNPREDICTABLE>
     154:	11012f06 	tstne	r1, r6, lsl #30
     158:	00000083 	andeq	r0, r0, r3, lsl #1
     15c:	0a202302 	beq	808d6c <_Min_Stack_Size+0x80896c>
     160:	000002a6 	andeq	r0, r0, r6, lsr #5
     164:	0e013006 	cdpeq	0, 0, cr3, cr1, cr6, {0}
     168:	00000181 	andeq	r0, r0, r1, lsl #3
     16c:	0a242302 	beq	908d7c <_Min_Stack_Size+0x90897c>
     170:	000001f6 	strdeq	r0, [r0], -r6
     174:	11013106 	tstne	r1, r6, lsl #2
     178:	00000083 	andeq	r0, r0, r3, lsl #1
     17c:	01802303 	orreq	r2, r0, r3, lsl #6
     180:	00770b00 	rsbseq	r0, r7, r0, lsl #22
     184:	01910000 	orrseq	r0, r1, r0
     188:	a20c0000 	andge	r0, ip, #0
     18c:	16000000 	strne	r0, [r0], -r0
     190:	00900d00 	addseq	r0, r0, r0, lsl #26
     194:	32060000 	andcc	r0, r6, #0
     198:	00c60301 	sbceq	r0, r6, r1, lsl #6
     19c:	2c080000 	stccs	0, cr0, [r8], {-0}
     1a0:	09014f06 	stmdbeq	r1, {r1, r2, r8, r9, sl, fp, lr}
     1a4:	00000249 	andeq	r0, r0, r9, asr #4
     1a8:	0000420a 	andeq	r4, r0, sl, lsl #4
     1ac:	01510600 	cmpeq	r1, r0, lsl #12
     1b0:	00008311 	andeq	r8, r0, r1, lsl r3
     1b4:	00230200 	eoreq	r0, r3, r0, lsl #4
     1b8:	0000290a 	andeq	r2, r0, sl, lsl #18
     1bc:	01520600 	cmpeq	r2, r0, lsl #12
     1c0:	00008311 	andeq	r8, r0, r1, lsl r3
     1c4:	04230200 	strteq	r0, [r3], #-512	; 0xfffffe00
     1c8:	0001160a 	andeq	r1, r1, sl, lsl #12
     1cc:	01530600 	cmpeq	r3, r0, lsl #12
     1d0:	00008311 	andeq	r8, r0, r1, lsl r3
     1d4:	08230200 	stmdaeq	r3!, {r9}
     1d8:	0000070a 	andeq	r0, r0, sl, lsl #14
     1dc:	01540600 	cmpeq	r4, r0, lsl #12
     1e0:	00008311 	andeq	r8, r0, r1, lsl r3
     1e4:	0c230200 	sfmeq	f0, 4, [r3], #-0
     1e8:	52444909 	subpl	r4, r4, #147456	; 0x24000
     1ec:	01550600 	cmpeq	r5, r0, lsl #12
     1f0:	00008311 	andeq	r8, r0, r1, lsl r3
     1f4:	10230200 	eorne	r0, r3, r0, lsl #4
     1f8:	52444f09 	subpl	r4, r4, #9, 30	; 0x24
     1fc:	01560600 	cmpeq	r6, r0, lsl #12
     200:	00008311 	andeq	r8, r0, r1, lsl r3
     204:	14230200 	strtne	r0, [r3], #-512	; 0xfffffe00
     208:	00008b0a 	andeq	r8, r0, sl, lsl #22
     20c:	01570600 	cmpeq	r7, r0, lsl #12
     210:	00008311 	andeq	r8, r0, r1, lsl r3
     214:	18230200 	stmdane	r3!, {r9}
     218:	00000d0a 	andeq	r0, r0, sl, lsl #26
     21c:	01580600 	cmpeq	r8, r0, lsl #12
     220:	00008311 	andeq	r8, r0, r1, lsl r3
     224:	1c230200 	sfmne	f0, 4, [r3], #-0
     228:	52464109 	subpl	r4, r6, #1073741826	; 0x40000002
     22c:	01590600 	cmpeq	r9, r0, lsl #12
     230:	00025911 	andeq	r5, r2, r1, lsl r9
     234:	20230200 	eorcs	r0, r3, r0, lsl #4
     238:	52524209 	subspl	r4, r2, #-1879048192	; 0x90000000
     23c:	015a0600 	cmpeq	sl, r0, lsl #12
     240:	00008311 	andeq	r8, r0, r1, lsl r3
     244:	28230200 	stmdacs	r3!, {r9}
     248:	00830b00 	addeq	r0, r3, r0, lsl #22
     24c:	02590000 	subseq	r0, r9, #0
     250:	a20c0000 	andge	r0, ip, #0
     254:	01000000 	mrseq	r0, (UNDEF: 0)
     258:	02490400 	subeq	r0, r9, #0, 8
     25c:	570d0000 	strpl	r0, [sp, -r0]
     260:	06000001 	streq	r0, [r0], -r1
     264:	9e03015b 	mcrls	1, 0, r0, cr3, cr11, {2}
     268:	08000001 	stmdaeq	r0, {r0}
     26c:	01890608 	orreq	r0, r9, r8, lsl #12
     270:	00029509 	andeq	r9, r2, r9, lsl #10
     274:	52430900 	subpl	r0, r3, #0, 18
     278:	018b0600 	orreq	r0, fp, r0, lsl #12
     27c:	00008311 	andeq	r8, r0, r1, lsl r3
     280:	00230200 	eoreq	r0, r3, r0, lsl #4
     284:	52534309 	subspl	r4, r3, #603979776	; 0x24000000
     288:	018c0600 	orreq	r0, ip, r0, lsl #12
     28c:	00008311 	andeq	r8, r0, r1, lsl r3
     290:	04230200 	strteq	r0, [r3], #-512	; 0xfffffe00
     294:	01c40d00 	biceq	r0, r4, r0, lsl #26
     298:	8d060000 	stchi	0, cr0, [r6, #-0]
     29c:	026b0301 	rsbeq	r0, fp, #67108864	; 0x4000000
     2a0:	38080000 	stmdacc	r8, {}	; <UNPREDICTABLE>
     2a4:	09019306 	stmdbeq	r1, {r1, r2, r8, r9, ip, pc}
     2a8:	0000038c 	andeq	r0, r0, ip, lsl #7
     2ac:	00524309 	subseq	r4, r2, r9, lsl #6
     2b0:	11019506 	tstne	r1, r6, lsl #10
     2b4:	00000083 	andeq	r0, r0, r3, lsl #1
     2b8:	0a002302 	beq	8ec8 <_Min_Stack_Size+0x8ac8>
     2bc:	0000030a 	andeq	r0, r0, sl, lsl #6
     2c0:	11019606 	tstne	r1, r6, lsl #12
     2c4:	00000083 	andeq	r0, r0, r3, lsl #1
     2c8:	0a042302 	beq	108ed8 <_Min_Stack_Size+0x108ad8>
     2cc:	000002c5 	andeq	r0, r0, r5, asr #5
     2d0:	11019706 	tstne	r1, r6, lsl #14
     2d4:	00000083 	andeq	r0, r0, r3, lsl #1
     2d8:	09082302 	stmdbeq	r8, {r1, r8, r9, sp}
     2dc:	00524943 	subseq	r4, r2, r3, asr #18
     2e0:	11019806 	tstne	r1, r6, lsl #16
     2e4:	00000083 	andeq	r0, r0, r3, lsl #1
     2e8:	0a0c2302 	beq	308ef8 <_Min_Stack_Size+0x308af8>
     2ec:	00000203 	andeq	r0, r0, r3, lsl #4
     2f0:	11019906 	tstne	r1, r6, lsl #18
     2f4:	00000083 	andeq	r0, r0, r3, lsl #1
     2f8:	0a102302 	beq	408f08 <_Min_Stack_Size+0x408b08>
     2fc:	000000c0 	andeq	r0, r0, r0, asr #1
     300:	11019a06 	tstne	r1, r6, lsl #20
     304:	00000083 	andeq	r0, r0, r3, lsl #1
     308:	0a142302 	beq	508f18 <_Min_Stack_Size+0x508b18>
     30c:	00000210 	andeq	r0, r0, r0, lsl r2
     310:	11019b06 	tstne	r1, r6, lsl #22
     314:	00000083 	andeq	r0, r0, r3, lsl #1
     318:	0a182302 	beq	608f28 <_Min_Stack_Size+0x608b28>
     31c:	000003d8 	ldrdeq	r0, [r0], -r8
     320:	11019c06 	tstne	r1, r6, lsl #24
     324:	00000083 	andeq	r0, r0, r3, lsl #1
     328:	0a1c2302 	beq	708f38 <_Min_Stack_Size+0x708b38>
     32c:	000002b6 			; <UNDEFINED> instruction: 0x000002b6
     330:	11019d06 	tstne	r1, r6, lsl #26
     334:	00000083 	andeq	r0, r0, r3, lsl #1
     338:	0a202302 	beq	808f48 <_Min_Stack_Size+0x808b48>
     33c:	000002eb 	andeq	r0, r0, fp, ror #5
     340:	11019e06 	tstne	r1, r6, lsl #28
     344:	00000083 	andeq	r0, r0, r3, lsl #1
     348:	0a242302 	beq	908f58 <_Min_Stack_Size+0x908b58>
     34c:	000000d8 	ldrdeq	r0, [r0], -r8
     350:	11019f06 	tstne	r1, r6, lsl #30
     354:	00000083 	andeq	r0, r0, r3, lsl #1
     358:	0a282302 	beq	a08f68 <_Min_Stack_Size+0xa08b68>
     35c:	000001ba 			; <UNDEFINED> instruction: 0x000001ba
     360:	1101a006 	tstne	r1, r6
     364:	00000083 	andeq	r0, r0, r3, lsl #1
     368:	0a2c2302 	beq	b08f78 <_Min_Stack_Size+0xb08b78>
     36c:	00000197 	muleq	r0, r7, r1
     370:	1101a106 	tstne	r1, r6, lsl #2
     374:	00000083 	andeq	r0, r0, r3, lsl #1
     378:	09302302 	ldmdbeq	r0!, {r1, r8, r9, sp}
     37c:	00525343 	subseq	r5, r2, r3, asr #6
     380:	1101a206 	tstne	r1, r6, lsl #4
     384:	00000083 	andeq	r0, r0, r3, lsl #1
     388:	00342302 	eorseq	r2, r4, r2, lsl #6
     38c:	0001640d 	andeq	r6, r1, sp, lsl #8
     390:	01a30600 			; <UNDEFINED> instruction: 0x01a30600
     394:	0002a203 	andeq	sl, r2, r3, lsl #4
     398:	06d00800 	ldrbeq	r0, [r0], r0, lsl #16
     39c:	f50901c0 			; <UNDEFINED> instruction: 0xf50901c0
     3a0:	09000006 	stmdbeq	r0, {r1, r2}
     3a4:	06005254 			; <UNDEFINED> instruction: 0x06005254
     3a8:	831101c2 	tsthi	r1, #-2147483600	; 0x80000030
     3ac:	02000000 	andeq	r0, r0, #0
     3b0:	44090023 	strmi	r0, [r9], #-35	; 0xffffffdd
     3b4:	c3060052 	movwgt	r0, #24658	; 0x6052
     3b8:	00831101 	addeq	r1, r3, r1, lsl #2
     3bc:	23020000 	movwcs	r0, #8192	; 0x2000
     3c0:	52430904 	subpl	r0, r3, #4, 18	; 0x10000
     3c4:	01c40600 	biceq	r0, r4, r0, lsl #12
     3c8:	00008311 	andeq	r8, r0, r1, lsl r3
     3cc:	08230200 	stmdaeq	r3!, {r9}
     3d0:	52534909 	subspl	r4, r3, #147456	; 0x24000
     3d4:	01c50600 	biceq	r0, r5, r0, lsl #12
     3d8:	00008311 	andeq	r8, r0, r1, lsl r3
     3dc:	0c230200 	sfmeq	f0, 4, [r3], #-0
     3e0:	00003d0a 	andeq	r3, r0, sl, lsl #26
     3e4:	01c60600 	biceq	r0, r6, r0, lsl #12
     3e8:	00008311 	andeq	r8, r0, r1, lsl r3
     3ec:	10230200 	eorne	r0, r3, r0, lsl #4
     3f0:	0002d90a 	andeq	sp, r2, sl, lsl #18
     3f4:	01c70600 	biceq	r0, r7, r0, lsl #12
     3f8:	00008311 	andeq	r8, r0, r1, lsl r3
     3fc:	14230200 	strtne	r0, [r3], #-512	; 0xfffffe00
     400:	0000000a 	andeq	r0, r0, sl
     404:	01c80600 	biceq	r0, r8, r0, lsl #12
     408:	00008311 	andeq	r8, r0, r1, lsl r3
     40c:	18230200 	stmdane	r3!, {r9}
     410:	00024b0a 	andeq	r4, r2, sl, lsl #22
     414:	01c90600 	biceq	r0, r9, r0, lsl #12
     418:	00008311 	andeq	r8, r0, r1, lsl r3
     41c:	1c230200 	sfmne	f0, 4, [r3], #-0
     420:	0002be0a 	andeq	fp, r2, sl, lsl #28
     424:	01ca0600 	biceq	r0, sl, r0, lsl #12
     428:	00008311 	andeq	r8, r0, r1, lsl r3
     42c:	20230200 	eorcs	r0, r3, r0, lsl #4
     430:	52505709 	subspl	r5, r0, #2359296	; 0x240000
     434:	01cb0600 	biceq	r0, fp, r0, lsl #12
     438:	00008311 	andeq	r8, r0, r1, lsl r3
     43c:	24230200 	strtcs	r0, [r3], #-512	; 0xfffffe00
     440:	52535309 	subspl	r5, r3, #603979776	; 0x24000000
     444:	01cc0600 	biceq	r0, ip, r0, lsl #12
     448:	00008311 	andeq	r8, r0, r1, lsl r3
     44c:	28230200 	stmdacs	r3!, {r9}
     450:	0003030a 	andeq	r0, r3, sl, lsl #6
     454:	01cd0600 	biceq	r0, sp, r0, lsl #12
     458:	00008311 	andeq	r8, r0, r1, lsl r3
     45c:	2c230200 	sfmcs	f0, 4, [r3], #-0
     460:	0001a10a 	andeq	sl, r1, sl, lsl #2
     464:	01ce0600 	biceq	r0, lr, r0, lsl #12
     468:	00008311 	andeq	r8, r0, r1, lsl r3
     46c:	30230200 	eorcc	r0, r3, r0, lsl #4
     470:	00001d0a 	andeq	r1, r0, sl, lsl #26
     474:	01cf0600 	biceq	r0, pc, r0, lsl #12
     478:	00008311 	andeq	r8, r0, r1, lsl r3
     47c:	34230200 	strtcc	r0, [r3], #-512	; 0xfffffe00
     480:	0000b30a 	andeq	fp, r0, sl, lsl #6
     484:	01d00600 	bicseq	r0, r0, r0, lsl #12
     488:	00008311 	andeq	r8, r0, r1, lsl r3
     48c:	38230200 	stmdacc	r3!, {r9}
     490:	0001dd0a 	andeq	sp, r1, sl, lsl #26
     494:	01d10600 	bicseq	r0, r1, r0, lsl #12
     498:	00008311 	andeq	r8, r0, r1, lsl r3
     49c:	3c230200 	sfmcc	f0, 4, [r3], #-0
     4a0:	0001a60a 	andeq	sl, r1, sl, lsl #12
     4a4:	01d20600 	bicseq	r0, r2, r0, lsl #12
     4a8:	00008311 	andeq	r8, r0, r1, lsl r3
     4ac:	40230200 	eormi	r0, r3, r0, lsl #4
     4b0:	0001310a 	andeq	r3, r1, sl, lsl #2
     4b4:	01d30600 	bicseq	r0, r3, r0, lsl #12
     4b8:	00008311 	andeq	r8, r0, r1, lsl r3
     4bc:	44230200 	strtmi	r0, [r3], #-512	; 0xfffffe00
     4c0:	0000cf0a 	andeq	ip, r0, sl, lsl #30
     4c4:	01d40600 	bicseq	r0, r4, r0, lsl #12
     4c8:	00008311 	andeq	r8, r0, r1, lsl r3
     4cc:	48230200 	stmdami	r3!, {r9}
     4d0:	00025f0a 	andeq	r5, r2, sl, lsl #30
     4d4:	01d50600 	bicseq	r0, r5, r0, lsl #12
     4d8:	0000770c 	andeq	r7, r0, ip, lsl #14
     4dc:	4c230200 	sfmmi	f0, 4, [r3], #-0
     4e0:	0002a00a 	andeq	sl, r2, sl
     4e4:	01d60600 	bicseq	r0, r6, r0, lsl #12
     4e8:	00008311 	andeq	r8, r0, r1, lsl r3
     4ec:	50230200 	eorpl	r0, r3, r0, lsl #4
     4f0:	0002e50a 	andeq	lr, r2, sl, lsl #10
     4f4:	01d70600 	bicseq	r0, r7, r0, lsl #12
     4f8:	00008311 	andeq	r8, r0, r1, lsl r3
     4fc:	54230200 	strtpl	r0, [r3], #-512	; 0xfffffe00
     500:	00032c0a 	andeq	r2, r3, sl, lsl #24
     504:	01d80600 	bicseq	r0, r8, r0, lsl #12
     508:	00008311 	andeq	r8, r0, r1, lsl r3
     50c:	58230200 	stmdapl	r3!, {r9}
     510:	0000370a 	andeq	r3, r0, sl, lsl #14
     514:	01d90600 	bicseq	r0, r9, r0, lsl #12
     518:	00008311 	andeq	r8, r0, r1, lsl r3
     51c:	5c230200 	sfmpl	f0, 4, [r3], #-0
     520:	0000c90a 	andeq	ip, r0, sl, lsl #18
     524:	01da0600 	bicseq	r0, sl, r0, lsl #12
     528:	00008311 	andeq	r8, r0, r1, lsl r3
     52c:	60230200 	eorvs	r0, r3, r0, lsl #4
     530:	00014a0a 	andeq	r4, r1, sl, lsl #20
     534:	01db0600 	bicseq	r0, fp, r0, lsl #12
     538:	00008311 	andeq	r8, r0, r1, lsl r3
     53c:	64230200 	strtvs	r0, [r3], #-512	; 0xfffffe00
     540:	0001d00a 	andeq	sp, r1, sl
     544:	01dc0600 	bicseq	r0, ip, r0, lsl #12
     548:	00008311 	andeq	r8, r0, r1, lsl r3
     54c:	68230200 	stmdavs	r3!, {r9}
     550:	0002520a 	andeq	r5, r2, sl, lsl #4
     554:	01dd0600 	bicseq	r0, sp, r0, lsl #12
     558:	00008311 	andeq	r8, r0, r1, lsl r3
     55c:	6c230200 	sfmvs	f0, 4, [r3], #-0
     560:	0002ca0a 	andeq	ip, r2, sl, lsl #20
     564:	01de0600 	bicseq	r0, lr, r0, lsl #12
     568:	00008311 	andeq	r8, r0, r1, lsl r3
     56c:	70230200 	eorvc	r0, r3, r0, lsl #4
     570:	0003100a 	andeq	r1, r3, sl
     574:	01df0600 	bicseq	r0, pc, r0, lsl #12
     578:	00008311 	andeq	r8, r0, r1, lsl r3
     57c:	74230200 	strtvc	r0, [r3], #-512	; 0xfffffe00
     580:	0001ac0a 	andeq	sl, r1, sl, lsl #24
     584:	01e00600 	mvneq	r0, r0, lsl #12
     588:	00008311 	andeq	r8, r0, r1, lsl r3
     58c:	78230200 	stmdavc	r3!, {r9}
     590:	0001fc0a 	andeq	pc, r1, sl, lsl #24
     594:	01e10600 	mvneq	r0, r0, lsl #12
     598:	00008311 	andeq	r8, r0, r1, lsl r3
     59c:	7c230200 	sfmvc	f0, 4, [r3], #-0
     5a0:	0002af0a 	andeq	sl, r2, sl, lsl #30
     5a4:	01e20600 	mvneq	r0, r0, lsl #12
     5a8:	00008311 	andeq	r8, r0, r1, lsl r3
     5ac:	80230300 	eorhi	r0, r3, r0, lsl #6
     5b0:	02f30a01 	rscseq	r0, r3, #4096	; 0x1000
     5b4:	e3060000 	movw	r0, #24576	; 0x6000
     5b8:	00831101 	addeq	r1, r3, r1, lsl #2
     5bc:	23030000 	movwcs	r0, #12288	; 0x3000
     5c0:	390a0184 	stmdbcc	sl, {r2, r7, r8}
     5c4:	06000003 	streq	r0, [r0], -r3
     5c8:	831101e4 	tsthi	r1, #228, 2	; 0x39
     5cc:	03000000 	movweq	r0, #0
     5d0:	0a018823 	beq	62664 <_Min_Stack_Size+0x62264>
     5d4:	00000170 	andeq	r0, r0, r0, ror r1
     5d8:	1101e506 	tstne	r1, r6, lsl #10
     5dc:	00000083 	andeq	r0, r0, r3, lsl #1
     5e0:	018c2303 	orreq	r2, ip, r3, lsl #6
     5e4:	0000e10a 	andeq	lr, r0, sl, lsl #2
     5e8:	01e60600 	mvneq	r0, r0, lsl #12
     5ec:	00008311 	andeq	r8, r0, r1, lsl r3
     5f0:	90230300 	eorls	r0, r3, r0, lsl #6
     5f4:	01500a01 	cmpeq	r0, r1, lsl #20
     5f8:	e7060000 	str	r0, [r6, -r0]
     5fc:	00831101 	addeq	r1, r3, r1, lsl #2
     600:	23030000 	movwcs	r0, #12288	; 0x3000
     604:	d60a0194 			; <UNDEFINED> instruction: 0xd60a0194
     608:	06000001 	streq	r0, [r0], -r1
     60c:	831101e8 	tsthi	r1, #232, 2	; 0x3a
     610:	03000000 	movweq	r0, #0
     614:	0a019823 	beq	666a8 <_Min_Stack_Size+0x662a8>
     618:	00000258 	andeq	r0, r0, r8, asr r2
     61c:	1101e906 	tstne	r1, r6, lsl #18
     620:	00000083 	andeq	r0, r0, r3, lsl #1
     624:	019c2303 	orrseq	r2, ip, r3, lsl #6
     628:	0001080a 	andeq	r0, r1, sl, lsl #16
     62c:	01ea0600 	mvneq	r0, r0, lsl #12
     630:	00008311 	andeq	r8, r0, r1, lsl r3
     634:	a0230300 	eorge	r0, r3, r0, lsl #6
     638:	01770a01 	cmneq	r7, r1, lsl #20
     63c:	eb060000 	bl	180644 <_Min_Stack_Size+0x180244>
     640:	00831101 	addeq	r1, r3, r1, lsl #2
     644:	23030000 	movwcs	r0, #12288	; 0x3000
     648:	e90a01a4 	stmdb	sl, {r2, r5, r7, r8}
     64c:	06000001 	streq	r0, [r0], -r1
     650:	831101ec 	tsthi	r1, #236, 2	; 0x3b
     654:	03000000 	movweq	r0, #0
     658:	0a01a823 	beq	6a6ec <_Min_Stack_Size+0x6a2ec>
     65c:	00000274 	andeq	r0, r0, r4, ror r2
     660:	1101ed06 	tstne	r1, r6, lsl #26
     664:	00000083 	andeq	r0, r0, r3, lsl #1
     668:	01ac2303 			; <UNDEFINED> instruction: 0x01ac2303
     66c:	0002de0a 	andeq	sp, r2, sl, lsl #28
     670:	01ee0600 	mvneq	r0, r0, lsl #12
     674:	00008311 	andeq	r8, r0, r1, lsl r3
     678:	b0230300 	eorlt	r0, r3, r0, lsl #6
     67c:	03250a01 			; <UNDEFINED> instruction: 0x03250a01
     680:	ef060000 	svc	0x00060000
     684:	00831101 	addeq	r1, r3, r1, lsl #2
     688:	23030000 	movwcs	r0, #12288	; 0x3000
     68c:	220a01b4 	andcs	r0, sl, #180, 2	; 0x2d
     690:	06000000 	streq	r0, [r0], -r0
     694:	831101f0 	tsthi	r1, #240, 2	; 0x3c
     698:	03000000 	movweq	r0, #0
     69c:	0a01b823 	beq	6e730 <_Min_Stack_Size+0x6e330>
     6a0:	000000ac 	andeq	r0, r0, ip, lsr #1
     6a4:	1101f106 	tstne	r1, r6, lsl #2	; <UNPREDICTABLE>
     6a8:	00000083 	andeq	r0, r0, r3, lsl #1
     6ac:	01bc2303 			; <UNDEFINED> instruction: 0x01bc2303
     6b0:	0001250a 	andeq	r2, r1, sl, lsl #10
     6b4:	01f20600 	mvnseq	r0, r0, lsl #12
     6b8:	00008311 	andeq	r8, r0, r1, lsl r3
     6bc:	c0230300 	eorgt	r0, r3, r0, lsl #6
     6c0:	01b30a01 			; <UNDEFINED> instruction: 0x01b30a01
     6c4:	f3060000 	vhadd.u8	d0, d6, d0
     6c8:	00831101 	addeq	r1, r3, r1, lsl #2
     6cc:	23030000 	movwcs	r0, #12288	; 0x3000
     6d0:	300a01c4 	andcc	r0, sl, r4, asr #3
     6d4:	06000000 	streq	r0, [r0], -r0
     6d8:	831101f4 	tsthi	r1, #244, 2	; 0x3d
     6dc:	03000000 	movweq	r0, #0
     6e0:	0a01c823 	beq	72774 <_Min_Stack_Size+0x72374>
     6e4:	000000b9 	strheq	r0, [r0], -r9
     6e8:	1101f506 	tstne	r1, r6, lsl #10	; <UNPREDICTABLE>
     6ec:	00000083 	andeq	r0, r0, r3, lsl #1
     6f0:	01cc2303 	biceq	r2, ip, r3, lsl #6
     6f4:	00670d00 	rsbeq	r0, r7, r0, lsl #26
     6f8:	f6060000 			; <UNDEFINED> instruction: 0xf6060000
     6fc:	03990301 	orrseq	r0, r9, #67108864	; 0x4000000
     700:	010e0000 	mrseq	r0, (UNDEF: 14)
     704:	00000340 	andeq	r0, r0, r0, asr #6
     708:	01050e02 	tsteq	r5, r2, lsl #28
     70c:	00000096 	muleq	r0, r6, r0
     710:	08000c6c 	stmdaeq	r0, {r2, r3, r5, r6, sl, fp}
     714:	08000cf0 	stmdaeq	r0, {r4, r5, r6, r7, sl, fp}
     718:	00000000 	andeq	r0, r0, r0
     71c:	0007f401 	andeq	pc, r7, r1, lsl #8
     720:	0c7e0f00 	ldcleq	15, cr0, [lr], #-0
     724:	0c940800 	ldceq	8, cr0, [r4], {0}
     728:	07430800 	strbeq	r0, [r3, -r0, lsl #16]
     72c:	2c100000 	ldccs	0, cr0, [r0], {-0}
     730:	02000001 	andeq	r0, r0, #1
     734:	00770311 	rsbseq	r0, r7, r1, lsl r3
     738:	00280000 	eoreq	r0, r8, r0
     73c:	00200000 	eoreq	r0, r0, r0
     740:	0f000000 	svceq	0x00000000
     744:	08000c94 	stmdaeq	r0, {r2, r4, r7, sl, fp}
     748:	08000ca8 	stmdaeq	r0, {r3, r5, r7, sl, fp}
     74c:	00000765 	andeq	r0, r0, r5, ror #14
     750:	00012c10 	andeq	r2, r1, r0, lsl ip
     754:	16110200 	ldrne	r0, [r1], -r0, lsl #4
     758:	00000077 	andeq	r0, r0, r7, ror r0
     75c:	0000006c 	andeq	r0, r0, ip, rrx
     760:	00000064 	andeq	r0, r0, r4, rrx
     764:	0ca80f00 	stceq	15, cr0, [r8]
     768:	0cba0800 	ldceq	8, cr0, [sl]
     76c:	07870800 	streq	r0, [r7, r0, lsl #16]
     770:	2c100000 	ldccs	0, cr0, [r0], {-0}
     774:	02000001 	andeq	r0, r0, #1
     778:	00770312 	rsbseq	r0, r7, r2, lsl r3
     77c:	00ae0000 	adceq	r0, lr, r0
     780:	00a80000 	adceq	r0, r8, r0
     784:	0f000000 	svceq	0x00000000
     788:	08000cba 	stmdaeq	r0, {r1, r3, r4, r5, r7, sl, fp}
     78c:	08000cca 	stmdaeq	r0, {r1, r3, r6, r7, sl, fp}
     790:	000007a9 	andeq	r0, r0, r9, lsr #15
     794:	00012c10 	andeq	r2, r1, r0, lsl ip
     798:	16120200 	ldrne	r0, [r2], -r0, lsl #4
     79c:	00000077 	andeq	r0, r0, r7, ror r0
     7a0:	000000e6 	andeq	r0, r0, r6, ror #1
     7a4:	000000e0 	andeq	r0, r0, r0, ror #1
     7a8:	09051100 	stmdbeq	r5, {r8, ip}
     7ac:	0cce0000 	stcleq	0, cr0, [lr], {0}
     7b0:	ce010800 	cdpgt	8, 0, cr0, cr1, cr0, {0}
     7b4:	d008000c 	andle	r0, r8, ip
     7b8:	0208000c 	andeq	r0, r8, #12
     7bc:	74120315 	ldrvc	r0, [r2], #-789	; 0xfffffceb
     7c0:	8308000c 	movwhi	r0, #32780	; 0x800c
     7c4:	d1000008 	tstle	r0, r8
     7c8:	13000007 	movwne	r0, #7
     7cc:	31015001 	tstcc	r1, r1
     7d0:	0cce1400 	cfstrdeq	mvd1, [lr], {0}
     7d4:	090f0800 	stmdbeq	pc, {fp}	; <UNPREDICTABLE>
     7d8:	d6140000 	ldrle	r0, [r4], -r0
     7dc:	1d08000c 	stcne	0, cr0, [r8, #-48]	; 0xffffffd0
     7e0:	15000009 	strne	r0, [r0, #-9]
     7e4:	08000cdc 	stmdaeq	r0, {r2, r3, r4, r6, r7, sl, fp}
     7e8:	000007f4 	strdeq	r0, [r0], -r4
     7ec:	02500113 	subseq	r0, r0, #-1073741820	; 0xc0000004
     7f0:	00000074 	andeq	r0, r0, r4, ror r0
     7f4:	01910116 	orrseq	r0, r1, r6, lsl r1
     7f8:	0a020000 	beq	80800 <_Min_Stack_Size+0x80400>
     7fc:	03580106 	cmpeq	r8, #-2147483647	; 0x80000001
     800:	03640800 	cmneq	r4, #0, 16
     804:	7d020800 	stcvc	8, cr0, [r2, #-0]
     808:	08230100 	stmdaeq	r3!, {r8}
     80c:	0b170000 	bleq	5c0814 <_Min_Stack_Size+0x5c0414>
     810:	02000002 	andeq	r0, r0, #2
     814:	0077150a 	rsbseq	r1, r7, sl, lsl #10
     818:	011b0000 	tsteq	fp, r0
     81c:	01150000 	tsteq	r5, r0
     820:	18000000 	stmdane	r0, {}	; <UNPREDICTABLE>
     824:	00026901 	andeq	r6, r2, r1, lsl #18
     828:	1c080200 	sfmne	f0, 4, [r8], {-0}
     82c:	00035601 	andeq	r5, r3, r1, lsl #12
     830:	00035808 	andeq	r5, r3, r8, lsl #16
     834:	007d0208 	rsbseq	r0, sp, r8, lsl #4
     838:	4e011901 	vmlami.f16	s2, s2, s2	; <UNPREDICTABLE>
     83c:	02000008 	andeq	r0, r0, #8
     840:	1a011c07 	bne	47864 <_Min_Stack_Size+0x47464>
     844:	0002fa01 	andeq	pc, r2, r1, lsl #20
     848:	06a40100 	strteq	r0, [r4], r0, lsl #2
     84c:	0800030c 	stmdaeq	r0, {r2, r3, r8, r9}
     850:	08000354 	stmdaeq	r0, {r2, r4, r6, r8, r9}
     854:	01007d02 	tsteq	r0, r2, lsl #26
     858:	00000883 	andeq	r0, r0, r3, lsl #17
     85c:	0100691b 	tsteq	r0, fp, lsl r9
     860:	00640ca5 	rsbeq	r0, r4, r5, lsr #25
     864:	014e0000 	mrseq	r0, (UNDEF: 78)
     868:	01460000 	mrseq	r0, (UNDEF: 70)
     86c:	741b0000 	ldrvc	r0, [fp], #-0
     870:	0100706d 	tsteq	r0, sp, rrx
     874:	00770ca6 	rsbseq	r0, r7, r6, lsr #25
     878:	01960000 	orrseq	r0, r6, r0
     87c:	01920000 	orrseq	r0, r2, r0
     880:	1c000000 	stcne	0, cr0, [r0], {-0}
     884:	0000a301 	andeq	sl, r0, r1, lsl #6
     888:	084c0100 	stmdaeq	ip, {r8}^
     88c:	00003001 	andeq	r3, r0, r1
     890:	0001e800 	andeq	lr, r1, r0, lsl #16
     894:	00030c08 	andeq	r0, r3, r8, lsl #24
     898:	007d0208 	rsbseq	r0, sp, r8, lsl #4
     89c:	0008dc01 	andeq	sp, r8, r1, lsl #24
     8a0:	01e21700 	mvneq	r1, r0, lsl #14
     8a4:	4c010000 	stcmi	0, cr0, [r1], {-0}
     8a8:	00003018 	andeq	r3, r0, r8, lsl r0
     8ac:	0001bd00 	andeq	fp, r1, r0, lsl #26
     8b0:	0001b500 	andeq	fp, r1, r0, lsl #10
     8b4:	00691b00 	rsbeq	r1, r9, r0, lsl #22
     8b8:	640c4d01 	strvs	r4, [ip], #-3329	; 0xfffff2ff
     8bc:	1b000000 	blne	8c4 <_Min_Stack_Size+0x4c4>
     8c0:	f7000002 			; <UNDEFINED> instruction: 0xf7000002
     8c4:	1b000001 	blne	8d0 <_Min_Stack_Size+0x4d0>
     8c8:	00706d74 	rsbseq	r6, r0, r4, ror sp
     8cc:	770c4e01 	strvc	r4, [ip, -r1, lsl #28]
     8d0:	5a000000 	bpl	8d8 <_Min_Stack_Size+0x4d8>
     8d4:	36000003 	strcc	r0, [r0], -r3
     8d8:	00000003 	andeq	r0, r0, r3
     8dc:	011e0116 	tsteq	lr, r6, lsl r1
     8e0:	1c010000 	stcne	0, cr0, [r1], {-0}
     8e4:	01500106 	cmpeq	r0, r6, lsl #2
     8e8:	01e80800 	mvneq	r0, r0, lsl #16
     8ec:	7d020800 	stcvc	8, cr0, [r2, #-0]
     8f0:	09050100 	stmdbeq	r5, {r8}
     8f4:	321d0000 	andscc	r0, sp, #0
     8f8:	01000003 	tsteq	r0, r3
     8fc:	0051151c 	subseq	r1, r1, ip, lsl r5
     900:	50010000 	andpl	r0, r1, r0
     904:	02191e00 	andseq	r1, r9, #0, 28
     908:	b4030000 	strlt	r0, [r3], #-0
     90c:	1f031604 	svcne	0x00031604
     910:	00730101 	rsbseq	r0, r3, r1, lsl #2
     914:	00730000 	rsbseq	r0, r3, r0
     918:	24070000 	strcs	r0, [r7], #-0
     91c:	01011f06 	tsteq	r1, r6, lsl #30
     920:	000000f0 	strdeq	r0, [r0], -r0	; <UNPREDICTABLE>
     924:	000000f0 	strdeq	r0, [r0], -r0	; <UNPREDICTABLE>
     928:	00064207 	andeq	r4, r6, r7, lsl #4
     92c:	0000126a 	andeq	r1, r0, sl, ror #4
     930:	02170002 	andseq	r0, r7, #2
     934:	01040000 	mrseq	r0, (UNDEF: 4)
     938:	00000345 	andeq	r0, r0, r5, asr #6
     93c:	0007690c 	andeq	r6, r7, ip, lsl #18
     940:	00022600 	andeq	r2, r2, r0, lsl #12
     944:	00036400 	andeq	r6, r3, r0, lsl #8
     948:	00097408 	andeq	r7, r9, r8, lsl #8
     94c:	00043308 	andeq	r3, r4, r8, lsl #6
     950:	06010200 	streq	r0, [r1], -r0, lsl #4
     954:	0000027d 	andeq	r0, r0, sp, ror r2
     958:	96050202 	strls	r0, [r5], -r2, lsl #4
     95c:	02000002 	andeq	r0, r0, #2
     960:	00820504 	addeq	r0, r2, r4, lsl #10
     964:	08020000 	stmdaeq	r2, {}	; <UNPREDICTABLE>
     968:	00007d05 	andeq	r7, r0, r5, lsl #26
     96c:	03160300 	tsteq	r6, #0, 6
     970:	2e040000 	cdpcs	0, 0, cr0, cr4, cr0, {0}
     974:	00005718 	andeq	r5, r0, r8, lsl r7
     978:	00410400 	subeq	r0, r1, r0, lsl #8
     97c:	41050000 	mrsmi	r0, (UNDEF: 5)
     980:	02000000 	andeq	r0, r0, #0
     984:	027b0801 	rsbseq	r0, fp, #65536	; 0x10000
     988:	ff030000 			; <UNDEFINED> instruction: 0xff030000
     98c:	04000000 	streq	r0, [r0], #-0
     990:	006f1931 	rsbeq	r1, pc, r1, lsr r9	; <UNPREDICTABLE>
     994:	5e040000 	cdppl	0, 0, cr0, cr4, cr0, {0}
     998:	02000000 	andeq	r0, r0, #0
     99c:	017e0702 	cmneq	lr, r2, lsl #14
     9a0:	d0030000 	andle	r0, r3, r0
     9a4:	04000002 	streq	r0, [r0], #-2
     9a8:	00871934 	addeq	r1, r7, r4, lsr r9
     9ac:	76040000 	strvc	r0, [r4], -r0
     9b0:	02000000 	andeq	r0, r0, #0
     9b4:	004d0704 	subeq	r0, sp, r4, lsl #14
     9b8:	08020000 	stmdaeq	r2, {}	; <UNPREDICTABLE>
     9bc:	00004807 	andeq	r4, r0, r7, lsl #16
     9c0:	05040600 	streq	r0, [r4, #-1536]	; 0xfffffa00
     9c4:	00746e69 	rsbseq	r6, r4, r9, ror #28
     9c8:	00009504 	andeq	r9, r0, r4, lsl #10
     9cc:	07040200 	streq	r0, [r4, -r0, lsl #4]
     9d0:	00000052 	andeq	r0, r0, r2, asr r0
     9d4:	00071e03 	andeq	r1, r7, r3, lsl #28
     9d8:	0f1a0300 	svceq	0x001a0300
     9dc:	000000b4 	strheq	r0, [r0], -r4
     9e0:	00ba0407 	adcseq	r0, sl, r7, lsl #8
     9e4:	01080000 	mrseq	r0, (UNDEF: 8)
     9e8:	000000c6 	andeq	r0, r0, r6, asr #1
     9ec:	00004109 	andeq	r4, r0, r9, lsl #2
     9f0:	080a0000 	stmdaeq	sl, {}	; <UNPREDICTABLE>
     9f4:	1b091b03 	blne	247608 <_Min_Stack_Size+0x247208>
     9f8:	0b000001 	bleq	a04 <_Min_Stack_Size+0x604>
     9fc:	00000462 	andeq	r0, r0, r2, ror #8
     a00:	410b1c03 	tstmi	fp, r3, lsl #24
     a04:	02000000 	andeq	r0, r0, #0
     a08:	850b0023 	strhi	r0, [fp, #-35]	; 0xffffffdd
     a0c:	03000008 	movweq	r0, #8
     a10:	00410b1d 	subeq	r0, r1, sp, lsl fp
     a14:	23020000 	movwcs	r0, #8192	; 0x2000
     a18:	04d10b01 	ldrbeq	r0, [r1], #2817	; 0xb01
     a1c:	1e030000 	cdpne	0, 0, cr0, cr3, cr0, {0}
     a20:	00005e0c 	andeq	r5, r0, ip, lsl #28
     a24:	02230200 	eoreq	r0, r3, #0, 4
     a28:	0003ea0b 	andeq	lr, r3, fp, lsl #20
     a2c:	0c1f0300 	ldceq	3, cr0, [pc], {-0}
     a30:	0000005e 	andeq	r0, r0, lr, asr r0
     a34:	0b042302 	bleq	109644 <_Min_Stack_Size+0x109244>
     a38:	00000868 	andeq	r0, r0, r8, ror #16
     a3c:	5e0c2003 	cdppl	0, 0, cr2, cr12, cr3, {0}
     a40:	02000000 	andeq	r0, r0, #0
     a44:	03000623 	movweq	r0, #1571	; 0x623
     a48:	000008f1 	strdeq	r0, [r0], -r1
     a4c:	c6022103 	strgt	r2, [r2], -r3, lsl #2
     a50:	0c000000 	stceq	0, cr0, [r0], {-0}
     a54:	00250105 	eoreq	r0, r5, r5, lsl #2
     a58:	58050000 	stmdapl	r5, {}	; <UNPREDICTABLE>
     a5c:	00029e01 	andeq	r9, r2, r1, lsl #28
     a60:	08540d00 	ldmdaeq	r4, {r8, sl, fp}^
     a64:	0d720000 	ldcleq	0, cr0, [r2, #-0]
     a68:	000004d8 	ldrdeq	r0, [r0], -r8
     a6c:	06fc0d74 			; <UNDEFINED> instruction: 0x06fc0d74
     a70:	0d750000 	ldcleq	0, cr0, [r5, #-0]
     a74:	00000937 	andeq	r0, r0, r7, lsr r9
     a78:	04300d76 	ldrteq	r0, [r0], #-3446	; 0xfffff28a
     a7c:	0d7b0000 	ldcleq	0, cr0, [fp, #-0]
     a80:	00000925 	andeq	r0, r0, r5, lsr #18
     a84:	04b50d7c 	ldrteq	r0, [r5], #3452	; 0xd7c
     a88:	0d7e0000 	ldcleq	0, cr0, [lr, #-0]
     a8c:	000008bd 			; <UNDEFINED> instruction: 0x000008bd
     a90:	06d80e7f 			; <UNDEFINED> instruction: 0x06d80e7f
     a94:	0e000000 	cdpeq	0, 0, cr0, cr0, cr0, {0}
     a98:	00000715 	andeq	r0, r0, r5, lsl r7
     a9c:	04fd0e01 	ldrbteq	r0, [sp], #3585	; 0xe01
     aa0:	0e020000 	cdpeq	0, 0, cr0, cr2, cr0, {0}
     aa4:	000005ec 	andeq	r0, r0, ip, ror #11
     aa8:	047d0e03 	ldrbteq	r0, [sp], #-3587	; 0xfffff1fd
     aac:	0e040000 	cdpeq	0, 0, cr0, cr4, cr0, {0}
     ab0:	000004c8 	andeq	r0, r0, r8, asr #9
     ab4:	04920e05 	ldreq	r0, [r2], #3589	; 0xe05
     ab8:	0e060000 	cdpeq	0, 0, cr0, cr6, cr0, {0}
     abc:	0000087a 	andeq	r0, r0, sl, ror r8
     ac0:	06160e07 	ldreq	r0, [r6], -r7, lsl #28
     ac4:	0e080000 	cdpeq	0, 0, cr0, cr8, cr0, {0}
     ac8:	000009cc 	andeq	r0, r0, ip, asr #19
     acc:	070a0e09 	streq	r0, [sl, -r9, lsl #28]
     ad0:	0e0a0000 	cdpeq	0, 0, cr0, cr10, cr0, {0}
     ad4:	0000069f 	muleq	r0, pc, r6	; <UNPREDICTABLE>
     ad8:	04430e0b 	strbeq	r0, [r3], #-3595	; 0xfffff1f5
     adc:	0e0c0000 	cdpeq	0, 0, cr0, cr12, cr0, {0}
     ae0:	00000756 	andeq	r0, r0, r6, asr r7
     ae4:	05520e0d 	ldrbeq	r0, [r2, #-3597]	; 0xfffff1f3
     ae8:	0e0e0000 	cdpeq	0, 0, cr0, cr14, cr0, {0}
     aec:	000009a1 	andeq	r0, r0, r1, lsr #19
     af0:	06620e0f 	strbteq	r0, [r2], -pc, lsl #28
     af4:	0e100000 	cdpeq	0, 1, cr0, cr0, cr0, {0}
     af8:	00000410 	andeq	r0, r0, r0, lsl r4
     afc:	06210e11 			; <UNDEFINED> instruction: 0x06210e11
     b00:	0e120000 	cdpeq	0, 1, cr0, cr2, cr0, {0}
     b04:	00000919 	andeq	r0, r0, r9, lsl r9
     b08:	0a2d0e13 	beq	b4435c <_Min_Stack_Size+0xb43f5c>
     b0c:	0e140000 	cdpeq	0, 1, cr0, cr4, cr0, {0}
     b10:	000009bb 			; <UNDEFINED> instruction: 0x000009bb
     b14:	05740e15 	ldrbeq	r0, [r4, #-3605]!	; 0xfffff1eb
     b18:	0e160000 	cdpeq	0, 1, cr0, cr6, cr0, {0}
     b1c:	00000971 	andeq	r0, r0, r1, ror r9
     b20:	04060e17 	streq	r0, [r6], #-3607	; 0xfffff1e9
     b24:	0e190000 	cdpeq	0, 1, cr0, cr9, cr0, {0}
     b28:	000006cd 	andeq	r0, r0, sp, asr #13
     b2c:	03df0e1a 	bicseq	r0, pc, #416	; 0x1a0
     b30:	0e1b0000 	cdpeq	0, 1, cr0, cr11, cr0, {0}
     b34:	000008d0 	ldrdeq	r0, [r0], -r0	; <UNPREDICTABLE>
     b38:	06950e1c 			; <UNDEFINED> instruction: 0x06950e1c
     b3c:	0e1d0000 	cdpeq	0, 1, cr0, cr13, cr0, {0}
     b40:	00000439 	andeq	r0, r0, r9, lsr r4
     b44:	07770e1e 			; <UNDEFINED> instruction: 0x07770e1e
     b48:	0e1f0000 	cdpeq	0, 1, cr0, cr15, cr0, {0}
     b4c:	000008b0 			; <UNDEFINED> instruction: 0x000008b0
     b50:	062b0e20 	strteq	r0, [fp], -r0, lsr #28
     b54:	0e210000 	cdpeq	0, 2, cr0, cr1, cr0, {0}
     b58:	00000423 	andeq	r0, r0, r3, lsr #8
     b5c:	05300e22 	ldreq	r0, [r0, #-3618]!	; 0xfffff1de
     b60:	0e230000 	cdpeq	0, 2, cr0, cr3, cr0, {0}
     b64:	00000988 	andeq	r0, r0, r8, lsl #19
     b68:	083c0e24 	ldmdaeq	ip!, {r2, r5, r9, sl, fp}
     b6c:	0e250000 	cdpeq	0, 2, cr0, cr5, cr0, {0}
     b70:	000005cd 	andeq	r0, r0, sp, asr #11
     b74:	0a170e26 	beq	5c4414 <_Min_Stack_Size+0x5c4014>
     b78:	0e270000 	cdpeq	0, 2, cr0, cr7, cr0, {0}
     b7c:	0000049d 	muleq	r0, sp, r4
     b80:	07b50e28 	ldreq	r0, [r5, r8, lsr #28]!
     b84:	0e290000 	cdpeq	0, 2, cr0, cr9, cr0, {0}
     b88:	00000817 	andeq	r0, r0, r7, lsl r8
     b8c:	05480e2a 	strbeq	r0, [r8, #-3626]	; 0xfffff1d6
     b90:	0e2b0000 	cdpeq	0, 2, cr0, cr11, cr0, {0}
     b94:	00000997 	muleq	r0, r7, r9
     b98:	074c0e2c 	strbeq	r0, [ip, -ip, lsr #28]
     b9c:	0e2e0000 	cdpeq	0, 2, cr0, cr14, cr0, {0}
     ba0:	0000063d 	andeq	r0, r0, sp, lsr r6
     ba4:	06750e2f 	ldrbteq	r0, [r5], -pc, lsr #28
     ba8:	0e320000 	cdpeq	0, 3, cr0, cr2, cr0, {0}
     bac:	00000a04 	andeq	r0, r0, r4, lsl #20
     bb0:	07390e33 			; <UNDEFINED> instruction: 0x07390e33
     bb4:	0e340000 	cdpeq	0, 3, cr0, cr4, cr0, {0}
     bb8:	00000514 	andeq	r0, r0, r4, lsl r5
     bbc:	089d0e35 	ldmeq	sp, {r0, r2, r4, r5, r9, sl, fp}
     bc0:	0e360000 	cdpeq	0, 3, cr0, cr6, cr0, {0}
     bc4:	00000654 	andeq	r0, r0, r4, asr r6
     bc8:	ba030038 	blt	c0cb0 <_Min_Stack_Size+0xc08b0>
     bcc:	05000005 	streq	r0, [r0, #-5]
     bd0:	01270398 			; <UNDEFINED> instruction: 0x01270398
     bd4:	040f0000 	streq	r0, [pc], #-0	; bdc <_Min_Stack_Size+0x7dc>
     bd8:	0984020e 	stmibeq	r4, {r1, r2, r3, r9}
     bdc:	00000382 	andeq	r0, r0, r2, lsl #7
     be0:	00050f0b 	andeq	r0, r5, fp, lsl #30
     be4:	11860200 	orrne	r0, r6, r0, lsl #4
     be8:	00000392 	muleq	r0, r2, r3
     bec:	0b002302 	bleq	97fc <_Min_Stack_Size+0x93fc>
     bf0:	000007d1 	ldrdeq	r0, [r0], -r1
     bf4:	97118702 	ldrls	r8, [r1, -r2, lsl #14]
     bf8:	02000003 	andeq	r0, r0, #3
     bfc:	830b2023 	movwhi	r2, #45091	; 0xb023
     c00:	02000009 	andeq	r0, r0, #9
     c04:	03921188 	orrseq	r1, r2, #136, 2	; 0x22
     c08:	23030000 	movwcs	r0, #12288	; 0x3000
     c0c:	270b0180 	strcs	r0, [fp, -r0, lsl #3]
     c10:	02000005 	andeq	r0, r0, #5
     c14:	03971189 	orrseq	r1, r7, #1073741858	; 0x40000022
     c18:	23030000 	movwcs	r0, #12288	; 0x3000
     c1c:	ea0b01a0 	b	2c12a4 <_Min_Stack_Size+0x2c0ea4>
     c20:	02000009 	andeq	r0, r0, #9
     c24:	0392118a 	orrseq	r1, r2, #-2147483614	; 0x80000022
     c28:	23030000 	movwcs	r0, #12288	; 0x3000
     c2c:	e50b0280 	str	r0, [fp, #-640]	; 0xfffffd80
     c30:	02000007 	andeq	r0, r0, #7
     c34:	0397118b 	orrseq	r1, r7, #-1073741790	; 0xc0000022
     c38:	23030000 	movwcs	r0, #12288	; 0x3000
     c3c:	340b02a0 	strcc	r0, [fp], #-672	; 0xfffffd60
     c40:	02000007 	andeq	r0, r0, #7
     c44:	0392118c 	orrseq	r1, r2, #140, 2	; 0x23
     c48:	23030000 	movwcs	r0, #12288	; 0x3000
     c4c:	ef0b0380 	svc	0x000b0380
     c50:	02000007 	andeq	r0, r0, #7
     c54:	0397118d 	orrseq	r1, r7, #1073741859	; 0x40000023
     c58:	23030000 	movwcs	r0, #12288	; 0x3000
     c5c:	920b03a0 	andls	r0, fp, #160, 6	; 0x80000002
     c60:	02000009 	andeq	r0, r0, #9
     c64:	0392118e 	orrseq	r1, r2, #-2147483613	; 0x80000023
     c68:	23030000 	movwcs	r0, #12288	; 0x3000
     c6c:	f90b0480 			; <UNDEFINED> instruction: 0xf90b0480
     c70:	02000007 	andeq	r0, r0, #7
     c74:	03a7118f 			; <UNDEFINED> instruction: 0x03a7118f
     c78:	23030000 	movwcs	r0, #12288	; 0x3000
     c7c:	491004a0 	ldmdbmi	r0, {r5, r7, sl}
     c80:	90020050 	andls	r0, r2, r0, asr r0
     c84:	0003c711 	andeq	ip, r3, r1, lsl r7
     c88:	80230300 	eorhi	r0, r3, r0, lsl #6
     c8c:	08030b06 	stmdaeq	r3, {r1, r2, r8, r9, fp}
     c90:	91020000 	mrsls	r0, (UNDEF: 2)
     c94:	0003cc11 	andeq	ip, r3, r1, lsl ip
     c98:	f0230300 			; <UNDEFINED> instruction: 0xf0230300
     c9c:	07b00b07 	ldreq	r0, [r0, r7, lsl #22]!
     ca0:	92020000 	andls	r0, r2, #0
     ca4:	00008211 	andeq	r8, r0, r1, lsl r2
     ca8:	80230300 	eorhi	r0, r3, r0, lsl #6
     cac:	8211001c 	andshi	r0, r1, #28
     cb0:	92000000 	andls	r0, r0, #0
     cb4:	12000003 	andne	r0, r0, #3
     cb8:	000000a1 	andeq	r0, r0, r1, lsr #1
     cbc:	82040007 	andhi	r0, r4, #7
     cc0:	11000003 	tstne	r0, r3
     cc4:	00000076 	andeq	r0, r0, r6, ror r0
     cc8:	000003a7 	andeq	r0, r0, r7, lsr #7
     ccc:	0000a112 	andeq	sl, r0, r2, lsl r1
     cd0:	11001700 	tstne	r0, r0, lsl #14
     cd4:	00000076 	andeq	r0, r0, r6, ror r0
     cd8:	000003b7 			; <UNDEFINED> instruction: 0x000003b7
     cdc:	0000a112 	andeq	sl, r0, r2, lsl r1
     ce0:	11003700 	tstne	r0, r0, lsl #14
     ce4:	0000004d 	andeq	r0, r0, sp, asr #32
     ce8:	000003c7 	andeq	r0, r0, r7, asr #7
     cec:	0000a112 	andeq	sl, r0, r2, lsl r1
     cf0:	0400ef00 	streq	lr, [r0], #-3840	; 0xfffff100
     cf4:	000003b7 			; <UNDEFINED> instruction: 0x000003b7
     cf8:	00007611 	andeq	r7, r0, r1, lsl r6
     cfc:	0003dd00 	andeq	sp, r3, r0, lsl #26
     d00:	00a11300 	adceq	r1, r1, r0, lsl #6
     d04:	02830000 	addeq	r0, r3, #0
     d08:	088e0300 	stmeq	lr, {r8, r9}
     d0c:	93020000 	movwls	r0, #8192	; 0x2000
     d10:	0002aa04 	andeq	sl, r2, r4, lsl #20
     d14:	02891400 	addeq	r1, r9, #0, 8
     d18:	ce020000 	cdpgt	0, 0, cr0, cr2, cr0, {0}
     d1c:	009c1506 	addseq	r1, ip, r6, lsl #10
     d20:	01010000 	mrseq	r0, (UNDEF: 1)
     d24:	00013a15 	andeq	r3, r1, r5, lsl sl
     d28:	114c0600 	cmpne	ip, r0, lsl #12
     d2c:	00000076 	andeq	r0, r0, r6, ror r0
     d30:	18160101 	ldmdane	r6, {r0, r8}
     d34:	09016105 	stmdbeq	r1, {r0, r2, r8, sp, lr}
     d38:	00000441 	andeq	r0, r0, r1, asr #8
     d3c:	0004c117 	andeq	ip, r4, r7, lsl r1
     d40:	01630500 	cmneq	r3, r0, lsl #10
     d44:	00008211 	andeq	r8, r0, r1, lsl r2
     d48:	00230200 	eoreq	r0, r3, r0, lsl #4
     d4c:	434d5018 	movtmi	r5, #53272	; 0xd018
     d50:	01640500 	cmneq	r4, r0, lsl #10
     d54:	00008211 	andeq	r8, r0, r1, lsl r2
     d58:	04230200 	strteq	r0, [r3], #-512	; 0xfffffe00
     d5c:	0006c117 	andeq	ip, r6, r7, lsl r1
     d60:	01650500 	cmneq	r5, r0, lsl #10
     d64:	00045111 	andeq	r5, r4, r1, lsl r1
     d68:	08230200 	stmdaeq	r3!, {r9}
     d6c:	00821100 	addeq	r1, r2, r0, lsl #2
     d70:	04510000 	ldrbeq	r0, [r1], #-0
     d74:	a1120000 	tstge	r2, r0
     d78:	03000000 	movweq	r0, #0
     d7c:	04410400 	strbeq	r0, [r1], #-1024	; 0xfffffc00
     d80:	f1190000 			; <UNDEFINED> instruction: 0xf1190000
     d84:	05000003 	streq	r0, [r0, #-3]
     d88:	06030166 	streq	r0, [r3], -r6, ror #2
     d8c:	16000004 	strne	r0, [r0], -r4
     d90:	01930538 	orrseq	r0, r3, r8, lsr r5
     d94:	00054d09 	andeq	r4, r5, r9, lsl #26
     d98:	52431800 	subpl	r1, r3, #0, 16
     d9c:	01950500 	orrseq	r0, r5, r0, lsl #10
     da0:	00008211 	andeq	r8, r0, r1, lsl r2
     da4:	00230200 	eoreq	r0, r3, r0, lsl #4
     da8:	00030a17 	andeq	r0, r3, r7, lsl sl
     dac:	01960500 	orrseq	r0, r6, r0, lsl #10
     db0:	00008211 	andeq	r8, r0, r1, lsl r2
     db4:	04230200 	strteq	r0, [r3], #-512	; 0xfffffe00
     db8:	0002c517 	andeq	ip, r2, r7, lsl r5
     dbc:	01970500 	orrseq	r0, r7, r0, lsl #10
     dc0:	00008211 	andeq	r8, r0, r1, lsl r2
     dc4:	08230200 	stmdaeq	r3!, {r9}
     dc8:	52494318 	subpl	r4, r9, #24, 6	; 0x60000000
     dcc:	01980500 	orrseq	r0, r8, r0, lsl #10
     dd0:	00008211 	andeq	r8, r0, r1, lsl r2
     dd4:	0c230200 	sfmeq	f0, 4, [r3], #-0
     dd8:	00020317 	andeq	r0, r2, r7, lsl r3
     ddc:	01990500 	orrseq	r0, r9, r0, lsl #10
     de0:	00008211 	andeq	r8, r0, r1, lsl r2
     de4:	10230200 	eorne	r0, r3, r0, lsl #4
     de8:	0000c017 	andeq	ip, r0, r7, lsl r0
     dec:	019a0500 	orrseq	r0, sl, r0, lsl #10
     df0:	00008211 	andeq	r8, r0, r1, lsl r2
     df4:	14230200 	strtne	r0, [r3], #-512	; 0xfffffe00
     df8:	00021017 	andeq	r1, r2, r7, lsl r0
     dfc:	019b0500 	orrseq	r0, fp, r0, lsl #10
     e00:	00008211 	andeq	r8, r0, r1, lsl r2
     e04:	18230200 	stmdane	r3!, {r9}
     e08:	0003d817 	andeq	sp, r3, r7, lsl r8
     e0c:	019c0500 	orrseq	r0, ip, r0, lsl #10
     e10:	00008211 	andeq	r8, r0, r1, lsl r2
     e14:	1c230200 	sfmne	f0, 4, [r3], #-0
     e18:	0002b617 	andeq	fp, r2, r7, lsl r6
     e1c:	019d0500 	orrseq	r0, sp, r0, lsl #10
     e20:	00008211 	andeq	r8, r0, r1, lsl r2
     e24:	20230200 	eorcs	r0, r3, r0, lsl #4
     e28:	0002eb17 	andeq	lr, r2, r7, lsl fp
     e2c:	019e0500 	orrseq	r0, lr, r0, lsl #10
     e30:	00008211 	andeq	r8, r0, r1, lsl r2
     e34:	24230200 	strtcs	r0, [r3], #-512	; 0xfffffe00
     e38:	0000d817 	andeq	sp, r0, r7, lsl r8
     e3c:	019f0500 	orrseq	r0, pc, r0, lsl #10
     e40:	00008211 	andeq	r8, r0, r1, lsl r2
     e44:	28230200 	stmdacs	r3!, {r9}
     e48:	0001ba17 	andeq	fp, r1, r7, lsl sl
     e4c:	01a00500 	lsleq	r0, r0, #10
     e50:	00008211 	andeq	r8, r0, r1, lsl r2
     e54:	2c230200 	sfmcs	f0, 4, [r3], #-0
     e58:	00019717 	andeq	r9, r1, r7, lsl r7
     e5c:	01a10500 			; <UNDEFINED> instruction: 0x01a10500
     e60:	00008211 	andeq	r8, r0, r1, lsl r2
     e64:	30230200 	eorcc	r0, r3, r0, lsl #4
     e68:	52534318 	subspl	r4, r3, #24, 6	; 0x60000000
     e6c:	01a20500 			; <UNDEFINED> instruction: 0x01a20500
     e70:	00008211 	andeq	r8, r0, r1, lsl r2
     e74:	34230200 	strtcc	r0, [r3], #-512	; 0xfffffe00
     e78:	01641900 	cmneq	r4, r0, lsl #18
     e7c:	a3050000 	movwge	r0, #20480	; 0x5000
     e80:	04630301 	strbteq	r0, [r3], #-769	; 0xfffffcff
     e84:	54160000 	ldrpl	r0, [r6], #-0
     e88:	09023705 	stmdbeq	r2, {r0, r2, r8, r9, sl, ip, sp}
     e8c:	00000705 	andeq	r0, r0, r5, lsl #14
     e90:	0005e717 	andeq	lr, r5, r7, lsl r7
     e94:	02390500 	eorseq	r0, r9, #0, 10
     e98:	00006a11 	andeq	r6, r0, r1, lsl sl
     e9c:	00230200 	eoreq	r0, r3, r0, lsl #4
     ea0:	0007d117 	andeq	sp, r7, r7, lsl r1
     ea4:	023a0500 	eorseq	r0, sl, #0, 10
     ea8:	00006a11 	andeq	r6, r0, r1, lsl sl
     eac:	02230200 	eoreq	r0, r3, #0, 4
     eb0:	00063817 	andeq	r3, r6, r7, lsl r8
     eb4:	023b0500 	eorseq	r0, fp, #0, 10
     eb8:	00006a11 	andeq	r6, r0, r1, lsl sl
     ebc:	04230200 	strteq	r0, [r3], #-512	; 0xfffffe00
     ec0:	0007db17 	andeq	sp, r7, r7, lsl fp
     ec4:	023c0500 	eorseq	r0, ip, #0, 10
     ec8:	00006a11 	andeq	r6, r0, r1, lsl sl
     ecc:	06230200 	strteq	r0, [r3], -r0, lsl #4
     ed0:	0006c817 	andeq	ip, r6, r7, lsl r8
     ed4:	023d0500 	eorseq	r0, sp, #0, 10
     ed8:	00006a11 	andeq	r6, r0, r1, lsl sl
     edc:	08230200 	stmdaeq	r3!, {r9}
     ee0:	0007e517 	andeq	lr, r7, r7, lsl r5
     ee4:	023e0500 	eorseq	r0, lr, #0, 10
     ee8:	00006a11 	andeq	r6, r0, r1, lsl sl
     eec:	0a230200 	beq	8c16f4 <_Min_Stack_Size+0x8c12f4>
     ef0:	0006f717 	andeq	pc, r6, r7, lsl r7	; <UNPREDICTABLE>
     ef4:	023f0500 	eorseq	r0, pc, #0, 10
     ef8:	00006a11 	andeq	r6, r0, r1, lsl sl
     efc:	0c230200 	sfmeq	f0, 4, [r3], #-0
     f00:	0007ef17 	andeq	lr, r7, r7, lsl pc
     f04:	02400500 	subeq	r0, r0, #0, 10
     f08:	00006a11 	andeq	r6, r0, r1, lsl sl
     f0c:	0e230200 	cdpeq	2, 2, cr0, cr3, cr0, {0}
     f10:	00097e17 	andeq	r7, r9, r7, lsl lr
     f14:	02410500 	subeq	r0, r1, #0, 10
     f18:	00006a11 	andeq	r6, r0, r1, lsl sl
     f1c:	10230200 	eorne	r0, r3, r0, lsl #4
     f20:	0007f917 	andeq	pc, r7, r7, lsl r9	; <UNPREDICTABLE>
     f24:	02420500 	subeq	r0, r2, #0, 10
     f28:	00006a11 	andeq	r6, r0, r1, lsl sl
     f2c:	12230200 	eorne	r0, r3, #0, 4
     f30:	0007cc17 	andeq	ip, r7, r7, lsl ip
     f34:	02430500 	subeq	r0, r3, #0, 10
     f38:	00006a11 	andeq	r6, r0, r1, lsl sl
     f3c:	14230200 	strtne	r0, [r3], #-512	; 0xfffffe00
     f40:	00080317 	andeq	r0, r8, r7, lsl r3
     f44:	02440500 	subeq	r0, r4, #0, 10
     f48:	00006a11 	andeq	r6, r0, r1, lsl sl
     f4c:	16230200 	strtne	r0, [r3], -r0, lsl #4
     f50:	00087017 	andeq	r7, r8, r7, lsl r0
     f54:	02450500 	subeq	r0, r5, #0, 10
     f58:	00006a11 	andeq	r6, r0, r1, lsl sl
     f5c:	18230200 	stmdane	r3!, {r9}
     f60:	00080d17 	andeq	r0, r8, r7, lsl sp
     f64:	02460500 	subeq	r0, r6, #0, 10
     f68:	00006a11 	andeq	r6, r0, r1, lsl sl
     f6c:	1a230200 	bne	8c1774 <_Min_Stack_Size+0x8c1374>
     f70:	0008ec17 	andeq	lr, r8, r7, lsl ip
     f74:	02470500 	subeq	r0, r7, #0, 10
     f78:	00006a11 	andeq	r6, r0, r1, lsl sl
     f7c:	1c230200 	sfmne	f0, 4, [r3], #-0
     f80:	00025f17 	andeq	r5, r2, r7, lsl pc
     f84:	02480500 	subeq	r0, r8, #0, 10
     f88:	00071511 	andeq	r1, r7, r1, lsl r5
     f8c:	1e230200 	cdpne	2, 2, cr0, cr3, cr0, {0}
     f90:	00089817 	andeq	r9, r8, r7, lsl r8
     f94:	02490500 	subeq	r0, r9, #0, 10
     f98:	00006a11 	andeq	r6, r0, r1, lsl sl
     f9c:	40230200 	eormi	r0, r3, r0, lsl #4
     fa0:	000a2317 	andeq	r2, sl, r7, lsl r3
     fa4:	024a0500 	subeq	r0, sl, #0, 10
     fa8:	00006a11 	andeq	r6, r0, r1, lsl sl
     fac:	42230200 	eormi	r0, r3, #0, 4
     fb0:	0004f817 	andeq	pc, r4, r7, lsl r8	; <UNPREDICTABLE>
     fb4:	024b0500 	subeq	r0, fp, #0, 10
     fb8:	00006a11 	andeq	r6, r0, r1, lsl sl
     fbc:	44230200 	strtmi	r0, [r3], #-512	; 0xfffffe00
     fc0:	00082817 	andeq	r2, r8, r7, lsl r8
     fc4:	024c0500 	subeq	r0, ip, #0, 10
     fc8:	00006a11 	andeq	r6, r0, r1, lsl sl
     fcc:	46230200 	strtmi	r0, [r3], -r0, lsl #4
     fd0:	524e4618 	subpl	r4, lr, #24, 12	; 0x1800000
     fd4:	024d0500 	subeq	r0, sp, #0, 10
     fd8:	00006a11 	andeq	r6, r0, r1, lsl sl
     fdc:	48230200 	stmdami	r3!, {r9}
     fe0:	00083217 	andeq	r3, r8, r7, lsl r2
     fe4:	024e0500 	subeq	r0, lr, #0, 10
     fe8:	00006a11 	andeq	r6, r0, r1, lsl sl
     fec:	4a230200 	bmi	8c17f4 <_Min_Stack_Size+0x8c13f4>
     ff0:	00058a17 	andeq	r8, r5, r7, lsl sl
     ff4:	024f0500 	subeq	r0, pc, #0, 10
     ff8:	00006a11 	andeq	r6, r0, r1, lsl sl
     ffc:	4c230200 	sfmmi	f0, 4, [r3], #-0
    1000:	000a3917 	andeq	r3, sl, r7, lsl r9
    1004:	02500500 	subseq	r0, r0, #0, 10
    1008:	00006a11 	andeq	r6, r0, r1, lsl sl
    100c:	4e230200 	cdpmi	2, 2, cr0, cr3, cr0, {0}
    1010:	0009b417 	andeq	fp, r9, r7, lsl r4
    1014:	02510500 	subseq	r0, r1, #0, 10
    1018:	00006a11 	andeq	r6, r0, r1, lsl sl
    101c:	50230200 	eorpl	r0, r3, r0, lsl #4
    1020:	000a4317 	andeq	r4, sl, r7, lsl r3
    1024:	02520500 	subseq	r0, r2, #0, 10
    1028:	00006a11 	andeq	r6, r0, r1, lsl sl
    102c:	52230200 	eorpl	r0, r3, #0, 4
    1030:	006a1100 	rsbeq	r1, sl, r0, lsl #2
    1034:	07150000 	ldreq	r0, [r5, -r0]
    1038:	a1120000 	tstge	r2, r0
    103c:	10000000 	andne	r0, r0, r0
    1040:	07050400 	streq	r0, [r5, -r0, lsl #8]
    1044:	7e190000 	cdpvc	0, 1, cr0, cr9, cr0, {0}
    1048:	05000005 	streq	r0, [r0, #-5]
    104c:	5a030253 	bpl	c19a0 <_Min_Stack_Size+0xc15a0>
    1050:	0a000005 	beq	106c <_Min_Stack_Size+0xc6c>
    1054:	07210104 	streq	r0, [r1, -r4, lsl #2]!
    1058:	00000767 	andeq	r0, r0, r7, ror #14
    105c:	00072b1a 	andeq	r2, r7, sl, lsl fp
    1060:	12220100 	eorne	r0, r2, #0, 2
    1064:	00000076 	andeq	r0, r0, r6, ror r0
    1068:	02160a04 	andseq	r0, r6, #4, 20	; 0x4000
    106c:	0b1a0023 	bleq	681100 <_Min_Stack_Size+0x680d00>
    1070:	01000009 	tsteq	r0, r9
    1074:	00761223 	rsbseq	r1, r6, r3, lsr #4
    1078:	05040000 	streq	r0, [r4, #-0]
    107c:	00230211 	eoreq	r0, r3, r1, lsl r2
    1080:	0007a31a 	andeq	sl, r7, sl, lsl r3
    1084:	12240100 	eorne	r0, r4, #0, 2
    1088:	00000076 	andeq	r0, r0, r6, ror r0
    108c:	02100104 	andseq	r0, r0, #4, 2
    1090:	1b000023 	blne	1124 <_Min_Stack_Size+0xd24>
    1094:	0e1f0104 	mufeqe	f0, f7, f4
    1098:	00000782 	andeq	r0, r0, r2, lsl #15
    109c:	0007271c 	andeq	r2, r7, ip, lsl r7
    10a0:	10200100 	eorne	r0, r0, r0, lsl #2
    10a4:	00000076 	andeq	r0, r0, r6, ror r0
    10a8:	0007271d 	andeq	r2, r7, sp, lsl r7
    10ac:	67040000 	strvs	r0, [r4, -r0]
    10b0:	0a000007 	beq	10d4 <_Min_Stack_Size+0xcd4>
    10b4:	072a0104 	streq	r0, [sl, -r4, lsl #2]!
    10b8:	000007c7 	andeq	r0, r0, r7, asr #15
    10bc:	0009f31a 	andeq	pc, r9, sl, lsl r3	; <UNPREDICTABLE>
    10c0:	122b0100 	eorne	r0, fp, #0, 2
    10c4:	00000076 	andeq	r0, r0, r6, ror r0
    10c8:	02160a04 	andseq	r0, r6, #4, 20	; 0x4000
    10cc:	841a0023 	ldrhi	r0, [sl], #-35	; 0xffffffdd
    10d0:	01000007 	tsteq	r0, r7
    10d4:	0076122c 	rsbseq	r1, r6, ip, lsr #4
    10d8:	05040000 	streq	r0, [r4, #-0]
    10dc:	00230211 	eoreq	r0, r3, r1, lsl r2
    10e0:	0009471a 	andeq	r4, r9, sl, lsl r7
    10e4:	122d0100 	eorne	r0, sp, #0, 2
    10e8:	00000076 	andeq	r0, r0, r6, ror r0
    10ec:	02100104 	andseq	r0, r0, #4, 2
    10f0:	1b000023 	blne	1184 <_Min_Stack_Size+0xd84>
    10f4:	0e280104 	sufeqe	f0, f0, f4
    10f8:	000007e2 	andeq	r0, r0, r2, ror #15
    10fc:	0009ef1c 	andeq	lr, r9, ip, lsl pc
    1100:	10290100 	eorne	r0, r9, r0, lsl #2
    1104:	00000076 	andeq	r0, r0, r6, ror r0
    1108:	0007871d 	andeq	r8, r7, sp, lsl r7
    110c:	c7040000 	strgt	r0, [r4, -r0]
    1110:	0a000007 	beq	1134 <_Min_Stack_Size+0xd34>
    1114:	091d0110 	ldmdbeq	sp, {r4, r8}
    1118:	0000081f 	andeq	r0, r0, pc, lsl r8
    111c:	0009de0b 	andeq	sp, r9, fp, lsl #28
    1120:	171e0100 	ldrne	r0, [lr, -r0, lsl #2]
    1124:	00000082 	andeq	r0, r0, r2, lsl #1
    1128:	1e002302 	cdpne	3, 0, cr2, cr0, cr2, {0}
    112c:	00000782 	andeq	r0, r0, r2, lsl #15
    1130:	0b042302 	bleq	109d40 <_Min_Stack_Size+0x109940>
    1134:	000008ff 	strdeq	r0, [r0], -pc	; <UNPREDICTABLE>
    1138:	82172701 	andshi	r2, r7, #262144	; 0x40000
    113c:	02000000 	andeq	r0, r0, #0
    1140:	e21e0823 	ands	r0, lr, #2293760	; 0x230000
    1144:	02000007 	andeq	r0, r0, #7
    1148:	03000c23 	movweq	r0, #3107	; 0xc23
    114c:	00000647 	andeq	r0, r0, r7, asr #12
    1150:	e7023001 	str	r3, [r2, -r1]
    1154:	11000007 	tstne	r0, r7
    1158:	000000a8 	andeq	r0, r0, r8, lsr #1
    115c:	0000083b 	andeq	r0, r0, fp, lsr r8
    1160:	0000a112 	andeq	sl, r0, r2, lsl r1
    1164:	1f000700 	svcne	0x00000700
    1168:	00000954 	andeq	r0, r0, r4, asr r9
    116c:	2b0a3201 	blcs	28d978 <_Min_Stack_Size+0x28d578>
    1170:	01000008 	tsteq	r0, r8
    1174:	00240305 	eoreq	r0, r4, r5, lsl #6
    1178:	031f2000 	tsteq	pc, #0
    117c:	01000006 	tsteq	r0, r6
    1180:	082b0a33 	stmdaeq	fp!, {r0, r1, r4, r5, r9, fp}
    1184:	05010000 	streq	r0, [r1, #-0]
    1188:	00004403 	andeq	r4, r0, r3, lsl #8
    118c:	04702020 	ldrbteq	r2, [r0], #-32	; 0xffffffe0
    1190:	35010000 	strcc	r0, [r1, #-0]
    1194:	00011b16 	andeq	r1, r1, r6, lsl fp
    1198:	14030500 	strne	r0, [r3], #-1280	; 0xfffffb00
    119c:	20200000 	eorcs	r0, r0, r0
    11a0:	000005fa 	strdeq	r0, [r0], -sl
    11a4:	41104701 	tstmi	r0, r1, lsl #14
    11a8:	05000000 	streq	r0, [r0, #-0]
    11ac:	00001003 	andeq	r1, r0, r3
    11b0:	060e2020 	streq	r2, [lr], -r0, lsr #32
    11b4:	48010000 	stmdami	r1, {}	; <UNPREDICTABLE>
    11b8:	00089717 	andeq	r9, r8, r7, lsl r7
    11bc:	0c030500 	cfstr32eq	mvfx0, [r3], {-0}
    11c0:	07200000 	streq	r0, [r0, -r0]!
    11c4:	00005204 	andeq	r5, r0, r4, lsl #4
    11c8:	04ee2000 	strbteq	r2, [lr], #0
    11cc:	49010000 	stmdbmi	r1, {}	; <UNPREDICTABLE>
    11d0:	00005e11 	andeq	r5, r0, r1, lsl lr
    11d4:	12030500 	andne	r0, r3, #0, 10
    11d8:	20200000 	eorcs	r0, r0, r0
    11dc:	000005d9 	ldrdeq	r0, [r0], -r9
    11e0:	41106401 	tstmi	r0, r1, lsl #8
    11e4:	05000000 	streq	r0, [r0, #-0]
    11e8:	00001e03 	andeq	r1, r0, r3, lsl #28
    11ec:	04ac2020 	strteq	r2, [ip], #32
    11f0:	aa010000 	bge	411f8 <_Min_Stack_Size+0x40df8>
    11f4:	00005e11 	andeq	r5, r0, r1, lsl lr
    11f8:	00030500 	andeq	r0, r3, r0, lsl #10
    11fc:	16200000 	strtne	r0, [r0], -r0
    1200:	013b0104 	teqeq	fp, r4, lsl #2
    1204:	00091705 	andeq	r1, r9, r5, lsl #14
    1208:	09f32100 	ldmibeq	r3!, {r8, sp}^
    120c:	3c010000 	stccc	0, cr0, [r1], {-0}
    1210:	00761001 	rsbseq	r1, r6, r1
    1214:	0a040000 	beq	10121c <_Min_Stack_Size+0x100e1c>
    1218:	00230216 	eoreq	r0, r3, r6, lsl r2
    121c:	00078421 	andeq	r8, r7, r1, lsr #8
    1220:	013d0100 	teqeq	sp, r0, lsl #2
    1224:	00007610 	andeq	r7, r0, r0, lsl r6
    1228:	11050400 	tstne	r5, r0, lsl #8
    122c:	21002302 	tstcs	r0, r2, lsl #6
    1230:	00000947 	andeq	r0, r0, r7, asr #18
    1234:	10013e01 	andne	r3, r1, r1, lsl #28
    1238:	00000076 	andeq	r0, r0, r6, ror r0
    123c:	02100104 	andseq	r0, r0, #4, 2
    1240:	22000023 	andcs	r0, r0, #35	; 0x23
    1244:	01390104 	teqeq	r9, r4, lsl #2
    1248:	0009340c 	andeq	r3, r9, ip, lsl #8
    124c:	04f22300 	ldrbteq	r2, [r2], #768	; 0x300
    1250:	3a010000 	bcc	41258 <_Min_Stack_Size+0x40e58>
    1254:	00760e01 	rsbseq	r0, r6, r1, lsl #28
    1258:	d31d0000 	tstle	sp, #0
    125c:	00000008 	andeq	r0, r0, r8
    1260:	00091704 	andeq	r1, r9, r4, lsl #14
    1264:	01081600 	tsteq	r8, r0, lsl #12
    1268:	5c090137 	stfpls	f0, [r9], {55}	; 0x37
    126c:	17000009 	strne	r0, [r0, -r9]
    1270:	00000906 	andeq	r0, r0, r6, lsl #18
    1274:	15013801 	strne	r3, [r1, #-2049]	; 0xfffff7ff
    1278:	00000082 	andeq	r0, r0, r2, lsl #1
    127c:	1e002302 	cdpne	3, 0, cr2, cr0, cr2, {0}
    1280:	00000934 	andeq	r0, r0, r4, lsr r9
    1284:	00042302 	andeq	r2, r4, r2, lsl #6
    1288:	00045619 	andeq	r5, r4, r9, lsl r6
    128c:	01410100 	mrseq	r0, (UNDEF: 81)
    1290:	00093902 	andeq	r3, r9, r2, lsl #18
    1294:	88012400 	stmdahi	r1, {sl, sp}
    1298:	01000006 	tsteq	r0, r6
    129c:	01050151 	tsteq	r5, r1, asr r1
    12a0:	00000095 	muleq	r0, r5, r0
    12a4:	08000800 	stmdaeq	r0, {fp}
    12a8:	0800085a 	stmdaeq	r0, {r1, r3, r4, r6, fp}
    12ac:	0000044f 	andeq	r0, r0, pc, asr #8
    12b0:	000a1d01 	andeq	r1, sl, r1, lsl #26
    12b4:	64692500 	strbtvs	r2, [r9], #-1280	; 0xfffffb00
    12b8:	51010078 	tstpl	r1, r8, ror r0
    12bc:	00411a01 	subeq	r1, r1, r1, lsl #20
    12c0:	04730000 	ldrbteq	r0, [r3], #-0
    12c4:	046f0000 	strbteq	r0, [pc], #-0	; 12cc <_Min_Stack_Size+0xecc>
    12c8:	62250000 	eorvs	r0, r5, #0
    12cc:	01006675 	tsteq	r0, r5, ror r6
    12d0:	1d290151 	stfnes	f0, [r9, #-324]!	; 0xfffffebc
    12d4:	9a00000a 	bls	1304 <_Min_Stack_Size+0xf04>
    12d8:	94000004 	strls	r0, [r0], #-4
    12dc:	26000004 	strcs	r0, [r0], -r4
    12e0:	000005b4 			; <UNDEFINED> instruction: 0x000005b4
    12e4:	10015201 	andne	r5, r1, r1, lsl #4
    12e8:	00000a23 	andeq	r0, r0, r3, lsr #20
    12ec:	000004cc 	andeq	r0, r0, ip, asr #9
    12f0:	000004c8 	andeq	r0, r0, r8, asr #9
    12f4:	007a7327 	rsbseq	r7, sl, r7, lsr #6
    12f8:	07015301 	streq	r5, [r1, -r1, lsl #6]
    12fc:	00000095 	muleq	r0, r5, r0
    1300:	000004f6 	strdeq	r0, [r0], -r6
    1304:	000004f4 	strdeq	r0, [r0], -r4
    1308:	01006e27 	tsteq	r0, r7, lsr #28
    130c:	95070155 	strls	r0, [r7, #-341]	; 0xfffffeab
    1310:	0f000000 	svceq	0x00000000
    1314:	09000005 	stmdbeq	r0, {r0, r2}
    1318:	27000005 	strcs	r0, [r0, -r5]
    131c:	01006e69 	tsteq	r0, r9, ror #28
    1320:	290d0156 	stmdbcs	sp, {r1, r2, r4, r6, r8}
    1324:	4600000a 	strmi	r0, [r0], -sl
    1328:	40000005 	andmi	r0, r0, r5
    132c:	28000005 	stmdacs	r0, {r0, r2}
    1330:	00000088 	andeq	r0, r0, r8, lsl #1
    1334:	01006927 	tsteq	r0, r7, lsr #18
    1338:	950b0157 	strls	r0, [fp, #-343]	; 0xfffffea9
    133c:	73000000 	movwvc	r0, #0
    1340:	71000005 	tstvc	r0, r5
    1344:	00000005 	andeq	r0, r0, r5
    1348:	5e040700 	cdppl	7, 0, cr0, cr4, cr0, {0}
    134c:	07000000 	streq	r0, [r0, -r0]
    1350:	00095c04 	andeq	r5, r9, r4, lsl #24
    1354:	76040700 	strvc	r0, [r4], -r0, lsl #14
    1358:	29000000 	stmdbcs	r0, {}	; <UNPREDICTABLE>
    135c:	00053a01 	andeq	r3, r5, r1, lsl #20
    1360:	01430100 	mrseq	r0, (UNDEF: 83)
    1364:	07500106 	ldrbeq	r0, [r0, -r6, lsl #2]
    1368:	07a40800 	streq	r0, [r4, r0, lsl #16]!
    136c:	05870800 	streq	r0, [r7, #2048]	; 0x800
    1370:	eb010000 	bl	41378 <_Min_Stack_Size+0x40f78>
    1374:	2500000a 	strcs	r0, [r0, #-10]
    1378:	00786469 	rsbseq	r6, r8, r9, ror #8
    137c:	1c014301 	stcne	3, cr4, [r1], {1}
    1380:	00000041 	andeq	r0, r0, r1, asr #32
    1384:	000005ad 	andeq	r0, r0, sp, lsr #11
    1388:	000005a7 	andeq	r0, r0, r7, lsr #11
    138c:	6675622a 	ldrbtvs	r6, [r5], -sl, lsr #4
    1390:	01430100 	mrseq	r0, (UNDEF: 83)
    1394:	00089730 	andeq	r9, r8, r0, lsr r7
    1398:	2b510100 	blcs	14417a0 <_Min_Stack_Size+0x14413a0>
    139c:	000007c7 	andeq	r0, r0, r7, asr #15
    13a0:	3e014301 	cdpcc	3, 0, cr4, cr1, cr1, {0}
    13a4:	0000005e 	andeq	r0, r0, lr, asr r0
    13a8:	b4265201 	strtlt	r5, [r6], #-513	; 0xfffffdff
    13ac:	01000005 	tsteq	r0, r5
    13b0:	23100144 	tstcs	r0, #68, 2
    13b4:	db00000a 	blle	13e4 <_Min_Stack_Size+0xfe4>
    13b8:	d9000005 	stmdble	r0, {r0, r2}
    13bc:	27000005 	strcs	r0, [r0, -r5]
    13c0:	0100324e 	tsteq	r0, lr, asr #4
    13c4:	5e0c0145 	adfplem	f0, f4, f5
    13c8:	f0000000 			; <UNDEFINED> instruction: 0xf0000000
    13cc:	ee000005 	cdp	0, 0, cr0, cr0, cr5, {0}
    13d0:	26000005 	strcs	r0, [r0], -r5
    13d4:	00000400 	andeq	r0, r0, r0, lsl #8
    13d8:	0d014701 	stceq	7, cr4, [r1, #-4]
    13dc:	00000a1d 	andeq	r0, r0, sp, lsl sl
    13e0:	00000605 	andeq	r0, r0, r5, lsl #12
    13e4:	00000603 	andeq	r0, r0, r3, lsl #12
    13e8:	74756f27 	ldrbtvc	r6, [r5], #-3879	; 0xfffff0d9
    13ec:	01480100 	mrseq	r0, (UNDEF: 88)
    13f0:	000a290d 	andeq	r2, sl, sp, lsl #18
    13f4:	00061e00 	andeq	r1, r6, r0, lsl #28
    13f8:	00061800 	andeq	r1, r6, r0, lsl #16
    13fc:	00502800 	subseq	r2, r0, r0, lsl #16
    1400:	69270000 	stmdbvs	r7!, {}	; <UNPREDICTABLE>
    1404:	01490100 	mrseq	r0, (UNDEF: 89)
    1408:	00005e10 	andeq	r5, r0, r0, lsl lr
    140c:	00065900 	andeq	r5, r6, r0, lsl #18
    1410:	00065500 	andeq	r5, r6, r0, lsl #10
    1414:	2c000000 	stccs	0, cr0, [r0], {-0}
    1418:	00059001 	andeq	r9, r5, r1
    141c:	010d0100 	mrseq	r0, (UNDEF: 29)
    1420:	00062806 	andeq	r2, r6, r6, lsl #16
    1424:	00075008 	andeq	r5, r7, r8
    1428:	00067908 	andeq	r7, r6, r8, lsl #18
    142c:	0bd10100 	bleq	ff441834 <BootRAM+0xe3b1fd5>
    1430:	302d0000 	eorcc	r0, sp, r0
    1434:	23000000 	movwcs	r0, #0
    1438:	2700000b 	strcs	r0, [r0, -fp]
    143c:	13010069 	movwne	r0, #4201	; 0x1069
    1440:	00411101 	subeq	r1, r1, r1, lsl #2
    1444:	069d0000 	ldreq	r0, [sp], r0
    1448:	06990000 	ldreq	r0, [r9], r0
    144c:	2e000000 	cdpcs	0, 0, cr0, cr0, cr0, {0}
    1450:	08000698 	stmdaeq	r0, {r3, r4, r7, r9, sl}
    1454:	080006ec 	stmdaeq	r0, {r2, r3, r5, r6, r7, r9, sl}
    1458:	00000b65 	andeq	r0, r0, r5, ror #22
    145c:	0008ca26 	andeq	ip, r8, r6, lsr #20
    1460:	011f0100 	tsteq	pc, r0, lsl #2
    1464:	0000410d 	andeq	r4, r0, sp, lsl #2
    1468:	0006c200 	andeq	ip, r6, r0, lsl #4
    146c:	0006c000 	andeq	ip, r6, r0
    1470:	06ba2f00 	ldrteq	r2, [sl], r0, lsl #30
    1474:	0b550800 	bleq	154347c <_Min_Stack_Size+0x154307c>
    1478:	01300000 	teqeq	r0, r0
    147c:	00750250 	rsbseq	r0, r5, r0, asr r2
    1480:	06dc3100 	ldrbeq	r3, [ip], r0, lsl #2
    1484:	01300800 	teqeq	r0, r0, lsl #16
    1488:	00750550 	rsbseq	r0, r5, r0, asr r5
    148c:	00218008 	eoreq	r8, r1, r8
    1490:	06383200 	ldrteq	r3, [r8], -r0, lsl #4
    1494:	11c00800 	bicne	r0, r0, r0, lsl #16
    1498:	7a330000 	bvc	cc14a0 <_Min_Stack_Size+0xcc10a0>
    149c:	5f080006 	svcpl	0x00080006
    14a0:	9600000c 	strls	r0, [r0], -ip
    14a4:	3000000b 	andcc	r0, r0, fp
    14a8:	74025001 	strvc	r5, [r2], #-1
    14ac:	51013000 	mrspl	r3, (UNDEF: 1)
    14b0:	30007402 	andcc	r7, r0, r2, lsl #8
    14b4:	38015201 	stmdacc	r1, {r0, r9, ip, lr}
    14b8:	05530130 	ldrbeq	r0, [r3, #-304]	; 0xfffffed0
    14bc:	00085b03 	andeq	r5, r8, r3, lsl #22
    14c0:	86330008 	ldrthi	r0, [r3], -r8
    14c4:	5f080006 	svcpl	0x00080006
    14c8:	be00000c 	cdplt	0, 0, cr0, cr0, cr12, {0}
    14cc:	3000000b 	andcc	r0, r0, fp
    14d0:	09025001 	stmdbeq	r2, {r0, ip, lr}
    14d4:	51013080 	smlabbpl	r1, r0, r0, r3
    14d8:	30007402 	andcc	r7, r0, r2, lsl #8
    14dc:	38015201 	stmdacc	r1, {r0, r9, ip, lr}
    14e0:	05530130 	ldrbeq	r0, [r3, #-304]	; 0xfffffed0
    14e4:	0007a503 	andeq	sl, r7, r3, lsl #10
    14e8:	8e320008 	cdphi	0, 3, cr0, cr2, cr8, {0}
    14ec:	c9080006 	stmdbgt	r8, {r1, r2}
    14f0:	32000011 	andcc	r0, r0, #17
    14f4:	080006fa 	stmdaeq	r0, {r1, r3, r4, r5, r6, r7, r9, sl}
    14f8:	000011c0 	andeq	r1, r0, r0, asr #3
    14fc:	5e013400 	cfcpyspl	mvf3, mvf1
    1500:	01000009 	tsteq	r0, r9
    1504:	ec0106da 	stc	6, cr0, [r1], {218}	; 0xda
    1508:	28080004 	stmdacs	r8, {r2}
    150c:	d5080006 	strle	r0, [r8, #-6]
    1510:	01000006 	tsteq	r0, r6
    1514:	00000c5f 	andeq	r0, r0, pc, asr ip
    1518:	0008ca35 	andeq	ip, r8, r5, lsr sl
    151c:	21da0100 	bicscs	r0, sl, r0, lsl #2
    1520:	00000041 	andeq	r0, r0, r1, asr #32
    1524:	000006f9 	strdeq	r0, [r0], -r9
    1528:	000006f5 	strdeq	r0, [r0], -r5
    152c:	0009c435 	andeq	ip, r9, r5, lsr r4
    1530:	30da0100 	sbcscc	r0, sl, r0, lsl #2
    1534:	00000041 	andeq	r0, r0, r1, asr #32
    1538:	00000727 	andeq	r0, r0, r7, lsr #14
    153c:	00000717 	andeq	r0, r0, r7, lsl r7
    1540:	0007c735 	andeq	ip, r7, r5, lsr r7
    1544:	42da0100 	sbcsmi	r0, sl, #0, 2
    1548:	0000005e 	andeq	r0, r0, lr, asr r0
    154c:	00000799 	muleq	r0, r9, r7
    1550:	00000793 	muleq	r0, r3, r7
    1554:	000c3e36 	andeq	r3, ip, r6, lsr lr
    1558:	51da0100 	bicspl	r0, sl, r0, lsl #2
    155c:	000000a8 	andeq	r0, r0, r8, lsr #1
    1560:	d7375301 	ldrle	r5, [r7, -r1, lsl #6]!
    1564:	01000009 	tsteq	r0, r9
    1568:	00410bdb 	ldrdeq	r0, [r1], #-187	; 0xffffff45
    156c:	07cd0000 	strbeq	r0, [sp, r0]
    1570:	07c50000 	strbeq	r0, [r5, r0]
    1574:	62380000 	eorsvs	r0, r8, #0
    1578:	01006675 	tsteq	r0, r5, ror r6
    157c:	005e0ce1 	subseq	r0, lr, r1, ror #25
    1580:	08290000 	stmdaeq	r9!, {}	; <UNPREDICTABLE>
    1584:	08170000 	ldmdaeq	r7, {}	; <UNPREDICTABLE>
    1588:	34000000 	strcc	r0, [r0], #-0
    158c:	00084801 	andeq	r4, r8, r1, lsl #16
    1590:	06ab0100 	strteq	r0, [fp], r0, lsl #2
    1594:	0003e001 	andeq	lr, r3, r1
    1598:	0004ec08 	andeq	lr, r4, r8, lsl #24
    159c:	0008bc08 	andeq	fp, r8, r8, lsl #24
    15a0:	0cf30100 	ldfeqe	f0, [r3]
    15a4:	ca350000 	bgt	d415ac <_Min_Stack_Size+0xd411ac>
    15a8:	01000008 	tsteq	r0, r8
    15ac:	00411aab 	subeq	r1, r1, fp, lsr #21
    15b0:	08e00000 	stmiaeq	r0!, {}^	; <UNPREDICTABLE>
    15b4:	08dc0000 	ldmeq	ip, {}^	; <UNPREDICTABLE>
    15b8:	c4350000 	ldrtgt	r0, [r5], #-0
    15bc:	01000009 	tsteq	r0, r9
    15c0:	004129ab 	subeq	r2, r1, fp, lsr #19
    15c4:	09060000 	stmdbeq	r6, {}	; <UNPREDICTABLE>
    15c8:	08fe0000 	ldmeq	lr!, {}^	; <UNPREDICTABLE>
    15cc:	c7350000 	ldrgt	r0, [r5, -r0]!
    15d0:	01000007 	tsteq	r0, r7
    15d4:	005e3bab 	subseq	r3, lr, fp, lsr #23
    15d8:	09460000 	stmdbeq	r6, {}^	; <UNPREDICTABLE>
    15dc:	09400000 	stmdbeq	r0, {}^	; <UNPREDICTABLE>
    15e0:	3e350000 	cdpcc	0, 3, cr0, cr5, cr0, {0}
    15e4:	0100000c 	tsteq	r0, ip
    15e8:	00a84aab 	adceq	r4, r8, fp, lsr #21
    15ec:	097c0000 	ldmdbeq	ip!, {}^	; <UNPREDICTABLE>
    15f0:	09720000 	ldmdbeq	r2!, {}^	; <UNPREDICTABLE>
    15f4:	d7370000 	ldrle	r0, [r7, -r0]!
    15f8:	01000009 	tsteq	r0, r9
    15fc:	00410bac 	subeq	r0, r1, ip, lsr #23
    1600:	09d40000 	ldmibeq	r4, {}^	; <UNPREDICTABLE>
    1604:	09ca0000 	stmibeq	sl, {}^	; <UNPREDICTABLE>
    1608:	62380000 	eorsvs	r0, r8, #0
    160c:	01006675 	tsteq	r0, r5, ror r6
    1610:	005e0cb5 	ldrheq	r0, [lr], #-197	; 0xffffff3b
    1614:	0a3b0000 	beq	ec161c <_Min_Stack_Size+0xec121c>
    1618:	0a2d0000 	beq	b41620 <_Min_Stack_Size+0xb41220>
    161c:	39000000 	stmdbcc	r0, {}	; <UNPREDICTABLE>
    1620:	000008e4 	andeq	r0, r0, r4, ror #17
    1624:	010d6601 	tsteq	sp, r1, lsl #12
    1628:	0800085a 	stmdaeq	r0, {r1, r3, r4, r6, fp}
    162c:	08000974 	stmdaeq	r0, {r2, r4, r5, r6, r8, fp}
    1630:	00000ac2 	andeq	r0, r0, r2, asr #21
    1634:	000fe401 	andeq	lr, pc, r1, lsl #8
    1638:	08ca3500 	stmiaeq	sl, {r8, sl, ip, sp}^
    163c:	66010000 	strvs	r0, [r1], -r0
    1640:	0000411d 	andeq	r4, r0, sp, lsl r1
    1644:	000b0200 	andeq	r0, fp, r0, lsl #4
    1648:	000afa00 	andeq	pc, sl, r0, lsl #20
    164c:	04882000 	streq	r2, [r8], #0
    1650:	67010000 	strvs	r0, [r1, -r0]
    1654:	00005e13 	andeq	r5, r0, r3, lsl lr
    1658:	1c030500 	cfstr32ne	mvfx0, [r3], {-0}
    165c:	37200000 	strcc	r0, [r0, -r0]!
    1660:	000009fc 	strdeq	r0, [r0], -ip
    1664:	5e0c6801 	cdppl	8, 0, cr6, cr12, cr1, {0}
    1668:	44000000 	strmi	r0, [r0], #-0
    166c:	3c00000b 	stccc	0, cr0, [r0], {11}
    1670:	3700000b 	strcc	r0, [r0, -fp]
    1674:	00000077 	andeq	r0, r0, r7, ror r0
    1678:	410b6901 	tstmi	fp, r1, lsl #18
    167c:	7a000000 	bvc	1684 <_Min_Stack_Size+0x1284>
    1680:	7800000b 	stmdavc	r0, {r0, r1, r3}
    1684:	3800000b 	stmdacc	r0, {r0, r1, r3}
    1688:	00716572 	rsbseq	r6, r1, r2, ror r5
    168c:	410b7901 	tstmi	fp, r1, lsl #18
    1690:	a3000000 	movwge	r0, #0
    1694:	9700000b 	strls	r0, [r0, -fp]
    1698:	2d00000b 	stccs	0, cr0, [r0, #-44]	; 0xffffffd4
    169c:	000000b8 	strheq	r0, [r0], -r8
    16a0:	00000eba 			; <UNDEFINED> instruction: 0x00000eba
    16a4:	000d4720 	andeq	r4, sp, r0, lsr #14
    16a8:	0b900100 	bleq	fe401ab0 <BootRAM+0xd372251>
    16ac:	00000fe4 	andeq	r0, r0, r4, ror #31
    16b0:	206c9102 	rsbcs	r9, ip, r2, lsl #2
    16b4:	000007c7 	andeq	r0, r0, r7, asr #15
    16b8:	5e0e9101 	mvfple	f1, f1
    16bc:	02000000 	andeq	r0, r0, #0
    16c0:	b42e6a91 	strtlt	r6, [lr], #-2705	; 0xfffff56f
    16c4:	c8080008 	stmdagt	r8, {r3}
    16c8:	d8080008 	stmdale	r8, {r3}
    16cc:	2000000d 	andcs	r0, r0, sp
    16d0:	00000d47 	andeq	r0, r0, r7, asr #26
    16d4:	e6178101 	ldr	r8, [r7], -r1, lsl #2
    16d8:	0200000f 	andeq	r0, r0, #15
    16dc:	c7206c91 			; <UNDEFINED> instruction: 0xc7206c91
    16e0:	01000007 	tsteq	r0, r7
    16e4:	005e1482 	subseq	r1, lr, r2, lsl #9
    16e8:	91020000 	mrsls	r0, (UNDEF: 2)
    16ec:	08c83a6a 	stmiaeq	r8, {r1, r3, r5, r6, r9, fp, ip, sp}^
    16f0:	125f0800 	subsne	r0, pc, #0, 16
    16f4:	01300000 	teqeq	r0, r0
    16f8:	6c910251 	lfmvs	f0, 4, [r1], {81}	; 0x51
    16fc:	02520130 	subseq	r0, r2, #48, 2
    1700:	00006a91 	muleq	r0, r1, sl
    1704:	0011fe3b 	andseq	pc, r1, fp, lsr lr	; <UNPREDICTABLE>
    1708:	0008a000 	andeq	sl, r8, r0
    170c:	08a00108 	stmiaeq	r0!, {r3, r8}
    1710:	08a40800 	stmiaeq	r4!, {fp}
    1714:	89010800 	stmdbhi	r1, {fp}
    1718:	000e190b 	andeq	r1, lr, fp, lsl #18
    171c:	12243c00 	eorne	r3, r4, #0, 24
    1720:	0bf90000 	bleq	ffe41728 <BootRAM+0xedb1ec9>
    1724:	0bf70000 	bleq	ffdc172c <BootRAM+0xed31ecd>
    1728:	183c0000 	ldmdane	ip!, {}	; <UNPREDICTABLE>
    172c:	0f000012 	svceq	0x00000012
    1730:	0d00000c 	stceq	0, cr0, [r0, #-48]	; 0xffffffd0
    1734:	3c00000c 	stccc	0, cr0, [r0], {12}
    1738:	0000120c 	andeq	r1, r0, ip, lsl #4
    173c:	00000c29 	andeq	r0, r0, r9, lsr #24
    1740:	00000c27 	andeq	r0, r0, r7, lsr #24
    1744:	0fed3d00 	svceq	0x00ed3d00
    1748:	08d80000 	ldmeq	r8, {}^	; <UNPREDICTABLE>
    174c:	d8010800 	stmdale	r1, {fp}
    1750:	01000000 	mrseq	r0, (UNDEF: 0)
    1754:	0e590594 	mrceq	5, 2, r0, cr9, cr4, {4}
    1758:	073c0000 	ldreq	r0, [ip, -r0]!
    175c:	3f000010 	svccc	0x00000010
    1760:	3d00000c 	stccc	0, cr0, [r0, #-48]	; 0xffffffd0
    1764:	3c00000c 	stccc	0, cr0, [r0], {12}
    1768:	00000ffb 	strdeq	r0, [r0], -fp
    176c:	00000c55 	andeq	r0, r0, r5, asr ip
    1770:	00000c53 	andeq	r0, r0, r3, asr ip
    1774:	0008e63a 	andeq	lr, r8, sl, lsr r6
    1778:	00101408 	andseq	r1, r0, r8, lsl #8
    177c:	50013000 	andpl	r3, r1, r0
    1780:	00800902 	addeq	r0, r0, r2, lsl #18
    1784:	11fe3b00 	mvnsne	r3, r0, lsl #22
    1788:	08ea0000 	stmiaeq	sl!, {}^	; <UNPREDICTABLE>
    178c:	ea010800 	b	43794 <_Min_Stack_Size+0x43394>
    1790:	f2080008 	vhadd.s8	d0, d8, d8
    1794:	01080008 	tsteq	r8, r8
    1798:	0e9a0b8c 	vfnmseq.f64	d0, d26, d12
    179c:	243c0000 	ldrtcs	r0, [ip], #-0
    17a0:	6b000012 	blvs	17f0 <_Min_Stack_Size+0x13f0>
    17a4:	6900000c 	stmdbvs	r0, {r2, r3}
    17a8:	3c00000c 	stccc	0, cr0, [r0], {12}
    17ac:	00001218 	andeq	r1, r0, r8, lsl r2
    17b0:	00000c81 	andeq	r0, r0, r1, lsl #25
    17b4:	00000c7f 	andeq	r0, r0, pc, ror ip
    17b8:	00120c3c 	andseq	r0, r2, ip, lsr ip
    17bc:	000c9b00 	andeq	r9, ip, r0, lsl #22
    17c0:	000c9900 	andeq	r9, ip, r0, lsl #18
    17c4:	083a0000 	ldmdaeq	sl!, {}	; <UNPREDICTABLE>
    17c8:	62080009 	andvs	r0, r8, #9
    17cc:	30000011 	andcc	r0, r0, r1, lsl r0
    17d0:	03055001 	movweq	r5, #20481	; 0x5001
    17d4:	20000014 	andcs	r0, r0, r4, lsl r0
    17d8:	02510130 	subseq	r0, r1, #48, 2
    17dc:	01306c91 	teqeq	r0, r1	; <illegal shifter operand>
    17e0:	6a910252 	bvs	fe442130 <BootRAM+0xd3b28d1>
    17e4:	d33d0000 	teqle	sp, #0
    17e8:	7a000011 	bvc	1834 <_Min_Stack_Size+0x1434>
    17ec:	01080008 	tsteq	r8, r8
    17f0:	000000a0 	andeq	r0, r0, r0, lsr #1
    17f4:	02076d01 	andeq	r6, r7, #1, 26	; 0x40
    17f8:	3c00000f 	stccc	0, cr0, [r0], {15}
    17fc:	000011e5 	andeq	r1, r0, r5, ror #3
    1800:	00000cb1 			; <UNDEFINED> instruction: 0x00000cb1
    1804:	00000caf 	andeq	r0, r0, pc, lsr #25
    1808:	0011f13c 	andseq	pc, r1, ip, lsr r1	; <UNPREDICTABLE>
    180c:	000cc700 	andeq	ip, ip, r0, lsl #14
    1810:	000cc500 	andeq	ip, ip, r0, lsl #10
    1814:	08843a00 	stmeq	r4, {r9, fp, ip, sp}
    1818:	09690800 	stmdbeq	r9!, {fp}^
    181c:	01300000 	teqeq	r0, r0
    1820:	30310150 	eorscc	r0, r1, r0, asr r1
    1824:	03055101 	movweq	r5, #20737	; 0x5101
    1828:	20000014 	andcs	r0, r0, r4, lsl r0
    182c:	fe3d0000 	cdp2	0, 3, cr0, cr13, cr0, {0}
    1830:	16000011 			; <UNDEFINED> instruction: 0x16000011
    1834:	05080009 	streq	r0, [r8, #-9]
    1838:	000000f0 	strdeq	r0, [r0], -r0	; <UNPREDICTABLE>
    183c:	482ca601 	stmdami	ip!, {r0, r9, sl, sp, pc}
    1840:	3c00000f 	stccc	0, cr0, [r0], {15}
    1844:	00001224 	andeq	r1, r0, r4, lsr #4
    1848:	00000ce1 	andeq	r0, r0, r1, ror #25
    184c:	00000cdf 	ldrdeq	r0, [r0], -pc	; <UNPREDICTABLE>
    1850:	0012183c 	andseq	r1, r2, ip, lsr r8
    1854:	000ce100 	andeq	lr, ip, r0, lsl #2
    1858:	000cdf00 	andeq	sp, ip, r0, lsl #30
    185c:	120c3c00 	andne	r3, ip, #0, 24
    1860:	0ce10000 	stcleq	0, cr0, [r1]
    1864:	0cdf0000 	ldcleq	0, cr0, [pc], {0}
    1868:	a8320000 	ldmdage	r2!, {}	; <UNPREDICTABLE>
    186c:	2f080008 	svccs	0x00080008
    1870:	0000000a 	andeq	r0, r0, sl
    1874:	0011fe3b 	andseq	pc, r1, fp, lsr lr	; <UNPREDICTABLE>
    1878:	00091600 	andeq	r1, r9, r0, lsl #12
    187c:	09160108 	ldmdbeq	r6, {r3, r8}
    1880:	09160800 	ldmdbeq	r6, {fp}
    1884:	9a010800 	bls	4388c <_Min_Stack_Size+0x4348c>
    1888:	000f8909 	andeq	r8, pc, r9, lsl #18
    188c:	12243c00 	eorne	r3, r4, #0, 24
    1890:	0cf70000 	ldcleq	0, cr0, [r7]
    1894:	0cf50000 	ldcleq	0, cr0, [r5]
    1898:	183c0000 	ldmdane	ip!, {}	; <UNPREDICTABLE>
    189c:	f7000012 			; <UNDEFINED> instruction: 0xf7000012
    18a0:	f500000c 			; <UNDEFINED> instruction: 0xf500000c
    18a4:	3c00000c 	stccc	0, cr0, [r0], {12}
    18a8:	0000120c 	andeq	r1, r0, ip, lsl #4
    18ac:	00000cf7 	strdeq	r0, [r0], -r7
    18b0:	00000cf5 	strdeq	r0, [r0], -r5
    18b4:	11fe3b00 	mvnsne	r3, r0, lsl #22
    18b8:	09260000 	stmdbeq	r6!, {}	; <UNPREDICTABLE>
    18bc:	26010800 	strcs	r0, [r1], -r0, lsl #16
    18c0:	28080009 	stmdacs	r8, {r0, r3}
    18c4:	01080009 	tsteq	r8, r9
    18c8:	0fca099e 	svceq	0x00ca099e
    18cc:	243c0000 	ldrtcs	r0, [ip], #-0
    18d0:	0d000012 	stceq	0, cr0, [r0, #-72]	; 0xffffffb8
    18d4:	0b00000d 	bleq	1910 <_Min_Stack_Size+0x1510>
    18d8:	3c00000d 	stccc	0, cr0, [r0], {13}
    18dc:	00001218 	andeq	r1, r0, r8, lsl r2
    18e0:	00000d0d 	andeq	r0, r0, sp, lsl #26
    18e4:	00000d0b 	andeq	r0, r0, fp, lsl #26
    18e8:	00120c3c 	andseq	r0, r2, ip, lsr ip
    18ec:	000d0d00 	andeq	r0, sp, r0, lsl #26
    18f0:	000d0b00 	andeq	r0, sp, r0, lsl #22
    18f4:	323a0000 	eorscc	r0, sl, #0
    18f8:	06080009 	streq	r0, [r8], -r9
    18fc:	30000011 	andcc	r0, r0, r1, lsl r0
    1900:	03055001 	movweq	r5, #20481	; 0x5001
    1904:	20000014 	andcs	r0, r0, r4, lsl r0
    1908:	02520130 	subseq	r0, r2, #48, 2
    190c:	00000075 	andeq	r0, r0, r5, ror r0
    1910:	0407043e 	streq	r0, [r7], #-1086	; 0xfffffbc2
    1914:	00000fec 	andeq	r0, r0, ip, ror #31
    1918:	05c4403f 	strbeq	r4, [r4, #63]	; 0x3f
    191c:	5e010000 	cdppl	0, 0, cr0, cr1, cr0, {0}
    1920:	14030114 	strne	r0, [r3], #-276	; 0xfffffeec
    1924:	41000010 	tstmi	r0, r0, lsl r0
    1928:	00667562 	rsbeq	r7, r6, r2, ror #10
    192c:	972c5e01 	strls	r5, [ip, -r1, lsl #28]!
    1930:	42000008 	andmi	r0, r0, #8
    1934:	000007c7 	andeq	r0, r0, r7, asr #15
    1938:	5e3a5e01 	cdppl	14, 3, cr5, cr10, cr1, {0}
    193c:	00000000 	andeq	r0, r0, r0
    1940:	00079c39 	andeq	r9, r7, r9, lsr ip
    1944:	0d4b0100 	stfeqe	f0, [fp, #-0]
    1948:	0007a401 	andeq	sl, r7, r1, lsl #8
    194c:	00080008 	andeq	r0, r8, r8
    1950:	000d2108 	andeq	r2, sp, r8, lsl #2
    1954:	10ab0100 	adcne	r0, fp, r0, lsl #2
    1958:	ca350000 	bgt	d41960 <_Min_Stack_Size+0xd41560>
    195c:	01000008 	tsteq	r0, r8
    1960:	00411c4b 	subeq	r1, r1, fp, asr #24
    1964:	0d450000 	stcleq	0, cr0, [r5, #-0]
    1968:	0d410000 	stcleq	0, cr0, [r1, #-0]
    196c:	75370000 	ldrvc	r0, [r7, #-0]!
    1970:	01000008 	tsteq	r0, r8
    1974:	005e0c52 	subseq	r0, lr, r2, asr ip
    1978:	0d6a0000 	stcleq	0, cr0, [sl, #-0]
    197c:	0d660000 	stcleq	0, cr0, [r6, #-0]
    1980:	fe430000 	cdp2	0, 4, cr0, cr3, cr0, {0}
    1984:	da000011 	ble	19d0 <_Min_Stack_Size+0x15d0>
    1988:	02080007 	andeq	r0, r8, #7
    198c:	00000070 	andeq	r0, r0, r0, ror r0
    1990:	3c035401 	cfstrscc	mvf5, [r3], {1}
    1994:	00001224 	andeq	r1, r0, r4, lsr #4
    1998:	00000d8a 	andeq	r0, r0, sl, lsl #27
    199c:	00000d88 	andeq	r0, r0, r8, lsl #27
    19a0:	0012183c 	andseq	r1, r2, ip, lsr r8
    19a4:	000d9f00 	andeq	r9, sp, r0, lsl #30
    19a8:	000d9d00 	andeq	r9, sp, r0, lsl #26
    19ac:	120c3c00 	andne	r3, ip, #0, 24
    19b0:	0db40000 	ldceq	0, cr0, [r4]
    19b4:	0db20000 	ldceq	0, cr0, [r2]
    19b8:	e23a0000 	eors	r0, sl, #0
    19bc:	2f080007 	svccs	0x00080007
    19c0:	3000000a 	andcc	r0, r0, sl
    19c4:	30015001 	andcc	r5, r1, r1
    19c8:	02510130 	subseq	r0, r1, #48, 2
    19cc:	01300071 	teqeq	r0, r1, ror r0
    19d0:	00720252 	rsbseq	r0, r2, r2, asr r2
    19d4:	44000000 	strmi	r0, [r0], #-0
    19d8:	00007301 	andeq	r7, r0, r1, lsl #6
    19dc:	06370100 	ldrteq	r0, [r7], -r0, lsl #2
    19e0:	08000372 	stmdaeq	r0, {r1, r4, r5, r6, r8, r9}
    19e4:	080003e0 	stmdaeq	r0, {r5, r6, r7, r8, r9}
    19e8:	01007d02 	tsteq	r0, r2, lsl #26
    19ec:	00001106 	andeq	r1, r0, r6, lsl #2
    19f0:	0000182d 	andeq	r1, r0, sp, lsr #16
    19f4:	0010e200 	andseq	lr, r0, r0, lsl #4
    19f8:	74633800 	strbtvc	r3, [r3], #-2048	; 0xfffff800
    19fc:	3d010072 	stccc	0, cr0, [r1, #-456]	; 0xfffffe38
    1a00:	00007610 	andeq	r7, r0, r0, lsl r6
    1a04:	000dd000 	andeq	sp, sp, r0
    1a08:	000dc800 	andeq	ip, sp, r0, lsl #16
    1a0c:	31450000 	mrscc	r0, (UNDEF: 69)
    1a10:	b6000012 			; <UNDEFINED> instruction: 0xb6000012
    1a14:	01080003 	tsteq	r8, r3
    1a18:	080003b6 	stmdaeq	r0, {r1, r2, r4, r5, r7, r8, r9}
    1a1c:	080003be 	stmdaeq	r0, {r1, r2, r3, r4, r5, r7, r8, r9}
    1a20:	3c034301 	stccc	3, cr4, [r3], {1}
    1a24:	00001240 	andeq	r1, r0, r0, asr #4
    1a28:	00000e1f 	andeq	r0, r0, pc, lsl lr
    1a2c:	00000e1d 	andeq	r0, r0, sp, lsl lr
    1a30:	01460000 	mrseq	r0, (UNDEF: 70)
    1a34:	000008da 	ldrdeq	r0, [r0], -sl
    1a38:	011b1b01 	tsteq	fp, r1, lsl #22
    1a3c:	00001155 	andeq	r1, r0, r5, asr r1
    1a40:	0800036e 	stmdaeq	r0, {r1, r2, r3, r5, r6, r8, r9}
    1a44:	08000372 	stmdaeq	r0, {r1, r4, r5, r6, r8, r9}
    1a48:	01007d02 	tsteq	r0, r2, lsl #26
    1a4c:	00001155 	andeq	r1, r0, r5, asr r1
    1a50:	71657247 	cmnvc	r5, r7, asr #4
    1a54:	3c1b0100 	ldfccs	f0, [fp], {-0}
    1a58:	0000115c 	andeq	r1, r0, ip, asr r1
    1a5c:	00000e37 	andeq	r0, r0, r7, lsr lr
    1a60:	00000e33 	andeq	r0, r0, r3, lsr lr
    1a64:	000d7136 	andeq	r7, sp, r6, lsr r1
    1a68:	4a1b0100 	bmi	6c1e70 <_Min_Stack_Size+0x6c1a70>
    1a6c:	0000005e 	andeq	r0, r0, lr, asr r0
    1a70:	c4365101 	ldrtgt	r5, [r6], #-257	; 0xfffffeff
    1a74:	01000007 	tsteq	r0, r7
    1a78:	005e5b1b 	subseq	r5, lr, fp, lsl fp
    1a7c:	52010000 	andpl	r0, r1, #0
    1a80:	08010200 	stmdaeq	r1, {r9}
    1a84:	00000284 	andeq	r0, r0, r4, lsl #5
    1a88:	011b0407 	tsteq	fp, r7, lsl #8
    1a8c:	01460000 	mrseq	r0, (UNDEF: 70)
    1a90:	00000792 	muleq	r0, r2, r7
    1a94:	011b1a01 	tsteq	fp, r1, lsl #20
    1a98:	00001155 	andeq	r1, r0, r5, asr r1
    1a9c:	0800036a 	stmdaeq	r0, {r1, r3, r5, r6, r8, r9}
    1aa0:	0800036e 	stmdaeq	r0, {r1, r2, r3, r5, r6, r8, r9}
    1aa4:	01007d02 	tsteq	r0, r2, lsl #26
    1aa8:	000011b1 			; <UNDEFINED> instruction: 0x000011b1
    1aac:	71657247 	cmnvc	r5, r7, asr #4
    1ab0:	3b1a0100 	blcc	681eb8 <_Min_Stack_Size+0x681ab8>
    1ab4:	0000115c 	andeq	r1, r0, ip, asr r1
    1ab8:	00000e5c 	andeq	r0, r0, ip, asr lr
    1abc:	00000e58 	andeq	r0, r0, r8, asr lr
    1ac0:	000d4736 	andeq	r4, sp, r6, lsr r7
    1ac4:	471a0100 	ldrmi	r0, [sl, -r0, lsl #2]
    1ac8:	000011b1 			; <UNDEFINED> instruction: 0x000011b1
    1acc:	c7365101 	ldrgt	r5, [r6, -r1, lsl #2]!
    1ad0:	01000007 	tsteq	r0, r7
    1ad4:	0a1d571a 	beq	757744 <_Min_Stack_Size+0x757344>
    1ad8:	52010000 	andpl	r0, r1, #0
    1adc:	e4040700 	str	r0, [r4], #-1792	; 0xfffff900
    1ae0:	4800000f 	stmdami	r0, {r0, r1, r2, r3}
    1ae4:	0000f001 	andeq	pc, r0, r1
    1ae8:	1b190100 	blne	641ef0 <_Min_Stack_Size+0x641af0>
    1aec:	06e20148 	strbteq	r0, [r2], r8, asr #2
    1af0:	18010000 	stmdane	r1, {}	; <UNPREDICTABLE>
    1af4:	b201491b 	andlt	r4, r1, #442368	; 0x6c000
    1af8:	01000006 	tsteq	r0, r6
    1afc:	4a011b17 	bmi	48760 <_Min_Stack_Size+0x48360>
    1b00:	00000689 	andeq	r0, r0, r9, lsl #13
    1b04:	0113ba03 	tsteq	r3, r3, lsl #20
    1b08:	00000095 	muleq	r0, r5, r0
    1b0c:	0011fe03 	andseq	pc, r1, r3, lsl #28
    1b10:	08ca4200 	stmiaeq	sl, {r9, lr}^
    1b14:	ba030000 	blt	c1b1c <_Min_Stack_Size+0xc171c>
    1b18:	00004127 	andeq	r4, r0, r7, lsr #2
    1b1c:	75624100 	strbvc	r4, [r2, #-256]!	; 0xffffff00
    1b20:	ba030066 	blt	c1cc0 <_Min_Stack_Size+0xc18c0>
    1b24:	000a1d38 	andeq	r1, sl, r8, lsr sp
    1b28:	3b400000 	blcc	1001b30 <_Min_Stack_Size+0x1001730>
    1b2c:	03000005 	movweq	r0, #5
    1b30:	030114ad 	movweq	r1, #5293	; 0x14ad
    1b34:	00001231 	andeq	r1, r0, r1, lsr r2
    1b38:	0008ca42 	andeq	ip, r8, r2, asr #20
    1b3c:	29ad0300 	stmibcs	sp!, {r8, r9}
    1b40:	00000041 	andeq	r0, r0, r1, asr #32
    1b44:	66756241 	ldrbtvs	r6, [r5], -r1, asr #4
    1b48:	3fad0300 	svccc	0x00ad0300
    1b4c:	00000897 	muleq	r0, r7, r8
    1b50:	0007c742 	andeq	ip, r7, r2, asr #14
    1b54:	4dad0300 	stcmi	3, cr0, [sp]
    1b58:	0000005e 	andeq	r0, r0, lr, asr r0
    1b5c:	05654b00 	strbeq	r4, [r5, #-2816]!	; 0xfffff500
    1b60:	de020000 	cdple	0, 0, cr0, cr2, cr0, {0}
    1b64:	03011605 	movweq	r1, #5637	; 0x1605
    1b68:	0000124e 	andeq	r1, r0, lr, asr #4
    1b6c:	0006d34c 	andeq	sp, r6, ip, asr #6
    1b70:	05de0200 	ldrbeq	r0, [lr, #512]	; 0x200
    1b74:	00029e2f 	andeq	r9, r2, pc, lsr #28
    1b78:	c94d0000 	stmdbgt	sp, {}^	; <UNPREDICTABLE>
    1b7c:	64000011 	strvs	r0, [r0], #-17	; 0xffffffef
    1b80:	66080003 	strvs	r0, [r8], -r3
    1b84:	02080003 	andeq	r0, r8, #3
    1b88:	4e01007d 	mcrmi	0, 0, r0, cr1, cr13, {3}
    1b8c:	05a20101 	streq	r0, [r2, #257]!	; 0x101
    1b90:	05a20000 	streq	r0, [r2, #0]!
    1b94:	39030000 	stmdbcc	r3, {}	; <UNPREDICTABLE>
    1b98:	15680006 	strbne	r0, [r8, #-6]!
    1b9c:	00020000 	andeq	r0, r2, r0
    1ba0:	000006f6 	strdeq	r0, [r0], -r6
    1ba4:	03450104 	movteq	r0, #20740	; 0x5104
    1ba8:	240c0000 	strcs	r0, [ip], #-0
    1bac:	2600000b 	strcs	r0, [r0], -fp
    1bb0:	74000002 	strvc	r0, [r0], #-2
    1bb4:	d8080009 	stmdale	r8, {r0, r3}
    1bb8:	cc08000b 	stcgt	0, cr0, [r8], {11}
    1bbc:	0200000b 	andeq	r0, r0, #11
    1bc0:	027d0601 	rsbseq	r0, sp, #1048576	; 0x100000
    1bc4:	02020000 	andeq	r0, r2, #0
    1bc8:	00029605 	andeq	r9, r2, r5, lsl #12
    1bcc:	05040200 	streq	r0, [r4, #-512]	; 0xfffffe00
    1bd0:	00000082 	andeq	r0, r0, r2, lsl #1
    1bd4:	7d050802 	stcvc	8, cr0, [r5, #-8]
    1bd8:	03000000 	movweq	r0, #0
    1bdc:	00000316 	andeq	r0, r0, r6, lsl r3
    1be0:	52182e03 	andspl	r2, r8, #3, 28	; 0x30
    1be4:	04000000 	streq	r0, [r0], #-0
    1be8:	00000041 	andeq	r0, r0, r1, asr #32
    1bec:	7b080102 	blvc	201ffc <_Min_Stack_Size+0x201bfc>
    1bf0:	03000002 	movweq	r0, #2
    1bf4:	000000ff 	strdeq	r0, [r0], -pc	; <UNPREDICTABLE>
    1bf8:	6a193103 	bvs	64e00c <_Min_Stack_Size+0x64dc0c>
    1bfc:	05000000 	streq	r0, [r0, #-0]
    1c00:	00000059 	andeq	r0, r0, r9, asr r0
    1c04:	7e070202 	cdpvc	2, 0, cr0, cr7, cr2, {0}
    1c08:	03000001 	movweq	r0, #1
    1c0c:	000002d0 	ldrdeq	r0, [r0], -r0	; <UNPREDICTABLE>
    1c10:	82193403 	andshi	r3, r9, #50331648	; 0x3000000
    1c14:	05000000 	streq	r0, [r0, #-0]
    1c18:	00000071 	andeq	r0, r0, r1, ror r0
    1c1c:	4d070402 	cfstrsmi	mvf0, [r7, #-8]
    1c20:	02000000 	andeq	r0, r0, #0
    1c24:	00480708 	subeq	r0, r8, r8, lsl #14
    1c28:	04060000 	streq	r0, [r6], #-0
    1c2c:	746e6905 	strbtvc	r6, [lr], #-2309	; 0xfffff6fb
    1c30:	00900500 	addseq	r0, r0, r0, lsl #10
    1c34:	04020000 	streq	r0, [r2], #-0
    1c38:	00005207 	andeq	r5, r0, r7, lsl #4
    1c3c:	02080700 	andeq	r0, r8, #0, 14
    1c40:	00f8091b 	rscseq	r0, r8, fp, lsl r9
    1c44:	62080000 	andvs	r0, r8, #0
    1c48:	02000004 	andeq	r0, r0, #4
    1c4c:	00410b1c 	subeq	r0, r1, ip, lsl fp
    1c50:	23020000 	movwcs	r0, #8192	; 0x2000
    1c54:	08850800 	stmeq	r5, {fp}
    1c58:	1d020000 	stcne	0, cr0, [r2, #-0]
    1c5c:	0000410b 	andeq	r4, r0, fp, lsl #2
    1c60:	01230200 			; <UNDEFINED> instruction: 0x01230200
    1c64:	0004d108 	andeq	sp, r4, r8, lsl #2
    1c68:	0c1e0200 	lfmeq	f0, 4, [lr], {-0}
    1c6c:	00000059 	andeq	r0, r0, r9, asr r0
    1c70:	08022302 	stmdaeq	r2, {r1, r8, r9, sp}
    1c74:	000003ea 	andeq	r0, r0, sl, ror #7
    1c78:	590c1f02 	stmdbpl	ip, {r1, r8, r9, sl, fp, ip}
    1c7c:	02000000 	andeq	r0, r0, #0
    1c80:	68080423 	stmdavs	r8, {r0, r1, r5, sl}
    1c84:	02000008 	andeq	r0, r0, #8
    1c88:	00590c20 	subseq	r0, r9, r0, lsr #24
    1c8c:	23020000 	movwcs	r0, #8192	; 0x2000
    1c90:	f1030006 			; <UNDEFINED> instruction: 0xf1030006
    1c94:	02000008 	andeq	r0, r0, #8
    1c98:	00a30221 	adceq	r0, r3, r1, lsr #4
    1c9c:	89090000 	stmdbhi	r9, {}	; <UNPREDICTABLE>
    1ca0:	04000002 	streq	r0, [r0], #-2
    1ca4:	971506ce 	ldrls	r0, [r5, -lr, asr #13]
    1ca8:	01000000 	mrseq	r0, (UNDEF: 0)
    1cac:	013a0a01 	teqeq	sl, r1, lsl #20
    1cb0:	4c050000 	stcmi	0, cr0, [r5], {-0}
    1cb4:	00007111 	andeq	r7, r0, r1, lsl r1
    1cb8:	0b010100 	bleq	420c0 <_Min_Stack_Size+0x41cc0>
    1cbc:	014f062c 	cmpeq	pc, ip, lsr #12
    1cc0:	0001cc09 	andeq	ip, r1, r9, lsl #24
    1cc4:	00420c00 	subeq	r0, r2, r0, lsl #24
    1cc8:	51060000 	mrspl	r0, (UNDEF: 6)
    1ccc:	007d1101 	rsbseq	r1, sp, r1, lsl #2
    1cd0:	23020000 	movwcs	r0, #8192	; 0x2000
    1cd4:	00290c00 	eoreq	r0, r9, r0, lsl #24
    1cd8:	52060000 	andpl	r0, r6, #0
    1cdc:	007d1101 	rsbseq	r1, sp, r1, lsl #2
    1ce0:	23020000 	movwcs	r0, #8192	; 0x2000
    1ce4:	01160c04 	tsteq	r6, r4, lsl #24
    1ce8:	53060000 	movwpl	r0, #24576	; 0x6000
    1cec:	007d1101 	rsbseq	r1, sp, r1, lsl #2
    1cf0:	23020000 	movwcs	r0, #8192	; 0x2000
    1cf4:	00070c08 	andeq	r0, r7, r8, lsl #24
    1cf8:	54060000 	strpl	r0, [r6], #-0
    1cfc:	007d1101 	rsbseq	r1, sp, r1, lsl #2
    1d00:	23020000 	movwcs	r0, #8192	; 0x2000
    1d04:	44490d0c 	strbmi	r0, [r9], #-3340	; 0xfffff2f4
    1d08:	55060052 	strpl	r0, [r6, #-82]	; 0xffffffae
    1d0c:	007d1101 	rsbseq	r1, sp, r1, lsl #2
    1d10:	23020000 	movwcs	r0, #8192	; 0x2000
    1d14:	444f0d10 	strbmi	r0, [pc], #-3344	; 1d1c <_Min_Stack_Size+0x191c>
    1d18:	56060052 			; <UNDEFINED> instruction: 0x56060052
    1d1c:	007d1101 	rsbseq	r1, sp, r1, lsl #2
    1d20:	23020000 	movwcs	r0, #8192	; 0x2000
    1d24:	008b0c14 	addeq	r0, fp, r4, lsl ip
    1d28:	57060000 	strpl	r0, [r6, -r0]
    1d2c:	007d1101 	rsbseq	r1, sp, r1, lsl #2
    1d30:	23020000 	movwcs	r0, #8192	; 0x2000
    1d34:	000d0c18 	andeq	r0, sp, r8, lsl ip
    1d38:	58060000 	stmdapl	r6, {}	; <UNPREDICTABLE>
    1d3c:	007d1101 	rsbseq	r1, sp, r1, lsl #2
    1d40:	23020000 	movwcs	r0, #8192	; 0x2000
    1d44:	46410d1c 			; <UNDEFINED> instruction: 0x46410d1c
    1d48:	59060052 	stmdbpl	r6, {r1, r4, r6}
    1d4c:	01dc1101 	bicseq	r1, ip, r1, lsl #2
    1d50:	23020000 	movwcs	r0, #8192	; 0x2000
    1d54:	52420d20 	subpl	r0, r2, #32, 26	; 0x800
    1d58:	5a060052 	bpl	181ea8 <_Min_Stack_Size+0x181aa8>
    1d5c:	007d1101 	rsbseq	r1, sp, r1, lsl #2
    1d60:	23020000 	movwcs	r0, #8192	; 0x2000
    1d64:	7d0e0028 	stcvc	0, cr0, [lr, #-160]	; 0xffffff60
    1d68:	dc000000 	stcle	0, cr0, [r0], {-0}
    1d6c:	0f000001 	svceq	0x00000001
    1d70:	0000009c 	muleq	r0, ip, r0
    1d74:	cc050001 	stcgt	0, cr0, [r5], {1}
    1d78:	10000001 	andne	r0, r0, r1
    1d7c:	00000157 	andeq	r0, r0, r7, asr r1
    1d80:	03015b06 	movweq	r5, #6918	; 0x1b06
    1d84:	00000121 	andeq	r0, r0, r1, lsr #2
    1d88:	3706540b 	strcc	r5, [r6, -fp, lsl #8]
    1d8c:	03990902 	orrseq	r0, r9, #32768	; 0x8000
    1d90:	e70c0000 	str	r0, [ip, -r0]
    1d94:	06000005 	streq	r0, [r0], -r5
    1d98:	65110239 	ldrvs	r0, [r1, #-569]	; 0xfffffdc7
    1d9c:	02000000 	andeq	r0, r0, #0
    1da0:	d10c0023 	tstle	ip, r3, lsr #32
    1da4:	06000007 	streq	r0, [r0], -r7
    1da8:	6511023a 	ldrvs	r0, [r1, #-570]	; 0xfffffdc6
    1dac:	02000000 	andeq	r0, r0, #0
    1db0:	380c0223 	stmdacc	ip, {r0, r1, r5, r9}
    1db4:	06000006 	streq	r0, [r0], -r6
    1db8:	6511023b 	ldrvs	r0, [r1, #-571]	; 0xfffffdc5
    1dbc:	02000000 	andeq	r0, r0, #0
    1dc0:	db0c0423 	blle	302e54 <_Min_Stack_Size+0x302a54>
    1dc4:	06000007 	streq	r0, [r0], -r7
    1dc8:	6511023c 	ldrvs	r0, [r1, #-572]	; 0xfffffdc4
    1dcc:	02000000 	andeq	r0, r0, #0
    1dd0:	c80c0623 	stmdagt	ip, {r0, r1, r5, r9, sl}
    1dd4:	06000006 	streq	r0, [r0], -r6
    1dd8:	6511023d 	ldrvs	r0, [r1, #-573]	; 0xfffffdc3
    1ddc:	02000000 	andeq	r0, r0, #0
    1de0:	e50c0823 	str	r0, [ip, #-2083]	; 0xfffff7dd
    1de4:	06000007 	streq	r0, [r0], -r7
    1de8:	6511023e 	ldrvs	r0, [r1, #-574]	; 0xfffffdc2
    1dec:	02000000 	andeq	r0, r0, #0
    1df0:	f70c0a23 			; <UNDEFINED> instruction: 0xf70c0a23
    1df4:	06000006 	streq	r0, [r0], -r6
    1df8:	6511023f 	ldrvs	r0, [r1, #-575]	; 0xfffffdc1
    1dfc:	02000000 	andeq	r0, r0, #0
    1e00:	ef0c0c23 	svc	0x000c0c23
    1e04:	06000007 	streq	r0, [r0], -r7
    1e08:	65110240 	ldrvs	r0, [r1, #-576]	; 0xfffffdc0
    1e0c:	02000000 	andeq	r0, r0, #0
    1e10:	7e0c0e23 	cdpvc	14, 0, cr0, cr12, cr3, {1}
    1e14:	06000009 	streq	r0, [r0], -r9
    1e18:	65110241 	ldrvs	r0, [r1, #-577]	; 0xfffffdbf
    1e1c:	02000000 	andeq	r0, r0, #0
    1e20:	f90c1023 			; <UNDEFINED> instruction: 0xf90c1023
    1e24:	06000007 	streq	r0, [r0], -r7
    1e28:	65110242 	ldrvs	r0, [r1, #-578]	; 0xfffffdbe
    1e2c:	02000000 	andeq	r0, r0, #0
    1e30:	cc0c1223 	sfmgt	f1, 4, [ip], {35}	; 0x23
    1e34:	06000007 	streq	r0, [r0], -r7
    1e38:	65110243 	ldrvs	r0, [r1, #-579]	; 0xfffffdbd
    1e3c:	02000000 	andeq	r0, r0, #0
    1e40:	030c1423 	movweq	r1, #50211	; 0xc423
    1e44:	06000008 	streq	r0, [r0], -r8
    1e48:	65110244 	ldrvs	r0, [r1, #-580]	; 0xfffffdbc
    1e4c:	02000000 	andeq	r0, r0, #0
    1e50:	700c1623 	andvc	r1, ip, r3, lsr #12
    1e54:	06000008 	streq	r0, [r0], -r8
    1e58:	65110245 	ldrvs	r0, [r1, #-581]	; 0xfffffdbb
    1e5c:	02000000 	andeq	r0, r0, #0
    1e60:	0d0c1823 	stceq	8, cr1, [ip, #-140]	; 0xffffff74
    1e64:	06000008 	streq	r0, [r0], -r8
    1e68:	65110246 	ldrvs	r0, [r1, #-582]	; 0xfffffdba
    1e6c:	02000000 	andeq	r0, r0, #0
    1e70:	ec0c1a23 			; <UNDEFINED> instruction: 0xec0c1a23
    1e74:	06000008 	streq	r0, [r0], -r8
    1e78:	65110247 	ldrvs	r0, [r1, #-583]	; 0xfffffdb9
    1e7c:	02000000 	andeq	r0, r0, #0
    1e80:	5f0c1c23 	svcpl	0x000c1c23
    1e84:	06000002 	streq	r0, [r0], -r2
    1e88:	a9110248 	ldmdbge	r1, {r3, r6, r9}
    1e8c:	02000003 	andeq	r0, r0, #3
    1e90:	980c1e23 	stmdals	ip, {r0, r1, r5, r9, sl, fp, ip}
    1e94:	06000008 	streq	r0, [r0], -r8
    1e98:	65110249 	ldrvs	r0, [r1, #-585]	; 0xfffffdb7
    1e9c:	02000000 	andeq	r0, r0, #0
    1ea0:	230c4023 	movwcs	r4, #49187	; 0xc023
    1ea4:	0600000a 	streq	r0, [r0], -sl
    1ea8:	6511024a 	ldrvs	r0, [r1, #-586]	; 0xfffffdb6
    1eac:	02000000 	andeq	r0, r0, #0
    1eb0:	f80c4223 			; <UNDEFINED> instruction: 0xf80c4223
    1eb4:	06000004 	streq	r0, [r0], -r4
    1eb8:	6511024b 	ldrvs	r0, [r1, #-587]	; 0xfffffdb5
    1ebc:	02000000 	andeq	r0, r0, #0
    1ec0:	280c4423 	stmdacs	ip, {r0, r1, r5, sl, lr}
    1ec4:	06000008 	streq	r0, [r0], -r8
    1ec8:	6511024c 	ldrvs	r0, [r1, #-588]	; 0xfffffdb4
    1ecc:	02000000 	andeq	r0, r0, #0
    1ed0:	460d4623 	strmi	r4, [sp], -r3, lsr #12
    1ed4:	0600524e 	streq	r5, [r0], -lr, asr #4
    1ed8:	6511024d 	ldrvs	r0, [r1, #-589]	; 0xfffffdb3
    1edc:	02000000 	andeq	r0, r0, #0
    1ee0:	320c4823 	andcc	r4, ip, #2293760	; 0x230000
    1ee4:	06000008 	streq	r0, [r0], -r8
    1ee8:	6511024e 	ldrvs	r0, [r1, #-590]	; 0xfffffdb2
    1eec:	02000000 	andeq	r0, r0, #0
    1ef0:	8a0c4a23 	bhi	314784 <_Min_Stack_Size+0x314384>
    1ef4:	06000005 	streq	r0, [r0], -r5
    1ef8:	6511024f 	ldrvs	r0, [r1, #-591]	; 0xfffffdb1
    1efc:	02000000 	andeq	r0, r0, #0
    1f00:	390c4c23 	stmdbcc	ip, {r0, r1, r5, sl, fp, lr}
    1f04:	0600000a 	streq	r0, [r0], -sl
    1f08:	65110250 	ldrvs	r0, [r1, #-592]	; 0xfffffdb0
    1f0c:	02000000 	andeq	r0, r0, #0
    1f10:	b40c4e23 	strlt	r4, [ip], #-3619	; 0xfffff1dd
    1f14:	06000009 	streq	r0, [r0], -r9
    1f18:	65110251 	ldrvs	r0, [r1, #-593]	; 0xfffffdaf
    1f1c:	02000000 	andeq	r0, r0, #0
    1f20:	430c5023 	movwmi	r5, #49187	; 0xc023
    1f24:	0600000a 	streq	r0, [r0], -sl
    1f28:	65110252 	ldrvs	r0, [r1, #-594]	; 0xfffffdae
    1f2c:	02000000 	andeq	r0, r0, #0
    1f30:	0e005223 	cdpeq	2, 0, cr5, cr0, cr3, {1}
    1f34:	00000065 	andeq	r0, r0, r5, rrx
    1f38:	000003a9 	andeq	r0, r0, r9, lsr #7
    1f3c:	00009c0f 	andeq	r9, r0, pc, lsl #24
    1f40:	05001000 	streq	r1, [r0, #-0]
    1f44:	00000399 	muleq	r0, r9, r3
    1f48:	00057e10 	andeq	r7, r5, r0, lsl lr
    1f4c:	02530600 	subseq	r0, r3, #0, 12
    1f50:	0001ee03 	andeq	lr, r1, r3, lsl #28
    1f54:	04080200 	streq	r0, [r8], #-512	; 0xfffffe00
    1f58:	00000d0e 	andeq	r0, r0, lr, lsl #26
    1f5c:	000f7a10 	andeq	r7, pc, r0, lsl sl	; <UNPREDICTABLE>
    1f60:	01650700 	cmneq	r5, r0, lsl #14
    1f64:	00009c17 	andeq	r9, r0, r7, lsl ip
    1f68:	0f0b0300 	svceq	0x000b0300
    1f6c:	2e080000 	cdpcs	0, 0, cr0, cr8, cr0, {0}
    1f70:	0000330e 	andeq	r3, r0, lr, lsl #6
    1f74:	0b1c0300 	bleq	702b7c <_Min_Stack_Size+0x70277c>
    1f78:	74080000 	strvc	r0, [r8], #-0
    1f7c:	0000330e 	andeq	r3, r0, lr, lsl #6
    1f80:	08041100 	stmdaeq	r4, {r8, ip}
    1f84:	040903a5 	streq	r0, [r9], #-933	; 0xfffffc5b
    1f88:	64120000 	ldrvs	r0, [r2], #-0
    1f8c:	0800000c 	stmdaeq	r0, {r2, r3}
    1f90:	03c20ca7 	biceq	r0, r2, #42752	; 0xa700
    1f94:	4c120000 	ldcmi	0, cr0, [r2], {-0}
    1f98:	0800000d 	stmdaeq	r0, {r0, r2, r3}
    1f9c:	040913a8 	streq	r1, [r9], #-936	; 0xfffffc58
    1fa0:	0e000000 	cdpeq	0, 0, cr0, cr0, cr0, {0}
    1fa4:	00000052 	andeq	r0, r0, r2, asr r0
    1fa8:	00000419 	andeq	r0, r0, r9, lsl r4
    1fac:	00009c0f 	andeq	r9, r0, pc, lsl #24
    1fb0:	07000300 	streq	r0, [r0, -r0, lsl #6]
    1fb4:	09a20808 	stmibeq	r2!, {r3, fp}
    1fb8:	00000441 	andeq	r0, r0, r1, asr #8
    1fbc:	000b7708 	andeq	r7, fp, r8, lsl #14
    1fc0:	07a40800 	streq	r0, [r4, r0, lsl #16]!
    1fc4:	00000090 	muleq	r0, r0, r0
    1fc8:	08002302 	stmdaeq	r0, {r1, r8, r9, sp}
    1fcc:	00000c15 	andeq	r0, r0, r5, lsl ip
    1fd0:	e705a908 	str	sl, [r5, -r8, lsl #18]
    1fd4:	02000003 	andeq	r0, r0, #3
    1fd8:	03000423 	movweq	r0, #1059	; 0x423
    1fdc:	00000cd5 	ldrdeq	r0, [r0], -r5
    1fe0:	1903aa08 	stmdbne	r3, {r3, r9, fp, sp, pc}
    1fe4:	13000004 	movwne	r0, #4
    1fe8:	0cae0304 	stceq	3, cr0, [lr], #16
    1fec:	16090000 	strne	r0, [r9], -r0
    1ff0:	00008219 	andeq	r8, r0, r9, lsl r2
    1ff4:	0af40300 	beq	ffd02bfc <BootRAM+0xec7339d>
    1ff8:	0c0a0000 	stceq	0, cr0, [sl], {-0}
    1ffc:	0000900d 	andeq	r9, r0, sp
    2000:	0c5b0300 	mrrceq	3, 0, r0, fp, cr0
    2004:	23090000 	movwcs	r0, #36864	; 0x9000
    2008:	00045b1b 	andeq	r5, r4, fp, lsl fp
    200c:	0d2b1400 	cfstrseq	mvf1, [fp, #-0]
    2010:	09180000 	ldmdbeq	r8, {}	; <UNPREDICTABLE>
    2014:	04d90834 	ldrbeq	r0, [r9], #2100	; 0x834
    2018:	61080000 	mrsvs	r0, (UNDEF: 8)
    201c:	0900000f 	stmdbeq	r0, {r0, r1, r2, r3}
    2020:	04d91336 	ldrbeq	r1, [r9], #822	; 0x336
    2024:	23020000 	movwcs	r0, #8192	; 0x2000
    2028:	6b5f1500 	blvs	17c7430 <_Min_Stack_Size+0x17c7030>
    202c:	07370900 	ldreq	r0, [r7, -r0, lsl #18]!
    2030:	00000090 	muleq	r0, r0, r0
    2034:	08042302 	stmdaeq	r4, {r1, r8, r9, sp}
    2038:	00000dd0 	ldrdeq	r0, [r0], -r0	; <UNPREDICTABLE>
    203c:	900b3709 	andls	r3, fp, r9, lsl #14
    2040:	02000000 	andeq	r0, r0, #0
    2044:	40080823 	andmi	r0, r8, r3, lsr #16
    2048:	0900000d 	stmdbeq	r0, {r0, r2, r3}
    204c:	00901437 	addseq	r1, r0, r7, lsr r4
    2050:	23020000 	movwcs	r0, #8192	; 0x2000
    2054:	0bcb080c 	bleq	ff2c408c <BootRAM+0xe23482d>
    2058:	37090000 	strcc	r0, [r9, -r0]
    205c:	0000901b 	andeq	r9, r0, fp, lsl r0
    2060:	10230200 	eorne	r0, r3, r0, lsl #4
    2064:	00785f15 	rsbseq	r5, r8, r5, lsl pc
    2068:	df0b3809 	svcle	0x000b3809
    206c:	02000004 	andeq	r0, r0, #4
    2070:	16001423 	strne	r1, [r0], -r3, lsr #8
    2074:	00047304 	andeq	r7, r4, r4, lsl #6
    2078:	044f0e00 	strbeq	r0, [pc], #-3584	; 2080 <_Min_Stack_Size+0x1c80>
    207c:	04ef0000 	strbteq	r0, [pc], #0	; 2084 <_Min_Stack_Size+0x1c84>
    2080:	9c0f0000 	stcls	0, cr0, [pc], {-0}
    2084:	00000000 	andeq	r0, r0, r0
    2088:	0deb1400 	cfstrdeq	mvd1, [fp]
    208c:	09240000 	stmdbeq	r4!, {}	; <UNPREDICTABLE>
    2090:	0584083c 	streq	r0, [r4, #2108]	; 0x83c
    2094:	e7080000 	str	r0, [r8, -r0]
    2098:	0900000b 	stmdbeq	r0, {r0, r1, r3}
    209c:	0090093e 	addseq	r0, r0, lr, lsr r9
    20a0:	23020000 	movwcs	r0, #8192	; 0x2000
    20a4:	0b7f0800 	bleq	1fc40ac <_Min_Stack_Size+0x1fc3cac>
    20a8:	3f090000 	svccc	0x00090000
    20ac:	00009009 	andeq	r9, r0, r9
    20b0:	04230200 	strteq	r0, [r3], #-512	; 0xfffffe00
    20b4:	000b6d08 	andeq	r6, fp, r8, lsl #26
    20b8:	09400900 	stmdbeq	r0, {r8, fp}^
    20bc:	00000090 	muleq	r0, r0, r0
    20c0:	08082302 	stmdaeq	r8, {r1, r8, r9, sp}
    20c4:	00000c2f 	andeq	r0, r0, pc, lsr #24
    20c8:	90094109 	andls	r4, r9, r9, lsl #2
    20cc:	02000000 	andeq	r0, r0, #0
    20d0:	05080c23 	streq	r0, [r8, #-3107]	; 0xfffff3dd
    20d4:	0900000d 	stmdbeq	r0, {r0, r2, r3}
    20d8:	00900942 	addseq	r0, r0, r2, asr #18
    20dc:	23020000 	movwcs	r0, #8192	; 0x2000
    20e0:	0d660810 	stcleq	8, cr0, [r6, #-64]!	; 0xffffffc0
    20e4:	43090000 	movwmi	r0, #36864	; 0x9000
    20e8:	00009009 	andeq	r9, r0, r9
    20ec:	14230200 	strtne	r0, [r3], #-512	; 0xfffffe00
    20f0:	000b5408 	andeq	r5, fp, r8, lsl #8
    20f4:	09440900 	stmdbeq	r4, {r8, fp}^
    20f8:	00000090 	muleq	r0, r0, r0
    20fc:	08182302 	ldmdaeq	r8, {r1, r8, r9, sp}
    2100:	00000bf0 	strdeq	r0, [r0], -r0	; <UNPREDICTABLE>
    2104:	90094509 	andls	r4, r9, r9, lsl #10
    2108:	02000000 	andeq	r0, r0, #0
    210c:	e0081c23 	and	r1, r8, r3, lsr #24
    2110:	0900000c 	stmdbeq	r0, {r2, r3}
    2114:	00900946 	addseq	r0, r0, r6, asr #18
    2118:	23020000 	movwcs	r0, #8192	; 0x2000
    211c:	6d170020 	ldcvs	0, cr0, [r7, #-128]	; 0xffffff80
    2120:	0800000a 	stmdaeq	r0, {r1, r3}
    2124:	084f0901 	stmdaeq	pc, {r0, r8, fp}^	; <UNPREDICTABLE>
    2128:	000005d2 	ldrdeq	r0, [r0], -r2
    212c:	000eda08 	andeq	sp, lr, r8, lsl #20
    2130:	0a500900 	beq	1404538 <_Min_Stack_Size+0x1404138>
    2134:	000005d2 	ldrdeq	r0, [r0], -r2
    2138:	08002302 	stmdaeq	r0, {r1, r8, r9, sp}
    213c:	00000e1b 	andeq	r0, r0, fp, lsl lr
    2140:	d2095109 	andle	r5, r9, #1073741826	; 0x40000002
    2144:	03000005 	movweq	r0, #5
    2148:	08018023 	stmdaeq	r1, {r0, r1, r5, pc}
    214c:	00000f02 	andeq	r0, r0, r2, lsl #30
    2150:	4f0a5309 	svcmi	0x000a5309
    2154:	03000004 	movweq	r0, #4
    2158:	08028023 	stmdaeq	r2, {r0, r1, r5, pc}
    215c:	00000f4e 	andeq	r0, r0, lr, asr #30
    2160:	4f0a5609 	svcmi	0x000a5609
    2164:	03000004 	movweq	r0, #4
    2168:	00028423 	andeq	r8, r2, r3, lsr #8
    216c:	00044d0e 	andeq	r4, r4, lr, lsl #26
    2170:	0005e200 	andeq	lr, r5, r0, lsl #4
    2174:	009c0f00 	addseq	r0, ip, r0, lsl #30
    2178:	001f0000 	andseq	r0, pc, r0
    217c:	000d1a17 	andeq	r1, sp, r7, lsl sl
    2180:	09019000 	stmdbeq	r1, {ip, pc}
    2184:	062e0862 	strteq	r0, [lr], -r2, ror #16
    2188:	61080000 	mrsvs	r0, (UNDEF: 8)
    218c:	0900000f 	stmdbeq	r0, {r0, r1, r2, r3}
    2190:	062e1263 	strteq	r1, [lr], -r3, ror #4
    2194:	23020000 	movwcs	r0, #8192	; 0x2000
    2198:	0bff0800 	bleq	fffc41a0 <BootRAM+0xef34941>
    219c:	64090000 	strvs	r0, [r9], #-0
    21a0:	00009006 	andeq	r9, r0, r6
    21a4:	04230200 	strteq	r0, [r3], #-512	; 0xfffffe00
    21a8:	000b3808 	andeq	r3, fp, r8, lsl #16
    21ac:	09660900 	stmdbeq	r6!, {r8, fp}^
    21b0:	00000634 	andeq	r0, r0, r4, lsr r6
    21b4:	08082302 	stmdaeq	r8, {r1, r8, r9, sp}
    21b8:	00000a6d 	andeq	r0, r0, sp, ror #20
    21bc:	841e6709 	ldrhi	r6, [lr], #-1801	; 0xfffff8f7
    21c0:	03000005 	movweq	r0, #5
    21c4:	00018823 	andeq	r8, r1, r3, lsr #16
    21c8:	05e20416 	strbeq	r0, [r2, #1046]!	; 0x416
    21cc:	440e0000 	strmi	r0, [lr], #-0
    21d0:	44000006 	strmi	r0, [r0], #-6
    21d4:	0f000006 	svceq	0x00000006
    21d8:	0000009c 	muleq	r0, ip, r0
    21dc:	0416001f 	ldreq	r0, [r6], #-31	; 0xffffffe1
    21e0:	0000064a 	andeq	r0, r0, sl, asr #12
    21e4:	80140118 	andshi	r0, r4, r8, lsl r1
    21e8:	0800000e 	stmdaeq	r0, {r1, r2, r3}
    21ec:	78087a09 	stmdavc	r8, {r0, r3, r9, fp, ip, sp, lr}
    21f0:	08000006 	stmdaeq	r0, {r1, r2}
    21f4:	00000c98 	muleq	r0, r8, ip
    21f8:	78117b09 	ldmdavc	r1, {r0, r3, r8, r9, fp, ip, sp, lr}
    21fc:	02000006 	andeq	r0, r0, #6
    2200:	c6080023 	strgt	r0, [r8], -r3, lsr #32
    2204:	09000007 	stmdbeq	r0, {r0, r1, r2}
    2208:	0090067c 	addseq	r0, r0, ip, ror r6
    220c:	23020000 	movwcs	r0, #8192	; 0x2000
    2210:	04160004 	ldreq	r0, [r6], #-4
    2214:	00000052 	andeq	r0, r0, r2, asr r0
    2218:	000bc314 	andeq	ip, fp, r4, lsl r3
    221c:	ba096800 	blt	25c224 <_Min_Stack_Size+0x25be24>
    2220:	0007f108 	andeq	pc, r7, r8, lsl #2
    2224:	705f1500 	subsvc	r1, pc, r0, lsl #10
    2228:	12bb0900 	adcsne	r0, fp, #0, 18
    222c:	00000678 	andeq	r0, r0, r8, ror r6
    2230:	15002302 	strne	r2, [r0, #-770]	; 0xfffffcfe
    2234:	0900725f 	stmdbeq	r0, {r0, r1, r2, r3, r4, r6, r9, ip, sp, lr}
    2238:	009007bc 			; <UNDEFINED> instruction: 0x009007bc
    223c:	23020000 	movwcs	r0, #8192	; 0x2000
    2240:	775f1504 	ldrbvc	r1, [pc, -r4, lsl #10]
    2244:	07bd0900 	ldreq	r0, [sp, r0, lsl #18]!
    2248:	00000090 	muleq	r0, r0, r0
    224c:	08082302 	stmdaeq	r8, {r1, r8, r9, sp}
    2250:	00000ab5 			; <UNDEFINED> instruction: 0x00000ab5
    2254:	2c09be09 	stccs	14, cr11, [r9], {9}
    2258:	02000000 	andeq	r0, r0, #0
    225c:	c5080c23 	strgt	r0, [r8, #-3107]	; 0xfffff3dd
    2260:	0900000c 	stmdbeq	r0, {r2, r3}
    2264:	002c09bf 	strhteq	r0, [ip], -pc
    2268:	23020000 	movwcs	r0, #8192	; 0x2000
    226c:	625f150e 	subsvs	r1, pc, #58720256	; 0x3800000
    2270:	c0090066 	andgt	r0, r9, r6, rrx
    2274:	00064c11 	andeq	r4, r6, r1, lsl ip
    2278:	10230200 	eorne	r0, r3, r0, lsl #4
    227c:	000aac08 	andeq	sl, sl, r8, lsl #24
    2280:	07c10900 	strbeq	r0, [r1, r0, lsl #18]
    2284:	00000090 	muleq	r0, r0, r0
    2288:	08182302 	ldmdaeq	r8, {r1, r8, r9, sp}
    228c:	00000b3d 	andeq	r0, r0, sp, lsr fp
    2290:	4d0ac809 	stcmi	8, cr12, [sl, #-36]	; 0xffffffdc
    2294:	02000004 	andeq	r0, r0, #4
    2298:	8f081c23 	svchi	0x00081c23
    229c:	09000006 	stmdbeq	r0, {r1, r2}
    22a0:	09a21dca 	stmibeq	r2!, {r1, r3, r6, r7, r8, sl, fp, ip}
    22a4:	23020000 	movwcs	r0, #8192	; 0x2000
    22a8:	05410820 	strbeq	r0, [r1, #-2080]	; 0xfffff7e0
    22ac:	cc090000 	stcgt	0, cr0, [r9], {-0}
    22b0:	0009cd1d 	andeq	ip, r9, sp, lsl sp
    22b4:	24230200 	strtcs	r0, [r3], #-512	; 0xfffffe00
    22b8:	000bd008 	andeq	sp, fp, r8
    22bc:	0dcf0900 	vstreq.16	s1, [pc]	; 22c4 <_Min_Stack_Size+0x1ec4>	; <UNPREDICTABLE>
    22c0:	000009f2 	strdeq	r0, [r0], -r2
    22c4:	08282302 	stmdaeq	r8!, {r1, r8, r9, sp}
    22c8:	00000c70 	andeq	r0, r0, r0, ror ip
    22cc:	0d09d009 	stceq	0, cr13, [r9, #-36]	; 0xffffffdc
    22d0:	0200000a 	andeq	r0, r0, #10
    22d4:	5f152c23 	svcpl	0x00152c23
    22d8:	09006275 	stmdbeq	r0, {r0, r2, r4, r5, r6, r9, sp, lr}
    22dc:	064c11d3 			; <UNDEFINED> instruction: 0x064c11d3
    22e0:	23020000 	movwcs	r0, #8192	; 0x2000
    22e4:	755f1530 	ldrbvc	r1, [pc, #-1328]	; 1dbc <_Min_Stack_Size+0x19bc>
    22e8:	d4090070 	strle	r0, [r9], #-112	; 0xffffff90
    22ec:	00067812 	andeq	r7, r6, r2, lsl r8
    22f0:	38230200 	stmdacc	r3!, {r9}
    22f4:	72755f15 	rsbsvc	r5, r5, #21, 30	; 0x54
    22f8:	07d50900 	ldrbeq	r0, [r5, r0, lsl #18]
    22fc:	00000090 	muleq	r0, r0, r0
    2300:	083c2302 	ldmdaeq	ip!, {r1, r8, r9, sp}
    2304:	00000bd6 	ldrdeq	r0, [r0], -r6
    2308:	1311d809 	tstne	r1, #589824	; 0x90000
    230c:	0200000a 	andeq	r0, r0, #10
    2310:	12084023 	andne	r4, r8, #35	; 0x23
    2314:	0900000f 	stmdbeq	r0, {r0, r1, r2, r3}
    2318:	0a2311d9 	beq	8c6a84 <_Min_Stack_Size+0x8c6684>
    231c:	23020000 	movwcs	r0, #8192	; 0x2000
    2320:	6c5f1543 	cfldr64vs	mvdx1, [pc], {67}	; 0x43
    2324:	dc090062 	stcle	0, cr0, [r9], {98}	; 0x62
    2328:	00064c11 	andeq	r4, r6, r1, lsl ip
    232c:	44230200 	strtmi	r0, [r3], #-512	; 0xfffffe00
    2330:	000de208 	andeq	lr, sp, r8, lsl #4
    2334:	07df0900 	ldrbeq	r0, [pc, r0, lsl #18]
    2338:	00000090 	muleq	r0, r0, r0
    233c:	084c2302 	stmdaeq	ip, {r1, r8, r9, sp}^
    2340:	00000d70 	andeq	r0, r0, r0, ror sp
    2344:	cf0ae009 	svcgt	0x000ae009
    2348:	02000003 	andeq	r0, r0, #3
    234c:	46085023 	strmi	r5, [r8], -r3, lsr #32
    2350:	0900000d 	stmdbeq	r0, {r0, r2, r3}
    2354:	081012e3 	ldmdaeq	r0, {r0, r1, r5, r6, r7, r9, ip}
    2358:	23020000 	movwcs	r0, #8192	; 0x2000
    235c:	0df00854 	ldcleq	8, cr0, [r0, #336]!	; 0x150
    2360:	e7090000 	str	r0, [r9, -r0]
    2364:	0004670c 	andeq	r6, r4, ip, lsl #14
    2368:	58230200 	stmdapl	r3!, {r9}
    236c:	000d2208 	andeq	r2, sp, r8, lsl #4
    2370:	0ee90900 	vfmaeq.f16	s1, s18, s0	; <UNPREDICTABLE>
    2374:	00000441 	andeq	r0, r0, r1, asr #8
    2378:	085c2302 	ldmdaeq	ip, {r1, r8, r9, sp}^
    237c:	00000f46 	andeq	r0, r0, r6, asr #30
    2380:	9009ea09 	andls	lr, r9, r9, lsl #20
    2384:	02000000 	andeq	r0, r0, #0
    2388:	19006423 	stmdbne	r0, {r0, r1, r5, sl, sp, lr}
    238c:	00009001 	andeq	r9, r0, r1
    2390:	00081000 	andeq	r1, r8, r0
    2394:	08101a00 	ldmdaeq	r0, {r9, fp, ip}
    2398:	4d1a0000 	ldcmi	0, cr0, [sl, #-0]
    239c:	1a000004 	bne	23b4 <_Min_Stack_Size+0x1fb4>
    23a0:	00000990 	muleq	r0, r0, r9
    23a4:	0000901a 	andeq	r9, r0, sl, lsl r0
    23a8:	04160000 	ldreq	r0, [r6], #-0
    23ac:	0000081b 	andeq	r0, r0, fp, lsl r8
    23b0:	00081004 	andeq	r1, r8, r4
    23b4:	0ee21b00 	vfmaeq.f64	d17, d2, d0
    23b8:	04280000 	strteq	r0, [r8], #-0
    23bc:	08026509 	stmdaeq	r2, {r0, r3, r8, sl, sp, lr}
    23c0:	00000990 	muleq	r0, r0, r9
    23c4:	000cfe0c 	andeq	pc, ip, ip, lsl #28
    23c8:	02670900 	rsbeq	r0, r7, #0, 18
    23cc:	00009007 	andeq	r9, r0, r7
    23d0:	00230200 	eoreq	r0, r3, r0, lsl #4
    23d4:	000c820c 	andeq	r8, ip, ip, lsl #4
    23d8:	026c0900 	rsbeq	r0, ip, #0, 18
    23dc:	000a850b 	andeq	r8, sl, fp, lsl #10
    23e0:	04230200 	strteq	r0, [r3], #-512	; 0xfffffe00
    23e4:	000b140c 	andeq	r1, fp, ip, lsl #8
    23e8:	026c0900 	rsbeq	r0, ip, #0, 18
    23ec:	000a8514 	andeq	r8, sl, r4, lsl r5
    23f0:	08230200 	stmdaeq	r3!, {r9}
    23f4:	000f720c 	andeq	r7, pc, ip, lsl #4
    23f8:	026c0900 	rsbeq	r0, ip, #0, 18
    23fc:	000a851e 	andeq	r8, sl, lr, lsl r5
    2400:	0c230200 	sfmeq	f0, 4, [r3], #-0
    2404:	000bfa0c 	andeq	pc, fp, ip, lsl #20
    2408:	026e0900 	rsbeq	r0, lr, #0, 18
    240c:	00009008 	andeq	r9, r0, r8
    2410:	10230200 	eorne	r0, r3, r0, lsl #4
    2414:	000bdc0c 	andeq	sp, fp, ip, lsl #24
    2418:	026f0900 	rsbeq	r0, pc, #0, 18
    241c:	000cbe08 	andeq	fp, ip, r8, lsl #28
    2420:	14230200 	strtne	r0, [r3], #-512	; 0xfffffe00
    2424:	000f2d0c 	andeq	r2, pc, ip, lsl #26
    2428:	02720900 	rsbseq	r0, r2, #0, 18
    242c:	00009007 	andeq	r9, r0, r7
    2430:	30230200 	eorcc	r0, r3, r0, lsl #4
    2434:	000ed20c 	andeq	sp, lr, ip, lsl #4
    2438:	02730900 	rsbseq	r0, r3, #0, 18
    243c:	000cd416 	andeq	sp, ip, r6, lsl r4
    2440:	34230200 	strtcc	r0, [r3], #-512	; 0xfffffe00
    2444:	000c770c 	andeq	r7, ip, ip, lsl #14
    2448:	02750900 	rsbseq	r0, r5, #0, 18
    244c:	00009007 	andeq	r9, r0, r7
    2450:	38230200 	stmdacc	r3!, {r9}
    2454:	000ccb0c 	andeq	ip, ip, ip, lsl #22
    2458:	02770900 	rsbseq	r0, r7, #0, 18
    245c:	000ce60a 	andeq	lr, ip, sl, lsl #12
    2460:	3c230200 	sfmcc	f0, 4, [r3], #-0
    2464:	000b5e0c 	andeq	r5, fp, ip, lsl #28
    2468:	027a0900 	rsbseq	r0, sl, #0, 18
    246c:	0004d913 	andeq	sp, r4, r3, lsl r9
    2470:	40230200 	eormi	r0, r3, r0, lsl #4
    2474:	000b970c 	andeq	r9, fp, ip, lsl #14
    2478:	027b0900 	rsbseq	r0, fp, #0, 18
    247c:	00009007 	andeq	r9, r0, r7
    2480:	44230200 	strtmi	r0, [r3], #-512	; 0xfffffe00
    2484:	000c1d0c 	andeq	r1, ip, ip, lsl #26
    2488:	027c0900 	rsbseq	r0, ip, #0, 18
    248c:	0004d913 	andeq	sp, r4, r3, lsl r9
    2490:	48230200 	stmdami	r3!, {r9}
    2494:	000c9e0c 	andeq	r9, ip, ip, lsl #28
    2498:	027d0900 	rsbseq	r0, sp, #0, 18
    249c:	000cec14 	andeq	lr, ip, r4, lsl ip
    24a0:	4c230200 	sfmmi	f0, 4, [r3], #-0
    24a4:	000dc80c 	andeq	ip, sp, ip, lsl #16
    24a8:	02800900 	addeq	r0, r0, #0, 18
    24ac:	00009007 	andeq	r9, r0, r7
    24b0:	50230200 	eorpl	r0, r3, r0, lsl #4
    24b4:	000e270c 	andeq	r2, lr, ip, lsl #14
    24b8:	02810900 	addeq	r0, r1, #0, 18
    24bc:	00099009 	andeq	r9, r9, r9
    24c0:	54230200 	strtpl	r0, [r3], #-512	; 0xfffffe00
    24c4:	000dc30c 	andeq	ip, sp, ip, lsl #6
    24c8:	02a40900 	adceq	r0, r4, #0, 18
    24cc:	000c9907 	andeq	r9, ip, r7, lsl #18
    24d0:	58230200 	stmdapl	r3!, {r9}
    24d4:	000d1a0c 	andeq	r1, sp, ip, lsl #20
    24d8:	02a80900 	adceq	r0, r8, #0, 18
    24dc:	00062e13 	andeq	r2, r6, r3, lsl lr
    24e0:	c8230300 	stmdagt	r3!, {r8, r9}
    24e4:	0c520c02 	mrrceq	12, 0, r0, r2, cr2
    24e8:	a9090000 	stmdbge	r9, {}	; <UNPREDICTABLE>
    24ec:	05e21202 	strbeq	r1, [r2, #514]!	; 0x202
    24f0:	23030000 	movwcs	r0, #12288	; 0x3000
    24f4:	390c02cc 	stmdbcc	ip, {r2, r3, r6, r7, r9}
    24f8:	0900000c 	stmdbeq	r0, {r2, r3}
    24fc:	fe0c02ad 	cdp2	2, 0, cr0, cr12, cr13, {5}
    2500:	0300000c 	movweq	r0, #12
    2504:	0c05dc23 	stceq	12, cr13, [r5], {35}	; 0x23
    2508:	00000eaf 	andeq	r0, r0, pc, lsr #29
    250c:	1002b209 	andne	fp, r2, r9, lsl #4
    2510:	00000a40 	andeq	r0, r0, r0, asr #20
    2514:	05e02303 	strbeq	r2, [r0, #771]!	; 0x303
    2518:	000d3b0c 	andeq	r3, sp, ip, lsl #22
    251c:	02b40900 	adcseq	r0, r4, #0, 18
    2520:	000d0a0a 	andeq	r0, sp, sl, lsl #20
    2524:	ec230300 	stc	3, cr0, [r3], #-0
    2528:	04160005 	ldreq	r0, [r6], #-5
    252c:	00000996 	muleq	r0, r6, r9
    2530:	84080102 	strhi	r0, [r8], #-258	; 0xfffffefe
    2534:	04000002 	streq	r0, [r0], #-2
    2538:	00000996 	muleq	r0, r6, r9
    253c:	07f10416 			; <UNDEFINED> instruction: 0x07f10416
    2540:	01190000 	tsteq	r9, r0
    2544:	00000090 	muleq	r0, r0, r0
    2548:	000009c7 	andeq	r0, r0, r7, asr #19
    254c:	0008101a 	andeq	r1, r8, sl, lsl r0
    2550:	044d1a00 	strbeq	r1, [sp], #-2560	; 0xfffff600
    2554:	c71a0000 	ldrgt	r0, [sl, -r0]
    2558:	1a000009 	bne	2584 <_Min_Stack_Size+0x2184>
    255c:	00000090 	muleq	r0, r0, r0
    2560:	9d041600 	stcls	6, cr1, [r4, #-0]
    2564:	16000009 	strne	r0, [r0], -r9
    2568:	0009a804 	andeq	sl, r9, r4, lsl #16
    256c:	db011900 	blle	48974 <_Min_Stack_Size+0x48574>
    2570:	f2000003 	vhadd.s8	d0, d0, d3
    2574:	1a000009 	bne	25a0 <_Min_Stack_Size+0x21a0>
    2578:	00000810 	andeq	r0, r0, r0, lsl r8
    257c:	00044d1a 	andeq	r4, r4, sl, lsl sp
    2580:	03db1a00 	bicseq	r1, fp, #0, 20
    2584:	901a0000 	andsls	r0, sl, r0
    2588:	00000000 	andeq	r0, r0, r0
    258c:	09d30416 	ldmibeq	r3, {r1, r2, r4, sl}^
    2590:	01190000 	tsteq	r9, r0
    2594:	00000090 	muleq	r0, r0, r0
    2598:	00000a0d 	andeq	r0, r0, sp, lsl #20
    259c:	0008101a 	andeq	r1, r8, sl, lsl r0
    25a0:	044d1a00 	strbeq	r1, [sp], #-2560	; 0xfffff600
    25a4:	16000000 	strne	r0, [r0], -r0
    25a8:	0009f804 	andeq	pc, r9, r4, lsl #16
    25ac:	00520e00 	subseq	r0, r2, r0, lsl #28
    25b0:	0a230000 	beq	8c25b8 <_Min_Stack_Size+0x8c21b8>
    25b4:	9c0f0000 	stcls	0, cr0, [pc], {-0}
    25b8:	02000000 	andeq	r0, r0, #0
    25bc:	00520e00 	subseq	r0, r2, r0, lsl #28
    25c0:	0a330000 	beq	cc25c8 <_Min_Stack_Size+0xcc21c8>
    25c4:	9c0f0000 	stcls	0, cr0, [pc], {-0}
    25c8:	00000000 	andeq	r0, r0, r0
    25cc:	0b661000 	bleq	19865d4 <_Min_Stack_Size+0x19861d4>
    25d0:	24090000 	strcs	r0, [r9], #-0
    25d4:	067e1a01 	ldrbteq	r1, [lr], -r1, lsl #20
    25d8:	a91c0000 	ldmdbge	ip, {}	; <UNPREDICTABLE>
    25dc:	0c00000e 	stceq	0, cr0, [r0], {14}
    25e0:	08012809 	stmdaeq	r1, {r0, r3, fp, sp}
    25e4:	00000a7f 	andeq	r0, r0, pc, ror sl
    25e8:	000f610c 	andeq	r6, pc, ip, lsl #2
    25ec:	012a0900 			; <UNDEFINED> instruction: 0x012a0900
    25f0:	000a7f11 	andeq	r7, sl, r1, lsl pc
    25f4:	00230200 	eoreq	r0, r3, r0, lsl #4
    25f8:	000e140c 	andeq	r1, lr, ip, lsl #8
    25fc:	012b0900 			; <UNDEFINED> instruction: 0x012b0900
    2600:	00009007 	andeq	r9, r0, r7
    2604:	04230200 	strteq	r0, [r3], #-512	; 0xfffffe00
    2608:	000c6a0c 	andeq	r6, ip, ip, lsl #20
    260c:	012c0900 			; <UNDEFINED> instruction: 0x012c0900
    2610:	000a850b 	andeq	r8, sl, fp, lsl #10
    2614:	08230200 	stmdaeq	r3!, {r9}
    2618:	40041600 	andmi	r1, r4, r0, lsl #12
    261c:	1600000a 	strne	r0, [r0], -sl
    2620:	000a3304 	andeq	r3, sl, r4, lsl #6
    2624:	0b8f1c00 	bleq	fe3c962c <BootRAM+0xd339dcd>
    2628:	090e0000 	stmdbeq	lr, {}	; <UNPREDICTABLE>
    262c:	ca080144 	bgt	202b44 <_Min_Stack_Size+0x202744>
    2630:	0c00000a 	stceq	0, cr0, [r0], {10}
    2634:	00000f56 	andeq	r0, r0, r6, asr pc
    2638:	12014509 	andne	r4, r1, #37748736	; 0x2400000
    263c:	00000aca 	andeq	r0, r0, sl, asr #21
    2640:	0c002302 	stceq	3, cr2, [r0], {2}
    2644:	00000ca8 	andeq	r0, r0, r8, lsr #25
    2648:	12014609 	andne	r4, r1, #9437184	; 0x900000
    264c:	00000aca 	andeq	r0, r0, sl, asr #21
    2650:	0c062302 	stceq	3, cr2, [r6], {2}
    2654:	00000e5a 	andeq	r0, r0, sl, asr lr
    2658:	12014709 	andne	r4, r1, #2359296	; 0x240000
    265c:	0000006a 	andeq	r0, r0, sl, rrx
    2660:	000c2302 	andeq	r2, ip, r2, lsl #6
    2664:	00006a0e 	andeq	r6, r0, lr, lsl #20
    2668:	000ada00 	andeq	sp, sl, r0, lsl #20
    266c:	009c0f00 	addseq	r0, ip, r0, lsl #30
    2670:	00020000 	andeq	r0, r2, r0
    2674:	8509d00b 	strhi	sp, [r9, #-11]
    2678:	0c1e0702 	ldceq	7, cr0, [lr], {2}
    267c:	180c0000 	stmdane	ip, {}	; <UNPREDICTABLE>
    2680:	0900000f 	stmdbeq	r0, {r0, r1, r2, r3}
    2684:	9c180287 	lfmls	f0, 4, [r8], {135}	; 0x87
    2688:	02000000 	andeq	r0, r0, #0
    268c:	b70c0023 	strlt	r0, [ip, -r3, lsr #32]
    2690:	0900000e 	stmdbeq	r0, {r1, r2, r3}
    2694:	90120288 	andsls	r0, r2, r8, lsl #5
    2698:	02000009 	andeq	r0, r0, #9
    269c:	b60c0423 	strlt	r0, [ip], -r3, lsr #8
    26a0:	0900000b 	stmdbeq	r0, {r0, r1, r3}
    26a4:	1e100289 	cdpne	2, 1, cr0, cr0, cr9, {4}
    26a8:	0200000c 	andeq	r0, r0, #12
    26ac:	930c0823 	movwls	r0, #51235	; 0xc823
    26b0:	0900000d 	stmdbeq	r0, {r0, r2, r3}
    26b4:	ef17028a 	svc	0x0017028a
    26b8:	02000004 	andeq	r0, r0, #4
    26bc:	890c2423 	stmdbhi	ip, {r0, r1, r5, sl, sp}
    26c0:	0900000c 	stmdbeq	r0, {r2, r3}
    26c4:	900f028b 	andls	r0, pc, fp, lsl #5
    26c8:	02000000 	andeq	r0, r0, #0
    26cc:	5c0c4823 	stcpl	8, cr4, [ip], {35}	; 0x23
    26d0:	0900000f 	stmdbeq	r0, {r0, r1, r2, r3}
    26d4:	892c028c 	stmdbhi	ip!, {r2, r3, r7, r9}
    26d8:	02000000 	andeq	r0, r0, #0
    26dc:	920c5023 	andls	r5, ip, #35	; 0x23
    26e0:	0900000a 	stmdbeq	r0, {r1, r3}
    26e4:	8b1a028d 	blhi	683120 <_Min_Stack_Size+0x682d20>
    26e8:	0200000a 	andeq	r0, r0, #10
    26ec:	220c5823 	andcs	r5, ip, #2293760	; 0x230000
    26f0:	0900000c 	stmdbeq	r0, {r2, r3}
    26f4:	4116028e 	tstmi	r6, lr, lsl #5
    26f8:	02000004 	andeq	r0, r0, #4
    26fc:	c40c6823 	strgt	r6, [ip], #-2083	; 0xfffff7dd
    2700:	0900000e 	stmdbeq	r0, {r1, r2, r3}
    2704:	4116028f 	tstmi	r6, pc, lsl #5
    2708:	02000004 	andeq	r0, r0, #4
    270c:	7b0c7023 	blvc	31e7a0 <_Min_Stack_Size+0x31e3a0>
    2710:	0900000a 	stmdbeq	r0, {r1, r3}
    2714:	41160290 			; <UNDEFINED> instruction: 0x41160290
    2718:	02000004 	andeq	r0, r0, #4
    271c:	d80c7823 	stmdale	ip, {r0, r1, r5, fp, ip, sp, lr}
    2720:	0900000d 	stmdbeq	r0, {r0, r2, r3}
    2724:	2e100291 	mrccs	2, 0, r0, cr0, cr1, {4}
    2728:	0300000c 	movweq	r0, #12
    272c:	0c018023 	stceq	0, cr8, [r1], {35}	; 0x23
    2730:	00000aa0 	andeq	r0, r0, r0, lsr #21
    2734:	10029209 	andne	r9, r2, r9, lsl #4
    2738:	00000c3e 	andeq	r0, r0, lr, lsr ip
    273c:	01882303 	orreq	r2, r8, r3, lsl #6
    2740:	000e2f0c 	andeq	r2, lr, ip, lsl #30
    2744:	02930900 	addseq	r0, r3, #0, 18
    2748:	0000900f 	andeq	r9, r0, pc
    274c:	a0230300 	eorge	r0, r3, r0, lsl #6
    2750:	0b060c01 	bleq	18575c <_Min_Stack_Size+0x18535c>
    2754:	94090000 	strls	r0, [r9], #-0
    2758:	04411602 	strbeq	r1, [r1], #-1538	; 0xfffff9fe
    275c:	23030000 	movwcs	r0, #12288	; 0x3000
    2760:	430c01a4 	movwmi	r0, #49572	; 0xc1a4
    2764:	0900000c 	stmdbeq	r0, {r2, r3}
    2768:	41160295 			; <UNDEFINED> instruction: 0x41160295
    276c:	03000004 	movweq	r0, #4
    2770:	0c01ac23 	stceq	12, cr10, [r1], {35}	; 0x23
    2774:	00000c04 	andeq	r0, r0, r4, lsl #24
    2778:	16029609 	strne	r9, [r2], -r9, lsl #12
    277c:	00000441 	andeq	r0, r0, r1, asr #8
    2780:	01b42303 			; <UNDEFINED> instruction: 0x01b42303
    2784:	000cb60c 	andeq	fp, ip, ip, lsl #12
    2788:	02970900 	addseq	r0, r7, #0, 18
    278c:	00044116 	andeq	r4, r4, r6, lsl r1
    2790:	bc230300 	stclt	3, cr0, [r3], #-0
    2794:	0ceb0c01 	stcleq	12, cr0, [fp], #4
    2798:	98090000 	stmdals	r9, {}	; <UNPREDICTABLE>
    279c:	04411602 	strbeq	r1, [r1], #-1538	; 0xfffff9fe
    27a0:	23030000 	movwcs	r0, #12288	; 0x3000
    27a4:	fc0c01c4 	stc2	1, cr0, [ip], {196}	; 0xc4
    27a8:	0900000c 	stmdbeq	r0, {r2, r3}
    27ac:	90080299 	mulls	r8, r9, r2
    27b0:	03000000 	movweq	r0, #0
    27b4:	0001cc23 	andeq	ip, r1, r3, lsr #24
    27b8:	0009960e 	andeq	r9, r9, lr, lsl #12
    27bc:	000c2e00 	andeq	r2, ip, r0, lsl #28
    27c0:	009c0f00 	addseq	r0, ip, r0, lsl #30
    27c4:	00190000 	andseq	r0, r9, r0
    27c8:	0009960e 	andeq	r9, r9, lr, lsl #12
    27cc:	000c3e00 	andeq	r3, ip, r0, lsl #28
    27d0:	009c0f00 	addseq	r0, ip, r0, lsl #30
    27d4:	00070000 	andeq	r0, r7, r0
    27d8:	0009960e 	andeq	r9, r9, lr, lsl #12
    27dc:	000c4e00 	andeq	r4, ip, r0, lsl #28
    27e0:	009c0f00 	addseq	r0, ip, r0, lsl #30
    27e4:	00170000 	andseq	r0, r7, r0
    27e8:	9e09f00b 	cdpls	0, 0, cr15, cr9, cr11, {0}
    27ec:	0c790702 	ldcleq	7, cr0, [r9], #-8
    27f0:	880c0000 	stmdahi	ip, {}	; <UNPREDICTABLE>
    27f4:	0900000b 	stmdbeq	r0, {r0, r1, r3}
    27f8:	791b02a1 	ldmdbvc	fp, {r0, r5, r7, r9}
    27fc:	0200000c 	andeq	r0, r0, #12
    2800:	890c0023 	stmdbhi	ip, {r0, r1, r5}
    2804:	0900000a 	stmdbeq	r0, {r1, r3}
    2808:	891802a2 	ldmdbhi	r8, {r1, r5, r7, r9}
    280c:	0200000c 	andeq	r0, r0, #12
    2810:	0e007823 	cdpeq	8, 0, cr7, cr0, cr3, {1}
    2814:	00000678 	andeq	r0, r0, r8, ror r6
    2818:	00000c89 	andeq	r0, r0, r9, lsl #25
    281c:	00009c0f 	andeq	r9, r0, pc, lsl #24
    2820:	0e001d00 	cdpeq	13, 0, cr1, cr0, cr0, {0}
    2824:	0000009c 	muleq	r0, ip, r0
    2828:	00000c99 	muleq	r0, r9, ip
    282c:	00009c0f 	andeq	r9, r0, pc, lsl #24
    2830:	1d001d00 	stcne	13, cr1, [r0, #-0]
    2834:	028309f0 	addeq	r0, r3, #240, 18	; 0x3c0000
    2838:	000cbe03 	andeq	fp, ip, r3, lsl #28
    283c:	0ee21e00 	cdpeq	14, 14, cr1, cr2, cr0, {0}
    2840:	9a090000 	bls	242848 <_Min_Stack_Size+0x242448>
    2844:	0ada0b02 	beq	ff685454 <BootRAM+0xe5f5bf5>
    2848:	bb1e0000 	bllt	782850 <_Min_Stack_Size+0x782450>
    284c:	0900000d 	stmdbeq	r0, {r0, r2, r3}
    2850:	4e0b02a3 	cdpmi	2, 0, cr0, cr11, cr3, {5}
    2854:	0000000c 	andeq	r0, r0, ip
    2858:	0009960e 	andeq	r9, r9, lr, lsl #12
    285c:	000cce00 	andeq	ip, ip, r0, lsl #28
    2860:	009c0f00 	addseq	r0, ip, r0, lsl #30
    2864:	00180000 	andseq	r0, r8, r0
    2868:	000f671f 	andeq	r6, pc, pc, lsl r7	; <UNPREDICTABLE>
    286c:	04160100 	ldreq	r0, [r6], #-256	; 0xffffff00
    2870:	00000cce 	andeq	r0, r0, lr, asr #25
    2874:	0ce60120 	stfeqe	f0, [r6], #128	; 0x80
    2878:	101a0000 	andsne	r0, sl, r0
    287c:	00000008 	andeq	r0, r0, r8
    2880:	0cda0416 	cfldrdeq	mvd0, [sl], {22}
    2884:	04160000 	ldreq	r0, [r6], #-0
    2888:	000004d9 	ldrdeq	r0, [r0], -r9
    288c:	0cfe0120 	ldfeqe	f0, [lr], #128	; 0x80
    2890:	901a0000 	andsls	r0, sl, r0
    2894:	00000000 	andeq	r0, r0, r0
    2898:	0d040416 	cfstrseq	mvf0, [r4, #-88]	; 0xffffffa8
    289c:	04160000 	ldreq	r0, [r6], #-0
    28a0:	00000cf2 	strdeq	r0, [r0], -r2
    28a4:	000a330e 	andeq	r3, sl, lr, lsl #6
    28a8:	000d1a00 	andeq	r1, sp, r0, lsl #20
    28ac:	009c0f00 	addseq	r0, ip, r0, lsl #30
    28b0:	00020000 	andeq	r0, r2, r0
    28b4:	000d5a09 	andeq	r5, sp, r9, lsl #20
    28b8:	03330900 	teqeq	r3, #0, 18
    28bc:	00081017 	andeq	r1, r8, r7, lsl r0
    28c0:	09010100 	stmdbeq	r1, {r8}
    28c4:	00000d53 	andeq	r0, r0, r3, asr sp
    28c8:	1d033409 	cfstrsne	mvf3, [r3, #-36]	; 0xffffffdc
    28cc:	00000816 	andeq	r0, r0, r6, lsl r8
    28d0:	4d0e0101 	stfmis	f0, [lr, #-4]
    28d4:	48000000 	stmdami	r0, {}	; <UNPREDICTABLE>
    28d8:	0f00000d 	svceq	0x0000000d
    28dc:	0000009c 	muleq	r0, ip, r0
    28e0:	38040011 	stmdacc	r4, {r0, r4}
    28e4:	2100000d 	tstcs	r0, sp
    28e8:	00000e45 	andeq	r0, r0, r5, asr #28
    28ec:	48161a01 	ldmdami	r6, {r0, r9, fp, ip}
    28f0:	0500000d 	streq	r0, [r0, #-13]
    28f4:	000cf203 	andeq	pc, ip, r3, lsl #4
    28f8:	004d0e08 	subeq	r0, sp, r8, lsl #28
    28fc:	0d6f0000 	stcleq	0, cr0, [pc, #-0]	; 2904 <_Min_Stack_Size+0x2504>
    2900:	9c0f0000 	stcls	0, cr0, [pc], {-0}
    2904:	09000000 	stmdbeq	r0, {}	; <UNPREDICTABLE>
    2908:	0d5f0400 	cfldrdeq	mvd0, [pc, #-0]	; 2910 <_Min_Stack_Size+0x2510>
    290c:	f6210000 			; <UNDEFINED> instruction: 0xf6210000
    2910:	0100000d 	tsteq	r0, sp
    2914:	0d6f162d 	stcleq	6, cr1, [pc, #-180]!	; 2868 <_Min_Stack_Size+0x2468>
    2918:	03050000 	movweq	r0, #20480	; 0x5000
    291c:	08000d47 	stmdaeq	r0, {r0, r1, r2, r6, r8, sl, fp}
    2920:	00004d0e 	andeq	r4, r0, lr, lsl #26
    2924:	000d9600 	andeq	r9, sp, r0, lsl #12
    2928:	009c0f00 	addseq	r0, ip, r0, lsl #30
    292c:	00420000 	subeq	r0, r2, r0
    2930:	000d8604 	andeq	r8, sp, r4, lsl #12
    2934:	0ba12100 	bleq	fe84ad3c <BootRAM+0xd7bb4dd>
    2938:	3d010000 	stccc	0, cr0, [r1, #-0]
    293c:	000d9616 	andeq	r9, sp, r6, lsl r6
    2940:	04030500 	streq	r0, [r3], #-1280	; 0xfffffb00
    2944:	1408000d 	strne	r0, [r8], #-13
    2948:	00000da2 	andeq	r0, r0, r2, lsr #27
    294c:	019a0104 	orrseq	r0, sl, r4, lsl #2
    2950:	00000de8 	andeq	r0, r0, r8, ror #27
    2954:	000f2508 	andeq	r2, pc, r8, lsl #10
    2958:	019a0100 	orrseq	r0, sl, r0, lsl #2
    295c:	00000041 	andeq	r0, r0, r1, asr #32
    2960:	08002302 	stmdaeq	r0, {r1, r8, r9, sp}
    2964:	00000e70 	andeq	r0, r0, r0, ror lr
    2968:	41019a01 	tstmi	r1, r1, lsl #20
    296c:	02000000 	andeq	r0, r0, #0
    2970:	33080123 	movwcc	r0, #33059	; 0x8123
    2974:	0100000d 	tsteq	r0, sp
    2978:	0ded019a 	stfeqe	f0, [sp, #616]!	; 0x268
    297c:	23020000 	movwcs	r0, #8192	; 0x2000
    2980:	ad040002 	stcge	0, cr0, [r4, #-8]
    2984:	0e00000d 	cdpeq	0, 0, cr0, cr0, cr13, {0}
    2988:	00000059 	andeq	r0, r0, r9, asr r0
    298c:	00000dfd 	strdeq	r0, [r0], -sp
    2990:	00009c0f 	andeq	r9, r0, pc, lsl #24
    2994:	21000000 	mrscs	r0, (UNDEF: 0)
    2998:	00000da2 	andeq	r0, r0, r2, lsr #27
    299c:	e8019a01 	stmda	r1, {r0, r9, fp, ip, pc}
    29a0:	0500000d 	streq	r0, [r0, #-13]
    29a4:	000d5203 	andeq	r5, sp, r3, lsl #4
    29a8:	0e871408 	cdpeq	4, 8, cr1, cr7, cr8, {0}
    29ac:	01160000 	tsteq	r6, r0
    29b0:	0e4a019b 	mcreq	1, 2, r0, cr10, cr11, {4}
    29b4:	25080000 	strcs	r0, [r8, #-0]
    29b8:	0100000f 	tsteq	r0, pc
    29bc:	0041019b 	umaaleq	r0, r1, fp, r1
    29c0:	23020000 	movwcs	r0, #8192	; 0x2000
    29c4:	0e700800 	cdpeq	8, 7, cr0, cr0, cr0, {0}
    29c8:	9b010000 	blls	429d0 <_Min_Stack_Size+0x425d0>
    29cc:	00004101 	andeq	r4, r0, r1, lsl #2
    29d0:	01230200 			; <UNDEFINED> instruction: 0x01230200
    29d4:	000d3308 	andeq	r3, sp, r8, lsl #6
    29d8:	019b0100 	orrseq	r0, fp, r0, lsl #2
    29dc:	00000e4f 	andeq	r0, r0, pc, asr #28
    29e0:	00022302 	andeq	r2, r2, r2, lsl #6
    29e4:	000e0f04 	andeq	r0, lr, r4, lsl #30
    29e8:	00590e00 	subseq	r0, r9, r0, lsl #28
    29ec:	0e5f0000 	cdpeq	0, 5, cr0, cr15, cr0, {0}
    29f0:	9c0f0000 	stcls	0, cr0, [pc], {-0}
    29f4:	09000000 	stmdbeq	r0, {}	; <UNPREDICTABLE>
    29f8:	0e872100 	rmfeqs	f2, f7, f0
    29fc:	9b010000 	blls	42a04 <_Min_Stack_Size+0x42604>
    2a00:	000e4a01 	andeq	r4, lr, r1, lsl #20
    2a04:	56030500 	strpl	r0, [r3], -r0, lsl #10
    2a08:	1408000d 	strne	r0, [r8], #-13
    2a0c:	00000ee9 	andeq	r0, r0, r9, ror #29
    2a10:	019c0110 	orrseq	r0, ip, r0, lsl r1
    2a14:	00000eac 	andeq	r0, r0, ip, lsr #29
    2a18:	000f2508 	andeq	r2, pc, r8, lsl #10
    2a1c:	019c0100 	orrseq	r0, ip, r0, lsl #2
    2a20:	00000041 	andeq	r0, r0, r1, asr #32
    2a24:	08002302 	stmdaeq	r0, {r1, r8, r9, sp}
    2a28:	00000e70 	andeq	r0, r0, r0, ror lr
    2a2c:	41019c01 	tstmi	r1, r1, lsl #24
    2a30:	02000000 	andeq	r0, r0, #0
    2a34:	33080123 	movwcc	r0, #33059	; 0x8123
    2a38:	0100000d 	tsteq	r0, sp
    2a3c:	0eb1019c 	mrceq	1, 5, r0, cr1, cr12, {4}
    2a40:	23020000 	movwcs	r0, #8192	; 0x2000
    2a44:	71040002 	tstvc	r4, r2
    2a48:	0e00000e 	cdpeq	0, 0, cr0, cr0, cr14, {0}
    2a4c:	00000059 	andeq	r0, r0, r9, asr r0
    2a50:	00000ec1 	andeq	r0, r0, r1, asr #29
    2a54:	00009c0f 	andeq	r9, r0, pc, lsl #24
    2a58:	21000600 	tstcs	r0, r0, lsl #12
    2a5c:	00000ee9 	andeq	r0, r0, r9, ror #29
    2a60:	ac019c01 	stcge	12, cr9, [r1], {1}
    2a64:	0500000e 	streq	r0, [r0, #-14]
    2a68:	000d6c03 	andeq	r6, sp, r3, lsl #24
    2a6c:	0d781408 	cfldrdeq	mvd1, [r8, #-32]!	; 0xffffffe0
    2a70:	01040000 	mrseq	r0, (UNDEF: 4)
    2a74:	0f0e019d 	svceq	0x000e019d
    2a78:	25080000 	strcs	r0, [r8, #-0]
    2a7c:	0100000f 	tsteq	r0, pc
    2a80:	0041019d 	umaaleq	r0, r1, sp, r1
    2a84:	23020000 	movwcs	r0, #8192	; 0x2000
    2a88:	0e700800 	cdpeq	8, 7, cr0, cr0, cr0, {0}
    2a8c:	9d010000 	stcls	0, cr0, [r1, #-0]
    2a90:	00004101 	andeq	r4, r0, r1, lsl #2
    2a94:	01230200 			; <UNDEFINED> instruction: 0x01230200
    2a98:	000d3308 	andeq	r3, sp, r8, lsl #6
    2a9c:	019d0100 	orrseq	r0, sp, r0, lsl #2
    2aa0:	00000ded 	andeq	r0, r0, sp, ror #27
    2aa4:	00022302 	andeq	r2, r2, r2, lsl #6
    2aa8:	000ed304 	andeq	sp, lr, r4, lsl #6
    2aac:	0d782100 	ldfeqe	f2, [r8, #-0]
    2ab0:	9d010000 	stcls	0, cr0, [r1, #-0]
    2ab4:	000f0e01 	andeq	r0, pc, r1, lsl #28
    2ab8:	7c030500 	cfstr32vc	mvfx0, [r3], {-0}
    2abc:	1408000d 	strne	r0, [r8], #-13
    2ac0:	00000b45 	andeq	r0, r0, r5, asr #22
    2ac4:	08d40107 	ldmeq	r4, {r0, r1, r2, r8}^
    2ac8:	00000f6f 	andeq	r0, r0, pc, ror #30
    2acc:	000a9708 	andeq	r9, sl, r8, lsl #14
    2ad0:	0cd50100 	ldfeqe	f0, [r5], {0}
    2ad4:	00000071 	andeq	r0, r0, r1, ror r0
    2ad8:	08002302 	stmdaeq	r0, {r1, r8, r9, sp}
    2adc:	00000f81 	andeq	r0, r0, r1, lsl #31
    2ae0:	410bd601 	tstmi	fp, r1, lsl #12
    2ae4:	02000000 	andeq	r0, r0, #0
    2ae8:	4d080423 	cfstrsmi	mvf0, [r8, #-140]	; 0xffffff74
    2aec:	0100000a 	tsteq	r0, sl
    2af0:	00410bd7 	ldrdeq	r0, [r1], #-183	; 0xffffff49
    2af4:	23020000 	movwcs	r0, #8192	; 0x2000
    2af8:	0e3c0805 	cdpeq	8, 3, cr0, cr12, cr5, {0}
    2afc:	d8010000 	stmdale	r1, {}	; <UNPREDICTABLE>
    2b00:	0000410b 	andeq	r4, r0, fp, lsl #2
    2b04:	06230200 	strteq	r0, [r3], -r0, lsl #4
    2b08:	0f250500 	svceq	0x00250500
    2b0c:	49220000 	stmdbmi	r2!, {}	; <UNPREDICTABLE>
    2b10:	0100000b 	tsteq	r0, fp
    2b14:	0f6f20db 	svceq	0x006f20db
    2b18:	05010000 	streq	r0, [r1, #-0]
    2b1c:	00000203 	andeq	r0, r0, r3, lsl #4
    2b20:	f0012320 			; <UNDEFINED> instruction: 0xf0012320
    2b24:	01000000 	mrseq	r0, (UNDEF: 0)
    2b28:	7406012d 	strvc	r0, [r6], #-301	; 0xfffffed3
    2b2c:	d808000b 	stmdale	r8, {r0, r1, r3}
    2b30:	7d08000b 	stcvc	0, cr0, [r8, #-44]	; 0xffffffd4
    2b34:	0100000e 	tsteq	r0, lr
    2b38:	00000ff0 	strdeq	r0, [r0], -r0	; <UNPREDICTABLE>
    2b3c:	000b8624 	andeq	r8, fp, r4, lsr #12
    2b40:	000bac08 	andeq	sl, fp, r8, lsl #24
    2b44:	000fd408 	andeq	sp, pc, r8, lsl #8
    2b48:	68632500 	stmdavs	r3!, {r8, sl, sp}^
    2b4c:	01330100 	teqeq	r3, r0, lsl #2
    2b50:	0000410d 	andeq	r4, r0, sp, lsl #2
    2b54:	77910200 	ldrvc	r0, [r1, r0, lsl #4]
    2b58:	000b9c26 	andeq	r9, fp, r6, lsr #24
    2b5c:	00148308 	andseq	r8, r4, r8, lsl #6
    2b60:	50012700 	andpl	r2, r1, r0, lsl #14
    2b64:	27779102 	ldrbcs	r9, [r7, -r2, lsl #2]!
    2b68:	31015101 	tstcc	r1, r1, lsl #2
    2b6c:	5d280000 	stcpl	0, cr0, [r8, #-0]
    2b70:	38000013 	stmdacc	r0, {r0, r1, r4}
    2b74:	01000001 	tsteq	r0, r1
    2b78:	29030139 	stmdbcs	r3, {r0, r3, r4, r5, r8}
    2b7c:	0000136b 	andeq	r1, r0, fp, ror #6
    2b80:	00000ebb 			; <UNDEFINED> instruction: 0x00000ebb
    2b84:	00000eb5 			; <UNDEFINED> instruction: 0x00000eb5
    2b88:	01230000 			; <UNDEFINED> instruction: 0x01230000
    2b8c:	000006b2 			; <UNDEFINED> instruction: 0x000006b2
    2b90:	06012501 	streq	r2, [r1], -r1, lsl #10
    2b94:	08000b3c 	stmdaeq	r0, {r2, r3, r4, r5, r8, r9, fp}
    2b98:	08000b74 	stmdaeq	r0, {r2, r4, r5, r6, r8, r9, fp}
    2b9c:	00000eea 	andeq	r0, r0, sl, ror #29
    2ba0:	00107f01 	andseq	r7, r0, r1, lsl #30
    2ba4:	0b4a2a00 	bleq	128d3ac <_Min_Stack_Size+0x128cfac>
    2ba8:	15330800 	ldrne	r0, [r3, #-2048]!	; 0xfffff800
    2bac:	10320000 	eorsne	r0, r2, r0
    2bb0:	01270000 			; <UNDEFINED> instruction: 0x01270000
    2bb4:	83090250 	movwhi	r0, #37456	; 0x9250
    2bb8:	01510127 	cmpeq	r1, r7, lsr #2
    2bbc:	52012733 	andpl	r2, r1, #13369344	; 0xcc0000
    2bc0:	01273801 			; <UNDEFINED> instruction: 0x01273801
    2bc4:	75030553 	strvc	r0, [r3, #-1363]	; 0xfffffaad
    2bc8:	00080009 	andeq	r0, r8, r9
    2bcc:	000b562a 	andeq	r5, fp, sl, lsr #12
    2bd0:	00154108 	andseq	r4, r5, r8, lsl #2
    2bd4:	00105a00 	andseq	r5, r0, r0, lsl #20
    2bd8:	50012700 	andpl	r2, r1, r0, lsl #14
    2bdc:	27820902 	strcs	r0, [r2, r2, lsl #18]
    2be0:	32015101 	andcc	r5, r1, #1073741824	; 0x40000000
    2be4:	02520127 	subseq	r0, r2, #-1073741815	; 0xc0000009
    2be8:	01274008 			; <UNDEFINED> instruction: 0x01274008
    2bec:	1d030553 	cfstr32ne	mvfx0, [r3, #-332]	; 0xfffffeb4
    2bf0:	0008000b 	andeq	r0, r8, fp
    2bf4:	000b662b 	andeq	r6, fp, fp, lsr #12
    2bf8:	15410108 	strbne	r0, [r1, #-264]	; 0xfffffef8
    2bfc:	01270000 			; <UNDEFINED> instruction: 0x01270000
    2c00:	27310150 			; <UNDEFINED> instruction: 0x27310150
    2c04:	32015101 	andcc	r5, r1, #1073741824	; 0x40000000
    2c08:	02520127 	subseq	r0, r2, #-1073741815	; 0xc0000009
    2c0c:	01274008 			; <UNDEFINED> instruction: 0x01274008
    2c10:	77030553 	smlsdvc	r3, r3, r5, r0
    2c14:	00080009 	andeq	r0, r8, r9
    2c18:	5f012c00 	svcpl	0x00012c00
    2c1c:	0100000e 	tsteq	r0, lr
    2c20:	0106011e 	tsteq	r6, lr, lsl r1
    2c24:	0010b001 	andseq	fp, r0, r1
    2c28:	08ca2d00 	stmiaeq	sl, {r8, sl, fp, sp}^
    2c2c:	1e010000 	cdpne	0, 0, cr0, cr1, cr0, {0}
    2c30:	00411f01 	subeq	r1, r1, r1, lsl #30
    2c34:	63250000 			; <UNDEFINED> instruction: 0x63250000
    2c38:	0100746e 	tsteq	r0, lr, ror #8
    2c3c:	4112011f 	tstmi	r2, pc, lsl r1
    2c40:	05000000 	streq	r0, [r0, #-0]
    2c44:	00002003 	andeq	r2, r0, r3
    2c48:	012e0020 			; <UNDEFINED> instruction: 0x012e0020
    2c4c:	00000abc 			; <UNDEFINED> instruction: 0x00000abc
    2c50:	06011501 	streq	r1, [r1], -r1, lsl #10
    2c54:	00000996 	muleq	r0, r6, r9
    2c58:	08000af6 	stmdaeq	r0, {r1, r2, r4, r5, r6, r7, r9, fp}
    2c5c:	08000b1c 	stmdaeq	r0, {r2, r3, r4, r8, r9, fp}
    2c60:	00000f16 	andeq	r0, r0, r6, lsl pc
    2c64:	00111f01 	andseq	r1, r1, r1, lsl #30
    2c68:	00782500 	rsbseq	r2, r8, r0, lsl #10
    2c6c:	12011601 	andne	r1, r1, #1048576	; 0x100000
    2c70:	00000041 	andeq	r0, r0, r1, asr #32
    2c74:	001f0305 	andseq	r0, pc, r5, lsl #6
    2c78:	63252000 			; <UNDEFINED> instruction: 0x63252000
    2c7c:	17010068 	strne	r0, [r1, -r8, rrx]
    2c80:	111f0b01 	tstne	pc, r1, lsl #22
    2c84:	91020000 	mrsls	r0, (UNDEF: 2)
    2c88:	0b022a70 	bleq	8d650 <_Min_Stack_Size+0x8d250>
    2c8c:	112f0800 			; <UNDEFINED> instruction: 0x112f0800
    2c90:	11090000 	mrsne	r0, (UNDEF: 9)
    2c94:	01270000 			; <UNDEFINED> instruction: 0x01270000
    2c98:	00700250 	rsbseq	r0, r0, r0, asr r2
    2c9c:	02510127 	subseq	r0, r1, #-1073741815	; 0xc0000009
    2ca0:	26000071 			; <UNDEFINED> instruction: 0x26000071
    2ca4:	08000b0a 	stmdaeq	r0, {r1, r3, r8, r9, fp}
    2ca8:	00001483 	andeq	r1, r0, r3, lsl #9
    2cac:	02500127 	subseq	r0, r0, #-1073741815	; 0xc0000009
    2cb0:	0127007d 			; <UNDEFINED> instruction: 0x0127007d
    2cb4:	00350151 	eorseq	r0, r5, r1, asr r1
    2cb8:	00410e00 	subeq	r0, r1, r0, lsl #28
    2cbc:	112f0000 			; <UNDEFINED> instruction: 0x112f0000
    2cc0:	9c0f0000 	stcls	0, cr0, [pc], {-0}
    2cc4:	05000000 	streq	r0, [r0, #-0]
    2cc8:	67012f00 	strvs	r2, [r1, -r0, lsl #30]
    2ccc:	0100000a 	tsteq	r0, sl
    2cd0:	0106010c 	tsteq	r6, ip, lsl #2
    2cd4:	08000ac4 	stmdaeq	r0, {r2, r6, r7, r9, fp}
    2cd8:	08000af6 	stmdaeq	r0, {r1, r2, r4, r5, r6, r7, r9, fp}
    2cdc:	00000f42 	andeq	r0, r0, r2, asr #30
    2ce0:	00116801 	andseq	r6, r1, r1, lsl #16
    2ce4:	00783000 	rsbseq	r3, r8, r0
    2ce8:	14010c01 	strne	r0, [r1], #-3073	; 0xfffff3ff
    2cec:	00000041 	andeq	r0, r0, r1, asr #32
    2cf0:	62305001 	eorsvs	r5, r0, #1
    2cf4:	01006675 	tsteq	r0, r5, ror r6
    2cf8:	901d010c 	andsls	r0, sp, ip, lsl #2
    2cfc:	01000009 	tsteq	r0, r9
    2d00:	012f0051 	qsubeq	r0, r1, pc	; <UNPREDICTABLE>
    2d04:	00000ac1 	andeq	r0, r0, r1, asr #21
    2d08:	06010401 	streq	r0, [r1], -r1, lsl #8
    2d0c:	00097601 	andeq	r7, r9, r1, lsl #12
    2d10:	0009cc08 	andeq	ip, r9, r8, lsl #24
    2d14:	000f6208 	andeq	r6, pc, r8, lsl #4
    2d18:	121d0100 	andsne	r0, sp, #0, 2
    2d1c:	ca310000 	bgt	c42d24 <_Min_Stack_Size+0xc42924>
    2d20:	01000008 	tsteq	r0, r8
    2d24:	41200104 			; <UNDEFINED> instruction: 0x41200104
    2d28:	ac000000 	stcge	0, cr0, [r0], {-0}
    2d2c:	a800000f 	stmdage	r0, {r0, r1, r2, r3}
    2d30:	2500000f 	strcs	r0, [r0, #-15]
    2d34:	00667562 	rsbeq	r7, r6, r2, ror #10
    2d38:	0b010501 	bleq	44144 <_Min_Stack_Size+0x43d44>
    2d3c:	0000121d 	andeq	r1, r0, sp, lsl r2
    2d40:	7fb89103 	svcvc	0x00b89103
    2d44:	6e656c32 	mcrvs	12, 3, r6, cr5, cr2, {1}
    2d48:	01060100 	mrseq	r0, (UNDEF: 22)
    2d4c:	00009007 	andeq	r9, r0, r7
    2d50:	000fcf00 	andeq	ip, pc, r0, lsl #30
    2d54:	000fcd00 	andeq	ip, pc, r0, lsl #26
    2d58:	13d03300 	bicsne	r3, r0, #0, 6
    2d5c:	097c0000 	ldmdbeq	ip!, {}^	; <UNPREDICTABLE>
    2d60:	08000800 	stmdaeq	r0, {fp}
    2d64:	01000001 	tsteq	r0, r1
    2d68:	290d0106 	stmdbcs	sp, {r1, r2, r8}
    2d6c:	000013e2 	andeq	r1, r0, r2, ror #7
    2d70:	00000fe4 	andeq	r0, r0, r4, ror #31
    2d74:	00000fe2 	andeq	r0, r0, r2, ror #31
    2d78:	0013ee29 	andseq	lr, r3, r9, lsr #28
    2d7c:	000ffa00 	andeq	pc, pc, r0, lsl #20
    2d80:	000ff800 	andeq	pc, pc, r0, lsl #16
    2d84:	01083400 	tsteq	r8, r0, lsl #8
    2d88:	fa350000 	blx	d42d90 <_Min_Stack_Size+0xd42990>
    2d8c:	0f000013 	svceq	0x00000013
    2d90:	0d000010 	stceq	0, cr0, [r0, #-64]	; 0xffffffc0
    2d94:	35000010 	strcc	r0, [r0, #-16]
    2d98:	00001406 	andeq	r1, r0, r6, lsl #8
    2d9c:	0000102e 	andeq	r1, r0, lr, lsr #32
    2da0:	0000102c 	andeq	r1, r0, ip, lsr #32
    2da4:	00098e26 	andeq	r8, r9, r6, lsr #28
    2da8:	00154f08 	andseq	r4, r5, r8, lsl #30
    2dac:	51012700 	tstpl	r1, r0, lsl #14
    2db0:	00007d02 	andeq	r7, r0, r2, lsl #26
    2db4:	0e000000 	cdpeq	0, 0, cr0, cr0, cr0, {0}
    2db8:	00000041 	andeq	r0, r0, r1, asr #32
    2dbc:	0000122d 	andeq	r1, r0, sp, lsr #4
    2dc0:	00009c0f 	andeq	r9, r0, pc, lsl #24
    2dc4:	36003f00 	strcc	r3, [r0], -r0, lsl #30
    2dc8:	000ae701 	andeq	lr, sl, r1, lsl #14
    2dcc:	01000100 	mrseq	r0, (UNDEF: 16)
    2dd0:	09740106 	ldmdbeq	r4!, {r1, r2, r8}^
    2dd4:	09760800 	ldmdbeq	r6!, {fp}^
    2dd8:	7d020800 	stcvc	8, cr0, [r2, #-0]
    2ddc:	12580100 	subsne	r0, r8, #0, 2
    2de0:	ca370000 	bgt	dc2de8 <_Min_Stack_Size+0xdc29e8>
    2de4:	01000008 	tsteq	r0, r8
    2de8:	411b0100 	tstmi	fp, r0, lsl #2
    2dec:	01000000 	mrseq	r0, (UNDEF: 0)
    2df0:	01380050 	teqeq	r8, r0, asr r0
    2df4:	000008da 	ldrdeq	r0, [r0], -sl
    2df8:	0106ed01 	tsteq	r6, r1, lsl #26
    2dfc:	00000996 	muleq	r0, r6, r9
    2e00:	08000a9c 	stmdaeq	r0, {r2, r3, r4, r7, r9, fp}
    2e04:	08000ac4 	stmdaeq	r0, {r2, r6, r7, r9, fp}
    2e08:	00001041 	andeq	r1, r0, r1, asr #32
    2e0c:	0012fc01 	andseq	pc, r2, r1, lsl #24
    2e10:	65723900 	ldrbvs	r3, [r2, #-2304]!	; 0xfffff700
    2e14:	ed010071 	stc	0, cr0, [r1, #-452]	; 0xfffffe3c
    2e18:	0012fc27 	andseq	pc, r2, r7, lsr #24
    2e1c:	00106900 	andseq	r6, r0, r0, lsl #18
    2e20:	00106100 	andseq	r6, r0, r0, lsl #2
    2e24:	0d713a00 	vldmdbeq	r1!, {s7-s6}
    2e28:	ed010000 	stc	0, cr0, [r1, #-0]
    2e2c:	00005935 	andeq	r5, r0, r5, lsr r9
    2e30:	0010ab00 	andseq	sl, r0, r0, lsl #22
    2e34:	0010a300 	andseq	sl, r0, r0, lsl #6
    2e38:	07c43a00 	strbeq	r3, [r4, r0, lsl #20]
    2e3c:	ed010000 	stc	0, cr0, [r1, #-0]
    2e40:	00005946 	andeq	r5, r0, r6, asr #18
    2e44:	0010ed00 	andseq	lr, r0, r0, lsl #26
    2e48:	0010e500 	andseq	lr, r0, r0, lsl #10
    2e4c:	14133b00 	ldrne	r3, [r3], #-2816	; 0xfffff500
    2e50:	0ab00000 	beq	fec02e58 <BootRAM+0xdb735f9>
    2e54:	b0010800 	andlt	r0, r1, r0, lsl #16
    2e58:	b808000a 	stmdalt	r8, {r1, r3}
    2e5c:	0108000a 	tsteq	r8, sl
    2e60:	252907f2 	strcs	r0, [r9, #-2034]!	; 0xfffff80e
    2e64:	29000014 	stmdbcs	r0, {r2, r4}
    2e68:	27000011 	smladcs	r0, r1, r0, r0
    2e6c:	29000011 	stmdbcs	r0, {r0, r4}
    2e70:	00001431 	andeq	r1, r0, r1, lsr r4
    2e74:	0000113f 	andeq	r1, r0, pc, lsr r1
    2e78:	0000113d 	andeq	r1, r0, sp, lsr r1
    2e7c:	000ab826 	andeq	fp, sl, r6, lsr #16
    2e80:	00154f08 	andseq	r4, r5, r8, lsl #30
    2e84:	50012700 	andpl	r2, r1, r0, lsl #14
    2e88:	01273101 			; <UNDEFINED> instruction: 0x01273101
    2e8c:	02030551 	andeq	r0, r3, #339738624	; 0x14400000
    2e90:	00200000 	eoreq	r0, r0, r0
    2e94:	04160000 	ldreq	r0, [r6], #-0
    2e98:	000000f8 	strdeq	r0, [r0], -r8
    2e9c:	0792013c 			; <UNDEFINED> instruction: 0x0792013c
    2ea0:	e2010000 	and	r0, r1, #0
    2ea4:	09960106 	ldmibeq	r6, {r1, r2, r8}
    2ea8:	0a780000 	beq	1e02eb0 <_Min_Stack_Size+0x1e02ab0>
    2eac:	0a9c0800 	beq	fe704eb4 <BootRAM+0xd675655>
    2eb0:	7d020800 	stcvc	8, cr0, [r2, #-0]
    2eb4:	13510100 	cmpne	r1, #0, 2
    2eb8:	72390000 	eorsvc	r0, r9, #0
    2ebc:	01007165 	tsteq	r0, r5, ror #2
    2ec0:	12fc26e2 	rscsne	r2, ip, #236978176	; 0xe200000
    2ec4:	115f0000 	cmpne	pc, r0
    2ec8:	11570000 	cmpne	r7, r0
    2ecc:	473d0000 	ldrmi	r0, [sp, -r0]!
    2ed0:	0100000d 	tsteq	r0, sp
    2ed4:	135132e2 	cmpne	r1, #536870926	; 0x2000000e
    2ed8:	51010000 	mrspl	r0, (UNDEF: 1)
    2edc:	0007c73d 	andeq	ip, r7, sp, lsr r7
    2ee0:	42e20100 	rscmi	r0, r2, #0, 2
    2ee4:	00001357 	andeq	r1, r0, r7, asr r3
    2ee8:	16005201 	strne	r5, [r0], -r1, lsl #4
    2eec:	00044d04 	andeq	r4, r4, r4, lsl #26
    2ef0:	59041600 	stmdbpl	r4, {r9, sl, ip}
    2ef4:	3e000000 	cdpcc	0, 0, cr0, cr0, cr0, {0}
    2ef8:	00000191 	muleq	r0, r1, r1
    2efc:	010dc501 	tsteq	sp, r1, lsl #10
    2f00:	00137801 	andseq	r7, r3, r1, lsl #16
    2f04:	020b3f00 	andeq	r3, fp, #0, 30
    2f08:	c5010000 	strgt	r0, [r1, #-0]
    2f0c:	0000711c 	andeq	r7, r0, ip, lsl r1
    2f10:	01400000 	mrseq	r0, (UNDEF: 64)
    2f14:	000005a2 	andeq	r0, r0, r2, lsr #11
    2f18:	01069f01 	tsteq	r6, r1, lsl #30
    2f1c:	080009fc 	stmdaeq	r0, {r2, r3, r4, r5, r6, r7, r8, fp}
    2f20:	08000a78 	stmdaeq	r0, {r3, r4, r5, r6, r9, fp}
    2f24:	01007d02 	tsteq	r0, r2, lsl #26
    2f28:	000013c3 	andeq	r1, r0, r3, asr #7
    2f2c:	0005b43a 	andeq	fp, r5, sl, lsr r4
    2f30:	279f0100 	ldrcs	r0, [pc, r0, lsl #2]
    2f34:	00000059 	andeq	r0, r0, r9, asr r0
    2f38:	000011a1 	andeq	r1, r0, r1, lsr #3
    2f3c:	00001199 	muleq	r0, r9, r1
    2f40:	000d473d 	andeq	r4, sp, sp, lsr r7
    2f44:	3b9f0100 	blcc	fe7c334c <BootRAM+0xd733aed>
    2f48:	000013c3 	andeq	r1, r0, r3, asr #7
    2f4c:	c73d5101 	ldrgt	r5, [sp, -r1, lsl #2]!
    2f50:	01000007 	tsteq	r0, r7
    2f54:	13574b9f 	cmpne	r7, #162816	; 0x27c00
    2f58:	52010000 	andpl	r0, r1, #0
    2f5c:	c9041600 	stmdbgt	r4, {r9, sl, ip}
    2f60:	16000013 			; <UNDEFINED> instruction: 0x16000013
    2f64:	0013cf04 	andseq	ip, r3, r4, lsl #30
    2f68:	54424100 	strbpl	r4, [r2], #-256	; 0xffffff00
    2f6c:	0200000a 	andeq	r0, r0, #10
    2f70:	900113bd 			; <UNDEFINED> instruction: 0x900113bd
    2f74:	03000000 	movweq	r0, #0
    2f78:	00001413 	andeq	r1, r0, r3, lsl r4
    2f7c:	0008ca3f 	andeq	ip, r8, pc, lsr sl
    2f80:	2ebd0200 	cdpcs	2, 11, cr0, cr13, cr0, {0}
    2f84:	00000041 	andeq	r0, r0, r1, asr #32
    2f88:	66756243 	ldrbtvs	r6, [r5], -r3, asr #4
    2f8c:	3fbd0200 	svccc	0x00bd0200
    2f90:	00001357 	andeq	r1, r0, r7, asr r3
    2f94:	78646944 	stmdavc	r4!, {r2, r6, r8, fp, sp, lr}^
    2f98:	0bbe0200 	bleq	fef837a0 <BootRAM+0xdef3f41>
    2f9c:	00000041 	andeq	r0, r0, r1, asr #32
    2fa0:	73657244 	cmnvc	r5, #68, 4	; 0x40000004
    2fa4:	07bf0200 	ldreq	r0, [pc, r0, lsl #4]!
    2fa8:	00000090 	muleq	r0, r0, r0
    2fac:	06894200 	streq	r4, [r9], r0, lsl #4
    2fb0:	ba020000 	blt	82fb8 <_Min_Stack_Size+0x82bb8>
    2fb4:	00900113 	addseq	r0, r0, r3, lsl r1
    2fb8:	3e030000 	cdpcc	0, 0, cr0, cr3, cr0, {0}
    2fbc:	3f000014 	svccc	0x00000014
    2fc0:	000008ca 	andeq	r0, r0, sl, asr #17
    2fc4:	4127ba02 			; <UNDEFINED> instruction: 0x4127ba02
    2fc8:	43000000 	movwmi	r0, #0
    2fcc:	00667562 	rsbeq	r7, r6, r2, ror #10
    2fd0:	5738ba02 	ldrpl	fp, [r8, -r2, lsl #20]!
    2fd4:	00000013 	andeq	r0, r0, r3, lsl r0
    2fd8:	000ad33e 	andeq	sp, sl, lr, lsr r3
    2fdc:	14b10200 	ldrtne	r0, [r1], #512	; 0x200
    2fe0:	147d0301 	ldrbtne	r0, [sp], #-769	; 0xfffffcff
    2fe4:	ca3f0000 	bgt	fc2fec <_Min_Stack_Size+0xfc2bec>
    2fe8:	02000008 	andeq	r0, r0, #8
    2fec:	004130b1 	strheq	r3, [r1], #-1
    2ff0:	62430000 	subvs	r0, r3, #0
    2ff4:	02006675 	andeq	r6, r0, #122683392	; 0x7500000
    2ff8:	147d46b1 	ldrbtne	r4, [sp], #-1713	; 0xfffff94f
    2ffc:	c73f0000 	ldrgt	r0, [pc, -r0]!
    3000:	02000007 	andeq	r0, r0, #7
    3004:	005954b1 	ldrheq	r5, [r9], #-65	; 0xffffffbf
    3008:	69440000 	stmdbvs	r4, {}^	; <UNPREDICTABLE>
    300c:	02007864 	andeq	r7, r0, #100, 16	; 0x640000
    3010:	00410bb3 	strheq	r0, [r1], #-179	; 0xffffff4d
    3014:	16000000 	strne	r0, [r0], -r0
    3018:	00004d04 	andeq	r4, r0, r4, lsl #26
    301c:	143e4500 	ldrtne	r4, [lr], #-1280	; 0xfffffb00
    3020:	09cc0000 	stmibeq	ip, {}^	; <UNPREDICTABLE>
    3024:	09fc0800 	ldmibeq	ip!, {fp}^
    3028:	11db0800 	bicsne	r0, fp, r0, lsl #16
    302c:	e0010000 	and	r0, r1, r0
    3030:	29000014 	stmdbcs	r0, {r2, r4}
    3034:	00001458 	andeq	r1, r0, r8, asr r4
    3038:	0000120d 	andeq	r1, r0, sp, lsl #4
    303c:	00001207 	andeq	r1, r0, r7, lsl #4
    3040:	00146429 	andseq	r6, r4, r9, lsr #8
    3044:	00123d00 	andseq	r3, r2, r0, lsl #26
    3048:	00123900 	andseq	r3, r2, r0, lsl #18
    304c:	14703500 	ldrbtne	r3, [r0], #-1280	; 0xfffffb00
    3050:	12640000 	rsbne	r0, r4, #0
    3054:	125e0000 	subsne	r0, lr, #0
    3058:	4c290000 	stcmi	0, cr0, [r9], #-0
    305c:	95000014 	strls	r0, [r0, #-20]	; 0xffffffec
    3060:	91000012 	tstls	r0, r2, lsl r0
    3064:	2b000012 	blcs	30b4 <_Min_Stack_Size+0x2cb4>
    3068:	080009f6 	stmdaeq	r0, {r1, r2, r4, r5, r6, r7, r8, fp}
    306c:	00155d01 	andseq	r5, r5, r1, lsl #26
    3070:	51012700 	tstpl	r1, r0, lsl #14
    3074:	5001f303 	andpl	pc, r1, r3, lsl #6
    3078:	7f450000 	svcvc	0x00450000
    307c:	1c000010 	stcne	0, cr0, [r0], {16}
    3080:	3c08000b 	stccc	0, cr0, [r8], {11}
    3084:	b608000b 	strlt	r0, [r8], -fp
    3088:	01000012 	tsteq	r0, r2, lsl r0
    308c:	00001533 	andeq	r1, r0, r3, lsr r5
    3090:	00108f29 	andseq	r8, r0, r9, lsr #30
    3094:	0012de00 	andseq	sp, r2, r0, lsl #28
    3098:	0012d600 	andseq	sp, r2, r0, lsl #12
    309c:	107f3300 	rsbsne	r3, pc, r0, lsl #6
    30a0:	0b2c0000 	bleq	b030a8 <_Min_Stack_Size+0xb02ca8>
    30a4:	20000800 	andcs	r0, r0, r0, lsl #16
    30a8:	01000001 	tsteq	r0, r1
    30ac:	2906011e 	stmdbcs	r6, {r1, r2, r3, r4, r8}
    30b0:	0000108f 	andeq	r1, r0, pc, lsl #1
    30b4:	0000131a 	andeq	r1, r0, sl, lsl r3
    30b8:	00001318 	andeq	r1, r0, r8, lsl r3
    30bc:	00012034 	andeq	r2, r1, r4, lsr r0
    30c0:	0b304600 	bleq	c148c8 <_Min_Stack_Size+0xc144c8>
    30c4:	10b00800 	adcsne	r0, r0, r0, lsl #16
    30c8:	00000000 	andeq	r0, r0, r0
    30cc:	01014700 	tsteq	r1, r0, lsl #14
    30d0:	00000848 	andeq	r0, r0, r8, asr #16
    30d4:	00000848 	andeq	r0, r0, r8, asr #16
    30d8:	47062502 	strmi	r2, [r6, -r2, lsl #10]
    30dc:	095e0101 	ldmdbeq	lr, {r0, r8}^
    30e0:	095e0000 	ldmdbeq	lr, {}^	; <UNPREDICTABLE>
    30e4:	26020000 	strcs	r0, [r2], -r0
    30e8:	01014706 	tsteq	r1, r6, lsl #14
    30ec:	00000688 	andeq	r0, r0, r8, lsl #13
    30f0:	00000688 	andeq	r0, r0, r8, lsl #13
    30f4:	4705b902 	strmi	fp, [r5, -r2, lsl #18]
    30f8:	053a0101 	ldreq	r0, [sl, #-257]!	; 0xfffffeff
    30fc:	053a0000 	ldreq	r0, [sl, #-0]!
    3100:	ac020000 	stcge	0, cr0, [r2], {-0}
    3104:	01160006 	tsteq	r6, r6
    3108:	00040000 	andeq	r0, r4, r0
    310c:	00000b63 	andeq	r0, r0, r3, ror #22
    3110:	10280104 	eorne	r0, r8, r4, lsl #2
    3114:	da0c0000 	ble	30311c <_Min_Stack_Size+0x302d1c>
    3118:	b6000010 			; <UNDEFINED> instruction: 0xb6000010
    311c:	d800000f 	stmdale	r0, {r0, r1, r2, r3}
    3120:	4808000b 	stmdami	r8, {r0, r1, r3}
    3124:	bf000000 	svclt	0x00000000
    3128:	0200000f 	andeq	r0, r0, #15
    312c:	027d0601 	rsbseq	r0, sp, #1048576	; 0x100000
    3130:	01020000 	mrseq	r0, (UNDEF: 2)
    3134:	00027b08 	andeq	r7, r2, r8, lsl #22
    3138:	05020200 	streq	r0, [r2, #-512]	; 0xfffffe00
    313c:	00000296 	muleq	r0, r6, r2
    3140:	7e070202 	cdpvc	2, 0, cr0, cr7, cr2, {0}
    3144:	02000001 	andeq	r0, r0, #1
    3148:	00820504 	addeq	r0, r2, r4, lsl #10
    314c:	04020000 	streq	r0, [r2], #-0
    3150:	00004d07 	andeq	r4, r0, r7, lsl #26
    3154:	05080200 	streq	r0, [r8, #-512]	; 0xfffffe00
    3158:	0000007d 	andeq	r0, r0, sp, ror r0
    315c:	48070802 	stmdami	r7, {r1, fp}
    3160:	03000000 	movweq	r0, #0
    3164:	6e690504 	cdpvs	5, 6, cr0, cr9, cr4, {0}
    3168:	04020074 	streq	r0, [r2], #-116	; 0xffffff8c
    316c:	00005207 	andeq	r5, r0, r7, lsl #4
    3170:	0f9d0400 	svceq	0x009d0400
    3174:	d8020000 	stmdale	r2, {}	; <UNPREDICTABLE>
    3178:	00006417 	andeq	r6, r0, r7, lsl r4
    317c:	04080200 	streq	r0, [r8], #-512	; 0xfffffe00
    3180:	00000d0e 	andeq	r0, r0, lr, lsl #26
    3184:	84080102 	strhi	r0, [r8], #-258	; 0xfffffefe
    3188:	05000002 	streq	r0, [r0, #-2]
    318c:	00000090 	muleq	r0, r0, r0
    3190:	00000090 	muleq	r0, r0, r0
    3194:	04070006 	streq	r0, [r7], #-6
    3198:	00000096 	muleq	r0, r6, r0
    319c:	10120908 	andsne	r0, r2, r8, lsl #18
    31a0:	13010000 	movwne	r0, #4096	; 0x1000
    31a4:	0000850f 	andeq	r8, r0, pc, lsl #10
    31a8:	10b50900 	adcsne	r0, r5, r0, lsl #18
    31ac:	14010000 	strne	r0, [r1], #-0
    31b0:	0000850f 	andeq	r8, r0, pc, lsl #10
    31b4:	0f8a0900 	svceq	0x008a0900
    31b8:	15010000 	strne	r0, [r1, #-0]
    31bc:	0000850f 	andeq	r8, r0, pc, lsl #10
    31c0:	10c90900 	sbcne	r0, r9, r0, lsl #18
    31c4:	16010000 	strne	r0, [r1], -r0
    31c8:	0000850f 	andeq	r8, r0, pc, lsl #10
    31cc:	0fa40a00 	svceq	0x00a40a00
    31d0:	1e010000 	cdpne	0, 0, cr0, cr1, cr0, {0}
    31d4:	000bd801 	andeq	sp, fp, r1, lsl #16
    31d8:	00004808 	andeq	r4, r0, r8, lsl #16
    31dc:	0d9c0100 	ldfeqs	f0, [ip]
    31e0:	0b000001 	bleq	31ec <_Min_Stack_Size+0x2dec>
    31e4:	000004f2 	strdeq	r0, [r0], -r2
    31e8:	6b0a2001 	blvs	28b1f4 <_Min_Stack_Size+0x28adf4>
    31ec:	38000000 	stmdacc	r0, {}	; <UNPREDICTABLE>
    31f0:	30000013 	andcc	r0, r0, r3, lsl r0
    31f4:	0c000013 	stceq	0, cr0, [r0], {19}
    31f8:	21010069 	tstcs	r1, r9, rrx
    31fc:	00006b0a 	andeq	r6, r0, sl, lsl #22
    3200:	00138400 	andseq	r8, r3, r0, lsl #8
    3204:	00137400 	andseq	r7, r3, r0, lsl #8
    3208:	0bfa0d00 	bleq	ffe86610 <BootRAM+0xedf6db1>
    320c:	010d0800 	tsteq	sp, r0, lsl #16
    3210:	0e000000 	cdpeq	0, 0, cr0, cr0, cr0, {0}
    3214:	0000084e 	andeq	r0, r0, lr, asr #16
    3218:	0000084e 	andeq	r0, r0, lr, asr #16
    321c:	000d1901 	andeq	r1, sp, r1, lsl #18

Disassembly of section .debug_abbrev:

00000000 <.debug_abbrev>:
   0:	25011101 	strcs	r1, [r1, #-257]	; 0xfffffeff
   4:	030b130e 	movweq	r1, #45838	; 0xb30e
   8:	550e1b0e 	strpl	r1, [lr, #-2830]	; 0xfffff4f2
   c:	52011106 	andpl	r1, r1, #-2147483647	; 0x80000001
  10:	00061001 	andeq	r1, r6, r1
  14:	00240200 	eoreq	r0, r4, r0, lsl #4
  18:	0b3e0b0b 	bleq	f82c4c <_Min_Stack_Size+0xf8284c>
  1c:	00000e03 	andeq	r0, r0, r3, lsl #28
  20:	03001603 	movweq	r1, #1539	; 0x603
  24:	3b0b3a0e 	blcc	2ce864 <_Min_Stack_Size+0x2ce464>
  28:	490b390b 	stmdbmi	fp, {r0, r1, r3, r8, fp, ip, sp}
  2c:	04000013 	streq	r0, [r0], #-19	; 0xffffffed
  30:	13490035 	movtne	r0, #36917	; 0x9035
  34:	24050000 	strcs	r0, [r5], #-0
  38:	3e0b0b00 	vmlacc.f64	d0, d11, d0
  3c:	0008030b 	andeq	r0, r8, fp, lsl #6
  40:	00340600 	eorseq	r0, r4, r0, lsl #12
  44:	0b3a0e03 	bleq	e83858 <_Min_Stack_Size+0xe83458>
  48:	0b39053b 	bleq	e4153c <_Min_Stack_Size+0xe4113c>
  4c:	0c3f1349 	ldceq	3, cr1, [pc], #-292	; ffffff30 <BootRAM+0xef706d1>
  50:	00000c3c 	andeq	r0, r0, ip, lsr ip
  54:	03003407 	movweq	r3, #1031	; 0x407
  58:	3b0b3a0e 	blcc	2ce898 <_Min_Stack_Size+0x2ce498>
  5c:	490b390b 	stmdbmi	fp, {r0, r1, r3, r8, fp, ip, sp}
  60:	3c0c3f13 	stccc	15, cr3, [ip], {19}
  64:	0800000c 	stmdaeq	r0, {r2, r3}
  68:	0b0b0113 	bleq	2c04bc <_Min_Stack_Size+0x2c00bc>
  6c:	053b0b3a 	ldreq	r0, [fp, #-2874]!	; 0xfffff4c6
  70:	13010b39 	movwne	r0, #6969	; 0x1b39
  74:	0d090000 	stceq	0, cr0, [r9, #-0]
  78:	3a080300 	bcc	200c80 <_Min_Stack_Size+0x200880>
  7c:	39053b0b 	stmdbcc	r5, {r0, r1, r3, r8, r9, fp, ip, sp}
  80:	3813490b 	ldmdacc	r3, {r0, r1, r3, r8, fp, lr}
  84:	0a00000a 	beq	b4 <_Min_Heap_Size+0xb4>
  88:	0e03000d 	cdpeq	0, 0, cr0, cr3, cr13, {0}
  8c:	053b0b3a 	ldreq	r0, [fp, #-2874]!	; 0xfffff4c6
  90:	13490b39 	movtne	r0, #39737	; 0x9b39
  94:	00000a38 	andeq	r0, r0, r8, lsr sl
  98:	4901010b 	stmdbmi	r1, {r0, r1, r3, r8}
  9c:	00130113 	andseq	r0, r3, r3, lsl r1
  a0:	00210c00 	eoreq	r0, r1, r0, lsl #24
  a4:	0b2f1349 	bleq	bc4dd0 <_Min_Stack_Size+0xbc49d0>
  a8:	160d0000 	strne	r0, [sp], -r0
  ac:	3a0e0300 	bcc	380cb4 <_Min_Stack_Size+0x3808b4>
  b0:	39053b0b 	stmdbcc	r5, {r0, r1, r3, r8, r9, fp, ip, sp}
  b4:	0013490b 	andseq	r4, r3, fp, lsl #18
  b8:	012e0e00 			; <UNDEFINED> instruction: 0x012e0e00
  bc:	0e030c3f 	mcreq	12, 0, r0, cr3, cr15, {1}
  c0:	0b3b0b3a 	bleq	ec2db0 <_Min_Stack_Size+0xec29b0>
  c4:	0c270b39 			; <UNDEFINED> instruction: 0x0c270b39
  c8:	01111349 	tsteq	r1, r9, asr #6
  cc:	06400112 			; <UNDEFINED> instruction: 0x06400112
  d0:	010c4297 			; <UNDEFINED> instruction: 0x010c4297
  d4:	0f000013 	svceq	0x00000013
  d8:	0111010b 	tsteq	r1, fp, lsl #2
  dc:	13010112 	movwne	r0, #4370	; 0x1112
  e0:	34100000 	ldrcc	r0, [r0], #-0
  e4:	3a0e0300 	bcc	380cec <_Min_Stack_Size+0x3808ec>
  e8:	390b3b0b 	stmdbcc	fp, {r0, r1, r3, r8, r9, fp, ip, sp}
  ec:	0213490b 	andseq	r4, r3, #180224	; 0x2c000
  f0:	0642b706 	strbeq	fp, [r2], -r6, lsl #14
  f4:	1d110000 	ldcne	0, cr0, [r1, #-0]
  f8:	52133100 	andspl	r3, r3, #0, 2
  fc:	0b42b801 	bleq	10ae108 <_Min_Stack_Size+0x10add08>
 100:	01120111 	tsteq	r2, r1, lsl r1
 104:	0b590b58 	bleq	1642e6c <_Min_Stack_Size+0x1642a6c>
 108:	00000b57 	andeq	r0, r0, r7, asr fp
 10c:	01828912 	orreq	r8, r2, r2, lsl r9
 110:	31011101 	tstcc	r1, r1, lsl #2
 114:	00130113 	andseq	r0, r3, r3, lsl r1
 118:	828a1300 	addhi	r1, sl, #0, 6
 11c:	0a020001 	beq	80128 <_Min_Stack_Size+0x7fd28>
 120:	000a4291 	muleq	sl, r1, r2
 124:	82891400 	addhi	r1, r9, #0, 8
 128:	01110001 	tsteq	r1, r1
 12c:	00001331 	andeq	r1, r0, r1, lsr r3
 130:	01828915 	orreq	r8, r2, r5, lsl r9
 134:	31011101 	tstcc	r1, r1, lsl #2
 138:	16000013 			; <UNDEFINED> instruction: 0x16000013
 13c:	0c3f012e 	ldfeqs	f0, [pc], #-184	; 8c <_Min_Heap_Size+0x8c>
 140:	0b3a0e03 	bleq	e83954 <_Min_Stack_Size+0xe83554>
 144:	0b390b3b 	bleq	e42e38 <_Min_Stack_Size+0xe42a38>
 148:	01110c27 	tsteq	r1, r7, lsr #24
 14c:	0a400112 	beq	100059c <_Min_Stack_Size+0x100019c>
 150:	010c4297 			; <UNDEFINED> instruction: 0x010c4297
 154:	17000013 	smladne	r0, r3, r0, r0
 158:	0e030005 	cdpeq	0, 0, cr0, cr3, cr5, {0}
 15c:	0b3b0b3a 	bleq	ec2e4c <_Min_Stack_Size+0xec2a4c>
 160:	13490b39 	movtne	r0, #39737	; 0x9b39
 164:	42b70602 	adcsmi	r0, r7, #2097152	; 0x200000
 168:	18000006 	stmdane	r0, {r1, r2}
 16c:	0c3f002e 	ldceq	0, cr0, [pc], #-184	; bc <_Min_Heap_Size+0xbc>
 170:	0b3a0e03 	bleq	e83984 <_Min_Stack_Size+0xe83584>
 174:	0b390b3b 	bleq	e42e68 <_Min_Stack_Size+0xe42a68>
 178:	01110c27 	tsteq	r1, r7, lsr #24
 17c:	0a400112 	beq	10005cc <_Min_Stack_Size+0x10001cc>
 180:	000c4297 	muleq	ip, r7, r2
 184:	002e1900 	eoreq	r1, lr, r0, lsl #18
 188:	0e030c3f 	mcreq	12, 0, r0, cr3, cr15, {1}
 18c:	0b3b0b3a 	bleq	ec2e7c <_Min_Stack_Size+0xec2a7c>
 190:	0c270b39 			; <UNDEFINED> instruction: 0x0c270b39
 194:	2e1a0000 	cdpcs	0, 1, cr0, cr10, cr0, {0}
 198:	030c3f01 	movweq	r3, #52993	; 0xcf01
 19c:	3b0b3a0e 	blcc	2ce9dc <_Min_Stack_Size+0x2ce5dc>
 1a0:	110b390b 	tstne	fp, fp, lsl #18
 1a4:	40011201 	andmi	r1, r1, r1, lsl #4
 1a8:	0c42970a 	mcrreq	7, 0, r9, r2, cr10
 1ac:	00001301 	andeq	r1, r0, r1, lsl #6
 1b0:	0300341b 	movweq	r3, #1051	; 0x41b
 1b4:	3b0b3a08 	blcc	2ce9dc <_Min_Stack_Size+0x2ce5dc>
 1b8:	490b390b 	stmdbmi	fp, {r0, r1, r3, r8, fp, ip, sp}
 1bc:	b7060213 	smladlt	r6, r3, r2, r0
 1c0:	00000642 	andeq	r0, r0, r2, asr #12
 1c4:	3f012e1c 	svccc	0x00012e1c
 1c8:	3a0e030c 	bcc	380e00 <_Min_Stack_Size+0x380a00>
 1cc:	390b3b0b 	stmdbcc	fp, {r0, r1, r3, r8, r9, fp, ip, sp}
 1d0:	490c270b 	stmdbmi	ip, {r0, r1, r3, r8, r9, sl, sp}
 1d4:	12011113 	andne	r1, r1, #-1073741820	; 0xc0000004
 1d8:	970a4001 	strls	r4, [sl, -r1]
 1dc:	13010c42 	movwne	r0, #7234	; 0x1c42
 1e0:	051d0000 	ldreq	r0, [sp, #-0]
 1e4:	3a0e0300 	bcc	380dec <_Min_Stack_Size+0x3809ec>
 1e8:	390b3b0b 	stmdbcc	fp, {r0, r1, r3, r8, r9, fp, ip, sp}
 1ec:	0213490b 	andseq	r4, r3, #180224	; 0x2c000
 1f0:	1e00000a 	cdpne	0, 0, cr0, cr0, cr10, {0}
 1f4:	0e03002e 	cdpeq	0, 0, cr0, cr3, cr14, {1}
 1f8:	053b0b3a 	ldreq	r0, [fp, #-2874]!	; 0xfffff4c6
 1fc:	0b200b39 	bleq	802ee8 <_Min_Stack_Size+0x802ae8>
 200:	2e1f0000 	cdpcs	0, 1, cr0, cr15, cr0, {0}
 204:	3c0c3f00 	stccc	15, cr3, [ip], {-0}
 208:	0e40870c 	cdpeq	7, 4, cr8, cr0, cr12, {0}
 20c:	0b3a0e03 	bleq	e83a20 <_Min_Stack_Size+0xe83620>
 210:	0b390b3b 	bleq	e42f04 <_Min_Stack_Size+0xe42b04>
 214:	01000000 	mrseq	r0, (UNDEF: 0)
 218:	0e250111 	mcreq	1, 1, r0, cr5, cr1, {0}
 21c:	0e030b13 	vmoveq.32	d3[0], r0
 220:	01110e1b 	tsteq	r1, fp, lsl lr
 224:	06100112 			; <UNDEFINED> instruction: 0x06100112
 228:	24020000 	strcs	r0, [r2], #-0
 22c:	3e0b0b00 	vmlacc.f64	d0, d11, d0
 230:	000e030b 	andeq	r0, lr, fp, lsl #6
 234:	00160300 	andseq	r0, r6, r0, lsl #6
 238:	0b3a0e03 	bleq	e83a4c <_Min_Stack_Size+0xe8364c>
 23c:	0b390b3b 	bleq	e42f30 <_Min_Stack_Size+0xe42b30>
 240:	00001349 	andeq	r1, r0, r9, asr #6
 244:	49003504 	stmdbmi	r0, {r2, r8, sl, ip, sp}
 248:	05000013 	streq	r0, [r0, #-19]	; 0xffffffed
 24c:	13490026 	movtne	r0, #36902	; 0x9026
 250:	24060000 	strcs	r0, [r6], #-0
 254:	3e0b0b00 	vmlacc.f64	d0, d11, d0
 258:	0008030b 	andeq	r0, r8, fp, lsl #6
 25c:	000f0700 	andeq	r0, pc, r0, lsl #14
 260:	13490b0b 	movtne	r0, #39691	; 0x9b0b
 264:	15080000 	strne	r0, [r8, #-0]
 268:	010c2701 	tsteq	ip, r1, lsl #14
 26c:	09000013 	stmdbeq	r0, {r0, r1, r4}
 270:	13490005 	movtne	r0, #36869	; 0x9005
 274:	130a0000 	movwne	r0, #40960	; 0xa000
 278:	3a0b0b01 	bcc	2c2e84 <_Min_Stack_Size+0x2c2a84>
 27c:	390b3b0b 	stmdbcc	fp, {r0, r1, r3, r8, r9, fp, ip, sp}
 280:	0013010b 	andseq	r0, r3, fp, lsl #2
 284:	000d0b00 	andeq	r0, sp, r0, lsl #22
 288:	0b3a0e03 	bleq	e83a9c <_Min_Stack_Size+0xe8369c>
 28c:	0b390b3b 	bleq	e42f80 <_Min_Stack_Size+0xe42b80>
 290:	0a381349 	beq	e04fbc <_Min_Stack_Size+0xe04bbc>
 294:	040c0000 	streq	r0, [ip], #-0
 298:	0b0b3e01 	bleq	2cfaa4 <_Min_Stack_Size+0x2cf6a4>
 29c:	3a13490b 	bcc	4d26d0 <_Min_Stack_Size+0x4d22d0>
 2a0:	390b3b0b 	stmdbcc	fp, {r0, r1, r3, r8, r9, fp, ip, sp}
 2a4:	0013010b 	andseq	r0, r3, fp, lsl #2
 2a8:	00280d00 	eoreq	r0, r8, r0, lsl #26
 2ac:	0d1c0e03 	ldceq	14, cr0, [ip, #-12]
 2b0:	280e0000 	stmdacs	lr, {}	; <UNPREDICTABLE>
 2b4:	1c0e0300 	stcne	3, cr0, [lr], {-0}
 2b8:	0f00000b 	svceq	0x0000000b
 2bc:	050b0113 	streq	r0, [fp, #-275]	; 0xfffffeed
 2c0:	0b3b0b3a 	bleq	ec2fb0 <_Min_Stack_Size+0xec2bb0>
 2c4:	13010b39 	movwne	r0, #6969	; 0x1b39
 2c8:	0d100000 	ldceq	0, cr0, [r0, #-0]
 2cc:	3a080300 	bcc	200ed4 <_Min_Stack_Size+0x200ad4>
 2d0:	390b3b0b 	stmdbcc	fp, {r0, r1, r3, r8, r9, fp, ip, sp}
 2d4:	3813490b 	ldmdacc	r3, {r0, r1, r3, r8, fp, lr}
 2d8:	1100000a 	tstne	r0, sl
 2dc:	13490101 	movtne	r0, #37121	; 0x9101
 2e0:	00001301 	andeq	r1, r0, r1, lsl #6
 2e4:	49002112 	stmdbmi	r0, {r1, r4, r8, sp}
 2e8:	000b2f13 	andeq	r2, fp, r3, lsl pc
 2ec:	00211300 	eoreq	r1, r1, r0, lsl #6
 2f0:	052f1349 	streq	r1, [pc, #-841]!	; ffffffaf <BootRAM+0xef70750>
 2f4:	34140000 	ldrcc	r0, [r4], #-0
 2f8:	3a0e0300 	bcc	380f00 <_Min_Stack_Size+0x380b00>
 2fc:	39053b0b 	stmdbcc	r5, {r0, r1, r3, r8, r9, fp, ip, sp}
 300:	3f13490b 	svccc	0x0013490b
 304:	000c3c0c 	andeq	r3, ip, ip, lsl #24
 308:	00341500 	eorseq	r1, r4, r0, lsl #10
 30c:	0b3a0e03 	bleq	e83b20 <_Min_Stack_Size+0xe83720>
 310:	0b390b3b 	bleq	e43004 <_Min_Stack_Size+0xe42c04>
 314:	0c3f1349 	ldceq	3, cr1, [pc], #-292	; 1f8 <_Min_Heap_Size+0x1f8>
 318:	00000c3c 	andeq	r0, r0, ip, lsr ip
 31c:	0b011316 	bleq	44f7c <_Min_Stack_Size+0x44b7c>
 320:	3b0b3a0b 	blcc	2ceb54 <_Min_Stack_Size+0x2ce754>
 324:	010b3905 	tsteq	fp, r5, lsl #18
 328:	17000013 	smladne	r0, r3, r0, r0
 32c:	0e03000d 	cdpeq	0, 0, cr0, cr3, cr13, {0}
 330:	053b0b3a 	ldreq	r0, [fp, #-2874]!	; 0xfffff4c6
 334:	13490b39 	movtne	r0, #39737	; 0x9b39
 338:	00000a38 	andeq	r0, r0, r8, lsr sl
 33c:	03000d18 	movweq	r0, #3352	; 0xd18
 340:	3b0b3a08 	blcc	2ceb68 <_Min_Stack_Size+0x2ce768>
 344:	490b3905 	stmdbmi	fp, {r0, r2, r8, fp, ip, sp}
 348:	000a3813 	andeq	r3, sl, r3, lsl r8
 34c:	00161900 	andseq	r1, r6, r0, lsl #18
 350:	0b3a0e03 	bleq	e83b64 <_Min_Stack_Size+0xe83764>
 354:	0b39053b 	bleq	e41848 <_Min_Stack_Size+0xe41448>
 358:	00001349 	andeq	r1, r0, r9, asr #6
 35c:	03000d1a 	movweq	r0, #3354	; 0xd1a
 360:	3b0b3a0e 	blcc	2ceba0 <_Min_Stack_Size+0x2ce7a0>
 364:	490b390b 	stmdbmi	fp, {r0, r1, r3, r8, fp, ip, sp}
 368:	0d0b0b13 	vstreq	d0, [fp, #-76]	; 0xffffffb4
 36c:	380b0c0b 	stmdacc	fp, {r0, r1, r3, sl, fp}
 370:	1b00000a 	blne	3a0 <_Min_Heap_Size+0x3a0>
 374:	0b0b0117 	bleq	2c07d8 <_Min_Stack_Size+0x2c03d8>
 378:	0b3b0b3a 	bleq	ec3068 <_Min_Stack_Size+0xec2c68>
 37c:	13010b39 	movwne	r0, #6969	; 0x1b39
 380:	0d1c0000 	ldceq	0, cr0, [ip, #-0]
 384:	3a0e0300 	bcc	380f8c <_Min_Stack_Size+0x380b8c>
 388:	390b3b0b 	stmdbcc	fp, {r0, r1, r3, r8, r9, fp, ip, sp}
 38c:	0013490b 	andseq	r4, r3, fp, lsl #18
 390:	000d1d00 	andeq	r1, sp, r0, lsl #26
 394:	00001349 	andeq	r1, r0, r9, asr #6
 398:	49000d1e 	stmdbmi	r0, {r1, r2, r3, r4, r8, sl, fp}
 39c:	000a3813 	andeq	r3, sl, r3, lsl r8
 3a0:	00341f00 	eorseq	r1, r4, r0, lsl #30
 3a4:	0b3a0e03 	bleq	e83bb8 <_Min_Stack_Size+0xe837b8>
 3a8:	0b390b3b 	bleq	e4309c <_Min_Stack_Size+0xe42c9c>
 3ac:	0c3f1349 	ldceq	3, cr1, [pc], #-292	; 290 <_Min_Heap_Size+0x290>
 3b0:	00000a02 	andeq	r0, r0, r2, lsl #20
 3b4:	03003420 	movweq	r3, #1056	; 0x420
 3b8:	3b0b3a0e 	blcc	2cebf8 <_Min_Stack_Size+0x2ce7f8>
 3bc:	490b390b 	stmdbmi	fp, {r0, r1, r3, r8, fp, ip, sp}
 3c0:	000a0213 	andeq	r0, sl, r3, lsl r2
 3c4:	000d2100 	andeq	r2, sp, r0, lsl #2
 3c8:	0b3a0e03 	bleq	e83bdc <_Min_Stack_Size+0xe837dc>
 3cc:	0b39053b 	bleq	e418c0 <_Min_Stack_Size+0xe414c0>
 3d0:	0b0b1349 	bleq	2c50fc <_Min_Stack_Size+0x2c4cfc>
 3d4:	0b0c0b0d 	bleq	303010 <_Min_Stack_Size+0x302c10>
 3d8:	00000a38 	andeq	r0, r0, r8, lsr sl
 3dc:	0b011722 	bleq	4606c <_Min_Stack_Size+0x45c6c>
 3e0:	3b0b3a0b 	blcc	2cec14 <_Min_Stack_Size+0x2ce814>
 3e4:	010b3905 	tsteq	fp, r5, lsl #18
 3e8:	23000013 	movwcs	r0, #19
 3ec:	0e03000d 	cdpeq	0, 0, cr0, cr3, cr13, {0}
 3f0:	053b0b3a 	ldreq	r0, [fp, #-2874]!	; 0xfffff4c6
 3f4:	13490b39 	movtne	r0, #39737	; 0x9b39
 3f8:	2e240000 	cdpcs	0, 2, cr0, cr4, cr0, {0}
 3fc:	030c3f01 	movweq	r3, #52993	; 0xcf01
 400:	3b0b3a0e 	blcc	2cec40 <_Min_Stack_Size+0x2ce840>
 404:	270b3905 	strcs	r3, [fp, -r5, lsl #18]
 408:	1113490c 	tstne	r3, ip, lsl #18
 40c:	40011201 	andmi	r1, r1, r1, lsl #4
 410:	0c429706 	mcrreq	7, 0, r9, r2, cr6
 414:	00001301 	andeq	r1, r0, r1, lsl #6
 418:	03000525 	movweq	r0, #1317	; 0x525
 41c:	3b0b3a08 	blcc	2cec44 <_Min_Stack_Size+0x2ce844>
 420:	490b3905 	stmdbmi	fp, {r0, r2, r8, fp, ip, sp}
 424:	b7060213 	smladlt	r6, r3, r2, r0
 428:	00000642 	andeq	r0, r0, r2, asr #12
 42c:	03003426 	movweq	r3, #1062	; 0x426
 430:	3b0b3a0e 	blcc	2cec70 <_Min_Stack_Size+0x2ce870>
 434:	490b3905 	stmdbmi	fp, {r0, r2, r8, fp, ip, sp}
 438:	b7060213 	smladlt	r6, r3, r2, r0
 43c:	00000642 	andeq	r0, r0, r2, asr #12
 440:	03003427 	movweq	r3, #1063	; 0x427
 444:	3b0b3a08 	blcc	2cec6c <_Min_Stack_Size+0x2ce86c>
 448:	490b3905 	stmdbmi	fp, {r0, r2, r8, fp, ip, sp}
 44c:	b7060213 	smladlt	r6, r3, r2, r0
 450:	00000642 	andeq	r0, r0, r2, asr #12
 454:	55010b28 	strpl	r0, [r1, #-2856]	; 0xfffff4d8
 458:	29000006 	stmdbcs	r0, {r1, r2}
 45c:	0c3f012e 	ldfeqs	f0, [pc], #-184	; 3ac <_Min_Heap_Size+0x3ac>
 460:	0b3a0e03 	bleq	e83c74 <_Min_Stack_Size+0xe83874>
 464:	0b39053b 	bleq	e41958 <_Min_Stack_Size+0xe41558>
 468:	01110c27 	tsteq	r1, r7, lsr #24
 46c:	06400112 			; <UNDEFINED> instruction: 0x06400112
 470:	010c4297 			; <UNDEFINED> instruction: 0x010c4297
 474:	2a000013 	bcs	4c8 <_Min_Stack_Size+0xc8>
 478:	08030005 	stmdaeq	r3, {r0, r2}
 47c:	053b0b3a 	ldreq	r0, [fp, #-2874]!	; 0xfffff4c6
 480:	13490b39 	movtne	r0, #39737	; 0x9b39
 484:	00000a02 	andeq	r0, r0, r2, lsl #20
 488:	0300052b 	movweq	r0, #1323	; 0x52b
 48c:	3b0b3a0e 	blcc	2ceccc <_Min_Stack_Size+0x2ce8cc>
 490:	490b3905 	stmdbmi	fp, {r0, r2, r8, fp, ip, sp}
 494:	000a0213 	andeq	r0, sl, r3, lsl r2
 498:	012e2c00 			; <UNDEFINED> instruction: 0x012e2c00
 49c:	0e030c3f 	mcreq	12, 0, r0, cr3, cr15, {1}
 4a0:	053b0b3a 	ldreq	r0, [fp, #-2874]!	; 0xfffff4c6
 4a4:	01110b39 	tsteq	r1, r9, lsr fp
 4a8:	06400112 			; <UNDEFINED> instruction: 0x06400112
 4ac:	010c4297 			; <UNDEFINED> instruction: 0x010c4297
 4b0:	2d000013 	stccs	0, cr0, [r0, #-76]	; 0xffffffb4
 4b4:	0655010b 	ldrbeq	r0, [r5], -fp, lsl #2
 4b8:	00001301 	andeq	r1, r0, r1, lsl #6
 4bc:	11010b2e 	tstne	r1, lr, lsr #22
 4c0:	01011201 	tsteq	r1, r1, lsl #4
 4c4:	2f000013 	svccs	0x00000013
 4c8:	01018289 	smlabbeq	r1, r9, r2, r8
 4cc:	13010111 	movwne	r0, #4369	; 0x1111
 4d0:	8a300000 	bhi	c004d8 <_Min_Stack_Size+0xc000d8>
 4d4:	02000182 	andeq	r0, r0, #-2147483616	; 0x80000020
 4d8:	0a42910a 	beq	10a4908 <_Min_Stack_Size+0x10a4508>
 4dc:	89310000 	ldmdbhi	r1!, {}	; <UNPREDICTABLE>
 4e0:	11010182 	smlabbne	r1, r2, r1, r0
 4e4:	32000001 	andcc	r0, r0, #1
 4e8:	00018289 	andeq	r8, r1, r9, lsl #5
 4ec:	13310111 	teqne	r1, #1073741828	; 0x40000004
 4f0:	89330000 	ldmdbhi	r3!, {}	; <UNPREDICTABLE>
 4f4:	11010182 	smlabbne	r1, r2, r1, r0
 4f8:	01133101 	tsteq	r3, r1, lsl #2
 4fc:	34000013 	strcc	r0, [r0], #-19	; 0xffffffed
 500:	0c3f012e 	ldfeqs	f0, [pc], #-184	; 450 <_Min_Stack_Size+0x50>
 504:	0b3a0e03 	bleq	e83d18 <_Min_Stack_Size+0xe83918>
 508:	0b390b3b 	bleq	e431fc <_Min_Stack_Size+0xe42dfc>
 50c:	01110c27 	tsteq	r1, r7, lsr #24
 510:	06400112 			; <UNDEFINED> instruction: 0x06400112
 514:	010c4297 			; <UNDEFINED> instruction: 0x010c4297
 518:	35000013 	strcc	r0, [r0, #-19]	; 0xffffffed
 51c:	0e030005 	cdpeq	0, 0, cr0, cr3, cr5, {0}
 520:	0b3b0b3a 	bleq	ec3210 <_Min_Stack_Size+0xec2e10>
 524:	13490b39 	movtne	r0, #39737	; 0x9b39
 528:	42b70602 	adcsmi	r0, r7, #2097152	; 0x200000
 52c:	36000006 	strcc	r0, [r0], -r6
 530:	0e030005 	cdpeq	0, 0, cr0, cr3, cr5, {0}
 534:	0b3b0b3a 	bleq	ec3224 <_Min_Stack_Size+0xec2e24>
 538:	13490b39 	movtne	r0, #39737	; 0x9b39
 53c:	00000a02 	andeq	r0, r0, r2, lsl #20
 540:	03003437 	movweq	r3, #1079	; 0x437
 544:	3b0b3a0e 	blcc	2ced84 <_Min_Stack_Size+0x2ce984>
 548:	490b390b 	stmdbmi	fp, {r0, r1, r3, r8, fp, ip, sp}
 54c:	b7060213 	smladlt	r6, r3, r2, r0
 550:	00000642 	andeq	r0, r0, r2, asr #12
 554:	03003438 	movweq	r3, #1080	; 0x438
 558:	3b0b3a08 	blcc	2ced80 <_Min_Stack_Size+0x2ce980>
 55c:	490b390b 	stmdbmi	fp, {r0, r1, r3, r8, fp, ip, sp}
 560:	b7060213 	smladlt	r6, r3, r2, r0
 564:	00000642 	andeq	r0, r0, r2, asr #12
 568:	03012e39 	movweq	r2, #7737	; 0x1e39
 56c:	3b0b3a0e 	blcc	2cedac <_Min_Stack_Size+0x2ce9ac>
 570:	270b390b 	strcs	r3, [fp, -fp, lsl #18]
 574:	1201110c 	andne	r1, r1, #12, 2
 578:	97064001 	strls	r4, [r6, -r1]
 57c:	13010c42 	movwne	r0, #7234	; 0x1c42
 580:	893a0000 	ldmdbhi	sl!, {}	; <UNPREDICTABLE>
 584:	11010182 	smlabbne	r1, r2, r1, r0
 588:	00133101 	andseq	r3, r3, r1, lsl #2
 58c:	011d3b00 	tsteq	sp, r0, lsl #22
 590:	01521331 	cmpeq	r2, r1, lsr r3
 594:	110b42b8 			; <UNDEFINED> instruction: 0x110b42b8
 598:	58011201 	stmdapl	r1, {r0, r9, ip}
 59c:	570b590b 	strpl	r5, [fp, -fp, lsl #18]
 5a0:	0013010b 	andseq	r0, r3, fp, lsl #2
 5a4:	00053c00 	andeq	r3, r5, r0, lsl #24
 5a8:	06021331 			; <UNDEFINED> instruction: 0x06021331
 5ac:	000642b7 			; <UNDEFINED> instruction: 0x000642b7
 5b0:	011d3d00 	tsteq	sp, r0, lsl #26
 5b4:	01521331 	cmpeq	r2, r1, lsr r3
 5b8:	550b42b8 	strpl	r4, [fp, #-696]	; 0xfffffd48
 5bc:	590b5806 	stmdbpl	fp, {r1, r2, fp, ip, lr}
 5c0:	010b570b 	tsteq	fp, fp, lsl #14
 5c4:	3e000013 	mcrcc	0, 0, r0, cr0, cr3, {0}
 5c8:	0b0b000f 	bleq	2c060c <_Min_Stack_Size+0x2c020c>
 5cc:	263f0000 	ldrtcs	r0, [pc], -r0
 5d0:	40000000 	andmi	r0, r0, r0
 5d4:	0e03012e 	adfeqsp	f0, f3, #0.5
 5d8:	0b3b0b3a 	bleq	ec32c8 <_Min_Stack_Size+0xec2ec8>
 5dc:	0c270b39 			; <UNDEFINED> instruction: 0x0c270b39
 5e0:	13010b20 	movwne	r0, #6944	; 0x1b20
 5e4:	05410000 	strbeq	r0, [r1, #-0]
 5e8:	3a080300 	bcc	2011f0 <_Min_Stack_Size+0x200df0>
 5ec:	390b3b0b 	stmdbcc	fp, {r0, r1, r3, r8, r9, fp, ip, sp}
 5f0:	0013490b 	andseq	r4, r3, fp, lsl #18
 5f4:	00054200 	andeq	r4, r5, r0, lsl #4
 5f8:	0b3a0e03 	bleq	e83e0c <_Min_Stack_Size+0xe83a0c>
 5fc:	0b390b3b 	bleq	e432f0 <_Min_Stack_Size+0xe42ef0>
 600:	00001349 	andeq	r1, r0, r9, asr #6
 604:	31011d43 	tstcc	r1, r3, asr #26
 608:	b8015213 	stmdalt	r1, {r0, r1, r4, r9, ip, lr}
 60c:	06550b42 	ldrbeq	r0, [r5], -r2, asr #22
 610:	0b590b58 	bleq	1643378 <_Min_Stack_Size+0x1642f78>
 614:	00000b57 	andeq	r0, r0, r7, asr fp
 618:	3f012e44 	svccc	0x00012e44
 61c:	3a0e030c 	bcc	381254 <_Min_Stack_Size+0x380e54>
 620:	390b3b0b 	stmdbcc	fp, {r0, r1, r3, r8, r9, fp, ip, sp}
 624:	1201110b 	andne	r1, r1, #-1073741822	; 0xc0000002
 628:	970a4001 	strls	r4, [sl, -r1]
 62c:	13010c42 	movwne	r0, #7234	; 0x1c42
 630:	1d450000 	stclne	0, cr0, [r5, #-0]
 634:	52133101 	andspl	r3, r3, #1073741824	; 0x40000000
 638:	0b42b801 	bleq	10ae644 <_Min_Stack_Size+0x10ae244>
 63c:	01120111 	tsteq	r2, r1, lsl r1
 640:	0b590b58 	bleq	16433a8 <_Min_Stack_Size+0x1642fa8>
 644:	00000b57 	andeq	r0, r0, r7, asr fp
 648:	3f012e46 	svccc	0x00012e46
 64c:	3a0e030c 	bcc	381284 <_Min_Stack_Size+0x380e84>
 650:	390b3b0b 	stmdbcc	fp, {r0, r1, r3, r8, r9, fp, ip, sp}
 654:	490c270b 	stmdbmi	ip, {r0, r1, r3, r8, r9, sl, sp}
 658:	12011113 	andne	r1, r1, #-1073741820	; 0xc0000004
 65c:	970a4001 	strls	r4, [sl, -r1]
 660:	13010c42 	movwne	r0, #7234	; 0x1c42
 664:	05470000 	strbeq	r0, [r7, #-0]
 668:	3a080300 	bcc	201270 <_Min_Stack_Size+0x200e70>
 66c:	390b3b0b 	stmdbcc	fp, {r0, r1, r3, r8, r9, fp, ip, sp}
 670:	0213490b 	andseq	r4, r3, #180224	; 0x2c000
 674:	0642b706 	strbeq	fp, [r2], -r6, lsl #14
 678:	2e480000 	cdpcs	0, 4, cr0, cr8, cr0, {0}
 67c:	030c3f00 	movweq	r3, #52992	; 0xcf00
 680:	3b0b3a0e 	blcc	2ceec0 <_Min_Stack_Size+0x2ceac0>
 684:	000b390b 	andeq	r3, fp, fp, lsl #18
 688:	002e4900 	eoreq	r4, lr, r0, lsl #18
 68c:	0e030c3f 	mcreq	12, 0, r0, cr3, cr15, {1}
 690:	0b3b0b3a 	bleq	ec3380 <_Min_Stack_Size+0xec2f80>
 694:	0b200b39 	bleq	803380 <_Min_Stack_Size+0x802f80>
 698:	2e4a0000 	cdpcs	0, 4, cr0, cr10, cr0, {0}
 69c:	3a0e0301 	bcc	3812a8 <_Min_Stack_Size+0x380ea8>
 6a0:	390b3b0b 	stmdbcc	fp, {r0, r1, r3, r8, r9, fp, ip, sp}
 6a4:	490c270b 	stmdbmi	ip, {r0, r1, r3, r8, r9, sl, sp}
 6a8:	010b2013 	tsteq	fp, r3, lsl r0
 6ac:	4b000013 	blmi	700 <_Min_Stack_Size+0x300>
 6b0:	0e03012e 	adfeqsp	f0, f3, #0.5
 6b4:	053b0b3a 	ldreq	r0, [fp, #-2874]!	; 0xfffff4c6
 6b8:	0c270b39 			; <UNDEFINED> instruction: 0x0c270b39
 6bc:	13010b20 	movwne	r0, #6944	; 0x1b20
 6c0:	054c0000 	strbeq	r0, [ip, #-0]
 6c4:	3a0e0300 	bcc	3812cc <_Min_Stack_Size+0x380ecc>
 6c8:	39053b0b 	stmdbcc	r5, {r0, r1, r3, r8, r9, fp, ip, sp}
 6cc:	0013490b 	andseq	r4, r3, fp, lsl #18
 6d0:	002e4d00 	eoreq	r4, lr, r0, lsl #26
 6d4:	01111331 	tsteq	r1, r1, lsr r3
 6d8:	0a400112 	beq	1000b28 <_Min_Stack_Size+0x1000728>
 6dc:	000c4297 	muleq	ip, r7, r2
 6e0:	002e4e00 	eoreq	r4, lr, r0, lsl #28
 6e4:	0c3c0c3f 	ldceq	12, cr0, [ip], #-252	; 0xffffff04
 6e8:	030e4087 	movweq	r4, #57479	; 0xe087
 6ec:	3b0b3a0e 	blcc	2cef2c <_Min_Stack_Size+0x2ceb2c>
 6f0:	000b390b 	andeq	r3, fp, fp, lsl #18
 6f4:	11010000 	mrsne	r0, (UNDEF: 1)
 6f8:	130e2501 	movwne	r2, #58625	; 0xe501
 6fc:	1b0e030b 	blne	381330 <_Min_Stack_Size+0x380f30>
 700:	1201110e 	andne	r1, r1, #-2147483645	; 0x80000003
 704:	00061001 	andeq	r1, r6, r1
 708:	00240200 	eoreq	r0, r4, r0, lsl #4
 70c:	0b3e0b0b 	bleq	f83340 <_Min_Stack_Size+0xf82f40>
 710:	00000e03 	andeq	r0, r0, r3, lsl #28
 714:	03001603 	movweq	r1, #1539	; 0x603
 718:	3b0b3a0e 	blcc	2cef58 <_Min_Stack_Size+0x2ceb58>
 71c:	490b390b 	stmdbmi	fp, {r0, r1, r3, r8, fp, ip, sp}
 720:	04000013 	streq	r0, [r0], #-19	; 0xffffffed
 724:	13490026 	movtne	r0, #36902	; 0x9026
 728:	35050000 	strcc	r0, [r5, #-0]
 72c:	00134900 	andseq	r4, r3, r0, lsl #18
 730:	00240600 	eoreq	r0, r4, r0, lsl #12
 734:	0b3e0b0b 	bleq	f83368 <_Min_Stack_Size+0xf82f68>
 738:	00000803 	andeq	r0, r0, r3, lsl #16
 73c:	0b011307 	bleq	45360 <_Min_Stack_Size+0x44f60>
 740:	3b0b3a0b 	blcc	2cef74 <_Min_Stack_Size+0x2ceb74>
 744:	010b390b 	tsteq	fp, fp, lsl #18
 748:	08000013 	stmdaeq	r0, {r0, r1, r4}
 74c:	0e03000d 	cdpeq	0, 0, cr0, cr3, cr13, {0}
 750:	0b3b0b3a 	bleq	ec3440 <_Min_Stack_Size+0xec3040>
 754:	13490b39 	movtne	r0, #39737	; 0x9b39
 758:	00000a38 	andeq	r0, r0, r8, lsr sl
 75c:	03003409 	movweq	r3, #1033	; 0x409
 760:	3b0b3a0e 	blcc	2cefa0 <_Min_Stack_Size+0x2ceba0>
 764:	490b3905 	stmdbmi	fp, {r0, r2, r8, fp, ip, sp}
 768:	3c0c3f13 	stccc	15, cr3, [ip], {19}
 76c:	0a00000c 	beq	7a4 <_Min_Stack_Size+0x3a4>
 770:	0e030034 	mcreq	0, 0, r0, cr3, cr4, {1}
 774:	0b3b0b3a 	bleq	ec3464 <_Min_Stack_Size+0xec3064>
 778:	13490b39 	movtne	r0, #39737	; 0x9b39
 77c:	0c3c0c3f 	ldceq	12, cr0, [ip], #-252	; 0xffffff04
 780:	130b0000 	movwne	r0, #45056	; 0xb000
 784:	3a0b0b01 	bcc	2c3390 <_Min_Stack_Size+0x2c2f90>
 788:	39053b0b 	stmdbcc	r5, {r0, r1, r3, r8, r9, fp, ip, sp}
 78c:	0013010b 	andseq	r0, r3, fp, lsl #2
 790:	000d0c00 	andeq	r0, sp, r0, lsl #24
 794:	0b3a0e03 	bleq	e83fa8 <_Min_Stack_Size+0xe83ba8>
 798:	0b39053b 	bleq	e41c8c <_Min_Stack_Size+0xe4188c>
 79c:	0a381349 	beq	e054c8 <_Min_Stack_Size+0xe050c8>
 7a0:	0d0d0000 	stceq	0, cr0, [sp, #-0]
 7a4:	3a080300 	bcc	2013ac <_Min_Stack_Size+0x200fac>
 7a8:	39053b0b 	stmdbcc	r5, {r0, r1, r3, r8, r9, fp, ip, sp}
 7ac:	3813490b 	ldmdacc	r3, {r0, r1, r3, r8, fp, lr}
 7b0:	0e00000a 	cdpeq	0, 0, cr0, cr0, cr10, {0}
 7b4:	13490101 	movtne	r0, #37121	; 0x9101
 7b8:	00001301 	andeq	r1, r0, r1, lsl #6
 7bc:	4900210f 	stmdbmi	r0, {r0, r1, r2, r3, r8, sp}
 7c0:	000b2f13 	andeq	r2, fp, r3, lsl pc
 7c4:	00161000 	andseq	r1, r6, r0
 7c8:	0b3a0e03 	bleq	e83fdc <_Min_Stack_Size+0xe83bdc>
 7cc:	0b39053b 	bleq	e41cc0 <_Min_Stack_Size+0xe418c0>
 7d0:	00001349 	andeq	r1, r0, r9, asr #6
 7d4:	0b011711 	bleq	46420 <_Min_Stack_Size+0x46020>
 7d8:	3b0b3a0b 	blcc	2cf00c <_Min_Stack_Size+0x2cec0c>
 7dc:	010b390b 	tsteq	fp, fp, lsl #18
 7e0:	12000013 	andne	r0, r0, #19
 7e4:	0e03000d 	cdpeq	0, 0, cr0, cr3, cr13, {0}
 7e8:	0b3b0b3a 	bleq	ec34d8 <_Min_Stack_Size+0xec30d8>
 7ec:	13490b39 	movtne	r0, #39737	; 0x9b39
 7f0:	0f130000 	svceq	0x00130000
 7f4:	000b0b00 	andeq	r0, fp, r0, lsl #22
 7f8:	01131400 	tsteq	r3, r0, lsl #8
 7fc:	0b0b0e03 	bleq	2c4010 <_Min_Stack_Size+0x2c3c10>
 800:	0b3b0b3a 	bleq	ec34f0 <_Min_Stack_Size+0xec30f0>
 804:	13010b39 	movwne	r0, #6969	; 0x1b39
 808:	0d150000 	ldceq	0, cr0, [r5, #-0]
 80c:	3a080300 	bcc	201414 <_Min_Stack_Size+0x201014>
 810:	390b3b0b 	stmdbcc	fp, {r0, r1, r3, r8, r9, fp, ip, sp}
 814:	3813490b 	ldmdacc	r3, {r0, r1, r3, r8, fp, lr}
 818:	1600000a 	strne	r0, [r0], -sl
 81c:	0b0b000f 	bleq	2c0860 <_Min_Stack_Size+0x2c0460>
 820:	00001349 	andeq	r1, r0, r9, asr #6
 824:	03011317 	movweq	r1, #4887	; 0x1317
 828:	3a050b0e 	bcc	143468 <_Min_Stack_Size+0x143068>
 82c:	390b3b0b 	stmdbcc	fp, {r0, r1, r3, r8, r9, fp, ip, sp}
 830:	0013010b 	andseq	r0, r3, fp, lsl #2
 834:	00151800 	andseq	r1, r5, r0, lsl #16
 838:	00000c27 	andeq	r0, r0, r7, lsr #24
 83c:	27011519 	smladcs	r1, r9, r5, r1
 840:	0113490c 	tsteq	r3, ip, lsl #18
 844:	1a000013 	bne	898 <_Min_Stack_Size+0x498>
 848:	13490005 	movtne	r0, #36869	; 0x9005
 84c:	131b0000 	tstne	fp, #0
 850:	0b0e0301 	bleq	38145c <_Min_Stack_Size+0x38105c>
 854:	3b0b3a05 	blcc	2cf070 <_Min_Stack_Size+0x2cec70>
 858:	010b3905 	tsteq	fp, r5, lsl #18
 85c:	1c000013 	stcne	0, cr0, [r0], {19}
 860:	0e030113 	mcreq	1, 0, r0, cr3, cr3, {0}
 864:	0b3a0b0b 	bleq	e83498 <_Min_Stack_Size+0xe83098>
 868:	0b39053b 	bleq	e41d5c <_Min_Stack_Size+0xe4195c>
 86c:	00001301 	andeq	r1, r0, r1, lsl #6
 870:	0b01171d 	bleq	464ec <_Min_Stack_Size+0x460ec>
 874:	3b0b3a0b 	blcc	2cf0a8 <_Min_Stack_Size+0x2ceca8>
 878:	010b3905 	tsteq	fp, r5, lsl #18
 87c:	1e000013 	mcrne	0, 0, r0, cr0, cr3, {0}
 880:	0e03000d 	cdpeq	0, 0, cr0, cr3, cr13, {0}
 884:	053b0b3a 	ldreq	r0, [fp, #-2874]!	; 0xfffff4c6
 888:	13490b39 	movtne	r0, #39737	; 0x9b39
 88c:	131f0000 	tstne	pc, #0
 890:	3c0e0300 	stccc	3, cr0, [lr], {-0}
 894:	2000000c 	andcs	r0, r0, ip
 898:	0c270115 	stfeqs	f0, [r7], #-84	; 0xffffffac
 89c:	00001301 	andeq	r1, r0, r1, lsl #6
 8a0:	03003421 	movweq	r3, #1057	; 0x421
 8a4:	3b0b3a0e 	blcc	2cf0e4 <_Min_Stack_Size+0x2cece4>
 8a8:	490b390b 	stmdbmi	fp, {r0, r1, r3, r8, fp, ip, sp}
 8ac:	000a0213 	andeq	r0, sl, r3, lsl r2
 8b0:	00342200 	eorseq	r2, r4, r0, lsl #4
 8b4:	0b3a0e03 	bleq	e840c8 <_Min_Stack_Size+0xe83cc8>
 8b8:	0b390b3b 	bleq	e435ac <_Min_Stack_Size+0xe431ac>
 8bc:	0c3f1349 	ldceq	3, cr1, [pc], #-292	; 7a0 <_Min_Stack_Size+0x3a0>
 8c0:	00000a02 	andeq	r0, r0, r2, lsl #20
 8c4:	3f012e23 	svccc	0x00012e23
 8c8:	3a0e030c 	bcc	381500 <_Min_Stack_Size+0x381100>
 8cc:	39053b0b 	stmdbcc	r5, {r0, r1, r3, r8, r9, fp, ip, sp}
 8d0:	1201110b 	andne	r1, r1, #-1073741822	; 0xc0000002
 8d4:	97064001 	strls	r4, [r6, -r1]
 8d8:	13010c42 	movwne	r0, #7234	; 0x1c42
 8dc:	0b240000 	bleq	9008e4 <_Min_Stack_Size+0x9004e4>
 8e0:	12011101 	andne	r1, r1, #1073741824	; 0x40000000
 8e4:	00130101 	andseq	r0, r3, r1, lsl #2
 8e8:	00342500 	eorseq	r2, r4, r0, lsl #10
 8ec:	0b3a0803 	bleq	e82900 <_Min_Stack_Size+0xe82500>
 8f0:	0b39053b 	bleq	e41de4 <_Min_Stack_Size+0xe419e4>
 8f4:	0a021349 	beq	85620 <_Min_Stack_Size+0x85220>
 8f8:	89260000 	stmdbhi	r6!, {}	; <UNPREDICTABLE>
 8fc:	11010182 	smlabbne	r1, r2, r1, r0
 900:	00133101 	andseq	r3, r3, r1, lsl #2
 904:	828a2700 	addhi	r2, sl, #0, 14
 908:	0a020001 	beq	80914 <_Min_Stack_Size+0x80514>
 90c:	000a4291 	muleq	sl, r1, r2
 910:	011d2800 	tsteq	sp, r0, lsl #16
 914:	06551331 			; <UNDEFINED> instruction: 0x06551331
 918:	05590b58 	ldrbeq	r0, [r9, #-2904]	; 0xfffff4a8
 91c:	00000b57 	andeq	r0, r0, r7, asr fp
 920:	31000529 	tstcc	r0, r9, lsr #10
 924:	b7060213 	smladlt	r6, r3, r2, r0
 928:	00000642 	andeq	r0, r0, r2, asr #12
 92c:	0182892a 	orreq	r8, r2, sl, lsr #18
 930:	31011101 	tstcc	r1, r1, lsl #2
 934:	00130113 	andseq	r0, r3, r3, lsl r1
 938:	82892b00 	addhi	r2, r9, #0, 22
 93c:	01110101 	tsteq	r1, r1, lsl #2
 940:	310c4295 			; <UNDEFINED> instruction: 0x310c4295
 944:	2c000013 	stccs	0, cr0, [r0], {19}
 948:	0c3f012e 	ldfeqs	f0, [pc], #-184	; 898 <_Min_Stack_Size+0x498>
 94c:	0b3a0e03 	bleq	e84160 <_Min_Stack_Size+0xe83d60>
 950:	0b39053b 	bleq	e41e44 <_Min_Stack_Size+0xe41a44>
 954:	0b200c27 	bleq	8039f8 <_Min_Stack_Size+0x8035f8>
 958:	00001301 	andeq	r1, r0, r1, lsl #6
 95c:	0300052d 	movweq	r0, #1325	; 0x52d
 960:	3b0b3a0e 	blcc	2cf1a0 <_Min_Stack_Size+0x2ceda0>
 964:	490b3905 	stmdbmi	fp, {r0, r2, r8, fp, ip, sp}
 968:	2e000013 	mcrcs	0, 0, r0, cr0, cr3, {0}
 96c:	0c3f012e 	ldfeqs	f0, [pc], #-184	; 8bc <_Min_Stack_Size+0x4bc>
 970:	0b3a0e03 	bleq	e84184 <_Min_Stack_Size+0xe83d84>
 974:	0b39053b 	bleq	e41e68 <_Min_Stack_Size+0xe41a68>
 978:	01111349 	tsteq	r1, r9, asr #6
 97c:	06400112 			; <UNDEFINED> instruction: 0x06400112
 980:	010c4297 			; <UNDEFINED> instruction: 0x010c4297
 984:	2f000013 	svccs	0x00000013
 988:	0c3f012e 	ldfeqs	f0, [pc], #-184	; 8d8 <_Min_Stack_Size+0x4d8>
 98c:	0b3a0e03 	bleq	e841a0 <_Min_Stack_Size+0xe83da0>
 990:	0b39053b 	bleq	e41e84 <_Min_Stack_Size+0xe41a84>
 994:	01110c27 	tsteq	r1, r7, lsr #24
 998:	06400112 			; <UNDEFINED> instruction: 0x06400112
 99c:	010c4297 			; <UNDEFINED> instruction: 0x010c4297
 9a0:	30000013 	andcc	r0, r0, r3, lsl r0
 9a4:	08030005 	stmdaeq	r3, {r0, r2}
 9a8:	053b0b3a 	ldreq	r0, [fp, #-2874]!	; 0xfffff4c6
 9ac:	13490b39 	movtne	r0, #39737	; 0x9b39
 9b0:	00000a02 	andeq	r0, r0, r2, lsl #20
 9b4:	03000531 	movweq	r0, #1329	; 0x531
 9b8:	3b0b3a0e 	blcc	2cf1f8 <_Min_Stack_Size+0x2cedf8>
 9bc:	490b3905 	stmdbmi	fp, {r0, r2, r8, fp, ip, sp}
 9c0:	b7060213 	smladlt	r6, r3, r2, r0
 9c4:	00000642 	andeq	r0, r0, r2, asr #12
 9c8:	03003432 	movweq	r3, #1074	; 0x432
 9cc:	3b0b3a08 	blcc	2cf1f4 <_Min_Stack_Size+0x2cedf4>
 9d0:	490b3905 	stmdbmi	fp, {r0, r2, r8, fp, ip, sp}
 9d4:	b7060213 	smladlt	r6, r3, r2, r0
 9d8:	00000642 	andeq	r0, r0, r2, asr #12
 9dc:	31011d33 	tstcc	r1, r3, lsr sp
 9e0:	b8015213 	stmdalt	r1, {r0, r1, r4, r9, ip, lr}
 9e4:	06550b42 	ldrbeq	r0, [r5], -r2, asr #22
 9e8:	05590b58 	ldrbeq	r0, [r9, #-2904]	; 0xfffff4a8
 9ec:	00000b57 	andeq	r0, r0, r7, asr fp
 9f0:	55010b34 	strpl	r0, [r1, #-2868]	; 0xfffff4cc
 9f4:	35000006 	strcc	r0, [r0, #-6]
 9f8:	13310034 	teqne	r1, #52	; 0x34
 9fc:	42b70602 	adcsmi	r0, r7, #2097152	; 0x200000
 a00:	36000006 	strcc	r0, [r0], -r6
 a04:	0c3f012e 	ldfeqs	f0, [pc], #-184	; 954 <_Min_Stack_Size+0x554>
 a08:	0b3a0e03 	bleq	e8421c <_Min_Stack_Size+0xe83e1c>
 a0c:	0b39053b 	bleq	e41f00 <_Min_Stack_Size+0xe41b00>
 a10:	01110c27 	tsteq	r1, r7, lsr #24
 a14:	0a400112 	beq	1000e64 <_Min_Stack_Size+0x1000a64>
 a18:	010c4297 			; <UNDEFINED> instruction: 0x010c4297
 a1c:	37000013 	smladcc	r0, r3, r0, r0
 a20:	0e030005 	cdpeq	0, 0, cr0, cr3, cr5, {0}
 a24:	053b0b3a 	ldreq	r0, [fp, #-2874]!	; 0xfffff4c6
 a28:	13490b39 	movtne	r0, #39737	; 0x9b39
 a2c:	00000a02 	andeq	r0, r0, r2, lsl #20
 a30:	3f012e38 	svccc	0x00012e38
 a34:	3a0e030c 	bcc	38166c <_Min_Stack_Size+0x38126c>
 a38:	390b3b0b 	stmdbcc	fp, {r0, r1, r3, r8, r9, fp, ip, sp}
 a3c:	490c270b 	stmdbmi	ip, {r0, r1, r3, r8, r9, sl, sp}
 a40:	12011113 	andne	r1, r1, #-1073741820	; 0xc0000004
 a44:	97064001 	strls	r4, [r6, -r1]
 a48:	13010c42 	movwne	r0, #7234	; 0x1c42
 a4c:	05390000 	ldreq	r0, [r9, #-0]!
 a50:	3a080300 	bcc	201658 <_Min_Stack_Size+0x201258>
 a54:	390b3b0b 	stmdbcc	fp, {r0, r1, r3, r8, r9, fp, ip, sp}
 a58:	0213490b 	andseq	r4, r3, #180224	; 0x2c000
 a5c:	0642b706 	strbeq	fp, [r2], -r6, lsl #14
 a60:	053a0000 	ldreq	r0, [sl, #-0]!
 a64:	3a0e0300 	bcc	38166c <_Min_Stack_Size+0x38126c>
 a68:	390b3b0b 	stmdbcc	fp, {r0, r1, r3, r8, r9, fp, ip, sp}
 a6c:	0213490b 	andseq	r4, r3, #180224	; 0x2c000
 a70:	0642b706 	strbeq	fp, [r2], -r6, lsl #14
 a74:	1d3b0000 	ldcne	0, cr0, [fp, #-0]
 a78:	52133101 	andspl	r3, r3, #1073741824	; 0x40000000
 a7c:	0b42b801 	bleq	10aea88 <_Min_Stack_Size+0x10ae688>
 a80:	01120111 	tsteq	r2, r1, lsl r1
 a84:	0b590b58 	bleq	16437ec <_Min_Stack_Size+0x16433ec>
 a88:	00000b57 	andeq	r0, r0, r7, asr fp
 a8c:	3f012e3c 	svccc	0x00012e3c
 a90:	3a0e030c 	bcc	3816c8 <_Min_Stack_Size+0x3812c8>
 a94:	390b3b0b 	stmdbcc	fp, {r0, r1, r3, r8, r9, fp, ip, sp}
 a98:	490c270b 	stmdbmi	ip, {r0, r1, r3, r8, r9, sl, sp}
 a9c:	12011113 	andne	r1, r1, #-1073741820	; 0xc0000004
 aa0:	970a4001 	strls	r4, [sl, -r1]
 aa4:	13010c42 	movwne	r0, #7234	; 0x1c42
 aa8:	053d0000 	ldreq	r0, [sp, #-0]!
 aac:	3a0e0300 	bcc	3816b4 <_Min_Stack_Size+0x3812b4>
 ab0:	390b3b0b 	stmdbcc	fp, {r0, r1, r3, r8, r9, fp, ip, sp}
 ab4:	0213490b 	andseq	r4, r3, #180224	; 0x2c000
 ab8:	3e00000a 	cdpcc	0, 0, cr0, cr0, cr10, {0}
 abc:	0e03012e 	adfeqsp	f0, f3, #0.5
 ac0:	0b3b0b3a 	bleq	ec37b0 <_Min_Stack_Size+0xec33b0>
 ac4:	0c270b39 			; <UNDEFINED> instruction: 0x0c270b39
 ac8:	13010b20 	movwne	r0, #6944	; 0x1b20
 acc:	053f0000 	ldreq	r0, [pc, #-0]!	; ad4 <_Min_Stack_Size+0x6d4>
 ad0:	3a0e0300 	bcc	3816d8 <_Min_Stack_Size+0x3812d8>
 ad4:	390b3b0b 	stmdbcc	fp, {r0, r1, r3, r8, r9, fp, ip, sp}
 ad8:	0013490b 	andseq	r4, r3, fp, lsl #18
 adc:	012e4000 			; <UNDEFINED> instruction: 0x012e4000
 ae0:	0e030c3f 	mcreq	12, 0, r0, cr3, cr15, {1}
 ae4:	0b3b0b3a 	bleq	ec37d4 <_Min_Stack_Size+0xec33d4>
 ae8:	0c270b39 			; <UNDEFINED> instruction: 0x0c270b39
 aec:	01120111 	tsteq	r2, r1, lsl r1
 af0:	42970a40 	addsmi	r0, r7, #64, 20	; 0x40000
 af4:	0013010c 	andseq	r0, r3, ip, lsl #2
 af8:	00264100 	eoreq	r4, r6, r0, lsl #2
 afc:	2e420000 	cdpcs	0, 4, cr0, cr2, cr0, {0}
 b00:	3a0e0301 	bcc	38170c <_Min_Stack_Size+0x38130c>
 b04:	390b3b0b 	stmdbcc	fp, {r0, r1, r3, r8, r9, fp, ip, sp}
 b08:	490c270b 	stmdbmi	ip, {r0, r1, r3, r8, r9, sl, sp}
 b0c:	010b2013 	tsteq	fp, r3, lsl r0
 b10:	43000013 	movwmi	r0, #19
 b14:	08030005 	stmdaeq	r3, {r0, r2}
 b18:	0b3b0b3a 	bleq	ec3808 <_Min_Stack_Size+0xec3408>
 b1c:	13490b39 	movtne	r0, #39737	; 0x9b39
 b20:	34440000 	strbcc	r0, [r4], #-0
 b24:	3a080300 	bcc	20172c <_Min_Stack_Size+0x20132c>
 b28:	390b3b0b 	stmdbcc	fp, {r0, r1, r3, r8, r9, fp, ip, sp}
 b2c:	0013490b 	andseq	r4, r3, fp, lsl #18
 b30:	012e4500 			; <UNDEFINED> instruction: 0x012e4500
 b34:	01111331 	tsteq	r1, r1, lsr r3
 b38:	06400112 			; <UNDEFINED> instruction: 0x06400112
 b3c:	010c4297 			; <UNDEFINED> instruction: 0x010c4297
 b40:	46000013 			; <UNDEFINED> instruction: 0x46000013
 b44:	00018289 	andeq	r8, r1, r9, lsl #5
 b48:	13310111 	teqne	r1, #1073741828	; 0x40000004
 b4c:	2e470000 	cdpcs	0, 4, cr0, cr7, cr0, {0}
 b50:	3c0c3f00 	stccc	15, cr3, [ip], {-0}
 b54:	0e40870c 	cdpeq	7, 4, cr8, cr0, cr12, {0}
 b58:	0b3a0e03 	bleq	e8436c <_Min_Stack_Size+0xe83f6c>
 b5c:	0b390b3b 	bleq	e43850 <_Min_Stack_Size+0xe43450>
 b60:	01000000 	mrseq	r0, (UNDEF: 0)
 b64:	0e250111 	mcreq	1, 1, r0, cr5, cr1, {0}
 b68:	0e030b13 	vmoveq.32	d3[0], r0
 b6c:	01110e1b 	tsteq	r1, fp, lsl lr
 b70:	17100612 			; <UNDEFINED> instruction: 0x17100612
 b74:	24020000 	strcs	r0, [r2], #-0
 b78:	3e0b0b00 	vmlacc.f64	d0, d11, d0
 b7c:	000e030b 	andeq	r0, lr, fp, lsl #6
 b80:	00240300 	eoreq	r0, r4, r0, lsl #6
 b84:	0b3e0b0b 	bleq	f837b8 <_Min_Stack_Size+0xf833b8>
 b88:	00000803 	andeq	r0, r0, r3, lsl #16
 b8c:	03001604 	movweq	r1, #1540	; 0x604
 b90:	3b0b3a0e 	blcc	2cf3d0 <_Min_Stack_Size+0x2cefd0>
 b94:	490b390b 	stmdbmi	fp, {r0, r1, r3, r8, fp, ip, sp}
 b98:	05000013 	streq	r0, [r0, #-19]	; 0xffffffed
 b9c:	13490101 	movtne	r0, #37121	; 0x9101
 ba0:	00001301 	andeq	r1, r0, r1, lsl #6
 ba4:	00002106 	andeq	r2, r0, r6, lsl #2
 ba8:	000f0700 	andeq	r0, pc, r0, lsl #14
 bac:	13490b0b 	movtne	r0, #39691	; 0x9b0b
 bb0:	15080000 	strne	r0, [r8, #-0]
 bb4:	00192700 	andseq	r2, r9, r0, lsl #14
 bb8:	00340900 	eorseq	r0, r4, r0, lsl #18
 bbc:	0b3a0e03 	bleq	e843d0 <_Min_Stack_Size+0xe83fd0>
 bc0:	0b390b3b 	bleq	e438b4 <_Min_Stack_Size+0xe434b4>
 bc4:	193f1349 	ldmdbne	pc!, {r0, r3, r6, r8, r9, ip}	; <UNPREDICTABLE>
 bc8:	0000193c 	andeq	r1, r0, ip, lsr r9
 bcc:	3f012e0a 	svccc	0x00012e0a
 bd0:	3a0e0319 	bcc	38183c <_Min_Stack_Size+0x38143c>
 bd4:	390b3b0b 	stmdbcc	fp, {r0, r1, r3, r8, r9, fp, ip, sp}
 bd8:	1119270b 	tstne	r9, fp, lsl #14
 bdc:	40061201 	andmi	r1, r6, r1, lsl #4
 be0:	19429618 	stmdbne	r2, {r3, r4, r9, sl, ip, pc}^
 be4:	00001301 	andeq	r1, r0, r1, lsl #6
 be8:	0300340b 	movweq	r3, #1035	; 0x40b
 bec:	3b0b3a0e 	blcc	2cf42c <_Min_Stack_Size+0x2cf02c>
 bf0:	490b390b 	stmdbmi	fp, {r0, r1, r3, r8, fp, ip, sp}
 bf4:	b7170213 			; <UNDEFINED> instruction: 0xb7170213
 bf8:	00001742 	andeq	r1, r0, r2, asr #14
 bfc:	0300340c 	movweq	r3, #1036	; 0x40c
 c00:	3b0b3a08 	blcc	2cf428 <_Min_Stack_Size+0x2cf028>
 c04:	490b390b 	stmdbmi	fp, {r0, r1, r3, r8, fp, ip, sp}
 c08:	b7170213 			; <UNDEFINED> instruction: 0xb7170213
 c0c:	00001742 	andeq	r1, r0, r2, asr #14
 c10:	0182890d 	orreq	r8, r2, sp, lsl #18
 c14:	31011100 	mrscc	r1, (UNDEF: 17)
 c18:	0e000013 	mcreq	0, 0, r0, cr0, cr3, {0}
 c1c:	193f002e 	ldmdbne	pc!, {r1, r2, r3, r5}	; <UNPREDICTABLE>
 c20:	0e6e193c 			; <UNDEFINED> instruction: 0x0e6e193c
 c24:	0b3a0e03 	bleq	e84438 <_Min_Stack_Size+0xe84038>
 c28:	0b390b3b 	bleq	e4391c <_Min_Stack_Size+0xe4351c>
 c2c:	Address 0x0000000000000c2c is out of bounds.


Disassembly of section .debug_loc:

00000000 <.debug_loc>:
       0:	08000c6c 	stmdaeq	r0, {r2, r3, r5, r6, sl, fp}
       4:	08000c6e 	stmdaeq	r0, {r1, r2, r3, r5, r6, sl, fp}
       8:	007d0002 	rsbseq	r0, sp, r2
       c:	08000c6e 	stmdaeq	r0, {r1, r2, r3, r5, r6, sl, fp}
      10:	08000cf0 	stmdaeq	r0, {r4, r5, r6, r7, sl, fp}
      14:	087d0002 	ldmdaeq	sp!, {r1}^
	...
      20:	00010100 	andeq	r0, r1, r0, lsl #2
      24:	00000000 	andeq	r0, r0, r0
      28:	08000c82 	stmdaeq	r0, {r1, r7, sl, fp}
      2c:	08000c8e 	stmdaeq	r0, {r1, r2, r3, r7, sl, fp}
      30:	8e520001 	cdphi	0, 5, cr0, cr2, cr1, {0}
      34:	9208000c 	andls	r0, r8, #12
      38:	0808000c 	stmdaeq	r8, {r2, r3}
      3c:	11007200 	mrsne	r7, R8_usr
      40:	1a4fffff 	bne	1400044 <_Min_Stack_Size+0x13ffc44>
      44:	000c929f 	muleq	ip, pc, r2	; <UNPREDICTABLE>
      48:	000c9608 	andeq	r9, ip, r8, lsl #12
      4c:	52000108 	andpl	r0, r0, #8, 2
      50:	08000c96 	stmdaeq	r0, {r1, r2, r4, r7, sl, fp}
      54:	08000ca0 	stmdaeq	r0, {r5, r7, sl, fp}
      58:	08730002 	ldmdaeq	r3!, {r1}^
	...
      64:	00010100 	andeq	r0, r1, r0, lsl #2
      68:	00000000 	andeq	r0, r0, r0
      6c:	08000c96 	stmdaeq	r0, {r1, r2, r4, r7, sl, fp}
      70:	08000ca2 	stmdaeq	r0, {r1, r5, r7, sl, fp}
      74:	a2520001 	subsge	r0, r2, #1
      78:	a608000c 	strge	r0, [r8], -ip
      7c:	0808000c 	stmdaeq	r8, {r2, r3}
      80:	11007200 	mrsne	r7, R8_usr
      84:	1a73ffff 	bne	1d00088 <_Min_Stack_Size+0x1cffc88>
      88:	000ca69f 	muleq	ip, pc, r6	; <UNPREDICTABLE>
      8c:	000caa08 	andeq	sl, ip, r8, lsl #20
      90:	52000108 	andpl	r0, r0, #8, 2
      94:	08000caa 	stmdaeq	r0, {r1, r3, r5, r7, sl, fp}
      98:	08000cb2 	stmdaeq	r0, {r1, r4, r5, r7, sl, fp}
      9c:	08730002 	ldmdaeq	r3!, {r1}^
	...
      a8:	00010100 	andeq	r0, r1, r0, lsl #2
      ac:	0cac0000 	stceq	0, cr0, [ip]
      b0:	0cb40800 	ldceq	8, cr0, [r4]
      b4:	00010800 	andeq	r0, r1, r0, lsl #16
      b8:	000cb451 	andeq	fp, ip, r1, asr r4
      bc:	000cb808 	andeq	fp, ip, r8, lsl #16
      c0:	71000a08 	tstvc	r0, r8, lsl #20
      c4:	ffff1100 			; <UNDEFINED> instruction: 0xffff1100
      c8:	1a7f9fff 	bne	1fe80cc <_Min_Stack_Size+0x1fe7ccc>
      cc:	000cb89f 	muleq	ip, pc, r8	; <UNPREDICTABLE>
      d0:	000ccd08 	andeq	ip, ip, r8, lsl #26
      d4:	51000108 	tstpl	r0, r8, lsl #2
	...
      e0:	00010100 	andeq	r0, r1, r0, lsl #2
      e4:	0cbc0000 	ldceq	0, cr0, [ip]
      e8:	0cc40800 	stcleq	8, cr0, [r4], {0}
      ec:	00010800 	andeq	r0, r1, r0, lsl #16
      f0:	000cc452 	andeq	ip, ip, r2, asr r4
      f4:	000cc808 	andeq	ip, ip, r8, lsl #16
      f8:	72000708 	andvc	r0, r0, #8, 14	; 0x200000
      fc:	f3ff0b00 	vtbl.8	d16, {d15-d18}, d0
     100:	0cc89f1a 	stcleq	15, cr9, [r8], {26}
     104:	0ccd0800 	stcleq	8, cr0, [sp], {0}
     108:	00010800 	andeq	r0, r1, r0, lsl #16
     10c:	00000052 	andeq	r0, r0, r2, asr r0
     110:	00000000 	andeq	r0, r0, r0
     114:	02020000 	andeq	r0, r2, #0
     118:	58000000 	stmdapl	r0, {}	; <UNPREDICTABLE>
     11c:	58080003 	stmdapl	r8, {r0, r1}
     120:	01080003 	tsteq	r8, r3
     124:	03585000 	cmpeq	r8, #0
     128:	035c0800 	cmpeq	ip, #0, 16
     12c:	00010800 	andeq	r0, r1, r0, lsl #16
     130:	00035c50 	andeq	r5, r3, r0, asr ip
     134:	00036408 	andeq	r6, r3, r8, lsl #8
     138:	70000308 	andvc	r0, r0, r8, lsl #6
     13c:	00009f01 	andeq	r9, r0, r1, lsl #30
     140:	00000000 	andeq	r0, r0, r0
     144:	00010000 	andeq	r0, r1, r0
     148:	00000000 	andeq	r0, r0, r0
     14c:	03160000 	tsteq	r6, #0
     150:	031a0800 	tsteq	sl, #0, 16
     154:	00020800 	andeq	r0, r2, r0, lsl #16
     158:	031a9f30 	tsteq	sl, #48, 30	; 0xc0
     15c:	03220800 			; <UNDEFINED> instruction: 0x03220800
     160:	00070800 	andeq	r0, r7, r0, lsl #16
     164:	720fff0a 	andvc	pc, pc, #10, 30	; 0x28
     168:	229f1c00 	addscs	r1, pc, #0, 24
     16c:	24080003 	strcs	r0, [r8], #-3
     170:	07080003 	streq	r0, [r8, -r3]
     174:	10000a00 	andne	r0, r0, r0, lsl #20
     178:	9f1c0072 	svcls	0x001c0072
     17c:	0800032c 	stmdaeq	r0, {r2, r3, r5, r8, r9}
     180:	08000354 	stmdaeq	r0, {r2, r4, r6, r8, r9}
     184:	ff0a0004 			; <UNDEFINED> instruction: 0xff0a0004
     188:	00009f1f 	andeq	r9, r0, pc, lsl pc
	...
     194:	03100000 	tsteq	r0, #0
     198:	031a0800 	tsteq	sl, #0, 16
     19c:	00010800 	andeq	r0, r1, r0, lsl #16
     1a0:	00031a52 	andeq	r1, r3, r2, asr sl
     1a4:	00033408 	andeq	r3, r3, r8, lsl #8
     1a8:	73000208 	movwvc	r0, #520	; 0x208
     1ac:	00000008 	andeq	r0, r0, r8
	...
     1bc:	0001e800 	andeq	lr, r1, r0, lsl #16
     1c0:	00020a08 	andeq	r0, r2, r8, lsl #20
     1c4:	50000108 	andpl	r0, r0, r8, lsl #2
     1c8:	0800020a 	stmdaeq	r0, {r1, r3, r9}
     1cc:	0800028e 	stmdaeq	r0, {r1, r2, r3, r7, r9}
     1d0:	01f30004 	mvnseq	r0, r4
     1d4:	028e9f50 	addeq	r9, lr, #80, 30	; 0x140
     1d8:	02ea0800 	rsceq	r0, sl, #0, 16
     1dc:	00010800 	andeq	r0, r1, r0, lsl #16
     1e0:	0002ea50 	andeq	lr, r2, r0, asr sl
     1e4:	00030c08 	andeq	r0, r3, r8, lsl #24
     1e8:	f3000408 	vshl.u8	d0, d8, d0
     1ec:	009f5001 	addseq	r5, pc, r1
     1f0:	00000000 	andeq	r0, r0, r0
     1f4:	01000000 	mrseq	r0, (UNDEF: 0)
     1f8:	00000000 	andeq	r0, r0, r0
     1fc:	01000000 	mrseq	r0, (UNDEF: 0)
     200:	00000000 	andeq	r0, r0, r0
     204:	01010000 	mrseq	r0, (UNDEF: 1)
     208:	00000000 	andeq	r0, r0, r0
     20c:	01010000 	mrseq	r0, (UNDEF: 1)
     210:	00000000 	andeq	r0, r0, r0
     214:	00000100 	andeq	r0, r0, r0, lsl #2
     218:	f2000000 	vhadd.s8	d0, d0, d0
     21c:	f6080001 			; <UNDEFINED> instruction: 0xf6080001
     220:	02080001 	andeq	r0, r8, #1
     224:	f69f3000 			; <UNDEFINED> instruction: 0xf69f3000
     228:	fe080001 	cdp2	0, 0, cr0, cr8, cr1, {0}
     22c:	07080001 	streq	r0, [r8, -r1]
     230:	0fff0a00 	svceq	0x00ff0a00
     234:	9f1c0072 	svcls	0x001c0072
     238:	080001fe 	stmdaeq	r0, {r1, r2, r3, r4, r5, r6, r7, r8}
     23c:	08000200 	stmdaeq	r0, {r9}
     240:	000a0007 	andeq	r0, sl, r7
     244:	1c007210 	sfmne	f7, 4, [r0], {16}
     248:	00020c9f 	muleq	r2, pc, ip	; <UNPREDICTABLE>
     24c:	00020e08 	andeq	r0, r2, r8, lsl #28
     250:	0a000708 	beq	1e78 <_Min_Stack_Size+0x1a78>
     254:	00730fff 	ldrshteq	r0, [r3], #-255	; 0xffffff01
     258:	02449f1c 	subeq	r9, r4, #28, 30	; 0x70
     25c:	024a0800 	subeq	r0, sl, #0, 16
     260:	00020800 	andeq	r0, r2, r0, lsl #16
     264:	024a9f30 	subeq	r9, sl, #48, 30	; 0xc0
     268:	02500800 	subseq	r0, r0, #0, 16
     26c:	00070800 	andeq	r0, r7, r0, lsl #16
     270:	730fff0a 	movwvc	pc, #65290	; 0xff0a	; <UNPREDICTABLE>
     274:	509f1c00 	addspl	r1, pc, r0, lsl #24
     278:	52080002 	andpl	r0, r8, #2
     27c:	07080002 	streq	r0, [r8, -r2]
     280:	10000a00 	andne	r0, r0, r0, lsl #20
     284:	9f1c0073 	svcls	0x001c0073
     288:	08000264 	stmdaeq	r0, {r2, r5, r6, r9}
     28c:	08000276 	stmdaeq	r0, {r1, r2, r4, r5, r6, r9}
     290:	ff0a0004 			; <UNDEFINED> instruction: 0xff0a0004
     294:	02769f1f 	rsbseq	r9, r6, #31, 30	; 0x7c
     298:	027a0800 	rsbseq	r0, sl, #0, 16
     29c:	00020800 	andeq	r0, r2, r0, lsl #16
     2a0:	027a9f30 	rsbseq	r9, sl, #48, 30	; 0xc0
     2a4:	02840800 	addeq	r0, r4, #0, 16
     2a8:	00070800 	andeq	r0, r7, r0, lsl #16
     2ac:	730fff0a 	movwvc	pc, #65290	; 0xff0a	; <UNPREDICTABLE>
     2b0:	849f1c00 	ldrhi	r1, [pc], #3072	; 2b8 <_Min_Heap_Size+0x2b8>
     2b4:	86080002 	strhi	r0, [r8], -r2
     2b8:	07080002 	streq	r0, [r8, -r2]
     2bc:	10000a00 	andne	r0, r0, r0, lsl #20
     2c0:	9f1c0073 	svcls	0x001c0073
     2c4:	0800028e 	stmdaeq	r0, {r1, r2, r3, r7, r9}
     2c8:	080002c8 	stmdaeq	r0, {r3, r6, r7, r9}
     2cc:	ff0a0004 			; <UNDEFINED> instruction: 0xff0a0004
     2d0:	02c89f1f 	sbceq	r9, r8, #31, 30	; 0x7c
     2d4:	02ce0800 	sbceq	r0, lr, #0, 16
     2d8:	00020800 	andeq	r0, r2, r0, lsl #16
     2dc:	02ce9f30 	sbceq	r9, lr, #48, 30	; 0xc0
     2e0:	02d40800 	sbcseq	r0, r4, #0, 16
     2e4:	00070800 	andeq	r0, r7, r0, lsl #16
     2e8:	730fff0a 	movwvc	pc, #65290	; 0xff0a	; <UNPREDICTABLE>
     2ec:	d49f1c00 	ldrle	r1, [pc], #3072	; 2f4 <_Min_Heap_Size+0x2f4>
     2f0:	d6080002 	strle	r0, [r8], -r2
     2f4:	07080002 	streq	r0, [r8, -r2]
     2f8:	10000a00 	andne	r0, r0, r0, lsl #20
     2fc:	9f1c0073 	svcls	0x001c0073
     300:	080002e6 	stmdaeq	r0, {r1, r2, r5, r6, r7, r9}
     304:	080002ea 	stmdaeq	r0, {r1, r3, r5, r6, r7, r9}
     308:	9f300002 	svcls	0x00300002
     30c:	080002ea 	stmdaeq	r0, {r1, r3, r5, r6, r7, r9}
     310:	080002f0 	stmdaeq	r0, {r4, r5, r6, r7, r9}
     314:	ff0a0007 			; <UNDEFINED> instruction: 0xff0a0007
     318:	1c00730f 	stcne	3, cr7, [r0], {15}
     31c:	0002f09f 	muleq	r2, pc, r0	; <UNPREDICTABLE>
     320:	0002f208 	andeq	pc, r2, r8, lsl #4
     324:	0a000708 	beq	1f4c <_Min_Stack_Size+0x1b4c>
     328:	00731000 	rsbseq	r1, r3, r0
     32c:	00009f1c 	andeq	r9, r0, ip, lsl pc
	...
     338:	01000000 	mrseq	r0, (UNDEF: 0)
     33c:	00020201 	andeq	r0, r2, r1, lsl #4
     340:	03010100 	movweq	r0, #4352	; 0x1100
     344:	00000003 	andeq	r0, r0, r3
     348:	00010100 	andeq	r0, r1, r0, lsl #2
     34c:	00000000 	andeq	r0, r0, r0
     350:	00010100 	andeq	r0, r1, r0, lsl #2
     354:	00000000 	andeq	r0, r0, r0
     358:	01ec0000 	mvneq	r0, r0
     35c:	01f60800 	mvnseq	r0, r0, lsl #16
     360:	00010800 	andeq	r0, r1, r0, lsl #16
     364:	0001f652 	andeq	pc, r1, r2, asr r6	; <UNPREDICTABLE>
     368:	00020c08 	andeq	r0, r2, r8, lsl #24
     36c:	73000208 	movwvc	r0, #520	; 0x208
     370:	00022c08 	andeq	r2, r2, r8, lsl #24
     374:	00023208 	andeq	r3, r2, r8, lsl #4
     378:	53000108 	movwpl	r0, #264	; 0x108
     37c:	08000232 	stmdaeq	r0, {r1, r4, r5, r9}
     380:	08000232 	stmdaeq	r0, {r1, r4, r5, r9}
     384:	00730007 	rsbseq	r0, r3, r7
     388:	21243c40 			; <UNDEFINED> instruction: 0x21243c40
     38c:	0002329f 	muleq	r2, pc, r2	; <UNPREDICTABLE>
     390:	00023608 	andeq	r3, r2, r8, lsl #12
     394:	73000708 	movwvc	r0, #1800	; 0x708
     398:	24404100 	strbcs	r4, [r0], #-256	; 0xffffff00
     39c:	02369f21 	eorseq	r9, r6, #33, 30	; 0x84
     3a0:	02360800 	eorseq	r0, r6, #0, 16
     3a4:	00010800 	andeq	r0, r1, r0, lsl #16
     3a8:	00023653 	andeq	r3, r2, r3, asr r6
     3ac:	00023608 	andeq	r3, r2, r8, lsl #12
     3b0:	73000708 	movwvc	r0, #1800	; 0x708
     3b4:	ff0f0b00 			; <UNDEFINED> instruction: 0xff0f0b00
     3b8:	02369f1a 	eorseq	r9, r6, #26, 30	; 0x68
     3bc:	023a0800 	eorseq	r0, sl, #0, 16
     3c0:	00070800 	andeq	r0, r7, r0, lsl #16
     3c4:	0f0b0073 	svceq	0x000b0073
     3c8:	3a9f1ac7 	bcc	fe7c6eec <BootRAM+0xd73768d>
     3cc:	4a080002 	bmi	2003dc <_Min_Stack_Size+0x1fffdc>
     3d0:	01080002 	tsteq	r8, r2
     3d4:	025e5100 	subseq	r5, lr, #0, 2
     3d8:	025e0800 	subseq	r0, lr, #0, 16
     3dc:	00010800 	andeq	r0, r1, r0, lsl #16
     3e0:	00025e53 	andeq	r5, r2, r3, asr lr
     3e4:	00026208 	andeq	r6, r2, r8, lsl #4
     3e8:	73000708 	movwvc	r0, #1800	; 0x708
     3ec:	243f4000 	ldrtcs	r4, [pc], #-0	; 3f4 <_Min_Heap_Size+0x3f4>
     3f0:	02629f21 	rsbeq	r9, r2, #33, 30	; 0x84
     3f4:	02640800 	rsbeq	r0, r4, #0, 16
     3f8:	00010800 	andeq	r0, r1, r0, lsl #16
     3fc:	00026453 	andeq	r6, r2, r3, asr r4
     400:	00026c08 	andeq	r6, r2, r8, lsl #24
     404:	71000208 	tstvc	r0, r8, lsl #4
     408:	00026e08 	andeq	r6, r2, r8, lsl #28
     40c:	00026e08 	andeq	r6, r2, r8, lsl #28
     410:	53000108 	movwpl	r0, #264	; 0x108
     414:	0800026e 	stmdaeq	r0, {r1, r2, r3, r5, r6, r9}
     418:	08000274 	stmdaeq	r0, {r2, r4, r5, r6, r9}
     41c:	00730006 	rsbseq	r0, r3, r6
     420:	9f1afc09 	svcls	0x001afc09
     424:	08000274 	stmdaeq	r0, {r2, r4, r5, r6, r9}
     428:	0800027a 	stmdaeq	r0, {r1, r3, r4, r5, r6, r9}
     42c:	7a530001 	bvc	14c0438 <_Min_Stack_Size+0x14c0038>
     430:	8e080002 	cdphi	0, 0, cr0, cr8, cr2, {0}
     434:	02080002 	andeq	r0, r8, #2
     438:	8e087100 	adfhie	f7, f0, f0
     43c:	96080002 	strls	r0, [r8], -r2
     440:	02080002 	andeq	r0, r8, #2
     444:	00087300 	andeq	r7, r8, r0, lsl #6
     448:	00000000 	andeq	r0, r0, r0
     44c:	9c000000 	stcls	0, cr0, [r0], {-0}
     450:	9e000004 	cdpls	0, 0, cr0, cr0, cr4, {0}
     454:	02000004 	andeq	r0, r0, #4
     458:	9e007d00 	cdpls	13, 0, cr7, cr0, cr0, {0}
     45c:	f6000004 			; <UNDEFINED> instruction: 0xf6000004
     460:	02000004 	andeq	r0, r0, #4
     464:	000c7d00 	andeq	r7, ip, r0, lsl #26
	...
     470:	9c000000 	stcls	0, cr0, [r0], {-0}
     474:	ac000004 	stcge	0, cr0, [r0], {4}
     478:	01000004 	tsteq	r0, r4
     47c:	04ac5000 	strteq	r5, [ip], #0
     480:	04f60000 	ldrbteq	r0, [r6], #0
     484:	00040000 	andeq	r0, r4, r0
     488:	9f5001f3 	svcls	0x005001f3
	...
     498:	049c0000 	ldreq	r0, [ip], #0
     49c:	04c40000 	strbeq	r0, [r4], #0
     4a0:	00010000 	andeq	r0, r1, r0
     4a4:	0004c451 	andeq	ip, r4, r1, asr r4
     4a8:	0004c800 	andeq	ip, r4, r0, lsl #16
     4ac:	71000300 	mrsvc	r0, LR_irq
     4b0:	04c89f02 	strbeq	r9, [r8], #3842	; 0xf02
     4b4:	04f60000 	ldrbteq	r0, [r6], #0
     4b8:	00040000 	andeq	r0, r4, r0
     4bc:	9f5101f3 	svcls	0x005101f3
	...
     4cc:	000004a8 	andeq	r0, r0, r8, lsr #9
     4d0:	000004b4 			; <UNDEFINED> instruction: 0x000004b4
     4d4:	b4520001 	ldrblt	r0, [r2], #-1
     4d8:	d6000004 	strle	r0, [r0], -r4
     4dc:	0b000004 	bleq	4f4 <_Min_Stack_Size+0xf4>
     4e0:	33007300 	movwcc	r7, #768	; 0x300
     4e4:	c0802324 	addgt	r2, r0, r4, lsr #6
     4e8:	9f048081 	svcls	0x00048081
	...
     4f4:	04b00000 	ldrteq	r0, [r0], #0
     4f8:	04f60000 	ldrbteq	r0, [r6], #0
     4fc:	00010000 	andeq	r0, r1, r0
     500:	00000050 	andeq	r0, r0, r0, asr r0
     504:	00000000 	andeq	r0, r0, r0
     508:	00000100 	andeq	r0, r0, r0, lsl #2
     50c:	b2010000 	andlt	r0, r1, #0
     510:	c2000004 	andgt	r0, r0, #4
     514:	05000004 	streq	r0, [r0, #-4]
     518:	31017000 	mrscc	r7, (UNDEF: 1)
     51c:	04c29f26 	strbeq	r9, [r2], #3878	; 0xf26
     520:	04c80000 	strbeq	r0, [r8], #0
     524:	00010000 	andeq	r0, r1, r0
     528:	0004c854 	andeq	ip, r4, r4, asr r8
     52c:	0004f400 	andeq	pc, r4, r0, lsl #8
     530:	70000500 	andvc	r0, r0, r0, lsl #10
     534:	9f263101 	svcls	0x00263101
	...
     544:	04c00000 	strbeq	r0, [r0], #0
     548:	04cc0000 	strbeq	r0, [ip], #0
     54c:	00010000 	andeq	r0, r1, r0
     550:	0004cc52 	andeq	ip, r4, r2, asr ip
     554:	0004d200 	andeq	sp, r4, r0, lsl #4
     558:	72000300 	andvc	r0, r0, #0, 6
     55c:	04d29f7c 	ldrbeq	r9, [r2], #3964	; 0xf7c
     560:	04e20000 	strbteq	r0, [r2], #0
     564:	00010000 	andeq	r0, r1, r0
     568:	00000052 	andeq	r0, r0, r2, asr r0
     56c:	00000000 	andeq	r0, r0, r0
     570:	c0000200 	andgt	r0, r0, r0, lsl #4
     574:	c8000004 	stmdagt	r0, {r2}
     578:	02000004 	andeq	r0, r0, #4
     57c:	009f3000 	addseq	r3, pc, r0
     580:	00000000 	andeq	r0, r0, r0
     584:	ec000000 	stc	0, cr0, [r0], {-0}
     588:	ee000003 	cdp	0, 0, cr0, cr0, cr3, {0}
     58c:	02000003 	andeq	r0, r0, #3
     590:	ee007d00 	cdp	13, 0, cr7, cr0, cr0, {0}
     594:	40000003 	andmi	r0, r0, r3
     598:	02000004 	andeq	r0, r0, #4
     59c:	00147d00 	andseq	r7, r4, r0, lsl #26
	...
     5ac:	0003ec00 	andeq	lr, r3, r0, lsl #24
     5b0:	00041200 	andeq	r1, r4, r0, lsl #4
     5b4:	50000100 	andpl	r0, r0, r0, lsl #2
     5b8:	00000412 	andeq	r0, r0, r2, lsl r4
     5bc:	00000434 	andeq	r0, r0, r4, lsr r4
     5c0:	01f30004 	mvnseq	r0, r4
     5c4:	04349f50 	ldrteq	r9, [r4], #-3920	; 0xfffff0b0
     5c8:	04400000 	strbeq	r0, [r0], #-0
     5cc:	00010000 	andeq	r0, r1, r0
     5d0:	00000050 	andeq	r0, r0, r0, asr r0
     5d4:	00000000 	andeq	r0, r0, r0
     5d8:	fa000000 	blx	5e0 <_Min_Stack_Size+0x1e0>
     5dc:	40000003 	andmi	r0, r0, r3
     5e0:	01000004 	tsteq	r0, r4
     5e4:	00005400 	andeq	r5, r0, r0, lsl #8
	...
     5f0:	00000408 	andeq	r0, r0, r8, lsl #8
     5f4:	00000440 	andeq	r0, r0, r0, asr #8
     5f8:	00560001 	subseq	r0, r6, r1
     5fc:	00000000 	andeq	r0, r0, r0
     600:	01000000 	mrseq	r0, (UNDEF: 0)
     604:	00040800 	andeq	r0, r4, r0, lsl #16
     608:	00044000 	andeq	r4, r4, r0
     60c:	51000100 	mrspl	r0, (UNDEF: 16)
	...
     618:	00020200 	andeq	r0, r2, r0, lsl #4
     61c:	040a0000 	streq	r0, [sl], #-0
     620:	040a0000 	streq	r0, [sl], #-0
     624:	00010000 	andeq	r0, r1, r0
     628:	00040a53 	andeq	r0, r4, r3, asr sl
     62c:	00042000 	andeq	r2, r4, r0
     630:	75000800 	strvc	r0, [r0, #-2048]	; 0xfffff800
     634:	73243200 			; <UNDEFINED> instruction: 0x73243200
     638:	349f2200 	ldrcc	r2, [pc], #512	; 640 <_Min_Stack_Size+0x240>
     63c:	3c000004 	stccc	0, cr0, [r0], {4}
     640:	08000004 	stmdaeq	r0, {r2}
     644:	32007500 	andcc	r7, r0, #0, 10
     648:	22007324 	andcs	r7, r0, #36, 6	; 0x90000000
     64c:	0000009f 	muleq	r0, pc, r0	; <UNPREDICTABLE>
     650:	00000000 	andeq	r0, r0, r0
     654:	00000200 	andeq	r0, r0, r0, lsl #4
     658:	00040a00 	andeq	r0, r4, r0, lsl #20
     65c:	00043c00 	andeq	r3, r4, r0, lsl #24
     660:	55000100 	strpl	r0, [r0, #-256]	; 0xffffff00
     664:	0000043c 	andeq	r0, r0, ip, lsr r4
     668:	0000043e 	andeq	r0, r0, lr, lsr r4
     66c:	01750003 	cmneq	r5, r3
     670:	0000009f 	muleq	r0, pc, r0	; <UNPREDICTABLE>
     674:	00000000 	andeq	r0, r0, r0
     678:	0002c400 	andeq	ip, r2, r0, lsl #8
     67c:	0002c600 	andeq	ip, r2, r0, lsl #12
     680:	7d000200 	sfmvc	f0, 4, [r0, #-0]
     684:	0002c600 	andeq	ip, r2, r0, lsl #12
     688:	0003ec00 	andeq	lr, r3, r0, lsl #24
     68c:	7d000200 	sfmvc	f0, 4, [r0, #-0]
     690:	00000010 	andeq	r0, r0, r0, lsl r0
     694:	00000000 	andeq	r0, r0, r0
     698:	00000200 	andeq	r0, r0, r0, lsl #4
     69c:	0002ec00 	andeq	lr, r2, r0, lsl #24
     6a0:	0002f000 	andeq	pc, r2, r0
     6a4:	30000200 	andcc	r0, r0, r0, lsl #4
     6a8:	0002f09f 	muleq	r2, pc, r0	; <UNPREDICTABLE>
     6ac:	0002f200 	andeq	pc, r2, r0, lsl #4
     6b0:	38000500 	stmdacc	r0, {r8, sl}
     6b4:	9f1c0074 	svcls	0x001c0074
	...
     6c0:	033c0000 	teqeq	ip, #0
     6c4:	03880000 	orreq	r0, r8, #0
     6c8:	00010000 	andeq	r0, r1, r0
     6cc:	00000055 	andeq	r0, r0, r5, asr r0
     6d0:	00000000 	andeq	r0, r0, r0
     6d4:	00018800 	andeq	r8, r1, r0, lsl #16
     6d8:	00018a00 	andeq	r8, r1, r0, lsl #20
     6dc:	7d000200 	sfmvc	f0, 4, [r0, #-0]
     6e0:	00018a00 	andeq	r8, r1, r0, lsl #20
     6e4:	0002c400 	andeq	ip, r2, r0, lsl #8
     6e8:	7d000200 	sfmvc	f0, 4, [r0, #-0]
     6ec:	00000014 	andeq	r0, r0, r4, lsl r0
	...
     6f8:	00018800 	andeq	r8, r1, r0, lsl #16
     6fc:	00019200 	andeq	r9, r1, r0, lsl #4
     700:	50000100 	andpl	r0, r0, r0, lsl #2
     704:	00000192 	muleq	r0, r2, r1
     708:	000002c4 	andeq	r0, r0, r4, asr #5
     70c:	00560001 	subseq	r0, r6, r1
	...
     724:	88000000 	stmdahi	r0, {}	; <UNPREDICTABLE>
     728:	dc000001 	stcle	0, cr0, [r0], {1}
     72c:	01000001 	tsteq	r0, r1
     730:	01dc5100 	bicseq	r5, ip, r0, lsl #2
     734:	02320000 	eorseq	r0, r2, #0
     738:	00040000 	andeq	r0, r4, r0
     73c:	9f5101f3 	svcls	0x005101f3
     740:	00000232 	andeq	r0, r0, r2, lsr r2
     744:	00000236 	andeq	r0, r0, r6, lsr r2
     748:	36510001 	ldrbcc	r0, [r1], -r1
     74c:	38000002 	stmdacc	r0, {r1}
     750:	04000002 	streq	r0, [r0], #-2
     754:	5101f300 	mrspl	pc, SP_irq	; <UNPREDICTABLE>
     758:	0002389f 	muleq	r2, pc, r8	; <UNPREDICTABLE>
     75c:	00023c00 	andeq	r3, r2, r0, lsl #24
     760:	51000100 	mrspl	r0, (UNDEF: 16)
     764:	0000023c 	andeq	r0, r0, ip, lsr r2
     768:	0000023e 	andeq	r0, r0, lr, lsr r2
     76c:	01f30004 	mvnseq	r0, r4
     770:	023e9f51 	eorseq	r9, lr, #324	; 0x144
     774:	02420000 	subeq	r0, r2, #0
     778:	00010000 	andeq	r0, r1, r0
     77c:	00024251 	andeq	r4, r2, r1, asr r2
     780:	0002c400 	andeq	ip, r2, r0, lsl #8
     784:	f3000400 	vshl.u8	d0, d0, d0
     788:	009f5101 	addseq	r5, pc, r1, lsl #2
	...
     798:	00018800 	andeq	r8, r1, r0, lsl #16
     79c:	00022400 	andeq	r2, r2, r0, lsl #8
     7a0:	52000100 	andpl	r0, r0, #0, 2
     7a4:	00000224 	andeq	r0, r0, r4, lsr #4
     7a8:	00000232 	andeq	r0, r0, r2, lsr r2
     7ac:	01f30004 	mvnseq	r0, r4
     7b0:	02329f52 	eorseq	r9, r2, #328	; 0x148
     7b4:	02c40000 	sbceq	r0, r4, #0
     7b8:	00010000 	andeq	r0, r1, r0
     7bc:	00000052 	andeq	r0, r0, r2, asr r0
     7c0:	00000000 	andeq	r0, r0, r0
     7c4:	00000200 	andeq	r0, r0, r0, lsl #4
     7c8:	00000000 	andeq	r0, r0, r0
     7cc:	00018800 	andeq	r8, r1, r0, lsl #16
     7d0:	0001fe00 	andeq	pc, r1, r0, lsl #28
     7d4:	70000600 	andvc	r0, r0, r0, lsl #12
     7d8:	1a800900 	bne	fe002be0 <BootRAM+0xcf73381>
     7dc:	0001fe9f 	muleq	r1, pc, lr	; <UNPREDICTABLE>
     7e0:	00023200 	andeq	r3, r2, r0, lsl #4
     7e4:	f3000700 	vabd.u8	d0, d0, d0
     7e8:	80095001 	andhi	r5, r9, r1
     7ec:	02329f1a 	eorseq	r9, r2, #26, 30	; 0x68
     7f0:	02440000 	subeq	r0, r4, #0
     7f4:	00060000 	andeq	r0, r6, r0
     7f8:	80090070 	andhi	r0, r9, r0, ror r0
     7fc:	02449f1a 	subeq	r9, r4, #26, 30	; 0x68
     800:	02c40000 	sbceq	r0, r4, #0
     804:	00070000 	andeq	r0, r7, r0
     808:	095001f3 	ldmdbeq	r0, {r0, r1, r4, r5, r6, r7, r8}^
     80c:	009f1a80 	addseq	r1, pc, r0, lsl #21
	...
     818:	02020101 	andeq	r0, r2, #1073741824	; 0x40000000
	...
     828:	0001c800 	andeq	ip, r1, r0, lsl #16
     82c:	0001c800 	andeq	ip, r1, r0, lsl #16
     830:	54000100 	strpl	r0, [r0], #-256	; 0xffffff00
     834:	000001c8 	andeq	r0, r0, r8, asr #3
     838:	000001c8 	andeq	r0, r0, r8, asr #3
     83c:	0074000b 	rsbseq	r0, r4, fp
     840:	1a0f0f0a 	bne	3c4470 <_Min_Stack_Size+0x3c4070>
     844:	2180800b 	orrcs	r8, r0, fp
     848:	0001c89f 	muleq	r1, pc, r8	; <UNPREDICTABLE>
     84c:	0001cc00 	andeq	ip, r1, r0, lsl #24
     850:	74001100 	strvc	r1, [r0], #-256	; 0xffffff00
     854:	0f000a00 	svceq	0x00000a00
     858:	0800761a 	stmdaeq	r0, {r1, r3, r4, r9, sl, ip, sp, lr}
     85c:	0b211aff 	bleq	847460 <_Min_Stack_Size+0x847060>
     860:	9f218080 	svcls	0x00218080
     864:	000001d0 	ldrdeq	r0, [r0], -r0	; <UNPREDICTABLE>
     868:	000001e4 	andeq	r0, r0, r4, ror #3
     86c:	00740007 	rsbseq	r0, r4, r7
     870:	2180800b 	orrcs	r8, r0, fp
     874:	0001e49f 	muleq	r1, pc, r4	; <UNPREDICTABLE>
     878:	0001ec00 	andeq	lr, r1, r0, lsl #24
     87c:	51000100 	mrspl	r0, (UNDEF: 16)
     880:	000001ec 	andeq	r0, r0, ip, ror #3
     884:	00000206 	andeq	r0, r0, r6, lsl #4
     888:	00750002 	rsbseq	r0, r5, r2
     88c:	00000212 	andeq	r0, r0, r2, lsl r2
     890:	00000216 	andeq	r0, r0, r6, lsl r2
     894:	32510001 	subscc	r0, r1, #1
     898:	44000002 	strmi	r0, [r0], #-2
     89c:	07000002 	streq	r0, [r0, -r2]
     8a0:	0b007400 	bleq	1d8a8 <_Min_Stack_Size+0x1d4a8>
     8a4:	9f218080 	svcls	0x00218080
     8a8:	00000244 	andeq	r0, r0, r4, asr #4
     8ac:	00000246 	andeq	r0, r0, r6, asr #4
     8b0:	00750002 	rsbseq	r0, r5, r2
	...
     8bc:	0000007c 	andeq	r0, r0, ip, ror r0
     8c0:	0000007e 	andeq	r0, r0, lr, ror r0
     8c4:	007d0002 	rsbseq	r0, sp, r2
     8c8:	0000007e 	andeq	r0, r0, lr, ror r0
     8cc:	00000188 	andeq	r0, r0, r8, lsl #3
     8d0:	147d0002 	ldrbtne	r0, [sp], #-2
	...
     8e0:	0000007c 	andeq	r0, r0, ip, ror r0
     8e4:	00000082 	andeq	r0, r0, r2, lsl #1
     8e8:	82500001 	subshi	r0, r0, #1
     8ec:	88000000 	stmdahi	r0, {}	; <UNPREDICTABLE>
     8f0:	01000001 	tsteq	r0, r1
     8f4:	00005700 	andeq	r5, r0, r0, lsl #14
	...
     904:	007c0000 	rsbseq	r0, ip, r0
     908:	01020000 	mrseq	r0, (UNDEF: 2)
     90c:	00010000 	andeq	r0, r1, r0
     910:	00010251 	andeq	r0, r1, r1, asr r2
     914:	00012800 	andeq	r2, r1, r0, lsl #16
     918:	f3000400 	vshl.u8	d0, d0, d0
     91c:	289f5101 	ldmcs	pc, {r0, r8, ip, lr}	; <UNPREDICTABLE>
     920:	38000001 	stmdacc	r0, {r0}
     924:	01000001 	tsteq	r0, r1
     928:	01385100 	teqeq	r8, r0, lsl #2
     92c:	01880000 	orreq	r0, r8, r0
     930:	00040000 	andeq	r0, r4, r0
     934:	9f5101f3 	svcls	0x005101f3
	...
     944:	007c0000 	rsbseq	r0, ip, r0
     948:	01220000 			; <UNDEFINED> instruction: 0x01220000
     94c:	00010000 	andeq	r0, r1, r0
     950:	00012252 	andeq	r2, r1, r2, asr r2
     954:	00012400 	andeq	r2, r1, r0, lsl #8
     958:	f3000400 	vshl.u8	d0, d0, d0
     95c:	289f5201 	ldmcs	pc, {r0, r9, ip, lr}	; <UNPREDICTABLE>
     960:	88000001 	stmdahi	r0, {r0}
     964:	01000001 	tsteq	r0, r1
     968:	00005200 	andeq	r5, r0, r0, lsl #4
	...
     97c:	0000007c 	andeq	r0, r0, ip, ror r0
     980:	0000010a 	andeq	r0, r0, sl, lsl #2
     984:	0a530001 	beq	14c0990 <_Min_Stack_Size+0x14c0590>
     988:	20000001 	andcs	r0, r0, r1
     98c:	07000001 	streq	r0, [r0, -r1]
     990:	32007700 	andcc	r7, r0, #0, 14
     994:	22007424 	andcs	r7, r0, #36, 8	; 0x24000000
     998:	00000120 	andeq	r0, r0, r0, lsr #2
     99c:	00000128 	andeq	r0, r0, r8, lsr #2
     9a0:	01f30004 	mvnseq	r0, r4
     9a4:	01289f53 			; <UNDEFINED> instruction: 0x01289f53
     9a8:	01680000 	cmneq	r8, r0
     9ac:	00010000 	andeq	r0, r1, r0
     9b0:	00016853 	andeq	r6, r1, r3, asr r8
     9b4:	00018800 	andeq	r8, r1, r0, lsl #16
     9b8:	77000700 	strvc	r0, [r0, -r0, lsl #14]
     9bc:	71243200 			; <UNDEFINED> instruction: 0x71243200
     9c0:	00002200 	andeq	r2, r0, r0, lsl #4
     9c4:	00000000 	andeq	r0, r0, r0
     9c8:	00020000 	andeq	r0, r2, r0
	...
     9d4:	0000007c 	andeq	r0, r0, ip, ror r0
     9d8:	00000098 	muleq	r0, r8, r0
     9dc:	00700006 	rsbseq	r0, r0, r6
     9e0:	9f1a8009 	svcls	0x001a8009
     9e4:	00000098 	muleq	r0, r8, r0
     9e8:	000000c6 	andeq	r0, r0, r6, asr #1
     9ec:	007c0006 	rsbseq	r0, ip, r6
     9f0:	9f1a8009 	svcls	0x001a8009
     9f4:	000000c6 	andeq	r0, r0, r6, asr #1
     9f8:	000000dc 	ldrdeq	r0, [r0], -ip
     9fc:	00700006 	rsbseq	r0, r0, r6
     a00:	9f1a8009 	svcls	0x001a8009
     a04:	000000dc 	ldrdeq	r0, [r0], -ip
     a08:	00000120 	andeq	r0, r0, r0, lsr #2
     a0c:	007c0006 	rsbseq	r0, ip, r6
     a10:	9f1a8009 	svcls	0x001a8009
     a14:	00000120 	andeq	r0, r0, r0, lsr #2
     a18:	00000188 	andeq	r0, r0, r8, lsl #3
     a1c:	01f30007 	mvnseq	r0, r7
     a20:	1a800950 	bne	fe002f68 <BootRAM+0xcf73709>
     a24:	0000009f 	muleq	r0, pc, r0	; <UNPREDICTABLE>
     a28:	00000000 	andeq	r0, r0, r0
     a2c:	01010000 	mrseq	r0, (UNDEF: 1)
     a30:	00000202 	andeq	r0, r0, r2, lsl #4
     a34:	00000000 	andeq	r0, r0, r0
     a38:	ac000000 	stcge	0, cr0, [r0], {-0}
     a3c:	ac000000 	stcge	0, cr0, [r0], {-0}
     a40:	01000000 	mrseq	r0, (UNDEF: 0)
     a44:	00ac5400 	adceq	r5, ip, r0, lsl #8
     a48:	00ac0000 	adceq	r0, ip, r0
     a4c:	000b0000 	andeq	r0, fp, r0
     a50:	0f0a0074 	svceq	0x000a0074
     a54:	800b1a0f 	andhi	r1, fp, pc, lsl #20
     a58:	ac9f2180 	ldfges	f2, [pc], {128}	; 0x80
     a5c:	b2000000 	andlt	r0, r0, #0
     a60:	11000000 	mrsne	r0, (UNDEF: 0)
     a64:	0a007400 	beq	1da6c <_Min_Stack_Size+0x1d66c>
     a68:	771a0f00 	ldrvc	r0, [sl, -r0, lsl #30]
     a6c:	1aff0800 	bne	fffc2a74 <BootRAM+0xef33215>
     a70:	80800b21 	addhi	r0, r0, r1, lsr #22
     a74:	00b69f21 	adcseq	r9, r6, r1, lsr #30
     a78:	00c40000 	sbceq	r0, r4, r0
     a7c:	00070000 	andeq	r0, r7, r0
     a80:	800b0074 	andhi	r0, fp, r4, ror r0
     a84:	dc9f2180 	ldfles	f2, [pc], {128}	; 0x80
     a88:	e0000000 	and	r0, r0, r0
     a8c:	07000000 	streq	r0, [r0, -r0]
     a90:	0b007400 	bleq	1da98 <_Min_Stack_Size+0x1d698>
     a94:	9f218080 	svcls	0x00218080
     a98:	00000128 	andeq	r0, r0, r8, lsr #2
     a9c:	0000012c 	andeq	r0, r0, ip, lsr #2
     aa0:	00740007 	rsbseq	r0, r4, r7
     aa4:	2180800b 	orrcs	r8, r0, fp
     aa8:	00012e9f 	muleq	r1, pc, lr	; <UNPREDICTABLE>
     aac:	00013200 	andeq	r3, r1, r0, lsl #4
     ab0:	74000700 	strvc	r0, [r0], #-1792	; 0xfffff900
     ab4:	80800b00 	addhi	r0, r0, r0, lsl #22
     ab8:	00009f21 	andeq	r9, r0, r1, lsr #30
     abc:	00000000 	andeq	r0, r0, r0
     ac0:	04f60000 	ldrbteq	r0, [r6], #0
     ac4:	04f80000 	ldrbteq	r0, [r8], #0
     ac8:	00020000 	andeq	r0, r2, r0
     acc:	04f8007d 	ldrbteq	r0, [r8], #125	; 0x7d
     ad0:	05840000 	streq	r0, [r4]
     ad4:	00020000 	andeq	r0, r2, r0
     ad8:	0584187d 	streq	r1, [r4, #2173]	; 0x87d
     adc:	05860000 	streq	r0, [r6]
     ae0:	00020000 	andeq	r0, r2, r0
     ae4:	0586107d 	streq	r1, [r6, #125]	; 0x7d
     ae8:	06100000 	ldreq	r0, [r0], -r0
     aec:	00020000 	andeq	r0, r2, r0
     af0:	0000187d 	andeq	r1, r0, sp, ror r8
	...
     b00:	04f60000 	ldrbteq	r0, [r6], #0
     b04:	051c0000 	ldreq	r0, [ip, #-0]
     b08:	00010000 	andeq	r0, r1, r0
     b0c:	00051c50 	andeq	r1, r5, r0, asr ip
     b10:	00054600 	andeq	r4, r5, r0, lsl #12
     b14:	f3000400 	vshl.u8	d0, d0, d0
     b18:	469f5001 	ldrmi	r5, [pc], r1
     b1c:	50000005 	andpl	r0, r0, r5
     b20:	01000005 	tsteq	r0, r5
     b24:	05505000 	ldrbeq	r5, [r0, #-0]
     b28:	06100000 	ldreq	r0, [r0], -r0
     b2c:	00040000 	andeq	r0, r4, r0
     b30:	9f5001f3 	svcls	0x005001f3
	...
     b3c:	00000001 	andeq	r0, r0, r1
     b40:	00000300 	andeq	r0, r0, r0, lsl #6
     b44:	00000522 	andeq	r0, r0, r2, lsr #10
     b48:	00000540 	andeq	r0, r0, r0, asr #10
     b4c:	50550001 	subspl	r0, r5, r1
     b50:	82000005 	andhi	r0, r0, #5
     b54:	01000005 	tsteq	r0, r5
     b58:	05865500 	streq	r5, [r6, #1280]	; 0x500
     b5c:	05b20000 	ldreq	r0, [r2, #0]!
     b60:	00010000 	andeq	r0, r1, r0
     b64:	0005ba55 	andeq	fp, r5, r5, asr sl
     b68:	0005ea00 	andeq	lr, r5, r0, lsl #20
     b6c:	55000100 	strpl	r0, [r0, #-256]	; 0xffffff00
	...
     b78:	05080001 	streq	r0, [r8, #-1]
     b7c:	05120000 	ldreq	r0, [r2, #-0]
     b80:	000b0000 	andeq	r0, fp, r0
     b84:	000a0073 	andeq	r0, sl, r3, ror r0
     b88:	24401a08 	strbcs	r1, [r0], #-2568	; 0xfffff5f8
     b8c:	009f2e30 	addseq	r2, pc, r0, lsr lr	; <UNPREDICTABLE>
	...
     ba0:	28000003 	stmdacs	r0, {r0, r1}
     ba4:	40000005 	andmi	r0, r0, r5
     ba8:	01000005 	tsteq	r0, r5
     bac:	05505300 	ldrbeq	r5, [r0, #-768]	; 0xfffffd00
     bb0:	05630000 	strbeq	r0, [r3, #-0]!
     bb4:	00010000 	andeq	r0, r1, r0
     bb8:	00058653 	andeq	r8, r5, r3, asr r6
     bbc:	00059000 	andeq	r9, r5, r0
     bc0:	53000100 	movwpl	r0, #256	; 0x100
     bc4:	00000590 	muleq	r0, r0, r5
     bc8:	000005a3 	andeq	r0, r0, r3, lsr #11
     bcc:	1403000b 	strne	r0, [r3], #-11
     bd0:	94200000 	strtls	r0, [r0], #-0
     bd4:	1a7f0801 	bne	1fc2be0 <_Min_Stack_Size+0x1fc27e0>
     bd8:	0005a69f 	muleq	r5, pc, r6	; <UNPREDICTABLE>
     bdc:	0005b200 	andeq	fp, r5, r0, lsl #4
     be0:	53000100 	movwpl	r0, #256	; 0x100
     be4:	000005ba 			; <UNDEFINED> instruction: 0x000005ba
     be8:	000005cd 	andeq	r0, r0, sp, asr #11
     bec:	00530001 	subseq	r0, r3, r1
     bf0:	00000000 	andeq	r0, r0, r0
     bf4:	01000000 	mrseq	r0, (UNDEF: 0)
     bf8:	00053c00 	andeq	r3, r5, r0, lsl #24
     bfc:	00054000 	andeq	r4, r5, r0
     c00:	32000200 	andcc	r0, r0, #0, 4
     c04:	0000009f 	muleq	r0, pc, r0	; <UNPREDICTABLE>
     c08:	00000000 	andeq	r0, r0, r0
     c0c:	3c000100 	stfccs	f0, [r0], {-0}
     c10:	40000005 	andmi	r0, r0, r5
     c14:	06000005 	streq	r0, [r0], -r5
     c18:	0cf00300 	ldcleq	3, cr0, [r0]
     c1c:	009f0800 	addseq	r0, pc, r0, lsl #16
     c20:	00000000 	andeq	r0, r0, r0
     c24:	01000000 	mrseq	r0, (UNDEF: 0)
     c28:	00053c00 	andeq	r3, r5, r0, lsl #24
     c2c:	00054000 	andeq	r4, r5, r0
     c30:	30000200 	andcc	r0, r0, r0, lsl #4
     c34:	0000009f 	muleq	r0, pc, r0	; <UNPREDICTABLE>
     c38:	00000000 	andeq	r0, r0, r0
     c3c:	74000100 	strvc	r0, [r0], #-256	; 0xffffff00
     c40:	81000005 	tsthi	r0, r5
     c44:	02000005 	andeq	r0, r0, #5
     c48:	006a9100 	rsbeq	r9, sl, r0, lsl #2
     c4c:	00000000 	andeq	r0, r0, r0
     c50:	01000000 	mrseq	r0, (UNDEF: 0)
     c54:	00057400 	andeq	r7, r5, r0, lsl #8
     c58:	00058100 	andeq	r8, r5, r0, lsl #2
     c5c:	91000200 	mrsls	r0, R8_usr
     c60:	0000006c 	andeq	r0, r0, ip, rrx
     c64:	00000000 	andeq	r0, r0, r0
     c68:	86000100 	strhi	r0, [r0], -r0, lsl #2
     c6c:	8e000005 	cdphi	0, 0, cr0, cr0, cr5, {0}
     c70:	02000005 	andeq	r0, r0, #5
     c74:	009f3100 	addseq	r3, pc, r0, lsl #2
     c78:	00000000 	andeq	r0, r0, r0
     c7c:	01000000 	mrseq	r0, (UNDEF: 0)
     c80:	00058600 	andeq	r8, r5, r0, lsl #12
     c84:	00058e00 	andeq	r8, r5, r0, lsl #28
     c88:	03000600 	movweq	r0, #1536	; 0x600
     c8c:	2000001e 	andcs	r0, r0, lr, lsl r0
     c90:	0000009f 	muleq	r0, pc, r0	; <UNPREDICTABLE>
     c94:	00000000 	andeq	r0, r0, r0
     c98:	86000100 	strhi	r0, [r0], -r0, lsl #2
     c9c:	8e000005 	cdphi	0, 0, cr0, cr0, cr5, {0}
     ca0:	02000005 	andeq	r0, r0, #5
     ca4:	009f3000 	addseq	r3, pc, r0
     ca8:	00000000 	andeq	r0, r0, r0
     cac:	02000000 	andeq	r0, r0, #0
     cb0:	00051600 	andeq	r1, r5, r0, lsl #12
     cb4:	00052000 	andeq	r2, r5, r0
     cb8:	30000200 	andcc	r0, r0, r0, lsl #4
     cbc:	0000009f 	muleq	r0, pc, r0	; <UNPREDICTABLE>
     cc0:	00000000 	andeq	r0, r0, r0
     cc4:	16000200 	strne	r0, [r0], -r0, lsl #4
     cc8:	20000005 	andcs	r0, r0, r5
     ccc:	06000005 	streq	r0, [r0], -r5
     cd0:	00140300 	andseq	r0, r4, r0, lsl #6
     cd4:	009f2000 	addseq	r2, pc, r0
     cd8:	00000000 	andeq	r0, r0, r0
     cdc:	05000000 	streq	r0, [r0, #-0]
     ce0:	0005b200 	andeq	fp, r5, r0, lsl #4
     ce4:	0005ba00 	andeq	fp, r5, r0, lsl #20
     ce8:	30000200 	andcc	r0, r0, r0, lsl #4
     cec:	0000009f 	muleq	r0, pc, r0	; <UNPREDICTABLE>
     cf0:	00000000 	andeq	r0, r0, r0
     cf4:	b2030100 	andlt	r0, r3, #0, 2
     cf8:	b2000005 	andlt	r0, r0, #5
     cfc:	02000005 	andeq	r0, r0, #5
     d00:	009f3000 	addseq	r3, pc, r0
     d04:	00000000 	andeq	r0, r0, r0
     d08:	01000000 	mrseq	r0, (UNDEF: 0)
     d0c:	0005c200 	andeq	ip, r5, r0, lsl #4
     d10:	0005c400 	andeq	ip, r5, r0, lsl #8
     d14:	30000200 	andcc	r0, r0, r0, lsl #4
     d18:	0000009f 	muleq	r0, pc, r0	; <UNPREDICTABLE>
     d1c:	00000000 	andeq	r0, r0, r0
     d20:	00044000 	andeq	r4, r4, r0
     d24:	00044200 	andeq	r4, r4, r0, lsl #4
     d28:	7d000200 	sfmvc	f0, 4, [r0, #-0]
     d2c:	00044200 	andeq	r4, r4, r0, lsl #4
     d30:	00049c00 	andeq	r9, r4, r0, lsl #24
     d34:	7d000200 	sfmvc	f0, 4, [r0, #-0]
     d38:	00000018 	andeq	r0, r0, r8, lsl r0
	...
     d44:	00044000 	andeq	r4, r4, r0
     d48:	00047800 	andeq	r7, r4, r0, lsl #16
     d4c:	50000100 	andpl	r0, r0, r0, lsl #2
     d50:	00000478 	andeq	r0, r0, r8, ror r4
     d54:	0000049c 	muleq	r0, ip, r4
     d58:	01f30004 	mvnseq	r0, r4
     d5c:	00009f50 	andeq	r9, r0, r0, asr pc
	...
     d68:	046c0000 	strbteq	r0, [ip], #-0
     d6c:	04760000 	ldrbteq	r0, [r6], #-0
     d70:	00010000 	andeq	r0, r1, r0
     d74:	00047657 	andeq	r7, r4, r7, asr r6
     d78:	00049000 	andeq	r9, r4, r0
     d7c:	56000100 	strpl	r0, [r0], -r0, lsl #2
	...
     d88:	04760002 	ldrbteq	r0, [r6], #-2
     d8c:	047e0000 	ldrbteq	r0, [lr], #-0
     d90:	00010000 	andeq	r0, r1, r0
     d94:	00000056 	andeq	r0, r0, r6, asr r0
     d98:	00000000 	andeq	r0, r0, r0
     d9c:	76000200 	strvc	r0, [r0], -r0, lsl #4
     da0:	7e000004 	cdpvc	0, 0, cr0, cr0, cr4, {0}
     da4:	01000004 	tsteq	r0, r4
     da8:	00005100 	andeq	r5, r0, r0, lsl #2
     dac:	00000000 	andeq	r0, r0, r0
     db0:	00020000 	andeq	r0, r2, r0
     db4:	00000476 	andeq	r0, r0, r6, ror r4
     db8:	0000047e 	andeq	r0, r0, lr, ror r4
     dbc:	9f300002 	svcls	0x00300002
	...
     dc8:	00000002 	andeq	r0, r0, r2
     dcc:	00000000 	andeq	r0, r0, r0
     dd0:	00000032 	andeq	r0, r0, r2, lsr r0
     dd4:	00000034 	andeq	r0, r0, r4, lsr r0
     dd8:	9f300002 	svcls	0x00300002
     ddc:	00000034 	andeq	r0, r0, r4, lsr r0
     de0:	00000036 	andeq	r0, r0, r6, lsr r0
     de4:	a00c0009 	andge	r0, ip, r9
     de8:	72000186 	andvc	r0, r0, #-2147483615	; 0x80000021
     dec:	369f1c00 	ldrcc	r1, [pc], r0, lsl #24
     df0:	38000000 	stmdacc	r0, {}	; <UNPREDICTABLE>
     df4:	09000000 	stmdbeq	r0, {}	; <UNPREDICTABLE>
     df8:	86a10c00 	strthi	r0, [r1], r0, lsl #24
     dfc:	00720001 	rsbseq	r0, r2, r1
     e00:	00389f1c 	eorseq	r9, r8, ip, lsl pc
     e04:	004e0000 	subeq	r0, lr, r0
     e08:	00090000 	andeq	r0, r9, r0
     e0c:	0186a00c 	orreq	sl, r6, ip
     e10:	1c007200 	sfmne	f7, 4, [r0], {-0}
     e14:	0000009f 	muleq	r0, pc, r0	; <UNPREDICTABLE>
     e18:	00000000 	andeq	r0, r0, r0
     e1c:	52000100 	andpl	r0, r0, #0, 2
     e20:	5a000000 	bpl	e28 <_Min_Stack_Size+0xa28>
     e24:	02000000 	andeq	r0, r0, #0
     e28:	009f4400 	addseq	r4, pc, r0, lsl #8
	...
     e34:	0a000000 	beq	e3c <_Min_Stack_Size+0xa3c>
     e38:	0c000000 	stceq	0, cr0, [r0], {-0}
     e3c:	01000000 	mrseq	r0, (UNDEF: 0)
     e40:	000c5000 	andeq	r5, ip, r0
     e44:	000e0000 	andeq	r0, lr, r0
     e48:	00040000 	andeq	r0, r4, r0
     e4c:	9f5001f3 	svcls	0x005001f3
	...
     e5c:	00000006 	andeq	r0, r0, r6
     e60:	00000008 	andeq	r0, r0, r8
     e64:	08500001 	ldmdaeq	r0, {r0}^
     e68:	0a000000 	beq	e70 <_Min_Stack_Size+0xa70>
     e6c:	04000000 	streq	r0, [r0], #-0
     e70:	5001f300 	andpl	pc, r1, r0, lsl #6
     e74:	0000009f 	muleq	r0, pc, r0	; <UNPREDICTABLE>
     e78:	00000000 	andeq	r0, r0, r0
     e7c:	00020000 	andeq	r0, r2, r0
     e80:	00020200 	andeq	r0, r2, r0, lsl #4
     e84:	7d000200 	sfmvc	f0, 4, [r0, #-0]
     e88:	00020200 	andeq	r0, r2, r0, lsl #4
     e8c:	00025000 	andeq	r5, r2, r0
     e90:	7d000200 	sfmvc	f0, 4, [r0, #-0]
     e94:	00025010 	andeq	r5, r2, r0, lsl r0
     e98:	00025200 	andeq	r5, r2, r0, lsl #4
     e9c:	7d000200 	sfmvc	f0, 4, [r0, #-0]
     ea0:	00025208 	andeq	r5, r2, r8, lsl #4
     ea4:	00026400 	andeq	r6, r2, r0, lsl #8
     ea8:	7d000200 	sfmvc	f0, 4, [r0, #-0]
     eac:	00000010 	andeq	r0, r0, r0, lsl r0
	...
     eb8:	4a000000 	bmi	ec0 <_Min_Stack_Size+0xac0>
     ebc:	4c000002 	stcmi	0, cr0, [r0], {2}
     ec0:	03000002 	movweq	r0, #2
     ec4:	9f7e7300 	svcls	0x007e7300
     ec8:	0000024c 	andeq	r0, r0, ip, asr #4
     ecc:	00000252 	andeq	r0, r0, r2, asr r2
     ed0:	7f730003 	svcvc	0x00730003
     ed4:	0002529f 	muleq	r2, pc, r2	; <UNPREDICTABLE>
     ed8:	00026400 	andeq	r6, r2, r0, lsl #8
     edc:	73000300 	movwvc	r0, #768	; 0x300
     ee0:	00009f7e 	andeq	r9, r0, lr, ror pc
     ee4:	00000000 	andeq	r0, r0, r0
     ee8:	01c80000 	biceq	r0, r8, r0
     eec:	01ca0000 	biceq	r0, sl, r0
     ef0:	00020000 	andeq	r0, r2, r0
     ef4:	01ca007d 	biceq	r0, sl, sp, ror r0
     ef8:	01e60000 	mvneq	r0, r0
     efc:	00020000 	andeq	r0, r2, r0
     f00:	01e6087d 	mvneq	r0, sp, ror r8
     f04:	02000000 	andeq	r0, r0, #0
     f08:	00020000 	andeq	r0, r2, r0
     f0c:	0000007d 	andeq	r0, r0, sp, ror r0
     f10:	00000000 	andeq	r0, r0, r0
     f14:	01820000 	orreq	r0, r2, r0
     f18:	01840000 	orreq	r0, r4, r0
     f1c:	00020000 	andeq	r0, r2, r0
     f20:	0184007d 	orreq	r0, r4, sp, ror r0
     f24:	01a00000 	moveq	r0, r0
     f28:	00020000 	andeq	r0, r2, r0
     f2c:	01a0107d 	roreq	r1, sp, r0
     f30:	01a80000 			; <UNDEFINED> instruction: 0x01a80000
     f34:	00020000 	andeq	r0, r2, r0
     f38:	0000087d 	andeq	r0, r0, sp, ror r8
     f3c:	00000000 	andeq	r0, r0, r0
     f40:	01500000 	cmpeq	r0, r0
     f44:	01620000 	cmneq	r2, r0
     f48:	00020000 	andeq	r0, r2, r0
     f4c:	0162007d 	smceq	8205	; 0x200d
     f50:	01820000 	orreq	r0, r2, r0
     f54:	00020000 	andeq	r0, r2, r0
     f58:	0000087d 	andeq	r0, r0, sp, ror r8
     f5c:	00000000 	andeq	r0, r0, r0
     f60:	00020000 	andeq	r0, r2, r0
     f64:	00040000 	andeq	r0, r4, r0
     f68:	00020000 	andeq	r0, r2, r0
     f6c:	0004007d 	andeq	r0, r4, sp, ror r0
     f70:	00080000 	andeq	r0, r8, r0
     f74:	00020000 	andeq	r0, r2, r0
     f78:	0008087d 	andeq	r0, r8, sp, ror r8
     f7c:	00420000 	subeq	r0, r2, r0
     f80:	00030000 	andeq	r0, r3, r0
     f84:	4200c87d 	andmi	ip, r0, #8192000	; 0x7d0000
     f88:	44000000 	strmi	r0, [r0], #-0
     f8c:	02000000 	andeq	r0, r0, #0
     f90:	44087d00 	strmi	r7, [r8], #-3328	; 0xfffff300
     f94:	58000000 	stmdapl	r0, {}	; <UNPREDICTABLE>
     f98:	03000000 	movweq	r0, #0
     f9c:	00c87d00 	sbceq	r7, r8, r0, lsl #26
	...
     fac:	00000002 	andeq	r0, r0, r2
     fb0:	0000000a 	andeq	r0, r0, sl
     fb4:	0a500001 	beq	1400fc0 <_Min_Stack_Size+0x1400bc0>
     fb8:	58000000 	stmdapl	r0, {}	; <UNPREDICTABLE>
     fbc:	04000000 	streq	r0, [r0], #-0
     fc0:	5001f300 	andpl	pc, r1, r0, lsl #6
     fc4:	0000009f 	muleq	r0, pc, r0	; <UNPREDICTABLE>
     fc8:	00000000 	andeq	r0, r0, r0
     fcc:	2e000100 	adfcss	f0, f0, f0
     fd0:	58000000 	stmdapl	r0, {}	; <UNPREDICTABLE>
     fd4:	01000000 	mrseq	r0, (UNDEF: 0)
     fd8:	00005000 	andeq	r5, r0, r0
     fdc:	00000000 	andeq	r0, r0, r0
     fe0:	01010000 	mrseq	r0, (UNDEF: 1)
     fe4:	00000008 	andeq	r0, r0, r8
     fe8:	0000002e 	andeq	r0, r0, lr, lsr #32
     fec:	9f310002 	svcls	0x00310002
	...
     ff8:	00080100 	andeq	r0, r8, r0, lsl #2
     ffc:	002e0000 	eoreq	r0, lr, r0
    1000:	00010000 	andeq	r0, r1, r0
    1004:	0000005d 	andeq	r0, r0, sp, asr r0
    1008:	00000000 	andeq	r0, r0, r0
    100c:	0a000000 	beq	1014 <_Min_Stack_Size+0xc14>
    1010:	10000000 	andne	r0, r0, r0
    1014:	0b000000 	bleq	101c <_Min_Stack_Size+0xc1c>
    1018:	0a007000 	beq	1d020 <_Min_Stack_Size+0x1cc20>
    101c:	401a4000 	andsmi	r4, sl, r0
    1020:	9f293024 	svcls	0x00293024
	...
    102c:	001a0100 	andseq	r0, sl, r0, lsl #2
    1030:	002e0000 	eoreq	r0, lr, r0
    1034:	00010000 	andeq	r0, r1, r0
    1038:	00000050 	andeq	r0, r0, r0, asr r0
    103c:	00000000 	andeq	r0, r0, r0
    1040:	00012800 	andeq	r2, r1, r0, lsl #16
    1044:	00012a00 	andeq	r2, r1, r0, lsl #20
    1048:	7d000200 	sfmvc	f0, 4, [r0, #-0]
    104c:	00012a00 	andeq	r2, r1, r0, lsl #20
    1050:	00015000 	andeq	r5, r1, r0
    1054:	7d000200 	sfmvc	f0, 4, [r0, #-0]
    1058:	00000008 	andeq	r0, r0, r8
	...
    1068:	00012800 	andeq	r2, r1, r0, lsl #16
    106c:	00014000 	andeq	r4, r1, r0
    1070:	50000100 	andpl	r0, r0, r0, lsl #2
    1074:	00000140 	andeq	r0, r0, r0, asr #2
    1078:	00000148 	andeq	r0, r0, r8, asr #2
    107c:	01f30004 	mvnseq	r0, r4
    1080:	01489f50 	cmpeq	r8, r0, asr pc
    1084:	014a0000 	mrseq	r0, (UNDEF: 74)
    1088:	00010000 	andeq	r0, r1, r0
    108c:	00014a50 	andeq	r4, r1, r0, asr sl
    1090:	00015000 	andeq	r5, r1, r0
    1094:	f3000400 	vshl.u8	d0, d0, d0
    1098:	009f5001 	addseq	r5, pc, r1
	...
    10a8:	28000000 	stmdacs	r0, {}	; <UNPREDICTABLE>
    10ac:	3e000001 	cdpcc	0, 0, cr0, cr0, cr1, {0}
    10b0:	01000001 	tsteq	r0, r1
    10b4:	013e5100 	teqeq	lr, r0, lsl #2
    10b8:	01480000 	mrseq	r0, (UNDEF: 72)
    10bc:	00040000 	andeq	r0, r4, r0
    10c0:	9f5101f3 	svcls	0x005101f3
    10c4:	00000148 	andeq	r0, r0, r8, asr #2
    10c8:	0000014a 	andeq	r0, r0, sl, asr #2
    10cc:	4a510001 	bmi	14410d8 <_Min_Stack_Size+0x1440cd8>
    10d0:	50000001 	andpl	r0, r0, r1
    10d4:	04000001 	streq	r0, [r0], #-1
    10d8:	5101f300 	mrspl	pc, SP_irq	; <UNPREDICTABLE>
    10dc:	0000009f 	muleq	r0, pc, r0	; <UNPREDICTABLE>
	...
    10ec:	00012800 	andeq	r2, r1, r0, lsl #16
    10f0:	00014300 	andeq	r4, r1, r0, lsl #6
    10f4:	52000100 	andpl	r0, r0, #0, 2
    10f8:	00000143 	andeq	r0, r0, r3, asr #2
    10fc:	00000148 	andeq	r0, r0, r8, asr #2
    1100:	01f30004 	mvnseq	r0, r4
    1104:	01489f52 	cmpeq	r8, r2, asr pc
    1108:	014a0000 	mrseq	r0, (UNDEF: 74)
    110c:	00010000 	andeq	r0, r1, r0
    1110:	00014a52 	andeq	r4, r1, r2, asr sl
    1114:	00015000 	andeq	r5, r1, r0
    1118:	f3000400 	vshl.u8	d0, d0, d0
    111c:	009f5201 	addseq	r5, pc, r1, lsl #4
    1120:	00000000 	andeq	r0, r0, r0
    1124:	02000000 	andeq	r0, r0, #0
    1128:	00013c00 	andeq	r3, r1, r0, lsl #24
    112c:	00014400 	andeq	r4, r1, r0, lsl #8
    1130:	30000200 	andcc	r0, r0, r0, lsl #4
    1134:	0000009f 	muleq	r0, pc, r0	; <UNPREDICTABLE>
    1138:	00000000 	andeq	r0, r0, r0
    113c:	3c000200 	sfmcc	f0, 4, [r0], {-0}
    1140:	44000001 	strmi	r0, [r0], #-1
    1144:	06000001 	streq	r0, [r0], -r1
    1148:	00020300 	andeq	r0, r2, r0, lsl #6
    114c:	009f2000 	addseq	r2, pc, r0
	...
    115c:	04000000 	streq	r0, [r0], #-0
    1160:	18000001 	stmdane	r0, {r0}
    1164:	01000001 	tsteq	r0, r1
    1168:	01185000 	tsteq	r8, r0
    116c:	01200000 			; <UNDEFINED> instruction: 0x01200000
    1170:	00040000 	andeq	r0, r4, r0
    1174:	9f5001f3 	svcls	0x005001f3
    1178:	00000120 	andeq	r0, r0, r0, lsr #2
    117c:	00000122 	andeq	r0, r0, r2, lsr #2
    1180:	22500001 	subscs	r0, r0, #1
    1184:	28000001 	stmdacs	r0, {r0}
    1188:	04000001 	streq	r0, [r0], #-1
    118c:	5001f300 	andpl	pc, r1, r0, lsl #6
    1190:	0000009f 	muleq	r0, pc, r0	; <UNPREDICTABLE>
	...
    11a0:	00008800 	andeq	r8, r0, r0, lsl #16
    11a4:	0000b000 	andeq	fp, r0, r0
    11a8:	50000100 	andpl	r0, r0, r0, lsl #2
    11ac:	000000b0 	strheq	r0, [r0], -r0	; <UNPREDICTABLE>
    11b0:	000000b4 	strheq	r0, [r0], -r4
    11b4:	01f30004 	mvnseq	r0, r4
    11b8:	00b49f50 	adcseq	r9, r4, r0, asr pc
    11bc:	00c60000 	sbceq	r0, r6, r0
    11c0:	00010000 	andeq	r0, r1, r0
    11c4:	0000c650 	andeq	ip, r0, r0, asr r6
    11c8:	00010400 	andeq	r0, r1, r0, lsl #8
    11cc:	f3000400 	vshl.u8	d0, d0, d0
    11d0:	009f5001 	addseq	r5, pc, r1
    11d4:	00000000 	andeq	r0, r0, r0
    11d8:	58000000 	stmdapl	r0, {}	; <UNPREDICTABLE>
    11dc:	5c000000 	stcpl	0, cr0, [r0], {-0}
    11e0:	02000000 	andeq	r0, r0, #0
    11e4:	5c007d00 	stcpl	13, cr7, [r0], {-0}
    11e8:	7e000000 	cdpvc	0, 0, cr0, cr0, cr0, {0}
    11ec:	02000000 	andeq	r0, r0, #0
    11f0:	7e047d00 	cdpvc	13, 0, cr7, cr4, cr0, {0}
    11f4:	88000000 	stmdahi	r0, {}	; <UNPREDICTABLE>
    11f8:	02000000 	andeq	r0, r0, #0
    11fc:	00007d00 	andeq	r7, r0, r0, lsl #26
	...
    120c:	00005800 	andeq	r5, r0, r0, lsl #16
    1210:	00007c00 	andeq	r7, r0, r0, lsl #24
    1214:	50000100 	andpl	r0, r0, r0, lsl #2
    1218:	0000007c 	andeq	r0, r0, ip, ror r0
    121c:	00000081 	andeq	r0, r0, r1, lsl #1
    1220:	81510001 	cmphi	r1, r1
    1224:	88000000 	stmdahi	r0, {}	; <UNPREDICTABLE>
    1228:	04000000 	streq	r0, [r0], #-0
    122c:	5001f300 	andpl	pc, r1, r0, lsl #6
    1230:	0000009f 	muleq	r0, pc, r0	; <UNPREDICTABLE>
	...
    123c:	00005800 	andeq	r5, r0, r0, lsl #16
    1240:	00007a00 	andeq	r7, r0, r0, lsl #20
    1244:	51000100 	mrspl	r0, (UNDEF: 16)
    1248:	0000007a 	andeq	r0, r0, sl, ror r0
    124c:	00000088 	andeq	r0, r0, r8, lsl #1
    1250:	01f30004 	mvnseq	r0, r4
    1254:	00009f51 	andeq	r9, r0, r1, asr pc
    1258:	00000000 	andeq	r0, r0, r0
    125c:	01000000 	mrseq	r0, (UNDEF: 0)
    1260:	00000001 	andeq	r0, r0, r1
    1264:	00000064 	andeq	r0, r0, r4, rrx
    1268:	00000064 	andeq	r0, r0, r4, rrx
    126c:	64540001 	ldrbvs	r0, [r4], #-1
    1270:	7e000000 	cdpvc	0, 0, cr0, cr0, cr0, {0}
    1274:	03000000 	movweq	r0, #0
    1278:	9f047400 	svcls	0x00047400
    127c:	0000007e 	andeq	r0, r0, lr, ror r0
    1280:	00000081 	andeq	r0, r0, r1, lsl #1
    1284:	00700003 	rsbseq	r0, r0, r3
    1288:	0000009f 	muleq	r0, pc, r0	; <UNPREDICTABLE>
    128c:	00000000 	andeq	r0, r0, r0
    1290:	02020100 	andeq	r0, r2, #0, 2
    1294:	00005800 	andeq	r5, r0, r0, lsl #16
    1298:	00005800 	andeq	r5, r0, r0, lsl #16
    129c:	09000300 	stmdbeq	r0, {r8, r9}
    12a0:	00589f82 	subseq	r9, r8, r2, lsl #31
    12a4:	00880000 	addeq	r0, r8, r0
    12a8:	00020000 	andeq	r0, r2, r0
    12ac:	00009f32 	andeq	r9, r0, r2, lsr pc
    12b0:	00000000 	andeq	r0, r0, r0
    12b4:	01a80000 			; <UNDEFINED> instruction: 0x01a80000
    12b8:	01aa0000 			; <UNDEFINED> instruction: 0x01aa0000
    12bc:	00020000 	andeq	r0, r2, r0
    12c0:	01aa007d 			; <UNDEFINED> instruction: 0x01aa007d
    12c4:	01c80000 	biceq	r0, r8, r0
    12c8:	00020000 	andeq	r0, r2, r0
    12cc:	0000087d 	andeq	r0, r0, sp, ror r8
	...
    12dc:	01a80000 			; <UNDEFINED> instruction: 0x01a80000
    12e0:	01b40000 			; <UNDEFINED> instruction: 0x01b40000
    12e4:	00010000 	andeq	r0, r1, r0
    12e8:	0001b450 	andeq	fp, r1, r0, asr r4
    12ec:	0001b800 	andeq	fp, r1, r0, lsl #16
    12f0:	f3000400 	vshl.u8	d0, d0, d0
    12f4:	b89f5001 	ldmlt	pc, {r0, ip, lr}	; <UNPREDICTABLE>
    12f8:	bb000001 	bllt	1304 <_Min_Stack_Size+0xf04>
    12fc:	01000001 	tsteq	r0, r1
    1300:	01bb5000 			; <UNDEFINED> instruction: 0x01bb5000
    1304:	01c80000 	biceq	r0, r8, r0
    1308:	00040000 	andeq	r0, r4, r0
    130c:	9f5001f3 	svcls	0x005001f3
	...
    1318:	01b80001 			; <UNDEFINED> instruction: 0x01b80001
    131c:	01c80000 	biceq	r0, r8, r0
    1320:	00040000 	andeq	r0, r4, r0
    1324:	9f5001f3 	svcls	0x005001f3
	...
    1338:	00000008 	andeq	r0, r0, r8
    133c:	0000000a 	andeq	r0, r0, sl
    1340:	00760005 	rsbseq	r0, r6, r5
    1344:	0a9f2632 	beq	fe7cac14 <BootRAM+0xd73b3b5>
    1348:	1c000000 	stcne	0, cr0, [r0], {-0}
    134c:	01000000 	mrseq	r0, (UNDEF: 0)
    1350:	00245600 	eoreq	r5, r4, r0, lsl #12
    1354:	00260000 	eoreq	r0, r6, r0
    1358:	00050000 	andeq	r0, r5, r0
    135c:	26320076 			; <UNDEFINED> instruction: 0x26320076
    1360:	0000269f 	muleq	r0, pc, r6	; <UNPREDICTABLE>
    1364:	00003800 	andeq	r3, r0, r0, lsl #16
    1368:	56000100 	strpl	r0, [r0], -r0, lsl #2
	...
    1374:	00000001 	andeq	r0, r0, r1
    1378:	00000000 	andeq	r0, r0, r0
    137c:	00000001 	andeq	r0, r0, r1
    1380:	00000000 	andeq	r0, r0, r0
    1384:	00000008 	andeq	r0, r0, r8
    1388:	0000000e 	andeq	r0, r0, lr
    138c:	9f300002 	svcls	0x00300002
    1390:	0000000e 	andeq	r0, r0, lr
    1394:	00000010 	andeq	r0, r0, r0, lsl r0
    1398:	10540001 	subsne	r0, r4, r1
    139c:	16000000 	strne	r0, [r0], -r0
    13a0:	03000000 	movweq	r0, #0
    13a4:	9f7f7400 	svcls	0x007f7400
    13a8:	00000016 	andeq	r0, r0, r6, lsl r0
    13ac:	0000001a 	andeq	r0, r0, sl, lsl r0
    13b0:	24540001 	ldrbcs	r0, [r4], #-1
    13b4:	2a000000 	bcs	13bc <_Min_Stack_Size+0xfbc>
    13b8:	02000000 	andeq	r0, r0, #0
    13bc:	2a9f3000 	bcs	fe7cd3c4 <BootRAM+0xd73db65>
    13c0:	2c000000 	stccs	0, cr0, [r0], {-0}
    13c4:	01000000 	mrseq	r0, (UNDEF: 0)
    13c8:	002c5400 	eoreq	r5, ip, r0, lsl #8
    13cc:	00320000 	eorseq	r0, r2, r0
    13d0:	00030000 	andeq	r0, r3, r0
    13d4:	329f7f74 	addscc	r7, pc, #116, 30	; 0x1d0
    13d8:	36000000 	strcc	r0, [r0], -r0
    13dc:	01000000 	mrseq	r0, (UNDEF: 0)
    13e0:	00005400 	andeq	r5, r0, r0, lsl #8
    13e4:	00000000 	andeq	r0, r0, r0
	...

Disassembly of section .debug_aranges:

00000000 <.debug_aranges>:
   0:	00000024 	andeq	r0, r0, r4, lsr #32
   4:	00000002 	andeq	r0, r0, r2
   8:	00040000 	andeq	r0, r4, r0
   c:	00000000 	andeq	r0, r0, r0
  10:	08000150 	stmdaeq	r0, {r4, r6, r8}
  14:	00000214 	andeq	r0, r0, r4, lsl r2
  18:	08000c6c 	stmdaeq	r0, {r2, r3, r5, r6, sl, fp}
  1c:	00000084 	andeq	r0, r0, r4, lsl #1
	...
  28:	0000001c 	andeq	r0, r0, ip, lsl r0
  2c:	092c0002 	stmdbeq	ip!, {r1}
  30:	00040000 	andeq	r0, r4, r0
  34:	00000000 	andeq	r0, r0, r0
  38:	08000364 	stmdaeq	r0, {r2, r5, r6, r8, r9}
  3c:	00000610 	andeq	r0, r0, r0, lsl r6
	...
  48:	0000001c 	andeq	r0, r0, ip, lsl r0
  4c:	1b9a0002 	blne	fe68005c <BootRAM+0xd5f07fd>
  50:	00040000 	andeq	r0, r4, r0
  54:	00000000 	andeq	r0, r0, r0
  58:	08000974 	stmdaeq	r0, {r2, r4, r5, r6, r8, fp}
  5c:	00000264 	andeq	r0, r0, r4, ror #4
	...
  68:	0000001c 	andeq	r0, r0, ip, lsl r0
  6c:	31060002 	tstcc	r6, r2
  70:	00040000 	andeq	r0, r4, r0
  74:	00000000 	andeq	r0, r0, r0
  78:	08000bd8 	stmdaeq	r0, {r3, r4, r6, r7, r8, r9, fp}
  7c:	00000048 	andeq	r0, r0, r8, asr #32
	...

Disassembly of section .debug_ranges:

00000000 <.debug_ranges>:
   0:	08000150 	stmdaeq	r0, {r4, r6, r8}
   4:	08000364 	stmdaeq	r0, {r2, r5, r6, r8, r9}
   8:	08000c6c 	stmdaeq	r0, {r2, r3, r5, r6, sl, fp}
   c:	08000cf0 	stmdaeq	r0, {r4, r5, r6, r7, sl, fp}
	...
  18:	00000032 	andeq	r0, r0, r2, lsr r0
  1c:	00000032 	andeq	r0, r0, r2, lsr r0
  20:	00000034 	andeq	r0, r0, r4, lsr r0
  24:	0000003a 	andeq	r0, r0, sl, lsr r0
	...
  30:	000002e6 	andeq	r0, r0, r6, ror #5
  34:	000002e8 	andeq	r0, r0, r8, ror #5
  38:	000002ec 	andeq	r0, r0, ip, ror #5
  3c:	000002ec 	andeq	r0, r0, ip, ror #5
  40:	000002f0 	strdeq	r0, [r0], -r0	; <UNPREDICTABLE>
  44:	00000300 	andeq	r0, r0, r0, lsl #6
	...
  50:	000003ee 	andeq	r0, r0, lr, ror #7
  54:	000003f0 	strdeq	r0, [r0], -r0	; <UNPREDICTABLE>
  58:	0000040a 	andeq	r0, r0, sl, lsl #8
  5c:	00000410 	andeq	r0, r0, r0, lsl r4
  60:	00000434 	andeq	r0, r0, r4, lsr r4
  64:	00000440 	andeq	r0, r0, r0, asr #8
	...
  70:	0000046c 	andeq	r0, r0, ip, ror #8
  74:	00000476 	andeq	r0, r0, r6, ror r4
  78:	00000476 	andeq	r0, r0, r6, ror r4
  7c:	0000047e 	andeq	r0, r0, lr, ror r4
	...
  88:	000004c0 	andeq	r0, r0, r0, asr #9
  8c:	000004c0 	andeq	r0, r0, r0, asr #9
  90:	000004c8 	andeq	r0, r0, r8, asr #9
  94:	000004d4 	ldrdeq	r0, [r0], -r4
	...
  a0:	00000516 	andeq	r0, r0, r6, lsl r5
  a4:	00000516 	andeq	r0, r0, r6, lsl r5
  a8:	00000518 	andeq	r0, r0, r8, lsl r5
  ac:	00000520 	andeq	r0, r0, r0, lsr #10
	...
  b8:	0000052c 	andeq	r0, r0, ip, lsr #10
  bc:	00000540 	andeq	r0, r0, r0, asr #10
  c0:	00000550 	andeq	r0, r0, r0, asr r5
  c4:	00000582 	andeq	r0, r0, r2, lsl #11
  c8:	00000586 	andeq	r0, r0, r6, lsl #11
  cc:	000005a6 	andeq	r0, r0, r6, lsr #11
	...
  d8:	0000056a 	andeq	r0, r0, sl, ror #10
  dc:	0000056c 	andeq	r0, r0, ip, ror #10
  e0:	00000574 	andeq	r0, r0, r4, ror r5
  e4:	00000582 	andeq	r0, r0, r2, lsl #11
	...
  f0:	00000540 	andeq	r0, r0, r0, asr #10
  f4:	00000546 	andeq	r0, r0, r6, asr #10
  f8:	000005b2 			; <UNDEFINED> instruction: 0x000005b2
  fc:	000005ba 			; <UNDEFINED> instruction: 0x000005ba
	...
 108:	00000004 	andeq	r0, r0, r4
 10c:	00000006 	andeq	r0, r0, r6
 110:	00000008 	andeq	r0, r0, r8
 114:	0000002e 	andeq	r0, r0, lr, lsr #32
	...
 120:	000001b4 			; <UNDEFINED> instruction: 0x000001b4
 124:	000001b6 			; <UNDEFINED> instruction: 0x000001b6
 128:	000001b8 			; <UNDEFINED> instruction: 0x000001b8
 12c:	000001c8 	andeq	r0, r0, r8, asr #3
	...
 138:	0000024a 	andeq	r0, r0, sl, asr #4
 13c:	0000024e 	andeq	r0, r0, lr, asr #4
 140:	00000252 	andeq	r0, r0, r2, asr r2
 144:	00000264 	andeq	r0, r0, r4, ror #4
	...

Disassembly of section .debug_line:

00000000 <.debug_line>:
       0:	0000042f 	andeq	r0, r0, pc, lsr #8
       4:	00af0003 	adceq	r0, pc, r3
       8:	01020000 	mrseq	r0, (UNDEF: 2)
       c:	000d0efb 	strdeq	r0, [sp], -fp
      10:	01010101 	tsteq	r1, r1, lsl #2
      14:	01000000 	mrseq	r0, (UNDEF: 0)
      18:	73010000 	movwvc	r0, #4096	; 0x1000
      1c:	6c006372 	stcvs	3, cr6, [r0], {114}	; 0x72
      20:	692f6269 	stmdbvs	pc!, {r0, r3, r5, r6, r9, sp, lr}	; <UNPREDICTABLE>
      24:	756c636e 	strbvc	r6, [ip, #-878]!	; 0xfffffc92
      28:	2f006564 	svccs	0x00006564
      2c:	2f727375 	svccs	0x00727375
      30:	2f62696c 	svccs	0x0062696c
      34:	2f636367 	svccs	0x00636367
      38:	2d6d7261 	sfmcs	f7, 2, [sp, #-388]!	; 0xfffffe7c
      3c:	656e6f6e 	strbvs	r6, [lr, #-3950]!	; 0xfffff092
      40:	6261652d 	rsbvs	r6, r1, #188743680	; 0xb400000
      44:	2e382f69 	cdpcs	15, 3, cr2, cr8, cr9, {3}
      48:	2f312e33 	svccs	0x00312e33
      4c:	6c636e69 	stclvs	14, cr6, [r3], #-420	; 0xfffffe5c
      50:	00656475 	rsbeq	r6, r5, r5, ror r4
      54:	6f6c6300 	svcvs	0x006c6300
      58:	682e6b63 	stmdavs	lr!, {r0, r1, r5, r6, r8, r9, fp, sp, lr}
      5c:	00000100 	andeq	r0, r0, r0, lsl #2
      60:	6e69616d 	powvsez	f6, f1, #5.0
      64:	0100632e 	tsteq	r0, lr, lsr #6
      68:	6f630000 	svcvs	0x00630000
      6c:	635f6572 	cmpvs	pc, #478150656	; 0x1c800000
      70:	682e336d 	stmdavs	lr!, {r0, r2, r3, r5, r6, r8, r9, ip, sp}
      74:	00000200 	andeq	r0, r0, r0, lsl #4
      78:	69647473 	stmdbvs	r4!, {r0, r1, r4, r5, r6, sl, ip, sp, lr}^
      7c:	682e746e 	stmdavs	lr!, {r1, r2, r3, r5, r6, sl, ip, sp, lr}
      80:	00000300 	andeq	r0, r0, r0, lsl #6
      84:	74737973 	ldrbtvc	r7, [r3], #-2419	; 0xfffff68d
      88:	735f6d65 	cmpvc	pc, #6464	; 0x1940
      8c:	32336d74 	eorscc	r6, r3, #116, 26	; 0x1d00
      90:	7878316c 	ldmdavc	r8!, {r2, r3, r5, r6, r8, ip, sp}^
      94:	0200682e 	andeq	r6, r0, #3014656	; 0x2e0000
      98:	74730000 	ldrbtvc	r0, [r3], #-0
      9c:	6c32336d 	ldcvs	3, cr3, [r2], #-436	; 0xfffffe4c
      a0:	78313531 	ldmdavc	r1!, {r0, r4, r5, r8, sl, ip, sp}
      a4:	00682e63 	rsbeq	r2, r8, r3, ror #28
      a8:	75000002 	strvc	r0, [r0, #-2]
      ac:	6c5f6273 	lfmvs	f6, 2, [pc], {115}	; 0x73
      b0:	682e6269 	stmdavs	lr!, {r0, r3, r5, r6, r9, sp, lr}
      b4:	00000100 	andeq	r0, r0, r0, lsl #2
      b8:	001c0500 	andseq	r0, ip, r0, lsl #10
      bc:	01500205 	cmpeq	r0, r5, lsl #4
      c0:	1b030800 	blne	c20c8 <_Min_Stack_Size+0xc1cc8>
      c4:	13030501 	movwne	r0, #13569	; 0x3501
      c8:	01061005 	tsteq	r6, r5
      cc:	05210b05 	streq	r0, [r1, #-2821]!	; 0xfffff4fb
      d0:	03051f10 	movweq	r1, #24336	; 0x5f10
      d4:	0b054b06 	bleq	152cf4 <_Min_Stack_Size+0x1528f4>
      d8:	03050106 	movweq	r0, #20742	; 0x5106
      dc:	14144c06 	ldrne	r4, [r4], #-3078	; 0xfffff3fa
      e0:	01060c05 	tsteq	r6, r5, lsl #24
      e4:	4b060305 	blmi	180d00 <_Min_Stack_Size+0x180900>
      e8:	01060c05 	tsteq	r6, r5, lsl #24
      ec:	4d060305 	stcmi	3, cr0, [r6, #-20]	; 0xffffffec
      f0:	01060c05 	tsteq	r6, r5, lsl #24
      f4:	4a061e05 	bmi	187910 <_Min_Stack_Size+0x187510>
      f8:	02004205 	andeq	r4, r0, #1342177280	; 0x50000000
      fc:	05010204 	streq	r0, [r1, #-516]	; 0xfffffdfc
     100:	04020029 	streq	r0, [r2], #-41	; 0xffffffd7
     104:	05010602 	streq	r0, [r1, #-1538]	; 0xfffff9fe
     108:	04020023 	streq	r0, [r2], #-35	; 0xffffffdd
     10c:	03052002 	movweq	r2, #20482	; 0x5002
     110:	0c053306 	stceq	3, cr3, [r5], {6}
     114:	03050106 	movweq	r0, #20742	; 0x5106
     118:	0c054c06 	stceq	12, cr4, [r5], {6}
     11c:	03050106 	movweq	r0, #20742	; 0x5106
     120:	0c054e06 	stceq	14, cr4, [r5], {6}
     124:	03050106 	movweq	r0, #20742	; 0x5106
     128:	0c054c06 	stceq	12, cr4, [r5], {6}
     12c:	03050106 	movweq	r0, #20742	; 0x5106
     130:	0c053d06 	stceq	13, cr3, [r5], {6}
     134:	03050106 	movweq	r0, #20742	; 0x5106
     138:	0c052f06 	stceq	15, cr2, [r5], {6}
     13c:	03050106 	movweq	r0, #20742	; 0x5106
     140:	26054b06 	strcs	r4, [r5], -r6, lsl #22
     144:	01040200 	mrseq	r0, R12_usr
     148:	000e0501 	andeq	r0, lr, r1, lsl #10
     14c:	06010402 	streq	r0, [r1], -r2, lsl #8
     150:	00080501 	andeq	r0, r8, r1, lsl #10
     154:	20010402 	andcs	r0, r1, r2, lsl #8
     158:	30060305 	andcc	r0, r6, r5, lsl #6
     15c:	01060d05 	tsteq	r6, r5, lsl #26
     160:	4c060305 	stcmi	3, cr0, [r6], {5}
     164:	01060d05 	tsteq	r6, r5, lsl #26
     168:	4b060305 	blmi	180d84 <_Min_Stack_Size+0x180984>
     16c:	01060d05 	tsteq	r6, r5, lsl #26
     170:	03060305 	movweq	r0, #25349	; 0x6305
     174:	0c054a0b 			; <UNDEFINED> instruction: 0x0c054a0b
     178:	03050106 	movweq	r0, #20742	; 0x5106
     17c:	0c054b06 			; <UNDEFINED> instruction: 0x0c054b06
     180:	01050106 	tsteq	r5, r6, lsl #2
     184:	061f052f 	ldreq	r0, [pc], -pc, lsr #10
     188:	13030592 	movwne	r0, #13714	; 0x3592
     18c:	07051513 	smladeq	r5, r3, r5, r1
     190:	03050106 	movweq	r0, #20742	; 0x5106
     194:	07052f06 	streq	r2, [r5, -r6, lsl #30]
     198:	03050106 	movweq	r0, #20742	; 0x5106
     19c:	05132f06 	ldreq	r2, [r3, #-3846]	; 0xfffff0fa
     1a0:	0501060d 	streq	r0, [r1, #-1549]	; 0xfffff9f3
     1a4:	05210603 	streq	r0, [r1, #-1539]!	; 0xfffff9fd
     1a8:	0511060d 	ldreq	r0, [r1, #-1549]	; 0xfffff9f3
     1ac:	05300605 	ldreq	r0, [r0, #-1541]!	; 0xfffff9fb
     1b0:	0501060c 	streq	r0, [r1, #-1548]	; 0xfffff9f4
     1b4:	203c2007 	eorscs	r2, ip, r7
     1b8:	02000305 	andeq	r0, r0, #335544320	; 0x14000000
     1bc:	051f0204 	ldreq	r0, [pc, #-516]	; ffffffc0 <BootRAM+0xef70761>
     1c0:	202e3119 	eorcs	r3, lr, r9, lsl r1
     1c4:	03060305 	movweq	r0, #25349	; 0x6305
     1c8:	0e05201d 	mcreq	0, 0, r2, cr5, cr13, {0}
     1cc:	03050106 	movweq	r0, #20742	; 0x5106
     1d0:	0e055906 	vmlaeq.f16	s10, s10, s12	; <UNPREDICTABLE>
     1d4:	03050106 	movweq	r0, #20742	; 0x5106
     1d8:	0e054b06 	vmlaeq.f64	d4, d5, d6
     1dc:	03050106 	movweq	r0, #20742	; 0x5106
     1e0:	07054d06 	streq	r4, [r5, -r6, lsl #26]
     1e4:	03050106 	movweq	r0, #20742	; 0x5106
     1e8:	07052f06 	streq	r2, [r5, -r6, lsl #30]
     1ec:	03050106 	movweq	r0, #20742	; 0x5106
     1f0:	05053006 	streq	r3, [r5, #-6]
     1f4:	21060106 	tstcs	r6, r6, lsl #2
     1f8:	09051313 	stmdbeq	r5, {r0, r1, r4, r8, r9, ip}
     1fc:	03050106 	movweq	r0, #20742	; 0x5106
     200:	14133406 	ldrne	r3, [r3], #-1030	; 0xfffffbfa
     204:	07051413 	smladeq	r5, r3, r4, r1
     208:	03050106 	movweq	r0, #20742	; 0x5106
     20c:	05142f06 	ldreq	r2, [r4, #-3846]	; 0xfffff0fa
     210:	0501060d 	streq	r0, [r1, #-1549]	; 0xfffff9f3
     214:	05220603 	streq	r0, [r2, #-1539]!	; 0xfffff9fd
     218:	0501060b 	streq	r0, [r1, #-1547]	; 0xfffff9f5
     21c:	054b0603 	strbeq	r0, [fp, #-1539]	; 0xfffff9fd
     220:	3011060b 	andscc	r0, r1, fp, lsl #12
     224:	20060505 	andcs	r0, r6, r5, lsl #10
     228:	01060b05 	tsteq	r6, r5, lsl #22
     22c:	2e200705 	cdpcs	7, 2, cr0, cr0, cr5, {0}
     230:	00030520 	andeq	r0, r3, r0, lsr #10
     234:	1f020402 	svcne	0x00020402
     238:	05311905 	ldreq	r1, [r1, #-2309]!	; 0xfffff6fb
     23c:	6d030605 	stcvs	6, cr0, [r3, #-20]	; 0xffffffec
     240:	0905133c 	stmdbeq	r5, {r2, r3, r4, r5, r8, r9, ip}
     244:	052e0106 	streq	r0, [lr, #-262]!	; 0xfffffefa
     248:	1b030603 	blne	c1a5c <_Min_Stack_Size+0xc165c>
     24c:	19051420 	stmdbne	r5, {r5, sl, ip}
     250:	01051006 	tsteq	r5, r6
     254:	06030540 	streq	r0, [r3], -r0, asr #10
     258:	14207303 	strtne	r7, [r0], #-771	; 0xfffffcfd
     25c:	01060705 	tsteq	r6, r5, lsl #14
     260:	21060305 	tstcs	r6, r5, lsl #6
     264:	060c0513 			; <UNDEFINED> instruction: 0x060c0513
     268:	1d070515 	cfstr32ne	mvfx0, [r7, #-84]	; 0xffffffac
     26c:	2f060305 	svccs	0x00060305
     270:	01060d05 	tsteq	r6, r5, lsl #26
     274:	21060305 	tstcs	r6, r5, lsl #6
     278:	11060d05 	tstne	r6, r5, lsl #26
     27c:	30060505 	andcc	r0, r6, r5, lsl #10
     280:	01060c05 	tsteq	r6, r5, lsl #24
     284:	05201305 	streq	r1, [r0, #-773]!	; 0xfffffcfb
     288:	202e2e07 	eorcs	r2, lr, r7, lsl #28
     28c:	02000305 	andeq	r0, r0, #335544320	; 0x14000000
     290:	061f0204 	ldreq	r0, [pc], -r4, lsl #4
     294:	3c7fbd03 	ldclcc	13, cr11, [pc], #-12	; 290 <_Min_Heap_Size+0x290>
     298:	060b0515 			; <UNDEFINED> instruction: 0x060b0515
     29c:	06030501 	streq	r0, [r3], -r1, lsl #10
     2a0:	060b054b 	streq	r0, [fp], -fp, asr #10
     2a4:	06030501 	streq	r0, [r3], -r1, lsl #10
     2a8:	060b054b 	streq	r0, [fp], -fp, asr #10
     2ac:	06030501 	streq	r0, [r3], -r1, lsl #10
     2b0:	060b054b 	streq	r0, [fp], -fp, asr #10
     2b4:	06030501 	streq	r0, [r3], -r1, lsl #10
     2b8:	060b054b 	streq	r0, [fp], -fp, asr #10
     2bc:	06030501 	streq	r0, [r3], -r1, lsl #10
     2c0:	060b054b 	streq	r0, [fp], -fp, asr #10
     2c4:	06030501 	streq	r0, [r3], -r1, lsl #10
     2c8:	0605054d 	streq	r0, [r5], -sp, asr #10
     2cc:	05210601 	streq	r0, [r1, #-1537]!	; 0xfffff9ff
     2d0:	0501060d 	streq	r0, [r1, #-1549]	; 0xfffff9f3
     2d4:	054b0605 	strbeq	r0, [fp, #-1541]	; 0xfffff9fb
     2d8:	3011060d 	andscc	r0, r1, sp, lsl #12
     2dc:	20060705 	andcs	r0, r6, r5, lsl #14
     2e0:	01060d05 	tsteq	r6, r5, lsl #26
     2e4:	2e200905 	vmulcs.f16	s0, s0, s10	; <UNPREDICTABLE>
     2e8:	00050520 	andeq	r0, r5, r0, lsr #10
     2ec:	1f020402 	svcne	0x00020402
     2f0:	0d053606 	stceq	6, cr3, [r5, #-24]	; 0xffffffe8
     2f4:	05050106 	streq	r0, [r5, #-262]	; 0xfffffefa
     2f8:	0d055906 	vstreq.16	s10, [r5, #-12]	; <UNPREDICTABLE>
     2fc:	07051106 	streq	r1, [r5, -r6, lsl #2]
     300:	0d053006 	stceq	0, cr3, [r5, #-24]	; 0xffffffe8
     304:	09050106 	stmdbeq	r5, {r1, r2, r8}
     308:	05202e20 	streq	r2, [r0, #-3616]!	; 0xfffff1e0
     30c:	04020005 	streq	r0, [r2], #-5
     310:	1b051f02 	blne	147f20 <_Min_Stack_Size+0x147b20>
     314:	06100531 			; <UNDEFINED> instruction: 0x06100531
     318:	059e3303 	ldreq	r3, [lr, #771]	; 0x303
     31c:	15131303 	ldrne	r1, [r3, #-771]	; 0xfffffcfd
     320:	01060705 	tsteq	r6, r5, lsl #14
     324:	2f060305 	svccs	0x00060305
     328:	01060705 	tsteq	r6, r5, lsl #14
     32c:	2f060305 	svccs	0x00060305
     330:	060d0513 			; <UNDEFINED> instruction: 0x060d0513
     334:	06030501 	streq	r0, [r3], -r1, lsl #10
     338:	060d0521 	streq	r0, [sp], -r1, lsr #10
     33c:	06050511 			; <UNDEFINED> instruction: 0x06050511
     340:	060c0530 			; <UNDEFINED> instruction: 0x060c0530
     344:	20070501 	andcs	r0, r7, r1, lsl #10
     348:	0305203c 	movweq	r2, #20540	; 0x503c
     34c:	02040200 	andeq	r0, r4, #0, 4
     350:	053f061f 	ldreq	r0, [pc, #-1567]!	; fffffd39 <BootRAM+0xef704da>
     354:	03050119 	movweq	r0, #20761	; 0x5119
     358:	060b0515 			; <UNDEFINED> instruction: 0x060b0515
     35c:	06030501 	streq	r0, [r3], -r1, lsl #10
     360:	060b054b 	streq	r0, [fp], -fp, asr #10
     364:	06030501 	streq	r0, [r3], -r1, lsl #10
     368:	060b054b 	streq	r0, [fp], -fp, asr #10
     36c:	06030501 	streq	r0, [r3], -r1, lsl #10
     370:	060b054b 	streq	r0, [fp], -fp, asr #10
     374:	4b010501 	blmi	41780 <_Min_Stack_Size+0x41380>
     378:	2c050204 	sfmcs	f0, 4, [r5], {4}
     37c:	7ed10306 	cdpvc	3, 13, cr0, cr1, cr6, {0}
     380:	012d0558 			; <UNDEFINED> instruction: 0x012d0558
     384:	01060105 	tsteq	r6, r5, lsl #2
     388:	22061a05 	andcs	r1, r6, #20480	; 0x5000
     38c:	05130305 	ldreq	r0, [r3, #-773]	; 0xfffffcfb
     390:	04020008 	streq	r0, [r2], #-8
     394:	00010601 	andeq	r0, r1, r1, lsl #12
     398:	2e010402 	cdpcs	4, 0, cr0, cr1, cr2, {0}
     39c:	05210105 	streq	r0, [r1, #-261]!	; 0xfffffefb
     3a0:	04020010 	streq	r0, [r2], #-16
     3a4:	021f0602 	andseq	r0, pc, #2097152	; 0x200000
     3a8:	01010002 	tsteq	r1, r2
     3ac:	0f050204 	svceq	0x00050204
     3b0:	6c020500 	cfstr32vs	mvfx0, [r2], {-0}
     3b4:	0308000c 	movweq	r0, #32780	; 0x800c
     3b8:	0305010d 	movweq	r0, #20749	; 0x510d
     3bc:	060f0513 			; <UNDEFINED> instruction: 0x060f0513
     3c0:	21030511 	tstcs	r3, r1, lsl r5
     3c4:	0f053d06 	svceq	0x00053d06
     3c8:	03050106 	movweq	r0, #20742	; 0x5106
     3cc:	2e015906 	vmlacs.f16	s10, s2, s12	; <UNPREDICTABLE>
     3d0:	20202e2e 	eorcs	r2, r0, lr, lsr #28
     3d4:	01202e01 			; <UNDEFINED> instruction: 0x01202e01
     3d8:	01011605 	tsteq	r1, r5, lsl #12
     3dc:	202e2e20 	eorcs	r2, lr, r0, lsr #28
     3e0:	202e0120 	eorcs	r0, lr, r0, lsr #2
     3e4:	13030501 	movwne	r0, #13569	; 0x3501
     3e8:	06200601 	strteq	r0, [r0], -r1, lsl #12
     3ec:	20012e20 	andcs	r2, r1, r0, lsr #28
     3f0:	202e0120 	eorcs	r0, lr, r0, lsr #2
     3f4:	01160501 	tsteq	r6, r1, lsl #10
     3f8:	012e2001 			; <UNDEFINED> instruction: 0x012e2001
     3fc:	2e012020 	cdpcs	0, 0, cr2, cr1, cr0, {1}
     400:	03050120 	movweq	r0, #20768	; 0x5120
     404:	03042f14 	movweq	r2, #20244	; 0x4f14
     408:	9f031605 	svcls	0x00031605
     40c:	35050109 	strcc	r0, [r5, #-265]	; 0xfffffef7
     410:	05020401 	streq	r0, [r2, #-1025]	; 0xfffffbff
     414:	e4030605 	str	r0, [r3], #-1541	; 0xfffff9fb
     418:	03052076 	movweq	r2, #20598	; 0x5076
     41c:	01040200 	mrseq	r0, R12_usr
     420:	05051e06 	streq	r1, [r5, #-3590]	; 0xfffff1fa
     424:	01040200 	mrseq	r0, R12_usr
     428:	04020013 	streq	r0, [r2], #-19	; 0xffffffed
     42c:	0d022f01 	stceq	15, cr2, [r2, #-4]
     430:	95010100 	strls	r0, [r1, #-256]	; 0xffffff00
     434:	03000007 	movweq	r0, #7
     438:	0000a700 	andeq	sl, r0, r0, lsl #14
     43c:	fb010200 	blx	40c46 <_Min_Stack_Size+0x40846>
     440:	01000d0e 	tsteq	r0, lr, lsl #26
     444:	00010101 	andeq	r0, r1, r1, lsl #2
     448:	00010000 	andeq	r0, r1, r0
     44c:	72730100 	rsbsvc	r0, r3, #0, 2
     450:	696c0063 	stmdbvs	ip!, {r0, r1, r5, r6}^
     454:	6e692f62 	cdpvs	15, 6, cr2, cr9, cr2, {3}
     458:	64756c63 	ldrbtvs	r6, [r5], #-3171	; 0xfffff39d
     45c:	752f0065 	strvc	r0, [pc, #-101]!	; 3ff <_Min_Heap_Size+0x3ff>
     460:	6c2f7273 	sfmvs	f7, 4, [pc], #-460	; 29c <_Min_Heap_Size+0x29c>
     464:	672f6269 	strvs	r6, [pc, -r9, ror #4]!
     468:	612f6363 			; <UNDEFINED> instruction: 0x612f6363
     46c:	6e2d6d72 	mcrvs	13, 1, r6, cr13, cr2, {3}
     470:	2d656e6f 	stclcs	14, cr6, [r5, #-444]!	; 0xfffffe44
     474:	69626165 	stmdbvs	r2!, {r0, r2, r5, r6, r8, sp, lr}^
     478:	332e382f 			; <UNDEFINED> instruction: 0x332e382f
     47c:	692f312e 	stmdbvs	pc!, {r1, r2, r3, r5, r8, ip, sp}	; <UNPREDICTABLE>
     480:	756c636e 	strbvc	r6, [ip, #-878]!	; 0xfffffc92
     484:	00006564 	andeq	r6, r0, r4, ror #10
     488:	5f627375 	svcpl	0x00627375
     48c:	2e62696c 	vnmulcs.f16	s13, s4, s25	; <UNPREDICTABLE>
     490:	00010063 	andeq	r0, r1, r3, rrx
     494:	726f6300 	rsbvc	r6, pc, #0, 6
     498:	6d635f65 	stclvs	15, cr5, [r3, #-404]!	; 0xfffffe6c
     49c:	00682e33 	rsbeq	r2, r8, r3, lsr lr
     4a0:	75000002 	strvc	r0, [r0, #-2]
     4a4:	6c5f6273 	lfmvs	f6, 2, [pc], {115}	; 0x73
     4a8:	682e6269 	stmdavs	lr!, {r0, r3, r5, r6, r9, sp, lr}
     4ac:	00000100 	andeq	r0, r0, r0, lsl #2
     4b0:	69647473 	stmdbvs	r4!, {r0, r1, r4, r5, r6, sl, ip, sp, lr}^
     4b4:	682e746e 	stmdavs	lr!, {r1, r2, r3, r5, r6, sl, ip, sp, lr}
     4b8:	00000300 	andeq	r0, r0, r0, lsl #6
     4bc:	336d7473 	cmncc	sp, #1929379840	; 0x73000000
     4c0:	35316c32 	ldrcc	r6, [r1, #-3122]!	; 0xfffff3ce
     4c4:	2e637831 	mcrcs	8, 3, r7, cr3, cr1, {1}
     4c8:	00020068 	andeq	r0, r2, r8, rrx
     4cc:	73797300 	cmnvc	r9, #0, 6
     4d0:	5f6d6574 	svcpl	0x006d6574
     4d4:	336d7473 	cmncc	sp, #1929379840	; 0x73000000
     4d8:	78316c32 	ldmdavc	r1!, {r1, r4, r5, sl, fp, sp, lr}
     4dc:	00682e78 	rsbeq	r2, r8, r8, ror lr
     4e0:	00000002 	andeq	r0, r0, r2
     4e4:	05002b05 	streq	r2, [r0, #-2821]	; 0xfffff4fb
     4e8:	00036402 	andeq	r6, r3, r2, lsl #8
     4ec:	01160308 	tsteq	r6, r8, lsl #6
     4f0:	05012c05 	streq	r2, [r1, #-3077]	; 0xfffff3fb
     4f4:	05010601 	streq	r0, [r1, #-1537]	; 0xfffff9ff
     4f8:	053f065c 	ldreq	r0, [pc, #-1628]!	; fffffea4 <BootRAM+0xef70645>
     4fc:	0105015d 	tsteq	r5, sp, asr r1
     500:	05200106 	streq	r0, [r0, #-262]!	; 0xfffffefa
     504:	05210663 	streq	r0, [r1, #-1635]!	; 0xfffff99d
     508:	01050164 	tsteq	r5, r4, ror #2
     50c:	05200106 	streq	r0, [r0, #-262]!	; 0xfffffefa
     510:	1c030611 	stcne	6, cr0, [r3], {17}
     514:	13030520 	movwne	r0, #13600	; 0x3520
     518:	01061005 	tsteq	r6, r5
     51c:	59060305 	stmdbpl	r6, {r0, r2, r8, r9}
     520:	01061005 	tsteq	r6, r5
     524:	4c060305 	stcmi	3, cr0, [r6], {5}
     528:	01060f05 	tsteq	r6, r5, lsl #30
     52c:	59060305 	stmdbpl	r6, {r0, r2, r8, r9}
     530:	01060f05 	tsteq	r6, r5, lsl #30
     534:	4b060305 	blmi	181150 <_Min_Stack_Size+0x180d50>
     538:	06010705 	streq	r0, [r1], -r5, lsl #14
     53c:	110f0501 	tstne	pc, r1, lsl #10
     540:	02002e05 	andeq	r2, r0, #5, 28	; 0x50
     544:	21060304 	tstcs	r6, r4, lsl #6
     548:	02000305 	andeq	r0, r0, #335544320	; 0x14000000
     54c:	20060304 	andcs	r0, r6, r4, lsl #6
     550:	03040200 	movweq	r0, #16896	; 0x4200
     554:	05210620 	streq	r0, [r1, #-1568]!	; 0xfffff9e0
     558:	0501060f 	streq	r0, [r1, #-1551]	; 0xfffff9f1
     55c:	052f0603 	streq	r0, [pc, #-1539]!	; ffffff61 <BootRAM+0xef70702>
     560:	0501060f 	streq	r0, [r1, #-1551]	; 0xfffff9f1
     564:	052f0603 	streq	r0, [pc, #-1539]!	; ffffff69 <BootRAM+0xef7070a>
     568:	0501060f 	streq	r0, [r1, #-1551]	; 0xfffff9f1
     56c:	052f0603 	streq	r0, [pc, #-1539]!	; ffffff71 <BootRAM+0xef70712>
     570:	0501060f 	streq	r0, [r1, #-1551]	; 0xfffff9f1
     574:	052f0603 	streq	r0, [pc, #-1539]!	; ffffff79 <BootRAM+0xef7071a>
     578:	2e01060f 	cfmadd32cs	mvax0, mvfx0, mvfx1, mvfx15
     57c:	2f060305 	svccs	0x00060305
     580:	16050204 	strne	r0, [r5], -r4, lsl #4
     584:	010b9b03 	tsteq	fp, r3, lsl #22
     588:	05140305 	ldreq	r0, [r4, #-773]	; 0xfffffcfb
     58c:	4a010627 	bmi	41e30 <_Min_Stack_Size+0x41a30>
     590:	03050104 	movweq	r0, #20740	; 0x5104
     594:	74e40306 	strbtvc	r0, [r4], #774	; 0x306
     598:	060f0501 	streq	r0, [pc], -r1, lsl #10
     59c:	59010501 	stmdbpl	r1, {r0, r8, sl}
     5a0:	03064f05 	movweq	r4, #28421	; 0x6f05
     5a4:	05ba00e6 	ldreq	r0, [sl, #230]!	; 0xe6
     5a8:	05131303 	ldreq	r1, [r3, #-771]	; 0xfffffcfd
     5ac:	0510064f 	ldreq	r0, [r0, #-1615]	; 0xfffff9b1
     5b0:	03052209 	movweq	r2, #21001	; 0x5209
     5b4:	05053006 	streq	r3, [r5, #-6]
     5b8:	59065806 	stmdbpl	r6, {r1, r2, fp, ip, lr}
     5bc:	05200601 	streq	r0, [r0, #-1537]!	; 0xfffff9ff
     5c0:	05950603 	ldreq	r0, [r5, #1539]	; 0x603
     5c4:	0501060c 	streq	r0, [r1, #-1548]	; 0xfffff9f4
     5c8:	13210603 			; <UNDEFINED> instruction: 0x13210603
     5cc:	3c130614 	ldccc	6, cr0, [r3], {20}
     5d0:	19052e06 	stmdbne	r5, {r1, r2, r9, sl, fp, sp}
     5d4:	061d0559 			; <UNDEFINED> instruction: 0x061d0559
     5d8:	05052e01 	streq	r2, [r5, #-3585]	; 0xfffff1ff
     5dc:	20770306 	rsbscs	r0, r7, r6, lsl #6
     5e0:	06070501 	streq	r0, [r7], -r1, lsl #10
     5e4:	331205b3 	tstcc	r2, #750780416	; 0x2cc00000
     5e8:	30060305 	andcc	r0, r6, r5, lsl #6
     5ec:	01061205 	tsteq	r6, r5, lsl #4
     5f0:	22060305 	andcs	r0, r6, #335544320	; 0x14000000
     5f4:	4a060505 	bmi	181a10 <_Min_Stack_Size+0x181610>
     5f8:	23056706 	movwcs	r6, #22278	; 0x5706
     5fc:	05050106 	streq	r0, [r5, #-262]	; 0xfffffefa
     600:	16052106 	strne	r2, [r5], -r6, lsl #2
     604:	07050106 	streq	r0, [r5, -r6, lsl #2]
     608:	2d160521 	cfldr32cs	mvfx0, [r6, #-132]	; 0xffffff7c
     60c:	2f060505 	svccs	0x00060505
     610:	2e060705 	cdpcs	7, 0, cr0, cr6, cr5, {0}
     614:	01580621 	cmpeq	r8, r1, lsr #12
     618:	0c05013e 	stfeqs	f0, [r5], {62}	; 0x3e
     61c:	2e0f0306 	cdpcs	3, 0, cr0, cr15, cr6, {0}
     620:	051e0505 	ldreq	r0, [lr, #-1285]	; 0xfffffafb
     624:	05220603 	streq	r0, [r2, #-1539]!	; 0xfffff9fd
     628:	0501060c 	streq	r0, [r1, #-1548]	; 0xfffff9f4
     62c:	19052101 	stmdbne	r5, {r0, r8, sp}
     630:	20650306 	rsbcs	r0, r5, r6, lsl #6
     634:	01061d05 	tsteq	r6, r5, lsl #26
     638:	060e052e 	streq	r0, [lr], -lr, lsr #10
     63c:	06120521 	ldreq	r0, [r2], -r1, lsr #10
     640:	05052e01 	streq	r2, [r5, #-3585]	; 0xfffff1ff
     644:	200d0306 	andcs	r0, sp, r6, lsl #6
     648:	01062305 	tsteq	r6, r5, lsl #6
     64c:	21060505 	tstcs	r6, r5, lsl #10
     650:	13062605 	movwne	r2, #26117	; 0x6605
     654:	061f0705 	ldreq	r0, [pc], -r5, lsl #14
     658:	06260521 	strteq	r0, [r6], -r1, lsr #10
     65c:	1d313915 			; <UNDEFINED> instruction: 0x1d313915
     660:	21060705 	tstcs	r6, r5, lsl #14
     664:	16062705 	strne	r2, [r6], -r5, lsl #14
     668:	052e3305 	streq	r3, [lr, #-773]!	; 0xfffffcfb
     66c:	07052a2e 	streq	r2, [r5, -lr, lsr #20]
     670:	13133006 	tstne	r3, #6
     674:	01063305 	tsteq	r6, r5, lsl #6
     678:	052e2705 	streq	r2, [lr, #-1797]!	; 0xfffff8fb
     67c:	27053017 	smladcs	r5, r7, r0, r3
     680:	0605051e 			; <UNDEFINED> instruction: 0x0605051e
     684:	06170530 			; <UNDEFINED> instruction: 0x06170530
     688:	06050501 	streq	r0, [r5], -r1, lsl #10
     68c:	2006012f 	andcs	r0, r6, pc, lsr #2
     690:	f7065605 			; <UNDEFINED> instruction: 0xf7065605
     694:	13130305 	tstne	r3, #335544320	; 0x14000000
     698:	10065605 	andne	r5, r6, r5, lsl #12
     69c:	05240305 	streq	r0, [r4, #-773]!	; 0xfffffcfb
     6a0:	03052c09 	movweq	r2, #23561	; 0x5c09
     6a4:	06013006 	streq	r3, [r1], -r6
     6a8:	2078036e 	rsbscs	r0, r8, lr, ror #6
     6ac:	a0019106 	andge	r9, r1, r6, lsl #2
     6b0:	01060c05 	tsteq	r6, r5, lsl #24
     6b4:	21060305 	tstcs	r6, r5, lsl #6
     6b8:	2e061413 	cfmvdlrcs	mvd6, r1
     6bc:	19052f06 	stmdbne	r5, {r1, r2, r8, r9, sl, fp, sp}
     6c0:	061d054b 	ldreq	r0, [sp], -fp, asr #10
     6c4:	12052e01 	andne	r2, r5, #1, 28
     6c8:	06030531 			; <UNDEFINED> instruction: 0x06030531
     6cc:	06120530 			; <UNDEFINED> instruction: 0x06120530
     6d0:	06030501 	streq	r0, [r3], -r1, lsl #10
     6d4:	053c0624 	ldreq	r0, [ip, #-1572]!	; 0xfffff9dc
     6d8:	06742e05 	ldrbteq	r2, [r4], -r5, lsl #28
     6dc:	06240521 	strteq	r0, [r4], -r1, lsr #10
     6e0:	2d230513 	cfstr32cs	mvfx0, [r3, #-76]!	; 0xffffffb4
     6e4:	21060505 	tstcs	r6, r5, lsl #10
     6e8:	01062405 	tsteq	r6, r5, lsl #8
     6ec:	2f060505 	svccs	0x00060505
     6f0:	01062305 	tsteq	r6, r5, lsl #6
     6f4:	21060505 	tstcs	r6, r5, lsl #10
     6f8:	01062405 	tsteq	r6, r5, lsl #8
     6fc:	30060505 	andcc	r0, r6, r5, lsl #10
     700:	01060905 	tsteq	r6, r5, lsl #18
     704:	21060505 	tstcs	r6, r5, lsl #10
     708:	01062e05 	tsteq	r6, r5, lsl #28
     70c:	0305052e 	movweq	r0, #21806	; 0x552e
     710:	03053c0d 	movweq	r3, #23565	; 0x5c0d
     714:	14052206 	strne	r2, [r5], #-518	; 0xfffffdfa
     718:	0c050106 	stfeqs	f0, [r5], {6}
     71c:	2b140523 	blcs	501bb0 <_Min_Stack_Size+0x5017b0>
     720:	2f060305 	svccs	0x00060305
     724:	01061405 	tsteq	r6, r5, lsl #8
     728:	05220c05 	streq	r0, [r2, #-3077]!	; 0xfffff3fb
     72c:	03051e14 	movweq	r1, #24084	; 0x5e14
     730:	01053006 	tsteq	r5, r6
     734:	19051306 	stmdbne	r5, {r1, r2, r8, r9, ip}
     738:	205e0306 	subscs	r0, lr, r6, lsl #6
     73c:	01061d05 	tsteq	r6, r5, lsl #26
     740:	0619052e 	ldreq	r0, [r9], -lr, lsr #10
     744:	061d0521 	ldreq	r0, [sp], -r1, lsr #10
     748:	0e052e01 	cdpeq	14, 0, cr2, cr5, cr1, {0}
     74c:	12052106 	andne	r2, r5, #-2147483647	; 0x80000001
     750:	052e0106 	streq	r0, [lr, #-262]!	; 0xfffffefa
     754:	0f030605 	svceq	0x00030605
     758:	06230520 	strteq	r0, [r3], -r0, lsr #10
     75c:	06050501 	streq	r0, [r5], -r1, lsl #10
     760:	06070521 	streq	r0, [r7], -r1, lsr #10
     764:	1f230513 	svcne	0x00230513
     768:	21060505 	tstcs	r6, r5, lsl #10
     76c:	13064705 	movwne	r4, #26373	; 0x6705
     770:	061f0705 	ldreq	r0, [pc], -r5, lsl #14
     774:	06470521 	strbeq	r0, [r7], -r1, lsr #10
     778:	3c260501 	cfstr32cc	mvfx0, [r6], #-4
     77c:	4b060705 	blmi	182398 <_Min_Stack_Size+0x181f98>
     780:	01065005 	tsteq	r6, r5
     784:	05324905 	ldreq	r4, [r2, #-2309]!	; 0xfffff6fb
     788:	05056627 	streq	r6, [r5, #-1575]	; 0xfffff9d9
     78c:	9f016806 	svcls	0x00016806
     790:	99070501 	stmdbls	r7, {r0, r8, sl}
     794:	01064705 	tsteq	r6, r5, lsl #14
     798:	053c2605 	ldreq	r2, [ip, #-1541]!	; 0xfffff9fb
     79c:	134b0607 	movtne	r0, #46599	; 0xb607
     7a0:	01065505 	tsteq	r6, r5, lsl #10
     7a4:	03061905 	movweq	r1, #26885	; 0x6905
     7a8:	0305ac0c 	movweq	sl, #23564	; 0x5c0c
     7ac:	06190513 			; <UNDEFINED> instruction: 0x06190513
     7b0:	21090511 	tstcs	r9, r1, lsl r5
     7b4:	063c0505 	ldrteq	r0, [ip], -r5, lsl #10
     7b8:	0f052f2f 	svceq	0x00052f2f
     7bc:	0e050106 	adfeqs	f0, f5, f6
     7c0:	1f0f052f 	svcne	0x000f052f
     7c4:	2f060505 	svccs	0x00060505
     7c8:	01060e05 	tsteq	r6, r5, lsl #28
     7cc:	3d060505 	cfstr32cc	mvfx0, [r6, #-20]	; 0xffffffec
     7d0:	01061005 	tsteq	r6, r5
     7d4:	05222405 	streq	r2, [r2, #-1029]!	; 0xfffffbfb
     7d8:	05051e10 	streq	r1, [r5, #-3600]	; 0xfffff1f0
     7dc:	09052f06 	stmdbeq	r5, {r1, r2, r8, r9, sl, fp, sp}
     7e0:	05010601 	streq	r0, [r1, #-1537]	; 0xfffff9ff
     7e4:	07051110 	smladeq	r5, r0, r1, r1
     7e8:	03040200 	movweq	r0, #16896	; 0x4200
     7ec:	05053006 	streq	r3, [r5, #-6]
     7f0:	03040200 	movweq	r0, #16896	; 0x4200
     7f4:	24051f06 	strcs	r1, [r5], #-3846	; 0xfffff0fa
     7f8:	03040200 	movweq	r0, #16896	; 0x4200
     7fc:	0014052f 	andseq	r0, r4, pc, lsr #10
     800:	2e030402 	cdpcs	4, 0, cr0, cr3, cr2, {0}
     804:	02000505 	andeq	r0, r0, #20971520	; 0x1400000
     808:	062d0304 	strteq	r0, [sp], -r4, lsl #6
     80c:	060f0524 	streq	r0, [pc], -r4, lsr #10
     810:	3d050501 	cfstr32cc	mvfx0, [r5, #-4]
     814:	051f0f05 	ldreq	r0, [pc, #-3845]	; fffff917 <BootRAM+0xef700b8>
     818:	592f0605 	stmdbpl	pc!, {r0, r2, r9, sl}	; <UNPREDICTABLE>
     81c:	060d0567 	streq	r0, [sp], -r7, ror #10
     820:	06050501 	streq	r0, [r5], -r1, lsl #10
     824:	3103052f 	tstcc	r3, pc, lsr #10
     828:	01060905 	tsteq	r6, r5, lsl #18
     82c:	063c0505 	ldrteq	r0, [ip], -r5, lsl #10
     830:	0618052f 	ldreq	r0, [r8], -pc, lsr #10
     834:	2e0d0501 	cfsh32cs	mvfx0, mvfx13, #1
     838:	2f060505 	svccs	0x00060505
     83c:	01060805 	tsteq	r6, r5, lsl #16
     840:	06660705 	strbteq	r0, [r6], -r5, lsl #14
     844:	0611052f 	ldreq	r0, [r1], -pc, lsr #10
     848:	20070501 	andcs	r0, r7, r1, lsl #10
     84c:	05014b06 	streq	r4, [r1, #-2822]	; 0xfffff4fa
     850:	08058405 	stmdaeq	r5, {r0, r2, sl, pc}
     854:	07050106 	streq	r0, [r5, -r6, lsl #2]
     858:	052f0620 	streq	r0, [pc, #-1568]!	; 240 <_Min_Heap_Size+0x240>
     85c:	05010610 	streq	r0, [r1, #-1552]	; 0xfffff9f0
     860:	59062007 	stmdbpl	r6, {r0, r1, r2, sp}
     864:	05820601 	streq	r0, [r2, #1537]	; 0x601
     868:	05160603 	ldreq	r0, [r6, #-1539]	; 0xfffff9fd
     86c:	05010609 	streq	r0, [r1, #-1545]	; 0xfffff9f7
     870:	2f063c05 	svccs	0x00063c05
     874:	060f052f 	streq	r0, [pc], -pc, lsr #10
     878:	06050501 	streq	r0, [r5], -r1, lsl #10
     87c:	060f0567 	streq	r0, [pc], -r7, ror #10
     880:	06030501 	streq	r0, [r3], -r1, lsl #10
     884:	0609054d 	streq	r0, [r9], -sp, asr #10
     888:	3c050501 	cfstr32cc	mvfx0, [r5], {1}
     88c:	0f052f06 	svceq	0x00052f06
     890:	05050106 	streq	r0, [r5, #-262]	; 0xfffffefa
     894:	0f058306 	svceq	0x00058306
     898:	01050106 	tsteq	r5, r6, lsl #2
     89c:	0643054c 	strbeq	r0, [r3], -ip, asr #10
     8a0:	05f20f03 	ldrbeq	r0, [r2, #3843]!	; 0xf03
     8a4:	43051303 	movwmi	r1, #21251	; 0x5303
     8a8:	03051106 	movweq	r1, #20742	; 0x5106
     8ac:	1b330526 	blne	cc1d4c <_Min_Stack_Size+0xcc194c>
     8b0:	05201005 	streq	r1, [r0, #-5]!
     8b4:	054b0603 	strbeq	r0, [fp, #-1539]	; 0xfffff9fd
     8b8:	0515063f 	ldreq	r0, [r5, #-1599]	; 0xfffff9c1
     8bc:	38051d17 	stmdacc	r5, {r0, r1, r2, r4, r8, sl, fp, ip}
     8c0:	470c0523 	strmi	r0, [ip, -r3, lsr #10]
     8c4:	22060305 	andcs	r0, r6, #335544320	; 0x14000000
     8c8:	06380513 			; <UNDEFINED> instruction: 0x06380513
     8cc:	06030501 	streq	r0, [r3], -r1, lsl #10
     8d0:	01070521 	tsteq	r7, r1, lsr #10
     8d4:	02000305 	andeq	r0, r0, #335544320	; 0x14000000
     8d8:	01060104 	tsteq	r6, r4, lsl #2
     8dc:	14063f06 	strne	r3, [r6], #-3846	; 0xfffff0fa
     8e0:	3a100520 	bcc	401d68 <_Min_Stack_Size+0x401968>
     8e4:	22060305 	andcs	r0, r6, #335544320	; 0x14000000
     8e8:	053c0601 	ldreq	r0, [ip, #-1537]!	; 0xfffff9ff
     8ec:	05059101 	streq	r9, [r5, #-257]	; 0xfffffeff
     8f0:	03040200 	movweq	r0, #16896	; 0x4200
     8f4:	11051b06 	tstne	r5, r6, lsl #22
     8f8:	03040200 	movweq	r0, #16896	; 0x4200
     8fc:	02000106 	andeq	r0, r0, #-2147483647	; 0x80000001
     900:	004a0304 	subeq	r0, sl, r4, lsl #6
     904:	20030402 	andcs	r0, r3, r2, lsl #8
     908:	00062205 	andeq	r2, r6, r5, lsl #4
     90c:	07a40205 	streq	r0, [r4, r5, lsl #4]!
     910:	81030800 	tsthi	r3, r0, lsl #16
     914:	0305017e 	movweq	r0, #20862	; 0x517e
     918:	06220513 			; <UNDEFINED> instruction: 0x06220513
     91c:	210b0511 	tstcs	fp, r1, lsl r5
     920:	05202405 	streq	r2, [r0, #-1029]!	; 0xfffffbfb
     924:	2405200b 	strcs	r2, [r5], #-11
     928:	2005052e 	andcs	r0, r5, lr, lsr #10
     92c:	10053d06 	andne	r3, r5, r6, lsl #26
     930:	03050106 	movweq	r0, #20742	; 0x5106
     934:	08055b06 	stmdaeq	r5, {r1, r2, r8, r9, fp, ip, lr}
     938:	05050106 	streq	r0, [r5, #-262]	; 0xfffffefa
     93c:	06030520 	streq	r0, [r3], -r0, lsr #10
     940:	060e054b 	streq	r0, [lr], -fp, asr #10
     944:	20050501 	andcs	r0, r5, r1, lsl #10
     948:	21060305 	tstcs	r6, r5, lsl #6
     94c:	01060c05 	tsteq	r6, r5, lsl #24
     950:	21060305 	tstcs	r6, r5, lsl #6
     954:	03060304 	movweq	r0, #25348	; 0x6304
     958:	580100db 	stmdapl	r1, {r0, r1, r3, r4, r6, r7}
     95c:	03060104 	movweq	r0, #24836	; 0x6104
     960:	04017fa6 	streq	r7, [r1], #-4006	; 0xfffff05a
     964:	03140503 	tsteq	r4, #12582912	; 0xc00000
     968:	050100d9 	streq	r0, [r1, #-217]	; 0xffffff27
     96c:	20061303 	andcs	r1, r6, r3, lsl #6
     970:	0601043c 			; <UNDEFINED> instruction: 0x0601043c
     974:	017fa803 	cmneq	pc, r3, lsl #16
     978:	15060505 	strne	r0, [r6, #-1285]	; 0xfffffafb
     97c:	051d0d05 	ldreq	r0, [sp, #-3333]	; 0xfffff2fb
     980:	143d0603 	ldrtne	r0, [sp], #-1539	; 0xfffff9fd
     984:	13060d05 	movwne	r0, #27909	; 0x6d05
     988:	052b0b05 	streq	r0, [fp, #-2821]!	; 0xfffff4fb
     98c:	05310605 	ldreq	r0, [r1, #-1541]!	; 0xfffff9fb
     990:	0501060d 	streq	r0, [r1, #-1549]	; 0xfffff9f3
     994:	2d052201 	sfmcs	f2, 4, [r5, #-4]
     998:	01f50306 	mvnseq	r0, r6, lsl #6
     99c:	13030566 	movwne	r0, #13670	; 0x3566
     9a0:	11062d05 	tstne	r6, r5, lsl #26
     9a4:	05213305 	streq	r3, [r1, #-773]!	; 0xfffffcfb
     9a8:	03052010 	movweq	r2, #20496	; 0x5010
     9ac:	2d054b06 	vstrcs	d4, [r5, #-24]	; 0xffffffe8
     9b0:	11051006 	tstne	r5, r6
     9b4:	03052022 	movweq	r2, #20514	; 0x5022
     9b8:	05052f06 	streq	r2, [r5, #-3846]	; 0xfffff0fa
     9bc:	03050106 	movweq	r0, #20742	; 0x5106
     9c0:	05132106 	ldreq	r2, [r3, #-262]	; 0xfffffefa
     9c4:	0501063e 	streq	r0, [r1, #-1598]	; 0xfffff9c2
     9c8:	37051f0f 	strcc	r1, [r5, -pc, lsl #30]
     9cc:	06030521 	streq	r0, [r3], -r1, lsr #10
     9d0:	01070559 	tsteq	r7, r9, asr r5
     9d4:	20100106 	andscs	r0, r0, r6, lsl #2
     9d8:	00050520 	andeq	r0, r5, r0, lsr #10
     9dc:	06030402 	streq	r0, [r3], -r2, lsl #8
     9e0:	000e0531 	andeq	r0, lr, r1, lsr r5
     9e4:	06030402 	streq	r0, [r3], -r2, lsl #8
     9e8:	00030501 	andeq	r0, r3, r1, lsl #10
     9ec:	2d030402 	cfstrscs	mvf0, [r3, #-8]
     9f0:	02000c05 	andeq	r0, r0, #1280	; 0x500
     9f4:	05210304 	streq	r0, [r1, #-772]!	; 0xfffffcfc
     9f8:	04020003 	streq	r0, [r2], #-3
     9fc:	23062d03 	movwcs	r2, #27907	; 0x6d03
     a00:	66200601 	strtvs	r0, [r0], -r1, lsl #12
     a04:	01059106 	tsteq	r5, r6, lsl #2
     a08:	23051306 	movwcs	r1, #21254	; 0x5306
     a0c:	7e8a0306 	cdpvc	3, 8, cr0, cr10, cr6, {0}
     a10:	13030520 	movwne	r0, #13600	; 0x3520
     a14:	06230513 			; <UNDEFINED> instruction: 0x06230513
     a18:	16052210 			; <UNDEFINED> instruction: 0x16052210
     a1c:	3b23053d 	blcc	8c1f18 <_Min_Stack_Size+0x8c1b18>
     a20:	2f060305 	svccs	0x00060305
     a24:	06050514 			; <UNDEFINED> instruction: 0x06050514
     a28:	053d0601 	ldreq	r0, [sp, #-1537]!	; 0xfffff9ff
     a2c:	2e010607 	cfmadd32cs	mvax0, mvfx0, mvfx1, mvfx7
     a30:	03042f06 	movweq	r2, #20230	; 0x4f06
     a34:	cd031305 	stcgt	3, cr1, [r3, #-20]	; 0xffffffec
     a38:	03050100 	movweq	r0, #20736	; 0x5100
     a3c:	05010413 	streq	r0, [r1, #-1043]	; 0xfffffbed
     a40:	b3030611 	movwlt	r0, #13841	; 0x3611
     a44:	0304017f 	movweq	r0, #16767	; 0x417f
     a48:	cd030a05 	vstrgt	s0, [r3, #-20]	; 0xffffffec
     a4c:	2e2e2000 	cdpcs	0, 2, cr2, cr14, cr0, {0}
     a50:	07050104 	streq	r0, [r5, -r4, lsl #2]
     a54:	7fb30306 	svcvc	0x00b30306
     a58:	06110501 	ldreq	r0, [r1], -r1, lsl #10
     a5c:	06070501 	streq	r0, [r7], -r1, lsl #10
     a60:	03030521 	movweq	r0, #13601	; 0x3521
     a64:	1d05010a 	stfnes	f0, [r5, #-40]	; 0xffffffd8
     a68:	0b050106 	bleq	140e88 <_Min_Stack_Size+0x140a88>
     a6c:	06030520 	streq	r0, [r3], -r0, lsr #10
     a70:	06050530 			; <UNDEFINED> instruction: 0x06050530
     a74:	05300601 	ldreq	r0, [r0, #-1537]!	; 0xfffff9ff
     a78:	05010607 	streq	r0, [r1, #-1543]	; 0xfffff9f9
     a7c:	05210605 	streq	r0, [r1, #-1541]!	; 0xfffff9fb
     a80:	06010607 	streq	r0, [r1], -r7, lsl #12
     a84:	061a0521 	ldreq	r0, [sl], -r1, lsr #10
     a88:	20070501 	andcs	r0, r7, r1, lsl #10
     a8c:	03060b05 	movweq	r0, #27397	; 0x6b05
     a90:	0304580a 	movweq	r5, #18442	; 0x480a
     a94:	24031405 	strcs	r1, [r3], #-1029	; 0xfffffbfb
     a98:	13030501 	movwne	r0, #13569	; 0x3501
     a9c:	043c2e06 	ldrteq	r2, [ip], #-3590	; 0xfffff1fa
     aa0:	06070501 	streq	r0, [r7], -r1, lsl #10
     aa4:	05014303 	streq	r4, [r1, #-771]	; 0xfffffcfd
     aa8:	05010609 	streq	r0, [r1, #-1545]	; 0xfffff9f7
     aac:	1003060b 	andne	r0, r3, fp, lsl #12
     ab0:	06170558 			; <UNDEFINED> instruction: 0x06170558
     ab4:	220b0501 	andcs	r0, fp, #4194304	; 0x400000
     ab8:	051e1705 	ldreq	r1, [lr, #-1797]	; 0xfffff8fb
     abc:	0621060b 	strteq	r0, [r1], -fp, lsl #12
     ac0:	3b140513 	blcc	501f14 <_Min_Stack_Size+0x501b14>
     ac4:	2f060b05 	svccs	0x00060b05
     ac8:	0305052f 	movweq	r0, #21807	; 0x552f
     acc:	1405010f 	strne	r0, [r5], #-271	; 0xfffffef1
     ad0:	07050106 	streq	r0, [r5, -r6, lsl #2]
     ad4:	03030520 	movweq	r0, #13600	; 0x3520
     ad8:	07052e4e 	streq	r2, [r5, -lr, asr #28]
     adc:	05203203 	streq	r3, [r0, #-515]!	; 0xfffffdfd
     ae0:	05200625 	streq	r0, [r0, #-1573]!	; 0xfffff9db
     ae4:	0501062a 	streq	r0, [r1, #-1578]	; 0xfffff9d6
     ae8:	053d0605 	ldreq	r0, [sp, #-1541]!	; 0xfffff9fb
     aec:	014a0314 	cmpeq	sl, r4, lsl r3
     af0:	05130305 	ldreq	r0, [r3, #-773]	; 0xfffffcfb
     af4:	0501060d 	streq	r0, [r1, #-1549]	; 0xfffff9f3
     af8:	053d0603 	ldreq	r0, [sp, #-1539]!	; 0xfffff9fd
     afc:	0501060b 	streq	r0, [r1, #-1547]	; 0xfffff9f5
     b00:	062f0603 	strteq	r0, [pc], -r3, lsl #12
     b04:	0301052e 	movweq	r0, #5422	; 0x152e
     b08:	050100c7 	streq	r0, [r1, #-199]	; 0xffffff39
     b0c:	6403060b 	strvs	r0, [r3], #-1547	; 0xfffff9f5
     b10:	0503042e 	streq	r0, [r3, #-1070]	; 0xfffffbd2
     b14:	01210314 			; <UNDEFINED> instruction: 0x01210314
     b18:	06130305 	ldreq	r0, [r3], -r5, lsl #6
     b1c:	0501044a 	streq	r0, [r1, #-1098]	; 0xfffffbb6
     b20:	62030605 	andvs	r0, r3, #5242880	; 0x500000
     b24:	060b0501 	streq	r0, [fp], -r1, lsl #10
     b28:	05052001 	streq	r2, [r5, #-1]
     b2c:	0e052106 	adfeqs	f2, f5, f6
     b30:	05050106 	streq	r0, [r5, #-262]	; 0xfffffefa
     b34:	490e0521 	stmdbmi	lr, {r0, r5, r8, sl}
     b38:	2f060505 	svccs	0x00060505
     b3c:	06202e06 	strteq	r2, [r0], -r6, lsl #28
     b40:	06070517 			; <UNDEFINED> instruction: 0x06070517
     b44:	05210601 	streq	r0, [r1, #-1537]!	; 0xfffff9ff
     b48:	05010616 	streq	r0, [r1, #-1558]	; 0xfffff9ea
     b4c:	2f062009 	svccs	0x00062009
     b50:	01061205 	tsteq	r6, r5, lsl #4
     b54:	2f060905 	svccs	0x00060905
     b58:	14050304 	strne	r0, [r5], #-772	; 0xfffffcfc
     b5c:	05011303 	streq	r1, [r1, #-771]	; 0xfffffcfd
     b60:	01061303 	tsteq	r6, r3, lsl #6
     b64:	2c050104 	stfcss	f0, [r5], {4}
     b68:	01780306 	cmneq	r8, r6, lsl #6
     b6c:	14050304 	strne	r0, [r5], #-772	; 0xfffffcfc
     b70:	13030519 	movwne	r0, #13593	; 0x3519
     b74:	01044a06 	tsteq	r4, r6, lsl #20
     b78:	03060d05 	movweq	r0, #27909	; 0x6d05
     b7c:	0f05016e 	svceq	0x0005016e
     b80:	09050106 	stmdbeq	r5, {r1, r2, r8}
     b84:	17052f06 	strne	r2, [r5, -r6, lsl #30]
     b88:	09050106 	stmdbeq	r5, {r1, r2, r8}
     b8c:	03042f06 	movweq	r2, #20230	; 0x4f06
     b90:	0f031405 	svceq	0x00031405
     b94:	13030501 	movwne	r0, #13569	; 0x3501
     b98:	01042006 	tsteq	r4, r6
     b9c:	03060505 	movweq	r0, #25861	; 0x6505
     ba0:	09050174 	stmdbeq	r5, {r2, r4, r5, r6, r8}
     ba4:	07050106 	streq	r0, [r5, -r6, lsl #2]
     ba8:	01210658 			; <UNDEFINED> instruction: 0x01210658
     bac:	05ae0505 	streq	r0, [lr, #1285]!	; 0x505
     bb0:	0501060f 	streq	r0, [r1, #-1551]	; 0xfffff9f1
     bb4:	0f052f07 	svceq	0x00052f07
     bb8:	2107051f 	tstcs	r7, pc, lsl r5
     bbc:	051f0f05 	ldreq	r0, [pc, #-3845]	; fffffcbf <BootRAM+0xef70460>
     bc0:	05210605 	streq	r0, [r1, #-1541]!	; 0xfffff9fb
     bc4:	02010607 	andeq	r0, r1, #7340032	; 0x700000
     bc8:	0101000f 	tsteq	r1, pc
     bcc:	000003ef 	andeq	r0, r0, pc, ror #7
     bd0:	00f20003 	rscseq	r0, r2, r3
     bd4:	01020000 	mrseq	r0, (UNDEF: 2)
     bd8:	000d0efb 	strdeq	r0, [sp], -fp
     bdc:	01010101 	tsteq	r1, r1, lsl #2
     be0:	01000000 	mrseq	r0, (UNDEF: 0)
     be4:	73010000 	movwvc	r0, #4096	; 0x1000
     be8:	2f006372 	svccs	0x00006372
     bec:	2f727375 	svccs	0x00727375
     bf0:	2f62696c 	svccs	0x0062696c
     bf4:	2f636367 	svccs	0x00636367
     bf8:	2d6d7261 	sfmcs	f7, 2, [sp, #-388]!	; 0xfffffe7c
     bfc:	656e6f6e 	strbvs	r6, [lr, #-3950]!	; 0xfffff092
     c00:	6261652d 	rsbvs	r6, r1, #188743680	; 0xb400000
     c04:	2e382f69 	cdpcs	15, 3, cr2, cr8, cr9, {3}
     c08:	2f312e33 	svccs	0x00312e33
     c0c:	6c636e69 	stclvs	14, cr6, [r3], #-420	; 0xfffffe5c
     c10:	00656475 	rsbeq	r6, r5, r5, ror r4
     c14:	2f62696c 	svccs	0x0062696c
     c18:	6c636e69 	stclvs	14, cr6, [r3], #-420	; 0xfffffe5c
     c1c:	00656475 	rsbeq	r6, r5, r5, ror r4
     c20:	7273752f 	rsbsvc	r7, r3, #197132288	; 0xbc00000
     c24:	636e692f 	cmnvs	lr, #770048	; 0xbc000
     c28:	6564756c 	strbvs	r7, [r4, #-1388]!	; 0xfffffa94
     c2c:	77656e2f 	strbvc	r6, [r5, -pc, lsr #28]!
     c30:	2f62696c 	svccs	0x0062696c
     c34:	00737973 	rsbseq	r7, r3, r3, ror r9
     c38:	62737500 	rsbsvs	r7, r3, #0, 10
     c3c:	616c635f 	cmnvs	ip, pc, asr r3
     c40:	635f7373 	cmpvs	pc, #-872415231	; 0xcc000001
     c44:	632e6364 			; <UNDEFINED> instruction: 0x632e6364
     c48:	00000100 	andeq	r0, r0, r0, lsl #2
     c4c:	5f627375 	svcpl	0x00627375
     c50:	2e62696c 	vnmulcs.f16	s13, s4, s25	; <UNPREDICTABLE>
     c54:	00010068 	andeq	r0, r1, r8, rrx
     c58:	64747300 	ldrbtvs	r7, [r4], #-768	; 0xfffffd00
     c5c:	2e746e69 	cdpcs	14, 7, cr6, cr4, cr9, {3}
     c60:	00020068 	andeq	r0, r2, r8, rrx
     c64:	726f6300 	rsbvc	r6, pc, #0, 6
     c68:	6d635f65 	stclvs	15, cr5, [r3, #-404]!	; 0xfffffe6c
     c6c:	00682e33 	rsbeq	r2, r8, r3, lsr lr
     c70:	73000003 	movwvc	r0, #3
     c74:	65747379 	ldrbvs	r7, [r4, #-889]!	; 0xfffffc87
     c78:	74735f6d 	ldrbtvc	r5, [r3], #-3949	; 0xfffff093
     c7c:	6c32336d 	ldcvs	3, cr3, [r2], #-436	; 0xfffffe4c
     c80:	2e787831 	mrccs	8, 3, r7, cr8, cr1, {1}
     c84:	00030068 	andeq	r0, r3, r8, rrx
     c88:	6d747300 	ldclvs	3, cr7, [r4, #-0]
     c8c:	316c3233 	cmncc	ip, r3, lsr r2
     c90:	63783135 	cmnvs	r8, #1073741837	; 0x4000000d
     c94:	0300682e 	movweq	r6, #2094	; 0x82e
     c98:	74730000 	ldrbtvc	r0, [r3], #-0
     c9c:	66656464 	strbtvs	r6, [r5], -r4, ror #8
     ca0:	0200682e 	andeq	r6, r0, #3014656	; 0x2e0000
     ca4:	745f0000 	ldrbvc	r0, [pc], #-0	; cac <_Min_Stack_Size+0x8ac>
     ca8:	73657079 	cmnvc	r5, #121	; 0x79
     cac:	0400682e 	streq	r6, [r0], #-2094	; 0xfffff7d2
     cb0:	65720000 	ldrbvs	r0, [r2, #-0]!
     cb4:	2e746e65 	cdpcs	14, 7, cr6, cr4, cr5, {3}
     cb8:	00040068 	andeq	r0, r4, r8, rrx
     cbc:	636f6c00 	cmnvs	pc, #0, 24
     cc0:	00682e6b 	rsbeq	r2, r8, fp, ror #28
     cc4:	00000004 	andeq	r0, r0, r4
     cc8:	05002105 	streq	r2, [r0, #-261]	; 0xfffffefb
     ccc:	00097402 	andeq	r7, r9, r2, lsl #8
     cd0:	01ff0308 	mvnseq	r0, r8, lsl #6
     cd4:	14010501 	strne	r0, [r1], #-1281	; 0xfffffaff
     cd8:	05222605 	streq	r2, [r2, #-1541]!	; 0xfffff9fb
     cdc:	05131303 	ldreq	r1, [r3, #-771]	; 0xfffffcfd
     ce0:	04100626 	ldreq	r0, [r0], #-1574	; 0xfffff9da
     ce4:	03130502 	tsteq	r3, #8388608	; 0x800000
     ce8:	04207fba 	strteq	r7, [r0], #-4026	; 0xfffff046
     cec:	03260501 			; <UNDEFINED> instruction: 0x03260501
     cf0:	042000c6 	strteq	r0, [r0], #-198	; 0xffffff3a
     cf4:	06130502 	ldreq	r0, [r3], -r2, lsl #10
     cf8:	207fb903 	rsbscs	fp, pc, r3, lsl #18
     cfc:	05130305 	ldreq	r0, [r3, #-773]	; 0xfffffcfb
     d00:	05010613 	streq	r0, [r1, #-1555]	; 0xfffff9ed
     d04:	05210603 	streq	r0, [r1, #-1539]!	; 0xfffff9fd
     d08:	0501060d 	streq	r0, [r1, #-1549]	; 0xfffff9f3
     d0c:	052e1f11 	streq	r1, [lr, #-3857]!	; 0xfffff0ef
     d10:	03052f0d 	movweq	r2, #24333	; 0x5f0d
     d14:	9f013d06 	svcls	0x00013d06
     d18:	01040106 	tsteq	r4, r6, lsl #2
     d1c:	00c60306 	sbceq	r0, r6, r6, lsl #6
     d20:	06050501 	streq	r0, [r5], -r1, lsl #10
     d24:	06030501 	streq	r0, [r3], -r1, lsl #10
     d28:	06090521 	streq	r0, [r9], -r1, lsr #10
     d2c:	2e050501 	cfsh32cs	mvfx0, mvfx5, #1
     d30:	02001405 	andeq	r1, r0, #83886080	; 0x5000000
     d34:	2e060104 	adfcss	f0, f6, f4
     d38:	01040200 	mrseq	r0, R12_usr
     d3c:	04020001 	streq	r0, [r2], #-1
     d40:	053d0601 	ldreq	r0, [sp, #-1537]!	; 0xfffff9ff
     d44:	03052101 	movweq	r2, #20737	; 0x5101
     d48:	05052d06 	streq	r2, [r5, #-3334]	; 0xfffff2fa
     d4c:	14050106 	strne	r0, [r5], #-262	; 0xfffffefa
     d50:	01040200 	mrseq	r0, R12_usr
     d54:	02002e06 	andeq	r2, r0, #6, 28	; 0x60
     d58:	04010104 	streq	r0, [r1], #-260	; 0xfffffefc
     d5c:	02050002 	andeq	r0, r5, #2
     d60:	080009cc 	stmdaeq	r0, {r2, r3, r6, r7, r8, fp}
     d64:	017fa803 	cmneq	pc, r3, lsl #16
     d68:	13130305 	tstne	r3, #335544320	; 0x14000000
     d6c:	01061505 	tsteq	r6, r5, lsl #10
     d70:	051e1405 	ldreq	r1, [lr, #-1029]	; 0xfffffbfb
     d74:	03052215 	movweq	r2, #21013	; 0x5215
     d78:	1e0b0522 	cfsh32ne	mvfx0, mvfx11, #18
     d7c:	2f060305 	svccs	0x00060305
     d80:	06910113 			; <UNDEFINED> instruction: 0x06910113
     d84:	2101052e 	tstcs	r1, lr, lsr #10
     d88:	2e1f0305 	cdpcs	3, 1, cr0, cr15, cr5, {0}
     d8c:	50050104 	andpl	r0, r5, r4, lsl #2
     d90:	02050006 	andeq	r0, r5, #6
     d94:	080009fc 	stmdaeq	r0, {r2, r3, r4, r5, r6, r7, r8, fp}
     d98:	05016903 	streq	r6, [r1, #-2307]	; 0xfffff6fd
     d9c:	07051303 	streq	r1, [r5, -r3, lsl #6]
     da0:	0d051408 	cfstrseq	mvf1, [r5, #-32]	; 0xffffffe0
     da4:	07050106 	streq	r0, [r5, -r6, lsl #2]
     da8:	0d052f06 	stceq	15, cr2, [r5, #-24]	; 0xffffffe8
     dac:	20050106 	andcs	r0, r5, r6, lsl #2
     db0:	05201b03 	streq	r1, [r0, #-2819]!	; 0xfffff4fd
     db4:	05210607 	streq	r0, [r1, #-1543]!	; 0xfffff9f9
     db8:	05160601 	ldreq	r0, [r6, #-1537]	; 0xfffff9ff
     dbc:	63030607 	movwvs	r0, #13831	; 0x3607
     dc0:	060d0520 	streq	r0, [sp], -r0, lsr #10
     dc4:	06070501 	streq	r0, [r7], -r1, lsl #10
     dc8:	060d052f 	streq	r0, [sp], -pc, lsr #10
     dcc:	06070501 	streq	r0, [r7], -r1, lsl #10
     dd0:	060d0531 			; <UNDEFINED> instruction: 0x060d0531
     dd4:	06070501 	streq	r0, [r7], -r1, lsl #10
     dd8:	060d052f 	streq	r0, [sp], -pc, lsr #10
     ddc:	06070501 	streq	r0, [r7], -r1, lsl #10
     de0:	05200631 	streq	r0, [r0, #-1585]!	; 0xfffff9cf
     de4:	0568060b 	strbeq	r0, [r8, #-1547]!	; 0xfffff9f5
     de8:	03010611 	movweq	r0, #5649	; 0x1611
     dec:	0b052009 	bleq	148e18 <_Min_Stack_Size+0x148a18>
     df0:	07052106 	streq	r2, [r5, -r6, lsl #2]
     df4:	06200516 			; <UNDEFINED> instruction: 0x06200516
     df8:	060b0501 	streq	r0, [fp], -r1, lsl #10
     dfc:	053c7503 	ldreq	r7, [ip, #-1283]!	; 0xfffffafd
     e00:	05010611 	streq	r0, [r1, #-1553]	; 0xfffff9ef
     e04:	0531060b 	ldreq	r0, [r1, #-1547]!	; 0xfffff9f5
     e08:	05010611 	streq	r0, [r1, #-1553]	; 0xfffff9ef
     e0c:	0531060b 	ldreq	r0, [r1, #-1547]!	; 0xfffff9f5
     e10:	05010611 	streq	r0, [r1, #-1553]	; 0xfffff9ef
     e14:	05000647 	streq	r0, [r0, #-1607]	; 0xfffff9b9
     e18:	000a7802 	andeq	r7, sl, r2, lsl #16
     e1c:	01290308 			; <UNDEFINED> instruction: 0x01290308
     e20:	05130305 	ldreq	r0, [r3, #-773]	; 0xfffffcfb
     e24:	06010605 	streq	r0, [r1], -r5, lsl #12
     e28:	06070559 			; <UNDEFINED> instruction: 0x06070559
     e2c:	053d0601 	ldreq	r0, [sp, #-1537]!	; 0xfffff9ff
     e30:	0501060d 	streq	r0, [r1, #-1549]	; 0xfffff9f3
     e34:	0d05220e 	sfmeq	f2, 4, [r5, #-56]	; 0xffffffc8
     e38:	0607051e 			; <UNDEFINED> instruction: 0x0607051e
     e3c:	060d0521 	streq	r0, [sp], -r1, lsr #10
     e40:	06070501 	streq	r0, [r7], -r1, lsl #10
     e44:	060e052f 	streq	r0, [lr], -pc, lsr #10
     e48:	230a0501 	movwcs	r0, #42241	; 0xa501
     e4c:	05210105 	streq	r0, [r1, #-261]!	; 0xfffffefb
     e50:	053e064e 	ldreq	r0, [lr, #-1614]!	; 0xfffff9b2
     e54:	4e051303 	cdpmi	3, 0, cr1, cr5, cr3, {0}
     e58:	05051106 	streq	r1, [r5, #-262]	; 0xfffffefa
     e5c:	05590621 	ldrbeq	r0, [r9, #-1569]	; 0xfffff9df
     e60:	06010607 	streq	r0, [r1], -r7, lsl #12
     e64:	0609053d 			; <UNDEFINED> instruction: 0x0609053d
     e68:	06070501 	streq	r0, [r7], -r1, lsl #10
     e6c:	05020422 	streq	r0, [r2, #-1058]	; 0xfffffbde
     e70:	01480313 	cmpeq	r8, r3, lsl r3
     e74:	05130305 	ldreq	r0, [r3, #-773]	; 0xfffffcfb
     e78:	2001060a 	andcs	r0, r1, sl, lsl #12
     e7c:	01042e20 	tsteq	r4, r0, lsr #28
     e80:	35031e05 	strcc	r1, [r3, #-3589]	; 0xfffff1fb
     e84:	030a0501 	movweq	r0, #42241	; 0xa501
     e88:	01052e0d 	tsteq	r5, sp, lsl #28
     e8c:	06210521 	strteq	r0, [r1], -r1, lsr #10
     e90:	053c0e03 	ldreq	r0, [ip, #-3587]!	; 0xfffff1fd
     e94:	12051303 	andne	r1, r5, #201326592	; 0xc000000
     e98:	0a050106 	beq	1412b8 <_Min_Stack_Size+0x140eb8>
     e9c:	0603054a 	streq	r0, [r3], -sl, asr #10
     ea0:	06160521 	ldreq	r0, [r6], -r1, lsr #10
     ea4:	3a210501 	bcc	8422b0 <_Min_Stack_Size+0x841eb0>
     ea8:	05221605 	streq	r1, [r2, #-1541]!	; 0xfffff9fb
     eac:	0a054b13 	beq	153b00 <_Min_Stack_Size+0x153700>
     eb0:	052f223c 	streq	r2, [pc, #-572]!	; c7c <_Min_Stack_Size+0x87c>
     eb4:	0a051c16 	beq	147f14 <_Min_Stack_Size+0x147b14>
     eb8:	06030520 	streq	r0, [r3], -r0, lsr #10
     ebc:	0a051321 	beq	145b48 <_Min_Stack_Size+0x145748>
     ec0:	03050106 	movweq	r0, #20742	; 0x5106
     ec4:	05132106 	ldreq	r2, [r3, #-262]	; 0xfffffefa
     ec8:	0501060a 	streq	r0, [r1, #-1546]	; 0xfffff9f6
     ecc:	0c052101 	stfeqs	f2, [r5], {1}
     ed0:	03052206 	movweq	r2, #20998	; 0x5206
     ed4:	05131313 	ldreq	r1, [r3, #-787]	; 0xfffffced
     ed8:	050f060c 	streq	r0, [pc, #-1548]	; 8d4 <_Min_Stack_Size+0x4d4>
     edc:	59062303 	stmdbpl	r6, {r0, r1, r8, r9, sp}
     ee0:	0601054b 	streq	r0, [r1], -fp, asr #10
     ee4:	1e040514 	mcrne	5, 0, r0, cr4, cr4, {0}
     ee8:	3d060305 	stccc	3, cr0, [r6, #-20]	; 0xffffffec
     eec:	13060105 	movwne	r0, #24837	; 0x6105
     ef0:	00062505 	andeq	r2, r6, r5, lsl #10
     ef4:	0b1c0205 	bleq	701710 <_Min_Stack_Size+0x701310>
     ef8:	05140800 	ldreq	r0, [r4, #-2048]	; 0xfffff800
     efc:	05131303 	ldreq	r1, [r3, #-771]	; 0xfffffcfd
     f00:	05100625 	ldreq	r0, [r0, #-1573]	; 0xfffff9db
     f04:	0505220a 	streq	r2, [r5, #-522]	; 0xfffffdf6
     f08:	00100520 	andseq	r0, r0, r0, lsr #10
     f0c:	06010402 	streq	r0, [r1], -r2, lsl #8
     f10:	0014053c 	andseq	r0, r4, ip, lsr r5
     f14:	06010402 	streq	r0, [r1], -r2, lsl #8
     f18:	22060501 	andcs	r0, r6, #4194304	; 0x400000
     f1c:	05210105 	streq	r0, [r1, #-261]!	; 0xfffffefb
     f20:	051b0606 	ldreq	r0, [fp, #-1542]	; 0xfffff9fa
     f24:	052f1503 	streq	r1, [pc, #-1283]!	; a29 <_Min_Stack_Size+0x629>
     f28:	05010606 	streq	r0, [r1, #-1542]	; 0xfffff9fa
     f2c:	05000616 	streq	r0, [r0, #-1558]	; 0xfffff9ea
     f30:	000b3c02 	andeq	r3, fp, r2, lsl #24
     f34:	03051508 	movweq	r1, #21768	; 0x5508
     f38:	06160513 			; <UNDEFINED> instruction: 0x06160513
     f3c:	21030511 	tstcs	r3, r1, lsl r5
     f40:	05676806 	strbeq	r6, [r7, #-2054]!	; 0xfffff7fa
     f44:	05140601 	ldreq	r0, [r4, #-1537]	; 0xfffff9ff
     f48:	16052c03 	strne	r2, [r5], -r3, lsl #24
     f4c:	02050006 	andeq	r0, r5, #6
     f50:	08000b74 	stmdaeq	r0, {r2, r4, r5, r6, r8, r9, fp}
     f54:	13030516 	movwne	r0, #13590	; 0x3516
     f58:	11061605 	tstne	r6, r5, lsl #12
     f5c:	05210605 	streq	r0, [r1, #-1541]!	; 0xfffff9fb
     f60:	03052e05 	movweq	r2, #24069	; 0x5e05
     f64:	06053106 	streq	r3, [r5], -r6, lsl #2
     f68:	05050106 	streq	r0, [r5, #-262]	; 0xfffffefa
     f6c:	001b052e 	andseq	r0, fp, lr, lsr #10
     f70:	06010402 	streq	r0, [r1], -r2, lsl #8
     f74:	000c052f 	andeq	r0, ip, pc, lsr #10
     f78:	06010402 	streq	r0, [r1], -r2, lsl #8
     f7c:	000a0501 	andeq	r0, sl, r1, lsl #10
     f80:	20010402 	andcs	r0, r1, r2, lsl #8
     f84:	2f060505 	svccs	0x00060505
     f88:	01060d05 	tsteq	r6, r5, lsl #26
     f8c:	05210505 	streq	r0, [r1, #-1285]!	; 0xfffffafb
     f90:	05053b0d 	streq	r3, [r5, #-2829]	; 0xfffff4f3
     f94:	012f2f06 			; <UNDEFINED> instruction: 0x012f2f06
     f98:	03053c2e 	movweq	r3, #23598	; 0x5c2e
     f9c:	3c2e013f 	stfccs	f0, [lr], #-252	; 0xffffff04
     fa0:	03061605 	movweq	r1, #26117	; 0x6605
     fa4:	08053c75 	stmdaeq	r5, {r0, r2, r4, r5, r6, sl, fp, ip, sp}
     fa8:	207f9903 	rsbscs	r9, pc, r3, lsl #18
     fac:	03010520 	movweq	r0, #5408	; 0x1520
     fb0:	052000f4 	streq	r0, [r0, #-244]!	; 0xffffff0c
     fb4:	8c030610 	stchi	6, cr0, [r3], {16}
     fb8:	09022e7f 	stmdbeq	r2, {r0, r1, r2, r3, r4, r5, r6, r9, sl, fp, sp}
     fbc:	10010100 	andne	r0, r1, r0, lsl #2
     fc0:	03000001 	movweq	r0, #1
     fc4:	00007b00 	andeq	r7, r0, r0, lsl #22
     fc8:	fb010200 	blx	417d2 <_Min_Stack_Size+0x413d2>
     fcc:	01000d0e 	tsteq	r0, lr, lsl #26
     fd0:	00010101 	andeq	r0, r1, r1, lsl #2
     fd4:	00010000 	andeq	r0, r1, r0
     fd8:	2e2e0100 	sufcse	f0, f6, f0
     fdc:	2f2e2e2f 	svccs	0x002e2e2f
     fe0:	2e2f2e2e 	cdpcs	14, 2, cr2, cr15, cr14, {1}
     fe4:	2e2e2f2e 	cdpcs	15, 2, cr2, cr14, cr14, {1}
     fe8:	2f2e2e2f 	svccs	0x002e2e2f
     fec:	2e2f2e2e 	cdpcs	14, 2, cr2, cr15, cr14, {1}
     ff0:	656e2f2e 	strbvs	r2, [lr, #-3886]!	; 0xfffff0d2
     ff4:	62696c77 	rsbvs	r6, r9, #30464	; 0x7700
     ff8:	62696c2f 	rsbvs	r6, r9, #12032	; 0x2f00
     ffc:	696d2f63 	stmdbvs	sp!, {r0, r1, r5, r6, r8, r9, sl, fp, sp}^
    1000:	2f006373 	svccs	0x00006373
    1004:	2f727375 	svccs	0x00727375
    1008:	2f62696c 	svccs	0x0062696c
    100c:	2f636367 	svccs	0x00636367
    1010:	2d6d7261 	sfmcs	f7, 2, [sp, #-388]!	; 0xfffffe7c
    1014:	656e6f6e 	strbvs	r6, [lr, #-3950]!	; 0xfffff092
    1018:	6261652d 	rsbvs	r6, r1, #188743680	; 0xb400000
    101c:	2e382f69 	cdpcs	15, 3, cr2, cr8, cr9, {3}
    1020:	2f312e33 	svccs	0x00312e33
    1024:	6c636e69 	stclvs	14, cr6, [r3], #-420	; 0xfffffe5c
    1028:	00656475 	rsbeq	r6, r5, r5, ror r4
    102c:	696e6900 	stmdbvs	lr!, {r8, fp, sp, lr}^
    1030:	00632e74 	rsbeq	r2, r3, r4, ror lr
    1034:	73000001 	movwvc	r0, #1
    1038:	65646474 	strbvs	r6, [r4, #-1140]!	; 0xfffffb8c
    103c:	00682e66 	rsbeq	r2, r8, r6, ror #28
    1040:	00000002 	andeq	r0, r0, r2
    1044:	05000105 	streq	r0, [r0, #-261]	; 0xfffffefb
    1048:	000bd802 	andeq	sp, fp, r2, lsl #16
    104c:	011e0308 	tsteq	lr, r8, lsl #6
    1050:	13130305 	tstne	r3, #335544320	; 0x14000000
    1054:	06010514 			; <UNDEFINED> instruction: 0x06010514
    1058:	241f050e 	ldrcs	r0, [pc], #-1294	; 1060 <_Min_Stack_Size+0xc60>
    105c:	3d060305 	stccc	3, cr0, [r6, #-20]	; 0xffffffec
    1060:	05200106 	streq	r0, [r0, #-262]!	; 0xfffffefa
    1064:	0505200a 	streq	r2, [r5, #-10]
    1068:	03040200 	movweq	r0, #16896	; 0x4200
    106c:	1b052106 	blne	14948c <_Min_Stack_Size+0x14908c>
    1070:	03040200 	movweq	r0, #16896	; 0x4200
    1074:	1a051106 	bne	145494 <_Min_Stack_Size+0x145094>
    1078:	03040200 	movweq	r0, #16896	; 0x4200
    107c:	00050521 	andeq	r0, r5, r1, lsr #10
    1080:	2e030402 	cdpcs	4, 0, cr0, cr3, cr2, {0}
    1084:	02000305 	andeq	r0, r0, #335544320	; 0x14000000
    1088:	061f0304 	ldreq	r0, [pc], -r4, lsl #6
    108c:	061c0532 			; <UNDEFINED> instruction: 0x061c0532
    1090:	03052015 	movweq	r2, #20501	; 0x5015
    1094:	0531061d 	ldreq	r0, [r1, #-1565]!	; 0xfffff9e3
    1098:	0501061c 	streq	r0, [r1, #-1564]	; 0xfffff9e4
    109c:	06210603 	strteq	r0, [r1], -r3, lsl #12
    10a0:	0a052001 	beq	1490ac <_Min_Stack_Size+0x148cac>
    10a4:	00050520 	andeq	r0, r5, r0, lsr #10
    10a8:	06030402 	streq	r0, [r3], -r2, lsl #8
    10ac:	001b0521 	andseq	r0, fp, r1, lsr #10
    10b0:	06030402 	streq	r0, [r3], -r2, lsl #8
    10b4:	00170511 	andseq	r0, r7, r1, lsl r5
    10b8:	21030402 	tstcs	r3, r2, lsl #8
    10bc:	02000505 	andeq	r0, r0, #20971520	; 0x1400000
    10c0:	052e0304 	streq	r0, [lr, #-772]!	; 0xfffffcfc
    10c4:	04020003 	streq	r0, [r2], #-3
    10c8:	01051f03 	tsteq	r5, r3, lsl #30
    10cc:	08022030 	stmdaeq	r2, {r4, r5, sp}
    10d0:	Address 0x00000000000010d0 is out of bounds.


Disassembly of section .debug_str:

00000000 <.debug_str>:
       0:	494c4143 	stmdbmi	ip, {r0, r1, r6, r8, lr}^
       4:	50005242 	andpl	r5, r0, r2, asr #4
       8:	52445055 	subpl	r5, r4, #85	; 0x55
       c:	4b434c00 	blmi	10d3014 <_Min_Stack_Size+0x10d2c14>
      10:	72730052 	rsbsvc	r0, r3, #82	; 0x52
      14:	616d2f63 	cmnvs	sp, r3, ror #30
      18:	632e6e69 			; <UNDEFINED> instruction: 0x632e6e69
      1c:	44535400 	ldrbmi	r5, [r3], #-1024	; 0xfffffc00
      20:	4b420052 	blmi	1080170 <_Min_Stack_Size+0x107fd70>
      24:	52363250 	eorspl	r3, r6, #80, 4
      28:	59544f00 	ldmdbpl	r4, {r8, r9, sl, fp, lr}^
      2c:	00524550 	subseq	r4, r2, r0, asr r5
      30:	33504b42 	cmpcc	r0, #67584	; 0x10800
      34:	42005230 	andmi	r5, r0, #48, 4
      38:	5233504b 	eorspl	r5, r3, #75	; 0x4b
      3c:	45525000 	ldrbmi	r5, [r2, #-0]
      40:	4f4d0052 	svcmi	0x004d0052
      44:	00524544 	subseq	r4, r2, r4, asr #10
      48:	676e6f6c 	strbvs	r6, [lr, -ip, ror #30]!
      4c:	6e6f6c20 	cdpvs	12, 6, cr6, cr15, cr0, {1}
      50:	6e752067 	cdpvs	0, 7, cr2, cr5, cr7, {3}
      54:	6e676973 			; <UNDEFINED> instruction: 0x6e676973
      58:	69206465 	stmdbvs	r0!, {r0, r2, r5, r6, sl, sp, lr}
      5c:	5000746e 	andpl	r7, r0, lr, ror #8
      60:	454b4752 	strbmi	r4, [fp, #-1874]	; 0xfffff8ae
      64:	52005259 	andpl	r5, r0, #-1879048187	; 0x90000005
      68:	545f4354 	ldrbpl	r4, [pc], #-852	; 70 <_Min_Heap_Size+0x70>
      6c:	44657079 	strbtmi	r7, [r5], #-121	; 0xffffff87
      70:	55006665 	strpl	r6, [r0, #-1637]	; 0xfffff99b
      74:	735f4253 	cmpvc	pc, #805306373	; 0x30000005
      78:	70757465 	rsbsvc	r7, r5, r5, ror #8
      7c:	6e6f6c00 	cdpvs	12, 6, cr6, cr15, cr0, {0}
      80:	6f6c2067 	svcvs	0x006c2067
      84:	6920676e 	stmdbvs	r0!, {r1, r2, r3, r5, r6, r8, r9, sl, sp, lr}
      88:	4200746e 	andmi	r7, r0, #1845493760	; 0x6e000000
      8c:	00525253 	subseq	r5, r2, r3, asr r2
      90:	53414c46 	movtpl	r4, #7238	; 0x1c46
      94:	79545f48 	ldmdbvc	r4, {r3, r6, r8, r9, sl, fp, ip, lr}^
      98:	65446570 	strbvs	r6, [r4, #-1392]	; 0xfffffa90
      9c:	45500066 	ldrbmi	r0, [r0, #-102]	; 0xffffff9a
      a0:	63005243 	movwvs	r5, #579	; 0x243
      a4:	6b636f6c 	blvs	18dbe5c <_Min_Stack_Size+0x18dba5c>
      a8:	0053485f 	subseq	r4, r3, pc, asr r8
      ac:	32504b42 	subscc	r4, r0, #67584	; 0x10800
      b0:	54005237 	strpl	r5, [r0], #-567	; 0xfffffdc9
      b4:	52535353 	subspl	r5, r3, #1275068417	; 0x4c000001
      b8:	504b4200 	subpl	r4, fp, r0, lsl #4
      bc:	00523133 	subseq	r3, r2, r3, lsr r1
      c0:	32425041 	subcc	r5, r2, #65	; 0x41
      c4:	52545352 	subspl	r5, r4, #1207959553	; 0x48000001
      c8:	504b4200 	subpl	r4, fp, r0, lsl #4
      cc:	41005234 	tstmi	r0, r4, lsr r2
      d0:	424d524c 	submi	r5, sp, #76, 4	; 0xc0000004
      d4:	00525353 	subseq	r5, r2, r3, asr r3
      d8:	4c424841 	mcrrmi	8, 4, r4, r2, cr1
      dc:	524e4550 	subpl	r4, lr, #80, 10	; 0x14000000
      e0:	504b4200 	subpl	r4, fp, r0, lsl #4
      e4:	00523631 	subseq	r3, r2, r1, lsr r6
      e8:	4b54504f 	blmi	151422c <_Min_Stack_Size+0x1513e2c>
      ec:	00525945 	subseq	r5, r2, r5, asr #18
      f0:	5f627375 	svcpl	0x00627375
      f4:	73616c63 	cmnvc	r1, #25344	; 0x6300
      f8:	6f705f73 	svcvs	0x00705f73
      fc:	75006c6c 	strvc	r6, [r0, #-3180]	; 0xfffff394
     100:	31746e69 	cmncc	r4, r9, ror #28
     104:	00745f36 	rsbseq	r5, r4, r6, lsr pc
     108:	32504b42 	subscc	r4, r0, #67584	; 0x10800
     10c:	50005230 	andpl	r5, r0, r0, lsr r2
     110:	59454b44 	stmdbpl	r5, {r2, r6, r8, r9, fp, lr}^
     114:	534f0052 	movtpl	r0, #61522	; 0xf052
     118:	44454550 	strbmi	r4, [r5], #-1360	; 0xfffffab0
     11c:	6e690052 	mcrvs	0, 3, r0, cr9, cr2, {2}
     120:	32337469 	eorscc	r7, r3, #1761607680	; 0x69000000
     124:	504b4200 	subpl	r4, fp, r0, lsl #4
     128:	00523832 	subseq	r3, r2, r2, lsr r8
     12c:	706d6574 	rsbvc	r6, sp, r4, ror r5
     130:	524c4100 	subpl	r4, ip, #0, 2
     134:	5353414d 	cmppl	r3, #1073741843	; 0x40000013
     138:	79530052 	ldmdbvc	r3, {r1, r4, r6}^
     13c:	6d657473 	cfstrdvs	mvd7, [r5, #-460]!	; 0xfffffe34
     140:	65726f43 	ldrbvs	r6, [r2, #-3907]!	; 0xfffff0bd
     144:	636f6c43 	cmnvs	pc, #17152	; 0x4300
     148:	4b42006b 	blmi	10802fc <_Min_Stack_Size+0x107fefc>
     14c:	00523550 	subseq	r3, r2, r0, asr r5
     150:	31504b42 	cmpcc	r0, r2, asr #22
     154:	47005237 	smladxmi	r0, r7, r2, r5
     158:	5f4f4950 	svcpl	0x004f4950
     15c:	65707954 	ldrbvs	r7, [r0, #-2388]!	; 0xfffff6ac
     160:	00666544 	rsbeq	r6, r6, r4, asr #10
     164:	5f434352 	svcpl	0x00434352
     168:	65707954 	ldrbvs	r7, [r0, #-2388]!	; 0xfffff6ac
     16c:	00666544 	rsbeq	r6, r6, r4, asr #10
     170:	31504b42 	cmpcc	r0, r2, asr #22
     174:	42005235 	andmi	r5, r0, #1342177283	; 0x50000003
     178:	3132504b 	teqcc	r2, fp, asr #32
     17c:	68730052 	ldmdavs	r3!, {r1, r4, r6}^
     180:	2074726f 	rsbscs	r7, r4, pc, ror #4
     184:	69736e75 	ldmdbvs	r3!, {r0, r2, r4, r5, r6, r9, sl, fp, sp, lr}^
     188:	64656e67 	strbtvs	r6, [r5], #-3687	; 0xfffff199
     18c:	746e6920 	strbtvc	r6, [lr], #-2336	; 0xfffff6e0
     190:	656c7300 	strbvs	r7, [ip, #-768]!	; 0xfffffd00
     194:	41007065 	tstmi	r0, r5, rrx
     198:	4c314250 	lfmmi	f4, 4, [r1], #-320	; 0xfffffec0
     19c:	524e4550 	subpl	r4, lr, #80, 10	; 0x14000000
     1a0:	54535400 	ldrbpl	r5, [r3], #-1024	; 0xfffffc00
     1a4:	41540052 	cmpmi	r4, r2, asr r0
     1a8:	00524346 	subseq	r4, r2, r6, asr #6
     1ac:	31504b42 	cmpcc	r0, r2, asr #22
     1b0:	42005230 	andmi	r5, r0, #48, 4
     1b4:	3932504b 	ldmdbcc	r2!, {r0, r1, r3, r6, ip, lr}
     1b8:	50410052 	subpl	r0, r1, r2, asr r0
     1bc:	504c3242 	subpl	r3, ip, r2, asr #4
     1c0:	00524e45 	subseq	r4, r2, r5, asr #28
     1c4:	5f525750 	svcpl	0x00525750
     1c8:	65707954 	ldrbvs	r7, [r0, #-2388]!	; 0xfffff6ac
     1cc:	00666544 	rsbeq	r6, r6, r4, asr #10
     1d0:	36504b42 	ldrbcc	r4, [r0], -r2, asr #22
     1d4:	4b420052 	blmi	1080324 <_Min_Stack_Size+0x107ff24>
     1d8:	52383150 	eorspl	r3, r8, #80, 2
     1dc:	4c414300 	mcrrmi	3, 0, r4, r1, cr0
     1e0:	75710052 	ldrbvc	r0, [r1, #-82]!	; 0xffffffae
     1e4:	7a747261 	bvc	1d1cb70 <_Min_Stack_Size+0x1d1c770>
     1e8:	504b4200 	subpl	r4, fp, r0, lsl #4
     1ec:	00523232 	subseq	r3, r2, r2, lsr r2
     1f0:	52505257 	subspl	r5, r0, #1879048197	; 0x70000005
     1f4:	52570031 	subspl	r0, r7, #49	; 0x31
     1f8:	00325250 	eorseq	r5, r2, r0, asr r2
     1fc:	31504b42 	cmpcc	r0, r2, asr #22
     200:	41005231 	tstmi	r0, r1, lsr r2
     204:	53524248 	cmppl	r2, #72, 4	; 0x80000004
     208:	74005254 	strvc	r5, [r0], #-596	; 0xfffffdac
     20c:	00656d69 	rsbeq	r6, r5, r9, ror #26
     210:	31425041 	cmpcc	r2, r1, asr #32
     214:	52545352 	subspl	r5, r4, #1207959553	; 0x48000001
     218:	655f5f00 	ldrbvs	r5, [pc, #-3840]	; fffff320 <BootRAM+0xef6fac1>
     21c:	6c62616e 	stfvse	f6, [r2], #-440	; 0xfffffe48
     220:	72695f65 	rsbvc	r5, r9, #404	; 0x194
     224:	6d2f0071 	stcvs	0, cr0, [pc, #-452]!	; 68 <_Min_Heap_Size+0x68>
     228:	61696465 	cmnvs	r9, r5, ror #8
     22c:	7478652f 	ldrbtvc	r6, [r8], #-1327	; 0xfffffad1
     230:	7665642f 	strbtvc	r6, [r5], -pc, lsr #8
     234:	6f72702f 	svcvs	0x0072702f
     238:	72612f67 	rsbvc	r2, r1, #412	; 0x19c
     23c:	73752f6d 	cmnvc	r5, #436	; 0x1b4
     240:	2e352f62 	cdpcs	15, 3, cr2, cr5, cr2, {3}
     244:	5f434443 	svcpl	0x00434443
     248:	4100314c 	tstmi	r0, ip, asr #2
     24c:	414d524c 	cmpmi	sp, ip, asr #4
     250:	4b420052 	blmi	10803a0 <_Min_Stack_Size+0x107ffa0>
     254:	00523750 	subseq	r3, r2, r0, asr r7
     258:	31504b42 	cmpcc	r0, r2, asr #22
     25c:	52005239 	andpl	r5, r0, #-1879048189	; 0x90000003
     260:	52455345 	subpl	r5, r5, #335544321	; 0x14000001
     264:	37444556 	smlsldcc	r4, r4, r6, r5	; <UNPREDICTABLE>
     268:	73795300 	cmnvc	r9, #0, 6
     26c:	496d6574 	stmdbmi	sp!, {r2, r4, r5, r6, r8, sl, sp, lr}^
     270:	0074696e 	rsbseq	r6, r4, lr, ror #18
     274:	32504b42 	subscc	r4, r0, #67584	; 0x10800
     278:	75005233 	strvc	r5, [r0, #-563]	; 0xfffffdcd
     27c:	6769736e 	strbvs	r7, [r9, -lr, ror #6]!
     280:	2064656e 	rsbcs	r6, r4, lr, ror #10
     284:	72616863 	rsbvc	r6, r1, #6488064	; 0x630000
     288:	4d544900 	vldrmi.16	s9, [r4, #-0]	; <UNPREDICTABLE>
     28c:	4278525f 	rsbsmi	r5, r8, #-268435451	; 0xf0000005
     290:	65666675 	strbvs	r6, [r6, #-1653]!	; 0xfffff98b
     294:	68730072 	ldmdavs	r3!, {r1, r4, r5, r6}^
     298:	2074726f 	rsbscs	r7, r4, pc, ror #4
     29c:	00746e69 	rsbseq	r6, r4, r9, ror #28
     2a0:	30504b42 	subscc	r4, r0, r2, asr #22
     2a4:	45520052 	ldrbmi	r0, [r2, #-82]	; 0xffffffae
     2a8:	56524553 			; <UNDEFINED> instruction: 0x56524553
     2ac:	42004445 	andmi	r4, r0, #1157627904	; 0x45000000
     2b0:	3231504b 	eorscc	r5, r1, #75	; 0x4b
     2b4:	50410052 	subpl	r0, r1, r2, asr r0
     2b8:	4e453242 	cdpmi	2, 4, cr3, cr5, cr2, {2}
     2bc:	4c410052 	mcrrmi	0, 5, r0, r1, cr2
     2c0:	52424d52 	subpl	r4, r2, #5248	; 0x1480
     2c4:	47464300 	strbmi	r4, [r6, -r0, lsl #6]
     2c8:	4b420052 	blmi	1080418 <_Min_Stack_Size+0x1080018>
     2cc:	00523850 	subseq	r3, r2, r0, asr r8
     2d0:	746e6975 	strbtvc	r6, [lr], #-2421	; 0xfffff68b
     2d4:	745f3233 	ldrbvc	r3, [pc], #-563	; 2dc <_Min_Heap_Size+0x2dc>
     2d8:	54555700 	ldrbpl	r5, [r5], #-1792	; 0xfffff900
     2dc:	4b420052 	blmi	108042c <_Min_Stack_Size+0x108002c>
     2e0:	52343250 	eorspl	r3, r4, #80, 4
     2e4:	504b4200 	subpl	r4, fp, r0, lsl #4
     2e8:	41005231 	tstmi	r0, r1, lsr r2
     2ec:	45314250 	ldrmi	r4, [r1, #-592]!	; 0xfffffdb0
     2f0:	4200524e 	andmi	r5, r0, #-536870908	; 0xe0000004
     2f4:	3331504b 	teqcc	r1, #75	; 0x4b
     2f8:	6c630052 	stclvs	0, cr0, [r3], #-328	; 0xfffffeb8
     2fc:	5f6b636f 	svcpl	0x006b636f
     300:	5300534d 	movwpl	r5, #845	; 0x34d
     304:	54464948 	strbpl	r4, [r6], #-2376	; 0xfffff6b8
     308:	43490052 	movtmi	r0, #36946	; 0x9052
     30c:	00524353 	subseq	r4, r2, r3, asr r3
     310:	39504b42 	ldmdbcc	r0, {r1, r6, r8, r9, fp, lr}^
     314:	69750052 	ldmdbvs	r5!, {r1, r4, r6}^
     318:	5f38746e 	svcpl	0x0038746e
     31c:	45500074 	ldrbmi	r0, [r0, #-116]	; 0xffffff8c
     320:	5259454b 	subspl	r4, r9, #314572800	; 0x12c00000
     324:	504b4200 	subpl	r4, fp, r0, lsl #4
     328:	00523532 	subseq	r3, r2, r2, lsr r5
     32c:	32504b42 	subscc	r4, r0, #67584	; 0x10800
     330:	65720052 	ldrbvs	r0, [r2, #-82]!	; 0xffffffae
     334:	74696e69 	strbtvc	r6, [r9], #-3689	; 0xfffff197
     338:	504b4200 	subpl	r4, fp, r0, lsl #4
     33c:	00523431 	subseq	r3, r2, r1, lsr r4
     340:	6e69616d 	powvsez	f6, f1, #5.0
     344:	554e4700 	strbpl	r4, [lr, #-1792]	; 0xfffff900
     348:	37314320 	ldrcc	r4, [r1, -r0, lsr #6]!
     34c:	332e3820 			; <UNDEFINED> instruction: 0x332e3820
     350:	3220312e 	eorcc	r3, r0, #-2147483637	; 0x8000000b
     354:	30393130 	eorscc	r3, r9, r0, lsr r1
     358:	20333037 	eorscs	r3, r3, r7, lsr r0
     35c:	6c657228 	sfmvs	f7, 2, [r5], #-160	; 0xffffff60
     360:	65736165 	ldrbvs	r6, [r3, #-357]!	; 0xfffffe9b
     364:	675b2029 	ldrbvs	r2, [fp, -r9, lsr #32]
     368:	382d6363 	stmdacc	sp!, {r0, r1, r5, r6, r8, r9, sp, lr}
     36c:	6172622d 	cmnvs	r2, sp, lsr #4
     370:	2068636e 	rsbcs	r6, r8, lr, ror #6
     374:	69766572 	ldmdbvs	r6!, {r1, r4, r5, r6, r8, sl, sp, lr}^
     378:	6e6f6973 			; <UNDEFINED> instruction: 0x6e6f6973
     37c:	33373220 	teqcc	r7, #32, 4
     380:	5d373230 	lfmpl	f3, 4, [r7, #-192]!	; 0xffffff40
     384:	746d2d20 	strbtvc	r2, [sp], #-3360	; 0xfffff2e0
     388:	626d7568 	rsbvs	r7, sp, #104, 10	; 0x1a000000
     38c:	636d2d20 	cmnvs	sp, #32, 26	; 0x800
     390:	633d7570 	teqvs	sp, #112, 10	; 0x1c000000
     394:	6574726f 	ldrbvs	r7, [r4, #-623]!	; 0xfffffd91
     398:	336d2d78 	cmncc	sp, #120, 26	; 0x1e00
     39c:	666d2d20 	strbtvs	r2, [sp], -r0, lsr #26
     3a0:	74616f6c 	strbtvc	r6, [r1], #-3948	; 0xfffff094
     3a4:	6962612d 	stmdbvs	r2!, {r0, r2, r3, r5, r8, sp, lr}^
     3a8:	666f733d 			; <UNDEFINED> instruction: 0x666f733d
     3ac:	6d2d2074 	stcvs	0, cr2, [sp, #-464]!	; 0xfffffe30
     3b0:	68637261 	stmdavs	r3!, {r0, r5, r6, r9, ip, sp, lr}^
     3b4:	6d72613d 	ldfvse	f6, [r2, #-244]!	; 0xffffff0c
     3b8:	6d2d3776 	stcvs	7, cr3, [sp, #-472]!	; 0xfffffe28
     3bc:	64672d20 	strbtvs	r2, [r7], #-3360	; 0xfffff2e0
     3c0:	66726177 			; <UNDEFINED> instruction: 0x66726177
     3c4:	2d20322d 	sfmcs	f3, 4, [r0, #-180]!	; 0xffffff4c
     3c8:	2d20734f 	stccs	3, cr7, [r0, #-316]!	; 0xfffffec4
     3cc:	2d6f6e66 	stclcs	14, cr6, [pc, #-408]!	; 23c <_Min_Heap_Size+0x23c>
     3d0:	6c697562 	cfstr64vs	mvdx7, [r9], #-392	; 0xfffffe78
     3d4:	006e6974 	rsbeq	r6, lr, r4, ror r9
     3d8:	45424841 	strbmi	r4, [r2, #-2113]	; 0xfffff7bf
     3dc:	5400524e 	strpl	r5, [r0], #-590	; 0xfffffdb2
     3e0:	31314d49 	teqcc	r1, r9, asr #26
     3e4:	5152495f 	cmppl	r2, pc, asr r9
     3e8:	4977006e 	ldmdbmi	r7!, {r1, r2, r3, r5, r6}^
     3ec:	7865646e 	stmdavc	r5!, {r1, r2, r3, r5, r6, sl, sp, lr}^
     3f0:	53595300 	cmppl	r9, #0, 6
     3f4:	5f474643 	svcpl	0x00474643
     3f8:	65707954 	ldrbvs	r7, [r0, #-2388]!	; 0xfffff6ac
     3fc:	00666544 	rsbeq	r6, r6, r4, asr #10
     400:	31667562 	cmncc	r6, r2, ror #10
     404:	49540036 	ldmdbmi	r4, {r1, r2, r4, r5}^
     408:	495f394d 	ldmdbmi	pc, {r0, r2, r3, r6, r8, fp, ip, sp}^	; <UNPREDICTABLE>
     40c:	006e5152 	rsbeq	r5, lr, r2, asr r1
     410:	31414d44 	cmpcc	r1, r4, asr #26
     414:	6168435f 	cmnvs	r8, pc, asr r3
     418:	6c656e6e 	stclvs	14, cr6, [r5], #-440	; 0xfffffe48
     41c:	52495f37 	subpl	r5, r9, #55, 30	; 0xdc
     420:	49006e51 	stmdbmi	r0, {r0, r4, r6, r9, sl, fp, sp, lr}
     424:	5f324332 	svcpl	0x00324332
     428:	495f5245 	ldmdbmi	pc, {r0, r2, r6, r9, ip, lr}^	; <UNPREDICTABLE>
     42c:	006e5152 	rsbeq	r5, lr, r2, asr r1
     430:	5f435653 	svcpl	0x00435653
     434:	6e515249 	cdpvs	2, 5, cr5, cr1, cr9, {2}
     438:	4d495400 	cfstrdmi	mvd5, [r9, #-0]
     43c:	52495f34 	subpl	r5, r9, #52, 30	; 0xd0
     440:	44006e51 	strmi	r6, [r0], #-3665	; 0xfffff1af
     444:	5f31414d 	svcpl	0x0031414d
     448:	6e616843 	cdpvs	8, 6, cr6, cr1, cr3, {2}
     44c:	326c656e 	rsbcc	r6, ip, #461373440	; 0x1b800000
     450:	5152495f 	cmppl	r2, pc, asr r9
     454:	6d70006e 	ldclvs	0, cr0, [r0, #-440]!	; 0xfffffe48
     458:	65645f61 	strbvs	r5, [r4, #-3937]!	; 0xfffff09f
     45c:	5f726373 	svcpl	0x00726373
     460:	6d620074 	stclvs	0, cr0, [r2, #-464]!	; 0xfffffe30
     464:	75716552 	ldrbvc	r6, [r1, #-1362]!	; 0xfffffaae
     468:	54747365 	ldrbtpl	r7, [r4], #-869	; 0xfffffc9b
     46c:	00657079 	rsbeq	r7, r5, r9, ror r0
     470:	75746573 	ldrbvc	r6, [r4, #-1395]!	; 0xfffffa8d
     474:	61705f70 	cmnvs	r0, r0, ror pc
     478:	74656b63 	strbtvc	r6, [r5], #-2915	; 0xfffff49d
     47c:	414c4600 	cmpmi	ip, r0, lsl #12
     480:	495f4853 	ldmdbmi	pc, {r0, r1, r4, r6, fp, lr}^	; <UNPREDICTABLE>
     484:	006e5152 	rsbeq	r5, lr, r2, asr r1
     488:	65747962 	ldrbvs	r7, [r4, #-2402]!	; 0xfffff69e
     48c:	61657273 	smcvs	22307	; 0x5723
     490:	58450064 	stmdapl	r5, {r2, r5, r6}^
     494:	5f304954 	svcpl	0x00304954
     498:	6e515249 	cdpvs	2, 5, cr5, cr1, cr9, {2}
     49c:	54584500 	ldrbpl	r4, [r8], #-1280	; 0xfffffb00
     4a0:	5f353149 	svcpl	0x00353149
     4a4:	495f3031 	ldmdbmi	pc, {r0, r4, r5, ip, sp}^	; <UNPREDICTABLE>
     4a8:	006e5152 	rsbeq	r5, lr, r2, asr r1
     4ac:	7473616c 	ldrbtvc	r6, [r3], #-364	; 0xfffffe94
     4b0:	72646461 	rsbvc	r6, r4, #1627389952	; 0x61000000
     4b4:	6e655000 	cdpvs	0, 6, cr5, cr5, cr0, {0}
     4b8:	5f565364 	svcpl	0x00565364
     4bc:	6e515249 	cdpvs	2, 5, cr5, cr1, cr9, {2}
     4c0:	4d454d00 	stclmi	13, cr4, [r5, #-0]
     4c4:	00504d52 	subseq	r4, r0, r2, asr sp
     4c8:	5f434352 	svcpl	0x00434352
     4cc:	6e515249 	cdpvs	2, 5, cr5, cr1, cr9, {2}
     4d0:	61567700 	cmpvs	r6, r0, lsl #14
     4d4:	0065756c 	rsbeq	r7, r5, ip, ror #10
     4d8:	6f6d654d 	svcvs	0x006d654d
     4dc:	614d7972 	hvcvs	55186	; 0xd792
     4e0:	6567616e 	strbvs	r6, [r7, #-366]!	; 0xfffffe92
     4e4:	746e656d 	strbtvc	r6, [lr], #-1389	; 0xfffffa93
     4e8:	5152495f 	cmppl	r2, pc, asr r9
     4ec:	7065006e 	rsbvc	r0, r5, lr, rrx
     4f0:	6f635f30 	svcvs	0x00635f30
     4f4:	00746e75 	rsbseq	r6, r4, r5, ror lr
     4f8:	52545349 	subspl	r5, r4, #603979777	; 0x24000001
     4fc:	4d415400 	cfstrdmi	mvd5, [r1, #-0]
     500:	5f524550 	svcpl	0x00524550
     504:	4d415453 	cfstrdmi	mvd5, [r1, #-332]	; 0xfffffeb4
     508:	52495f50 	subpl	r5, r9, #80, 30	; 0x140
     50c:	49006e51 	stmdbmi	r0, {r0, r4, r6, r9, sl, fp, sp, lr}
     510:	00524553 	subseq	r4, r2, r3, asr r5
     514:	32414d44 	subcc	r4, r1, #68, 26	; 0x1100
     518:	6168435f 	cmnvs	r8, pc, asr r3
     51c:	6c656e6e 	stclvs	14, cr6, [r5], #-440	; 0xfffffe48
     520:	52495f34 	subpl	r5, r9, #52, 30	; 0xd0
     524:	52006e51 	andpl	r6, r0, #1296	; 0x510
     528:	56524553 			; <UNDEFINED> instruction: 0x56524553
     52c:	00314445 	eorseq	r4, r1, r5, asr #8
     530:	31495053 	qdaddcc	r5, r3, r9
     534:	5152495f 	cmppl	r2, pc, asr r9
     538:	755f006e 	ldrbvc	r0, [pc, #-110]	; 4d2 <_Min_Stack_Size+0xd2>
     53c:	655f6273 	ldrbvs	r6, [pc, #-627]	; 2d1 <_Min_Heap_Size+0x2d1>
     540:	72775f70 	rsbsvc	r5, r7, #112, 30	; 0x1c0
     544:	00657469 	rsbeq	r7, r5, r9, ror #8
     548:	364d4954 			; <UNDEFINED> instruction: 0x364d4954
     54c:	5152495f 	cmppl	r2, pc, asr r9
     550:	4d44006e 	stclmi	0, cr0, [r4, #-440]	; 0xfffffe48
     554:	435f3141 	cmpmi	pc, #1073741840	; 0x40000010
     558:	6e6e6168 	powvsez	f6, f6, #0.0
     55c:	5f346c65 	svcpl	0x00346c65
     560:	6e515249 	cdpvs	2, 5, cr5, cr1, cr9, {2}
     564:	49564e00 	ldmdbmi	r6, {r9, sl, fp, lr}^
     568:	6e455f43 	cdpvs	15, 4, cr5, cr5, cr3, {2}
     56c:	656c6261 	strbvs	r6, [ip, #-609]!	; 0xfffffd9f
     570:	00515249 	subseq	r5, r1, r9, asr #4
     574:	504d4f43 	subpl	r4, sp, r3, asr #30
     578:	5152495f 	cmppl	r2, pc, asr r9
     57c:	5355006e 	cmppl	r5, #110	; 0x6e
     580:	79545f42 	ldmdbvc	r4, {r1, r6, r8, r9, sl, fp, ip, lr}^
     584:	65446570 	strbvs	r6, [r4, #-1392]	; 0xfffffa90
     588:	41440066 	cmpmi	r4, r6, rrx
     58c:	00524444 	subseq	r4, r2, r4, asr #8
     590:	5f425355 	svcpl	0x00425355
     594:	495f504c 	ldmdbmi	pc, {r2, r3, r6, ip, lr}^	; <UNPREDICTABLE>
     598:	61485152 	cmpvs	r8, r2, asr r1
     59c:	656c646e 	strbvs	r6, [ip, #-1134]!	; 0xfffffb92
     5a0:	73750072 	cmnvc	r5, #114	; 0x72
     5a4:	6c635f62 	stclvs	15, cr5, [r3], #-392	; 0xfffffe78
     5a8:	5f737361 	svcpl	0x00737361
     5ac:	5f746567 	svcpl	0x00746567
     5b0:	5f647473 	svcpl	0x00647473
     5b4:	63736564 	cmnvs	r3, #100, 10	; 0x19000000
     5b8:	52490072 	subpl	r0, r9, #114	; 0x72
     5bc:	545f6e51 	ldrbpl	r6, [pc], #-3665	; 5c4 <_Min_Stack_Size+0x1c4>
     5c0:	00657079 	rsbeq	r7, r5, r9, ror r0
     5c4:	5f307065 	svcpl	0x00307065
     5c8:	646e6573 	strbtvs	r6, [lr], #-1395	; 0xfffffa8d
     5cc:	41535500 	cmpmi	r3, r0, lsl #10
     5d0:	5f325452 	svcpl	0x00325452
     5d4:	6e515249 	cdpvs	2, 5, cr5, cr1, cr9, {2}
     5d8:	6e6f6300 	cdpvs	3, 6, cr6, cr15, cr0, {0}
     5dc:	75676966 	strbvc	r6, [r7, #-2406]!	; 0xfffff69a
     5e0:	69746172 	ldmdbvs	r4!, {r1, r4, r5, r6, r8, sp, lr}^
     5e4:	45006e6f 	strmi	r6, [r0, #-3695]	; 0xfffff191
     5e8:	00523050 	subseq	r3, r2, r0, asr r0
     5ec:	5f435452 	svcpl	0x00435452
     5f0:	50554b57 	subspl	r4, r5, r7, asr fp
     5f4:	5152495f 	cmppl	r2, pc, asr r9
     5f8:	5355006e 	cmppl	r5, #110	; 0x6e
     5fc:	64415f42 	strbvs	r5, [r1], #-3906	; 0xfffff0be
     600:	65007264 	strvs	r7, [r0, #-612]	; 0xfffffd9c
     604:	6e756670 	mrcvs	6, 3, r6, cr5, cr0, {3}
     608:	756f5f63 	strbvc	r5, [pc, #-3939]!	; fffff6ad <BootRAM+0xef6fe4e>
     60c:	70650074 	rsbvc	r0, r5, r4, ror r0
     610:	75625f30 	strbvc	r5, [r2, #-3888]!	; 0xfffff0d0
     614:	58450066 	stmdapl	r5, {r1, r2, r5, r6}^
     618:	5f324954 	svcpl	0x00324954
     61c:	6e515249 	cdpvs	2, 5, cr5, cr1, cr9, {2}
     620:	43444100 	movtmi	r4, #16640	; 0x4100
     624:	52495f31 	subpl	r5, r9, #49, 30	; 0xc4
     628:	49006e51 	stmdbmi	r0, {r0, r4, r6, r9, sl, fp, sp, lr}
     62c:	5f324332 	svcpl	0x00324332
     630:	495f5645 	ldmdbmi	pc, {r0, r2, r6, r9, sl, ip, lr}^	; <UNPREDICTABLE>
     634:	006e5152 	rsbeq	r5, lr, r2, asr r1
     638:	52315045 	eorspl	r5, r1, #69	; 0x45
     63c:	49505300 	ldmdbmi	r0, {r8, r9, ip, lr}^
     640:	52495f33 	subpl	r5, r9, #51, 30	; 0xcc
     644:	75006e51 	strvc	r6, [r0, #-3665]	; 0xfffff1af
     648:	655f6273 	ldrbvs	r6, [pc, #-627]	; 3dd <_Min_Heap_Size+0x3dd>
     64c:	74616470 	strbtvc	r6, [r1], #-1136	; 0xfffffb90
     650:	00745f61 	rsbseq	r5, r4, r1, ror #30
     654:	504d4f43 	subpl	r4, sp, r3, asr #30
     658:	5143415f 	cmppl	r3, pc, asr r1
     65c:	5152495f 	cmppl	r2, pc, asr r9
     660:	4d44006e 	stclmi	0, cr0, [r4, #-440]	; 0xfffffe48
     664:	435f3141 	cmpmi	pc, #1073741840	; 0x40000010
     668:	6e6e6168 	powvsez	f6, f6, #0.0
     66c:	5f366c65 	svcpl	0x00366c65
     670:	6e515249 	cdpvs	2, 5, cr5, cr1, cr9, {2}
     674:	414d4400 	cmpmi	sp, r0, lsl #8
     678:	68435f32 	stmdavs	r3, {r1, r4, r5, r8, r9, sl, fp, ip, lr}^
     67c:	656e6e61 	strbvs	r6, [lr, #-3681]!	; 0xfffff19f
     680:	495f316c 	ldmdbmi	pc, {r2, r3, r5, r6, r8, ip, sp}^	; <UNPREDICTABLE>
     684:	006e5152 	rsbeq	r5, lr, r2, asr r1
     688:	6273755f 	rsbsvs	r7, r3, #398458880	; 0x17c00000
     68c:	5f70655f 	svcpl	0x0070655f
     690:	64616572 	strbtvs	r6, [r1], #-1394	; 0xfffffa8e
     694:	4d495400 	cfstrdmi	mvd5, [r9, #-0]
     698:	52495f33 	subpl	r5, r9, #51, 30	; 0xcc
     69c:	44006e51 	strmi	r6, [r0], #-3665	; 0xfffff1af
     6a0:	5f31414d 	svcpl	0x0031414d
     6a4:	6e616843 	cdpvs	8, 6, cr6, cr1, cr3, {2}
     6a8:	316c656e 	cmncc	ip, lr, ror #10
     6ac:	5152495f 	cmppl	r2, pc, asr r9
     6b0:	7375006e 	cmnvc	r5, #110	; 0x6e
     6b4:	6c635f62 	stclvs	15, cr5, [r3], #-392	; 0xfffffe78
     6b8:	5f737361 	svcpl	0x00737361
     6bc:	74696e69 	strbtvc	r6, [r9], #-3689	; 0xfffff197
     6c0:	54584500 	ldrbpl	r4, [r8], #-1280	; 0xfffffb00
     6c4:	00524349 	subseq	r4, r2, r9, asr #6
     6c8:	52325045 	eorspl	r5, r2, #69	; 0x45
     6cc:	4d495400 	cfstrdmi	mvd5, [r9, #-0]
     6d0:	495f3031 	ldmdbmi	pc, {r0, r4, r5, ip, sp}^	; <UNPREDICTABLE>
     6d4:	006e5152 	rsbeq	r5, lr, r2, asr r1
     6d8:	47445757 	smlsldmi	r5, r4, r7, r7
     6dc:	5152495f 	cmppl	r2, pc, asr r9
     6e0:	7375006e 	cmnvc	r5, #110	; 0x6e
     6e4:	6c635f62 	stclvs	15, cr5, [r3], #-392	; 0xfffffe78
     6e8:	5f737361 	svcpl	0x00737361
     6ec:	63736964 	cmnvs	r3, #100, 18	; 0x190000
     6f0:	656e6e6f 	strbvs	r6, [lr, #-3695]!	; 0xfffff191
     6f4:	45007463 	strmi	r7, [r0, #-1123]	; 0xfffffb9d
     6f8:	00523350 	subseq	r3, r2, r0, asr r3
     6fc:	46737542 	ldrbtmi	r7, [r3], -r2, asr #10
     700:	746c7561 	strbtvc	r7, [ip], #-1377	; 0xfffffa9f
     704:	5152495f 	cmppl	r2, pc, asr r9
     708:	5845006e 	stmdapl	r5, {r1, r2, r3, r5, r6}^
     70c:	5f344954 	svcpl	0x00344954
     710:	6e515249 	cdpvs	2, 5, cr5, cr1, cr9, {2}
     714:	44565000 	ldrbmi	r5, [r6], #-0
     718:	5152495f 	cmppl	r2, pc, asr r9
     71c:	7065006e 	rsbvc	r0, r5, lr, rrx
     720:	636e7566 	cmnvs	lr, #427819008	; 0x19800000
     724:	7500745f 	strvc	r7, [r0, #-1119]	; 0xfffffba1
     728:	745f6273 	ldrbvc	r6, [pc], #-627	; 730 <_Min_Stack_Size+0x330>
     72c:	6f635f78 	svcvs	0x00635f78
     730:	00746e75 	rsbseq	r6, r4, r5, ror lr
     734:	52504349 	subspl	r4, r0, #603979777	; 0x24000001
     738:	414d4400 	cmpmi	sp, r0, lsl #8
     73c:	68435f32 	stmdavs	r3, {r1, r4, r5, r8, r9, sl, fp, ip, lr}^
     740:	656e6e61 	strbvs	r6, [lr, #-3681]!	; 0xfffff19f
     744:	495f336c 	ldmdbmi	pc, {r2, r3, r5, r6, r8, r9, ip, sp}^	; <UNPREDICTABLE>
     748:	006e5152 	rsbeq	r5, lr, r2, asr r1
     74c:	354d4954 	strbcc	r4, [sp, #-2388]	; 0xfffff6ac
     750:	5152495f 	cmppl	r2, pc, asr r9
     754:	4d44006e 	stclmi	0, cr0, [r4, #-440]	; 0xfffffe48
     758:	435f3141 	cmpmi	pc, #1073741840	; 0x40000010
     75c:	6e6e6168 	powvsez	f6, f6, #0.0
     760:	5f336c65 	svcpl	0x00336c65
     764:	6e515249 	cdpvs	2, 5, cr5, cr1, cr9, {2}
     768:	63727300 	cmnvs	r2, #0, 6
     76c:	6273752f 	rsbsvs	r7, r3, #197132288	; 0xbc00000
     770:	62696c5f 	rsbvs	r6, r9, #24320	; 0x5f00
     774:	4900632e 	stmdbmi	r0, {r1, r2, r3, r5, r8, r9, sp, lr}
     778:	5f314332 	svcpl	0x00314332
     77c:	495f5645 	ldmdbmi	pc, {r0, r2, r6, r9, sl, ip, lr}^	; <UNPREDICTABLE>
     780:	006e5152 	rsbeq	r5, lr, r2, asr r1
     784:	6e5f7872 	mrcvs	8, 2, r7, cr15, cr2, {3}
     788:	625f6d75 	subsvs	r6, pc, #7488	; 0x1d40
     78c:	6b636f6c 	blvs	18dc544 <_Min_Stack_Size+0x18dc144>
     790:	73750073 	cmnvc	r5, #115	; 0x73
     794:	6c635f62 	stclvs	15, cr5, [r3], #-392	; 0xfffffe78
     798:	5f737361 	svcpl	0x00737361
     79c:	5f307065 	svcpl	0x00307065
     7a0:	74006e69 	strvc	r6, [r0], #-3689	; 0xfffff197
     7a4:	6c625f78 	stclvs	15, cr5, [r2], #-480	; 0xfffffe20
     7a8:	736b636f 	cmnvc	fp, #-1140850687	; 0xbc000001
     7ac:	00657a69 	rsbeq	r7, r5, r9, ror #20
     7b0:	52495453 	subpl	r5, r9, #1392508928	; 0x53000000
     7b4:	43545200 	cmpmi	r4, #0, 4
     7b8:	616c415f 	cmnvs	ip, pc, asr r1
     7bc:	495f6d72 	ldmdbmi	pc, {r1, r4, r5, r6, r8, sl, fp, sp, lr}^	; <UNPREDICTABLE>
     7c0:	006e5152 	rsbeq	r5, lr, r2, asr r1
     7c4:	735f7872 	cmpvc	pc, #7471104	; 0x720000
     7c8:	00657a69 	rsbeq	r7, r5, r9, ror #20
     7cc:	52355045 	eorspl	r5, r5, #69	; 0x45
     7d0:	53455200 	movtpl	r5, #20992	; 0x5200
     7d4:	45565245 	ldrbmi	r5, [r6, #-581]	; 0xfffffdbb
     7d8:	52003044 	andpl	r3, r0, #68	; 0x44
     7dc:	52455345 	subpl	r5, r5, #335544321	; 0x14000001
     7e0:	31444556 	cmpcc	r4, r6, asr r5
     7e4:	53455200 	movtpl	r5, #20992	; 0x5200
     7e8:	45565245 	ldrbmi	r5, [r6, #-581]	; 0xfffffdbb
     7ec:	52003244 	andpl	r3, r0, #68, 4	; 0x40000004
     7f0:	52455345 	subpl	r5, r5, #335544321	; 0x14000001
     7f4:	33444556 	movtcc	r4, #17750	; 0x4556
     7f8:	53455200 	movtpl	r5, #20992	; 0x5200
     7fc:	45565245 	ldrbmi	r5, [r6, #-581]	; 0xfffffdbb
     800:	52003444 	andpl	r3, r0, #68, 8	; 0x44000000
     804:	52455345 	subpl	r5, r5, #335544321	; 0x14000001
     808:	35444556 	strbcc	r4, [r4, #-1366]	; 0xfffffaaa
     80c:	53455200 	movtpl	r5, #20992	; 0x5200
     810:	45565245 	ldrbmi	r5, [r6, #-581]	; 0xfffffdbb
     814:	55003644 	strpl	r3, [r0, #-1604]	; 0xfffff9bc
     818:	465f4253 			; <UNDEFINED> instruction: 0x465f4253
     81c:	4b575f53 	blmi	15d8570 <_Min_Stack_Size+0x15d8170>
     820:	495f5055 	ldmdbmi	pc, {r0, r2, r4, r6, ip, lr}^	; <UNPREDICTABLE>
     824:	006e5152 	rsbeq	r5, lr, r2, asr r1
     828:	45534552 	ldrbmi	r4, [r3, #-1362]	; 0xfffffaae
     82c:	44455652 	strbmi	r5, [r5], #-1618	; 0xfffff9ae
     830:	45520039 	ldrbmi	r0, [r2, #-57]	; 0xffffffc7
     834:	56524553 			; <UNDEFINED> instruction: 0x56524553
     838:	00414445 	subeq	r4, r1, r5, asr #8
     83c:	52415355 	subpl	r5, r1, #1409286145	; 0x54000001
     840:	495f3154 	ldmdbmi	pc, {r2, r4, r6, r8, ip, sp}^	; <UNPREDICTABLE>
     844:	006e5152 	rsbeq	r5, lr, r2, asr r1
     848:	5f627375 	svcpl	0x00627375
     84c:	695f7065 	ldmdbvs	pc, {r0, r2, r5, r6, ip, sp, lr}^	; <UNPREDICTABLE>
     850:	0074696e 	rsbseq	r6, r4, lr, ror #18
     854:	4d6e6f4e 	stclmi	15, cr6, [lr, #-312]!	; 0xfffffec8
     858:	616b7361 	cmnvs	fp, r1, ror #6
     85c:	49656c62 	stmdbmi	r5!, {r1, r5, r6, sl, fp, sp, lr}^
     860:	495f746e 	ldmdbmi	pc, {r1, r2, r3, r5, r6, sl, ip, sp, lr}^	; <UNPREDICTABLE>
     864:	006e5152 	rsbeq	r5, lr, r2, asr r1
     868:	6e654c77 	mcrvs	12, 3, r4, cr5, cr7, {3}
     86c:	00687467 	rsbeq	r7, r8, r7, ror #8
     870:	52365045 	eorspl	r5, r6, #69	; 0x45
     874:	66656c00 	strbtvs	r6, [r5], -r0, lsl #24
     878:	58450074 	stmdapl	r5, {r2, r4, r5, r6}^
     87c:	5f314954 	svcpl	0x00314954
     880:	6e515249 	cdpvs	2, 5, cr5, cr1, cr9, {2}
     884:	65526200 	ldrbvs	r6, [r2, #-512]	; 0xfffffe00
     888:	73657571 	cmnvc	r5, #473956352	; 0x1c400000
     88c:	564e0074 			; <UNDEFINED> instruction: 0x564e0074
     890:	545f4349 	ldrbpl	r4, [pc], #-841	; 898 <_Min_Stack_Size+0x498>
     894:	00657079 	rsbeq	r7, r5, r9, ror r0
     898:	52544e43 	subspl	r4, r4, #1072	; 0x430
     89c:	414d4400 	cmpmi	sp, r0, lsl #8
     8a0:	68435f32 	stmdavs	r3, {r1, r4, r5, r8, r9, sl, fp, ip, lr}^
     8a4:	656e6e61 	strbvs	r6, [lr, #-3681]!	; 0xfffff19f
     8a8:	495f356c 	ldmdbmi	pc, {r2, r3, r5, r6, r8, sl, ip, sp}^	; <UNPREDICTABLE>
     8ac:	006e5152 	rsbeq	r5, lr, r2, asr r1
     8b0:	31433249 	cmpcc	r3, r9, asr #4
     8b4:	5f52455f 	svcpl	0x0052455f
     8b8:	6e515249 	cdpvs	2, 5, cr5, cr1, cr9, {2}
     8bc:	73795300 	cmnvc	r9, #0, 6
     8c0:	6b636954 	blvs	18dae18 <_Min_Stack_Size+0x18daa18>
     8c4:	5152495f 	cmppl	r2, pc, asr r9
     8c8:	7065006e 	rsbvc	r0, r5, lr, rrx
     8cc:	006d756e 	rsbeq	r7, sp, lr, ror #10
     8d0:	324d4954 	subcc	r4, sp, #84, 18	; 0x150000
     8d4:	5152495f 	cmppl	r2, pc, asr r9
     8d8:	7375006e 	cmnvc	r5, #110	; 0x6e
     8dc:	6c635f62 	stclvs	15, cr5, [r3], #-392	; 0xfffffe78
     8e0:	5f737361 	svcpl	0x00737361
     8e4:	5f307065 	svcpl	0x00307065
     8e8:	0074756f 	rsbseq	r7, r4, pc, ror #10
     8ec:	52375045 	eorspl	r5, r7, #69	; 0x45
     8f0:	6e6f6300 	cdpvs	3, 6, cr6, cr15, cr0, {0}
     8f4:	5f676966 	svcpl	0x00676966
     8f8:	6b636170 	blvs	18d8ec0 <_Min_Stack_Size+0x18d8ac0>
     8fc:	7500745f 	strvc	r7, [r0, #-1119]	; 0xfffffba1
     900:	725f6273 	subsvc	r6, pc, #805306375	; 0x30000007
     904:	64615f78 	strbtvs	r5, [r1], #-3960	; 0xfffff088
     908:	74007264 	strvc	r7, [r0], #-612	; 0xfffffd9c
     90c:	756e5f78 	strbvc	r5, [lr, #-3960]!	; 0xfffff088
     910:	6c625f6d 	stclvs	15, cr5, [r2], #-436	; 0xfffffe4c
     914:	736b636f 	cmnvc	fp, #-1140850687	; 0xbc000001
     918:	42535500 	subsmi	r5, r3, #0, 10
     91c:	5f50485f 	svcpl	0x0050485f
     920:	6e515249 	cdpvs	2, 5, cr5, cr1, cr9, {2}
     924:	62654400 	rsbvs	r4, r5, #0, 8
     928:	6f4d6775 	svcvs	0x004d6775
     92c:	6f74696e 	svcvs	0x0074696e
     930:	52495f72 	subpl	r5, r9, #456	; 0x1c8
     934:	55006e51 	strpl	r6, [r0, #-3665]	; 0xfffff1af
     938:	65676173 	strbvs	r6, [r7, #-371]!	; 0xfffffe8d
     93c:	6c756146 	ldfvse	f6, [r5], #-280	; 0xfffffee8
     940:	52495f74 	subpl	r5, r9, #116, 30	; 0x1d0
     944:	72006e51 	andvc	r6, r0, #1296	; 0x510
     948:	6c625f78 	stclvs	15, cr5, [r2], #-480	; 0xfffffe20
     94c:	736b636f 	cmnvc	fp, #-1140850687	; 0xbc000001
     950:	00657a69 	rsbeq	r7, r5, r9, ror #20
     954:	75667065 	strbvc	r7, [r6, #-101]!	; 0xffffff9b
     958:	695f636e 	ldmdbvs	pc, {r1, r2, r3, r5, r6, r8, r9, sp, lr}^	; <UNPREDICTABLE>
     95c:	7375006e 	cmnvc	r5, #110	; 0x6e
     960:	70655f62 	rsbvc	r5, r5, r2, ror #30
     964:	696e695f 	stmdbvs	lr!, {r0, r1, r2, r3, r4, r6, r8, fp, sp, lr}^
     968:	6f645f74 	svcvs	0x00645f74
     96c:	656c6275 	strbvs	r6, [ip, #-629]!	; 0xfffffd8b
     970:	54584500 	ldrbpl	r4, [r8], #-1280	; 0xfffffb00
     974:	355f3949 	ldrbcc	r3, [pc, #-2377]	; 33 <_Min_Heap_Size+0x33>
     978:	5152495f 	cmppl	r2, pc, asr r9
     97c:	5045006e 	subpl	r0, r5, lr, rrx
     980:	49005234 	stmdbmi	r0, {r2, r4, r5, r9, ip, lr}
     984:	00524543 	subseq	r4, r2, r3, asr #10
     988:	32495053 	subcc	r5, r9, #83	; 0x53
     98c:	5152495f 	cmppl	r2, pc, asr r9
     990:	4149006e 	cmpmi	r9, lr, rrx
     994:	54005242 	strpl	r5, [r0], #-578	; 0xfffffdbe
     998:	5f374d49 	svcpl	0x00374d49
     99c:	6e515249 	cdpvs	2, 5, cr5, cr1, cr9, {2}
     9a0:	414d4400 	cmpmi	sp, r0, lsl #8
     9a4:	68435f31 	stmdavs	r3, {r0, r4, r5, r8, r9, sl, fp, ip, lr}^
     9a8:	656e6e61 	strbvs	r6, [lr, #-3681]!	; 0xfffff19f
     9ac:	495f356c 	ldmdbmi	pc, {r2, r3, r5, r6, r8, sl, ip, sp}^	; <UNPREDICTABLE>
     9b0:	006e5152 	rsbeq	r5, lr, r2, asr r1
     9b4:	42415442 	submi	r5, r1, #1107296256	; 0x42000000
     9b8:	4400454c 	strmi	r4, [r0], #-1356	; 0xfffffab4
     9bc:	495f4341 	ldmdbmi	pc, {r0, r6, r8, r9, lr}^	; <UNPREDICTABLE>
     9c0:	006e5152 	rsbeq	r5, lr, r2, asr r1
     9c4:	745f7065 	ldrbvc	r7, [pc], #-101	; 9cc <_Min_Stack_Size+0x5cc>
     9c8:	00657079 	rsbeq	r7, r5, r9, ror r0
     9cc:	49545845 	ldmdbmi	r4, {r0, r2, r6, fp, ip, lr}^
     9d0:	52495f33 	subpl	r5, r9, #51, 30	; 0xcc
     9d4:	64006e51 	strvs	r6, [r0], #-3665	; 0xfffff1af
     9d8:	695f7269 	ldmdbvs	pc, {r0, r3, r5, r6, r9, ip, sp, lr}^	; <UNPREDICTABLE>
     9dc:	7375006e 	cmnvc	r5, #110	; 0x6e
     9e0:	78745f62 	ldmdavc	r4!, {r1, r5, r6, r8, r9, sl, fp, ip, lr}^
     9e4:	6464615f 	strbtvs	r6, [r4], #-351	; 0xfffffea1
     9e8:	53490072 	movtpl	r0, #36978	; 0x9072
     9ec:	75005250 	strvc	r5, [r0, #-592]	; 0xfffffdb0
     9f0:	725f6273 	subsvc	r6, pc, #805306375	; 0x30000007
     9f4:	6f635f78 	svcvs	0x00635f78
     9f8:	00746e75 	rsbseq	r6, r4, r5, ror lr
     9fc:	6f637872 	svcvs	0x00637872
     a00:	00746e75 	rsbseq	r6, r4, r5, ror lr
     a04:	32414d44 	subcc	r4, r1, #68, 26	; 0x1100
     a08:	6168435f 	cmnvs	r8, pc, asr r3
     a0c:	6c656e6e 	stclvs	14, cr6, [r5], #-440	; 0xfffffe48
     a10:	52495f32 	subpl	r5, r9, #50, 30	; 0xc8
     a14:	55006e51 	strpl	r6, [r0, #-3665]	; 0xfffff1af
     a18:	54524153 	ldrbpl	r4, [r2], #-339	; 0xfffffead
     a1c:	52495f33 	subpl	r5, r9, #51, 30	; 0xcc
     a20:	52006e51 	andpl	r6, r0, #1296	; 0x510
     a24:	52455345 	subpl	r5, r5, #335544321	; 0x14000001
     a28:	38444556 	stmdacc	r4, {r1, r2, r4, r6, r8, sl, lr}^
     a2c:	42535500 	subsmi	r5, r3, #0, 10
     a30:	5f504c5f 	svcpl	0x00504c5f
     a34:	6e515249 	cdpvs	2, 5, cr5, cr1, cr9, {2}
     a38:	53455200 	movtpl	r5, #20992	; 0x5200
     a3c:	45565245 	ldrbmi	r5, [r6, #-581]	; 0xfffffdbb
     a40:	52004244 	andpl	r4, r0, #68, 4	; 0x40000004
     a44:	52455345 	subpl	r5, r5, #335544321	; 0x14000001
     a48:	43444556 	movtmi	r4, #17750	; 0x4556
     a4c:	72617000 	rsbvc	r7, r1, #0
     a50:	00797469 	rsbseq	r7, r9, r9, ror #8
     a54:	5f627375 	svcpl	0x00627375
     a58:	725f7065 	subsvc	r7, pc, #101	; 0x65
     a5c:	5f646165 	svcpl	0x00646165
     a60:	62756f64 	rsbsvs	r6, r5, #100, 30	; 0x190
     a64:	6600656c 	strvs	r6, [r0], -ip, ror #10
     a68:	3875746d 	ldmdacc	r5!, {r0, r2, r3, r5, r6, sl, ip, sp, lr}^
     a6c:	6e6f5f00 	cdpvs	15, 6, cr5, cr15, cr0, {0}
     a70:	6978655f 	ldmdbvs	r8!, {r0, r1, r2, r3, r4, r6, r8, sl, sp, lr}^
     a74:	72615f74 	rsbvc	r5, r1, #116, 30	; 0x1d0
     a78:	5f007367 	svcpl	0x00007367
     a7c:	6f746377 	svcvs	0x00746377
     a80:	735f626d 	cmpvc	pc, #-805306362	; 0xd0000006
     a84:	65746174 	ldrbvs	r6, [r4, #-372]!	; 0xfffffe8c
     a88:	6d6e5f00 	stclvs	15, cr5, [lr, #-0]
     a8c:	6f6c6c61 	svcvs	0x006c6c61
     a90:	725f0063 	subsvc	r0, pc, #99	; 0x63
     a94:	62003834 	andvs	r3, r0, #52, 16	; 0x340000
     a98:	72647561 	rsbvc	r7, r4, #406847488	; 0x18400000
     a9c:	00657461 	rsbeq	r7, r5, r1, ror #8
     aa0:	6769735f 			; <UNDEFINED> instruction: 0x6769735f
     aa4:	5f6c616e 	svcpl	0x006c616e
     aa8:	00667562 	rsbeq	r7, r6, r2, ror #10
     aac:	66626c5f 			; <UNDEFINED> instruction: 0x66626c5f
     ab0:	657a6973 	ldrbvs	r6, [sl, #-2419]!	; 0xfffff68d
     ab4:	6c665f00 	stclvs	15, cr5, [r6], #-0
     ab8:	00736761 	rsbseq	r6, r3, r1, ror #14
     abc:	74736574 	ldrbtvc	r6, [r3], #-1396	; 0xfffffa8c
     ac0:	74616400 	strbtvc	r6, [r1], #-1024	; 0xfffffc00
     ac4:	756f5f61 	strbvc	r5, [pc, #-3937]!	; fffffb6b <BootRAM+0xef7030c>
     ac8:	61635f74 	smcvs	13812	; 0x35f4
     acc:	61626c6c 	cmnvs	r2, ip, ror #24
     ad0:	75006b63 	strvc	r6, [r0, #-2915]	; 0xfffff49d
     ad4:	655f6273 	ldrbvs	r6, [pc, #-627]	; 869 <_Min_Stack_Size+0x469>
     ad8:	72775f70 	rsbsvc	r5, r7, #112, 30	; 0x1c0
     adc:	5f657469 	svcpl	0x00657469
     ae0:	62756f64 	rsbsvs	r6, r5, #100, 30	; 0x190
     ae4:	6300656c 	movwvs	r6, #1388	; 0x56c
     ae8:	635f6c74 	cmpvs	pc, #116, 24	; 0x7400
     aec:	626c6c61 	rsbvs	r6, ip, #24832	; 0x6100
     af0:	006b6361 	rsbeq	r6, fp, r1, ror #6
     af4:	434f4c5f 	movtmi	r4, #64607	; 0xfc5f
     af8:	45525f4b 	ldrbmi	r5, [r2, #-3915]	; 0xfffff0b5
     afc:	53525543 	cmppl	r2, #281018368	; 0x10c00000
     b00:	5f455649 	svcpl	0x00455649
     b04:	6d5f0054 	ldclvs	0, cr0, [pc, #-336]	; 9bc <_Min_Stack_Size+0x5bc>
     b08:	656c7262 	strbvs	r7, [ip, #-610]!	; 0xfffffd9e
     b0c:	74735f6e 	ldrbtvc	r5, [r3], #-3950	; 0xfffff092
     b10:	00657461 	rsbeq	r7, r5, r1, ror #8
     b14:	6474735f 	ldrbtvs	r7, [r4], #-863	; 0xfffffca1
     b18:	0074756f 	rsbseq	r7, r4, pc, ror #10
     b1c:	6f70665f 	svcvs	0x0070665f
     b20:	00745f73 	rsbseq	r5, r4, r3, ror pc
     b24:	2f637273 	svccs	0x00637273
     b28:	5f627375 	svcpl	0x00627375
     b2c:	73616c63 	cmnvc	r1, #25344	; 0x6300
     b30:	64635f73 	strbtvs	r5, [r3], #-3955	; 0xfffff08d
     b34:	00632e63 	rsbeq	r2, r3, r3, ror #28
     b38:	736e665f 	cmnvc	lr, #99614720	; 0x5f00000
     b3c:	6f635f00 	svcvs	0x00635f00
     b40:	65696b6f 	strbvs	r6, [r9, #-2927]!	; 0xfffff491
     b44:	63646300 	cmnvs	r4, #0, 6
     b48:	6e696c5f 	mcrvs	12, 3, r6, cr9, cr15, {2}
     b4c:	646f6365 	strbtvs	r6, [pc], #-869	; b54 <_Min_Stack_Size+0x754>
     b50:	00676e69 	rsbeq	r6, r7, r9, ror #28
     b54:	6d745f5f 	ldclvs	15, cr5, [r4, #-380]!	; 0xfffffe84
     b58:	6164775f 	cmnvs	r4, pc, asr r7
     b5c:	725f0079 	subsvc	r0, pc, #121	; 0x79
     b60:	6c757365 	ldclvs	3, cr7, [r5], #-404	; 0xfffffe6c
     b64:	5f5f0074 	svcpl	0x005f0074
     b68:	454c4946 	strbmi	r4, [ip, #-2374]	; 0xfffff6ba
     b6c:	745f5f00 	ldrbvc	r5, [pc], #-3840	; b74 <_Min_Stack_Size+0x774>
     b70:	6f685f6d 	svcvs	0x00685f6d
     b74:	5f007275 	svcpl	0x00007275
     b78:	756f635f 	strbvc	r6, [pc, #-863]!	; 821 <_Min_Stack_Size+0x421>
     b7c:	5f00746e 	svcpl	0x0000746e
     b80:	5f6d745f 	svcpl	0x006d745f
     b84:	006e696d 	rsbeq	r6, lr, sp, ror #18
     b88:	78656e5f 	stmdavc	r5!, {r0, r1, r2, r3, r4, r6, r9, sl, fp, sp, lr}^
     b8c:	5f006674 	svcpl	0x00006674
     b90:	646e6172 	strbtvs	r6, [lr], #-370	; 0xfffffe8e
     b94:	5f003834 	svcpl	0x00003834
     b98:	75736572 	ldrbvc	r6, [r3, #-1394]!	; 0xfffffa8e
     b9c:	6b5f746c 	blvs	17ddd54 <_Min_Stack_Size+0x17dd954>
     ba0:	42535500 	subsmi	r5, r3, #0, 10
     ba4:	6e6f435f 	mcrvs	3, 3, r4, cr15, cr15, {2}
     ba8:	44676966 	strbtmi	r6, [r7], #-2406	; 0xfffff69a
     bac:	72637365 	rsbvc	r7, r3, #-1811939327	; 0x94000001
     bb0:	6f747069 	svcvs	0x00747069
     bb4:	615f0072 	cmpvs	pc, r2, ror r0	; <UNPREDICTABLE>
     bb8:	69746373 	ldmdbvs	r4!, {r0, r1, r4, r5, r6, r8, r9, sp, lr}^
     bbc:	625f656d 	subsvs	r6, pc, #457179136	; 0x1b400000
     bc0:	5f006675 	svcpl	0x00006675
     bc4:	4946735f 	stmdbmi	r6, {r0, r1, r2, r3, r4, r6, r8, r9, ip, sp, lr}^
     bc8:	5f00454c 	svcpl	0x0000454c
     bcc:	00736477 	rsbseq	r6, r3, r7, ror r4
     bd0:	6565735f 	strbvs	r7, [r5, #-863]!	; 0xfffffca1
     bd4:	755f006b 	ldrbvc	r0, [pc, #-107]	; b71 <_Min_Stack_Size+0x771>
     bd8:	00667562 	rsbeq	r7, r6, r2, ror #10
     bdc:	656d655f 	strbvs	r6, [sp, #-1375]!	; 0xfffffaa1
     be0:	6e656772 	mcrvs	7, 3, r6, cr5, cr2, {3}
     be4:	5f007963 	svcpl	0x00007963
     be8:	5f6d745f 	svcpl	0x006d745f
     bec:	00636573 	rsbeq	r6, r3, r3, ror r5
     bf0:	6d745f5f 	ldclvs	15, cr5, [r4, #-380]!	; 0xfffffe84
     bf4:	6164795f 	cmnvs	r4, pc, asr r9
     bf8:	695f0079 	ldmdbvs	pc, {r0, r3, r4, r5, r6}^	; <UNPREDICTABLE>
     bfc:	5f00636e 	svcpl	0x0000636e
     c00:	00646e69 	rsbeq	r6, r4, r9, ror #28
     c04:	73626d5f 	cmnvc	r2, #6080	; 0x17c0
     c08:	776f7472 			; <UNDEFINED> instruction: 0x776f7472
     c0c:	735f7363 	cmpvc	pc, #-1946157055	; 0x8c000001
     c10:	65746174 	ldrbvs	r6, [r4, #-372]!	; 0xfffffe8c
     c14:	765f5f00 	ldrbvc	r5, [pc], -r0, lsl #30
     c18:	65756c61 	ldrbvs	r6, [r5, #-3169]!	; 0xfffff39f
     c1c:	35705f00 	ldrbcc	r5, [r0, #-3840]!	; 0xfffff100
     c20:	6d5f0073 	ldclvs	0, cr0, [pc, #-460]	; a5c <_Min_Stack_Size+0x65c>
     c24:	6e656c62 	cdpvs	12, 6, cr6, cr5, cr2, {3}
     c28:	6174735f 	cmnvs	r4, pc, asr r3
     c2c:	5f006574 	svcpl	0x00006574
     c30:	5f6d745f 	svcpl	0x006d745f
     c34:	7961646d 	stmdbvc	r1!, {r0, r2, r3, r5, r6, sl, sp, lr}^
     c38:	69735f00 	ldmdbvs	r3!, {r8, r9, sl, fp, ip, lr}^
     c3c:	75665f67 	strbvc	r5, [r6, #-3943]!	; 0xfffff099
     c40:	5f00636e 	svcpl	0x0000636e
     c44:	7472626d 	ldrbtvc	r6, [r2], #-621	; 0xfffffd93
     c48:	5f63776f 	svcpl	0x0063776f
     c4c:	74617473 	strbtvc	r7, [r1], #-1139	; 0xfffffb8d
     c50:	615f0065 	cmpvs	pc, r5, rrx
     c54:	69786574 	ldmdbvs	r8!, {r2, r4, r5, r6, r8, sl, sp, lr}^
     c58:	5f003074 	svcpl	0x00003074
     c5c:	636f6c66 	cmnvs	pc, #26112	; 0x6600
     c60:	00745f6b 	rsbseq	r5, r4, fp, ror #30
     c64:	63775f5f 	cmnvs	r7, #380	; 0x17c
     c68:	695f0068 	ldmdbvs	pc, {r3, r5, r6}^	; <UNPREDICTABLE>
     c6c:	0073626f 	rsbseq	r6, r3, pc, ror #4
     c70:	6f6c635f 	svcvs	0x006c635f
     c74:	5f006573 	svcpl	0x00006573
     c78:	6964735f 	stmdbvs	r4!, {r0, r1, r2, r3, r4, r6, r8, r9, ip, sp, lr}^
     c7c:	696e6964 	stmdbvs	lr!, {r2, r5, r6, r8, fp, sp, lr}^
     c80:	735f0074 	cmpvc	pc, #116	; 0x74
     c84:	6e696474 	mcrvs	4, 3, r6, cr9, cr4, {3}
     c88:	61675f00 	cmnvs	r7, r0, lsl #30
     c8c:	5f616d6d 	svcpl	0x00616d6d
     c90:	6e676973 			; <UNDEFINED> instruction: 0x6e676973
     c94:	006d6167 	rsbeq	r6, sp, r7, ror #2
     c98:	7361625f 	cmnvc	r1, #-268435451	; 0xf0000005
     c9c:	665f0065 	ldrbvs	r0, [pc], -r5, rrx
     ca0:	6c656572 	cfstr64vs	mvdx6, [r5], #-456	; 0xfffffe38
     ca4:	00747369 	rsbseq	r7, r4, r9, ror #6
     ca8:	6c756d5f 	ldclvs	13, cr6, [r5], #-380	; 0xfffffe84
     cac:	5f5f0074 	svcpl	0x005f0074
     cb0:	6e6f4c55 	mcrvs	12, 3, r4, cr15, cr5, {2}
     cb4:	775f0067 	ldrbvc	r0, [pc, -r7, rrx]
     cb8:	6f747263 	svcvs	0x00747263
     cbc:	735f626d 	cmpvc	pc, #-805306362	; 0xd0000006
     cc0:	65746174 	ldrbvs	r6, [r4, #-372]!	; 0xfffffe8c
     cc4:	69665f00 	stmdbvs	r6!, {r8, r9, sl, fp, ip, lr}^
     cc8:	5f00656c 	svcpl	0x0000656c
     ccc:	656c635f 	strbvs	r6, [ip, #-863]!	; 0xfffffca1
     cd0:	70756e61 	rsbsvc	r6, r5, r1, ror #28
     cd4:	626d5f00 	rsbvs	r5, sp, #0, 30
     cd8:	74617473 	strbtvc	r7, [r1], #-1139	; 0xfffffb8d
     cdc:	00745f65 	rsbseq	r5, r4, r5, ror #30
     ce0:	6d745f5f 	ldclvs	15, cr5, [r4, #-380]!	; 0xfffffe84
     ce4:	6473695f 	ldrbtvs	r6, [r3], #-2399	; 0xfffff6a1
     ce8:	5f007473 	svcpl	0x00007473
     cec:	72736377 	rsbsvc	r6, r3, #-603979775	; 0xdc000001
     cf0:	626d6f74 	rsbvs	r6, sp, #116, 30	; 0x1d0
     cf4:	74735f73 	ldrbtvc	r5, [r3], #-3955	; 0xfffff08d
     cf8:	00657461 	rsbeq	r7, r5, r1, ror #8
     cfc:	655f685f 	ldrbvs	r6, [pc, #-2143]	; 4a5 <_Min_Stack_Size+0xa5>
     d00:	6f6e7272 	svcvs	0x006e7272
     d04:	745f5f00 	ldrbvc	r5, [pc], #-3840	; d0c <_Min_Stack_Size+0x90c>
     d08:	6f6d5f6d 	svcvs	0x006d5f6d
     d0c:	6f6c006e 	svcvs	0x006c006e
     d10:	6420676e 	strtvs	r6, [r0], #-1902	; 0xfffff892
     d14:	6c62756f 	cfstr64vs	mvdx7, [r2], #-444	; 0xfffffe44
     d18:	615f0065 	cmpvs	pc, r5, rrx
     d1c:	69786574 	ldmdbvs	r8!, {r2, r4, r5, r6, r8, sl, sp, lr}^
     d20:	6d5f0074 	ldclvs	0, cr0, [pc, #-464]	; b58 <_Min_Stack_Size+0x758>
     d24:	61747362 	cmnvs	r4, r2, ror #6
     d28:	5f006574 	svcpl	0x00006574
     d2c:	69676942 	stmdbvs	r7!, {r1, r6, r8, fp, sp, lr}^
     d30:	6200746e 	andvs	r7, r0, #1845493760	; 0x6e000000
     d34:	69727453 	ldmdbvs	r2!, {r0, r1, r4, r6, sl, ip, sp, lr}^
     d38:	5f00676e 	svcpl	0x0000676e
     d3c:	0066735f 	rsbeq	r7, r6, pc, asr r3
     d40:	6769735f 			; <UNDEFINED> instruction: 0x6769735f
     d44:	645f006e 	ldrbvs	r0, [pc], #-110	; d4c <_Min_Stack_Size+0x94c>
     d48:	00617461 	rsbeq	r7, r1, r1, ror #8
     d4c:	63775f5f 	cmnvs	r7, #380	; 0x17c
     d50:	5f006268 	svcpl	0x00006268
     d54:	626f6c67 	rsbvs	r6, pc, #26368	; 0x6700
     d58:	695f6c61 	ldmdbvs	pc, {r0, r5, r6, sl, fp, sp, lr}^	; <UNPREDICTABLE>
     d5c:	7275706d 	rsbsvc	r7, r5, #109	; 0x6d
     d60:	74705f65 	ldrbtvc	r5, [r0], #-3941	; 0xfffff09b
     d64:	5f5f0072 	svcpl	0x005f0072
     d68:	795f6d74 	ldmdbvc	pc, {r2, r4, r5, r6, r8, sl, fp, sp, lr}^	; <UNPREDICTABLE>
     d6c:	00726165 	rsbseq	r6, r2, r5, ror #2
     d70:	66666f5f 	uqsaxvs	r6, r6, pc	; <UNPREDICTABLE>
     d74:	00746573 	rsbseq	r6, r4, r3, ror r5
     d78:	5f425355 	svcpl	0x00425355
     d7c:	69727453 	ldmdbvs	r2!, {r0, r1, r4, r6, sl, ip, sp, lr}^
     d80:	6553676e 	ldrbvs	r6, [r3, #-1902]	; 0xfffff892
     d84:	6c616972 			; <UNDEFINED> instruction: 0x6c616972
     d88:	63736544 	cmnvs	r3, #68, 10	; 0x11000000
     d8c:	74706972 	ldrbtvc	r6, [r0], #-2418	; 0xfffff68e
     d90:	5f00726f 	svcpl	0x0000726f
     d94:	61636f6c 	cmnvs	r3, ip, ror #30
     d98:	6d69746c 	cfstrdvs	mvd7, [r9, #-432]!	; 0xfffffe50
     d9c:	75625f65 	strbvc	r5, [r2, #-3941]!	; 0xfffff09b
     da0:	53550066 	cmppl	r5, #102	; 0x66
     da4:	74535f42 	ldrbvc	r5, [r3], #-3906	; 0xfffff0be
     da8:	676e6972 			; <UNDEFINED> instruction: 0x676e6972
     dac:	676e614c 	strbvs	r6, [lr, -ip, asr #2]!
     db0:	63736544 	cmnvs	r3, #68, 10	; 0x11000000
     db4:	74706972 	ldrbtvc	r6, [r0], #-2418	; 0xfffff68e
     db8:	5f00726f 	svcpl	0x0000726f
     dbc:	73756e75 	cmnvc	r5, #1872	; 0x750
     dc0:	5f006465 	svcpl	0x00006465
     dc4:	0077656e 	rsbseq	r6, r7, lr, ror #10
     dc8:	7476635f 	ldrbtvc	r6, [r6], #-863	; 0xfffffca1
     dcc:	006e656c 	rsbeq	r6, lr, ip, ror #10
     dd0:	78616d5f 	stmdavc	r1!, {r0, r1, r2, r3, r4, r6, r8, sl, fp, sp, lr}^
     dd4:	00736477 	rsbseq	r6, r3, r7, ror r4
     dd8:	34366c5f 	ldrtcc	r6, [r6], #-3167	; 0xfffff3a1
     ddc:	75625f61 	strbvc	r5, [r2, #-3937]!	; 0xfffff09f
     de0:	625f0066 	subsvs	r0, pc, #102	; 0x66
     de4:	69736b6c 	ldmdbvs	r3!, {r2, r3, r5, r6, r8, r9, fp, sp, lr}^
     de8:	5f00657a 	svcpl	0x0000657a
     dec:	006d745f 	rsbeq	r7, sp, pc, asr r4
     df0:	636f6c5f 	cmnvs	pc, #24320	; 0x5f00
     df4:	5355006b 	cmppl	r5, #107	; 0x6b
     df8:	65445f42 	strbvs	r5, [r4, #-3906]	; 0xfffff0be
     dfc:	65636976 	strbvs	r6, [r3, #-2422]!	; 0xfffff68a
     e00:	6c617551 	cfstr64vs	mvdx7, [r1], #-324	; 0xfffffebc
     e04:	65696669 	strbvs	r6, [r9, #-1641]!	; 0xfffff997
     e08:	73654472 	cmnvc	r5, #1912602624	; 0x72000000
     e0c:	70697263 	rsbvc	r7, r9, r3, ror #4
     e10:	00726f74 	rsbseq	r6, r2, r4, ror pc
     e14:	6f696e5f 	svcvs	0x00696e5f
     e18:	5f007362 	svcpl	0x00007362
     e1c:	5f6f7364 	svcpl	0x006f7364
     e20:	646e6168 	strbtvs	r6, [lr], #-360	; 0xfffffe98
     e24:	5f00656c 	svcpl	0x0000656c
     e28:	62747663 	rsbsvs	r7, r4, #103809024	; 0x6300000
     e2c:	5f006675 	svcpl	0x00006675
     e30:	64746567 	ldrbtvs	r6, [r4], #-1383	; 0xfffffa99
     e34:	5f657461 	svcpl	0x00657461
     e38:	00727265 	rsbseq	r7, r2, r5, ror #4
     e3c:	64726f77 	ldrbtvs	r6, [r2], #-3959	; 0xfffff089
     e40:	657a6973 	ldrbvs	r6, [sl, #-2419]!	; 0xfffff68d
     e44:	42535500 	subsmi	r5, r3, #0, 10
     e48:	7665445f 			; <UNDEFINED> instruction: 0x7665445f
     e4c:	44656369 	strbtmi	r6, [r5], #-873	; 0xfffffc97
     e50:	72637365 	rsbvc	r7, r3, #-1811939327	; 0x94000001
     e54:	6f747069 	svcvs	0x00747069
     e58:	615f0072 	cmpvs	pc, r2, ror r0	; <UNPREDICTABLE>
     e5c:	64006464 	strvs	r6, [r0], #-1124	; 0xfffffb9c
     e60:	5f617461 	svcpl	0x00617461
     e64:	635f6e69 	cmpvs	pc, #1680	; 0x690
     e68:	626c6c61 	rsbvs	r6, ip, #24832	; 0x6100
     e6c:	006b6361 	rsbeq	r6, fp, r1, ror #6
     e70:	73654462 	cmnvc	r5, #1644167168	; 0x62000000
     e74:	70697263 	rsbvc	r7, r9, r3, ror #4
     e78:	54726f74 	ldrbtpl	r6, [r2], #-3956	; 0xfffff08c
     e7c:	00657079 	rsbeq	r7, r5, r9, ror r0
     e80:	62735f5f 	rsbsvs	r5, r3, #380	; 0x17c
     e84:	55006675 	strpl	r6, [r0, #-1653]	; 0xfffff98b
     e88:	535f4253 	cmppl	pc, #805306373	; 0x30000005
     e8c:	6e697274 	mcrvs	2, 3, r7, cr9, cr4, {3}
     e90:	6e614d67 	cdpvs	13, 6, cr4, cr1, cr7, {3}
     e94:	63616675 	cmnvs	r1, #122683392	; 0x7500000
     e98:	69727574 	ldmdbvs	r2!, {r2, r4, r5, r6, r8, sl, ip, sp, lr}^
     e9c:	6544676e 	strbvs	r6, [r4, #-1902]	; 0xfffff892
     ea0:	69726373 	ldmdbvs	r2!, {r0, r1, r4, r5, r6, r8, r9, sp, lr}^
     ea4:	726f7470 	rsbvc	r7, pc, #112, 8	; 0x70000000
     ea8:	6c675f00 	stclvs	15, cr5, [r7], #-0
     eac:	5f006575 	svcpl	0x00006575
     eb0:	6c67735f 	stclvs	3, cr7, [r7], #-380	; 0xfffffe84
     eb4:	5f006575 	svcpl	0x00006575
     eb8:	74727473 	ldrbtvc	r7, [r2], #-1139	; 0xfffffb8d
     ebc:	6c5f6b6f 	mrrcvs	11, 6, r6, pc, cr15	; <UNPREDICTABLE>
     ec0:	00747361 	rsbseq	r7, r4, r1, ror #6
     ec4:	74626d5f 	strbtvc	r6, [r2], #-3423	; 0xfffff2a1
     ec8:	5f63776f 	svcpl	0x0063776f
     ecc:	74617473 	strbtvc	r7, [r1], #-1139	; 0xfffffb8d
     ed0:	6c5f0065 	mrrcvs	0, 6, r0, pc, cr5	; <UNPREDICTABLE>
     ed4:	6c61636f 	stclvs	3, cr6, [r1], #-444	; 0xfffffe44
     ed8:	665f0065 	ldrbvs	r0, [pc], -r5, rrx
     edc:	6772616e 	ldrbvs	r6, [r2, -lr, ror #2]!
     ee0:	725f0073 	subsvc	r0, pc, #115	; 0x73
     ee4:	746e6565 	strbtvc	r6, [lr], #-1381	; 0xfffffa9b
     ee8:	42535500 	subsmi	r5, r3, #0, 10
     eec:	7274535f 	rsbsvc	r5, r4, #2080374785	; 0x7c000001
     ef0:	50676e69 	rsbpl	r6, r7, r9, ror #28
     ef4:	44646f72 	strbtmi	r6, [r4], #-3954	; 0xfffff08e
     ef8:	72637365 	rsbvc	r7, r3, #-1811939327	; 0x94000001
     efc:	6f747069 	svcvs	0x00747069
     f00:	665f0072 			; <UNDEFINED> instruction: 0x665f0072
     f04:	7079746e 	rsbsvc	r7, r9, lr, ror #8
     f08:	5f007365 	svcpl	0x00007365
     f0c:	5f66666f 	svcpl	0x0066666f
     f10:	6e5f0074 	mrcvs	0, 2, r0, cr15, cr4, {3}
     f14:	00667562 	rsbeq	r7, r6, r2, ror #10
     f18:	756e755f 	strbvc	r7, [lr, #-1375]!	; 0xfffffaa1
     f1c:	5f646573 	svcpl	0x00646573
     f20:	646e6172 	strbtvs	r6, [lr], #-370	; 0xfffffe8e
     f24:	654c6200 	strbvs	r6, [ip, #-512]	; 0xfffffe00
     f28:	6874676e 	ldmdavs	r4!, {r1, r2, r3, r5, r6, r8, r9, sl, sp, lr}^
     f2c:	6e755f00 	cdpvs	15, 7, cr5, cr5, cr0, {0}
     f30:	63657073 	cmnvs	r5, #115	; 0x73
     f34:	65696669 	strbvs	r6, [r9, #-1641]!	; 0xfffff997
     f38:	6f6c5f64 	svcvs	0x006c5f64
     f3c:	656c6163 	strbvs	r6, [ip, #-355]!	; 0xfffffe9d
     f40:	666e695f 			; <UNDEFINED> instruction: 0x666e695f
     f44:	665f006f 	ldrbvs	r0, [pc], -pc, rrx
     f48:	7367616c 	cmnvc	r7, #108, 2
     f4c:	695f0032 	ldmdbvs	pc, {r1, r4, r5}^	; <UNPREDICTABLE>
     f50:	78635f73 	stmdavc	r3!, {r0, r1, r4, r5, r6, r8, r9, sl, fp, ip, lr}^
     f54:	735f0061 	cmpvc	pc, #97	; 0x61
     f58:	00646565 	rsbeq	r6, r4, r5, ror #10
     f5c:	6e61725f 	mcrvs	2, 3, r7, cr1, cr15, {2}
     f60:	656e5f64 	strbvs	r5, [lr, #-3940]!	; 0xfffff09c
     f64:	5f007478 	svcpl	0x00007478
     f68:	636f6c5f 	cmnvs	pc, #24320	; 0x5f00
     f6c:	5f656c61 	svcpl	0x00656c61
     f70:	735f0074 	cmpvc	pc, #116	; 0x74
     f74:	72656474 	rsbvc	r6, r5, #116, 8	; 0x74000000
     f78:	69770072 	ldmdbvs	r7!, {r1, r4, r5, r6}^
     f7c:	745f746e 	ldrbvc	r7, [pc], #-1134	; f84 <_Min_Stack_Size+0xb84>
     f80:	6f747300 	svcvs	0x00747300
     f84:	74696270 	strbtvc	r6, [r9], #-624	; 0xfffffd90
     f88:	5f5f0073 	svcpl	0x005f0073
     f8c:	74696e69 	strbtvc	r6, [r9], #-3689	; 0xfffff197
     f90:	7272615f 	rsbsvc	r6, r2, #-1073741801	; 0xc0000017
     f94:	735f7961 	cmpvc	pc, #1589248	; 0x184000
     f98:	74726174 	ldrbtvc	r6, [r2], #-372	; 0xfffffe8c
     f9c:	7a697300 	bvc	1a5dba4 <_Min_Stack_Size+0x1a5d7a4>
     fa0:	00745f65 	rsbseq	r5, r4, r5, ror #30
     fa4:	696c5f5f 	stmdbvs	ip!, {r0, r1, r2, r3, r4, r6, r8, r9, sl, fp, ip, lr}^
     fa8:	695f6362 	ldmdbvs	pc, {r1, r5, r6, r8, r9, sp, lr}^	; <UNPREDICTABLE>
     fac:	5f74696e 	svcpl	0x0074696e
     fb0:	61727261 	cmnvs	r2, r1, ror #4
     fb4:	622f0079 	eorvs	r0, pc, #121	; 0x79
     fb8:	646c6975 	strbtvs	r6, [ip], #-2421	; 0xfffff68b
     fbc:	77656e2f 	strbvc	r6, [r5, -pc, lsr #28]!
     fc0:	2d62696c 			; <UNDEFINED> instruction: 0x2d62696c
     fc4:	7667476b 	strbtvc	r4, [r7], -fp, ror #14
     fc8:	6e2f4577 	mcrvs	5, 1, r4, cr15, cr7, {3}
     fcc:	696c7765 	stmdbvs	ip!, {r0, r2, r5, r6, r8, r9, sl, ip, sp, lr}^
     fd0:	2e332d62 	cdpcs	13, 3, cr2, cr3, cr2, {3}
     fd4:	2f302e33 	svccs	0x00302e33
     fd8:	6c697562 	cfstr64vs	mvdx7, [r9], #-392	; 0xfffffe78
     fdc:	616e5f64 	cmnvs	lr, r4, ror #30
     fe0:	612f6f6e 			; <UNDEFINED> instruction: 0x612f6f6e
     fe4:	6e2d6d72 	mcrvs	13, 1, r6, cr13, cr2, {3}
     fe8:	2d656e6f 	stclcs	14, cr6, [r5, #-444]!	; 0xfffffe44
     fec:	69626165 	stmdbvs	r2!, {r0, r2, r5, r6, r8, sp, lr}^
     ff0:	7568742f 	strbvc	r7, [r8, #-1071]!	; 0xfffffbd1
     ff4:	762f626d 	strtvc	r6, [pc], -sp, ror #4
     ff8:	2f6d2d37 	svccs	0x006d2d37
     ffc:	70666f6e 	rsbvc	r6, r6, lr, ror #30
    1000:	77656e2f 	strbvc	r6, [r5, -pc, lsr #28]!
    1004:	2f62696c 	svccs	0x0062696c
    1008:	6362696c 	cmnvs	r2, #108, 18	; 0x1b0000
    100c:	73696d2f 	cmnvc	r9, #3008	; 0xbc0
    1010:	5f5f0063 	svcpl	0x005f0063
    1014:	69657270 	stmdbvs	r5!, {r4, r5, r6, r9, ip, sp, lr}^
    1018:	5f74696e 	svcpl	0x0074696e
    101c:	61727261 	cmnvs	r2, r1, ror #4
    1020:	74735f79 	ldrbtvc	r5, [r3], #-3961	; 0xfffff087
    1024:	00747261 	rsbseq	r7, r4, r1, ror #4
    1028:	20554e47 	subscs	r4, r5, r7, asr #28
    102c:	20373143 	eorscs	r3, r7, r3, asr #2
    1030:	2e332e38 	mrccs	14, 1, r2, cr3, cr8, {1}
    1034:	30322031 	eorscc	r2, r2, r1, lsr r0
    1038:	37303931 			; <UNDEFINED> instruction: 0x37303931
    103c:	28203330 	stmdacs	r0!, {r4, r5, r8, r9, ip, sp}
    1040:	656c6572 	strbvs	r6, [ip, #-1394]!	; 0xfffffa8e
    1044:	29657361 	stmdbcs	r5!, {r0, r5, r6, r8, r9, ip, sp, lr}^
    1048:	63675b20 	cmnvs	r7, #32, 22	; 0x8000
    104c:	2d382d63 	ldccs	13, cr2, [r8, #-396]!	; 0xfffffe74
    1050:	6e617262 	cdpvs	2, 6, cr7, cr1, cr2, {3}
    1054:	72206863 	eorvc	r6, r0, #6488064	; 0x630000
    1058:	73697665 	cmnvc	r9, #105906176	; 0x6500000
    105c:	206e6f69 	rsbcs	r6, lr, r9, ror #30
    1060:	30333732 	eorscc	r3, r3, r2, lsr r7
    1064:	205d3732 	subscs	r3, sp, r2, lsr r7
    1068:	6c666d2d 	stclvs	13, cr6, [r6], #-180	; 0xffffff4c
    106c:	2d74616f 	ldfcse	f6, [r4, #-444]!	; 0xfffffe44
    1070:	3d696261 	sfmcc	f6, 2, [r9, #-388]!	; 0xfffffe7c
    1074:	74666f73 	strbtvc	r6, [r6], #-3955	; 0xfffff08d
    1078:	746d2d20 	strbtvc	r2, [sp], #-3360	; 0xfffff2e0
    107c:	626d7568 	rsbvs	r7, sp, #104, 10	; 0x1a000000
    1080:	666d2d20 	strbtvs	r2, [sp], -r0, lsr #26
    1084:	74616f6c 	strbtvc	r6, [r1], #-3948	; 0xfffff094
    1088:	6962612d 	stmdbvs	r2!, {r0, r2, r3, r5, r8, sp, lr}^
    108c:	666f733d 			; <UNDEFINED> instruction: 0x666f733d
    1090:	6d2d2074 	stcvs	0, cr2, [sp, #-464]!	; 0xfffffe30
    1094:	68637261 	stmdavs	r3!, {r0, r5, r6, r9, ip, sp, lr}^
    1098:	6d72613d 	ldfvse	f6, [r2, #-244]!	; 0xffffff0c
    109c:	6d2d3776 	stcvs	7, cr3, [sp, #-472]!	; 0xfffffe28
    10a0:	20672d20 	rsbcs	r2, r7, r0, lsr #26
    10a4:	20324f2d 	eorscs	r4, r2, sp, lsr #30
    10a8:	6f6e662d 	svcvs	0x006e662d
    10ac:	6975622d 	ldmdbvs	r5!, {r0, r2, r3, r5, r9, sp, lr}^
    10b0:	6e69746c 	cdpvs	4, 6, cr7, cr9, cr12, {3}
    10b4:	705f5f00 	subsvc	r5, pc, r0, lsl #30
    10b8:	6e696572 	mcrvs	5, 3, r6, cr9, cr2, {3}
    10bc:	615f7469 	cmpvs	pc, r9, ror #8
    10c0:	79617272 	stmdbvc	r1!, {r1, r4, r5, r6, r9, ip, sp, lr}^
    10c4:	646e655f 	strbtvs	r6, [lr], #-1375	; 0xfffffaa1
    10c8:	695f5f00 	ldmdbvs	pc, {r8, r9, sl, fp, ip, lr}^	; <UNPREDICTABLE>
    10cc:	5f74696e 	svcpl	0x0074696e
    10d0:	61727261 	cmnvs	r2, r1, ror #4
    10d4:	6e655f79 	mcrvs	15, 3, r5, cr5, cr9, {3}
    10d8:	2e2e0064 	cdpcs	0, 2, cr0, cr14, cr4, {3}
    10dc:	2f2e2e2f 	svccs	0x002e2e2f
    10e0:	2e2f2e2e 	cdpcs	14, 2, cr2, cr15, cr14, {1}
    10e4:	2e2e2f2e 	cdpcs	15, 2, cr2, cr14, cr14, {1}
    10e8:	2f2e2e2f 	svccs	0x002e2e2f
    10ec:	2e2f2e2e 	cdpcs	14, 2, cr2, cr15, cr14, {1}
    10f0:	656e2f2e 	strbvs	r2, [lr, #-3886]!	; 0xfffff0d2
    10f4:	62696c77 	rsbvs	r6, r9, #30464	; 0x7700
    10f8:	62696c2f 	rsbvs	r6, r9, #12032	; 0x2f00
    10fc:	696d2f63 	stmdbvs	sp!, {r0, r1, r5, r6, r8, r9, sl, fp, sp}^
    1100:	692f6373 	stmdbvs	pc!, {r0, r1, r4, r5, r6, r8, r9, sp, lr}	; <UNPREDICTABLE>
    1104:	2e74696e 	vsubcs.f16	s13, s8, s29	; <UNPREDICTABLE>
    1108:	Address 0x0000000000001108 is out of bounds.


Disassembly of section .comment:

00000000 <.comment>:
   0:	3a434347 	bcc	10d0d24 <_Min_Stack_Size+0x10d0924>
   4:	35312820 	ldrcc	r2, [r1, #-2080]!	; 0xfffff7e0
   8:	322d383a 	eorcc	r3, sp, #3801088	; 0x3a0000
   c:	2d393130 	ldfcss	f3, [r9, #-192]!	; 0xffffff40
  10:	312d3371 			; <UNDEFINED> instruction: 0x312d3371
  14:	2e382029 	cdpcs	0, 3, cr2, cr8, cr9, {1}
  18:	20312e33 	eorscs	r2, r1, r3, lsr lr
  1c:	39313032 	ldmdbcc	r1!, {r1, r4, r5, ip, sp}
  20:	33303730 	teqcc	r0, #48, 14	; 0xc00000
  24:	65722820 	ldrbvs	r2, [r2, #-2080]!	; 0xfffff7e0
  28:	7361656c 	cmnvc	r1, #108, 10	; 0x1b000000
  2c:	5b202965 	blpl	80a5c8 <_Min_Stack_Size+0x80a1c8>
  30:	2d636367 	stclcs	3, cr6, [r3, #-412]!	; 0xfffffe64
  34:	72622d38 	rsbvc	r2, r2, #56, 26	; 0xe00
  38:	68636e61 	stmdavs	r3!, {r0, r5, r6, r9, sl, fp, sp, lr}^
  3c:	76657220 	strbtvc	r7, [r5], -r0, lsr #4
  40:	6f697369 	svcvs	0x00697369
  44:	3732206e 	ldrcc	r2, [r2, -lr, rrx]!
  48:	37323033 			; <UNDEFINED> instruction: 0x37323033
  4c:	Address 0x000000000000004c is out of bounds.


Disassembly of section .debug_frame:

00000000 <.debug_frame>:
   0:	0000000c 	andeq	r0, r0, ip
   4:	ffffffff 			; <UNDEFINED> instruction: 0xffffffff
   8:	7c020001 	stcvc	0, cr0, [r2], {1}
   c:	000d0c0e 	andeq	r0, sp, lr, lsl #24
  10:	0000000c 	andeq	r0, r0, ip
  14:	00000000 	andeq	r0, r0, r0
  18:	08000150 	stmdaeq	r0, {r4, r6, r8}
  1c:	00000098 	muleq	r0, r8, r0
  20:	0000000c 	andeq	r0, r0, ip
  24:	00000000 	andeq	r0, r0, r0
  28:	080001e8 	stmdaeq	r0, {r3, r5, r6, r7, r8}
  2c:	00000124 	andeq	r0, r0, r4, lsr #2
  30:	0000000c 	andeq	r0, r0, ip
  34:	00000000 	andeq	r0, r0, r0
  38:	0800030c 	stmdaeq	r0, {r2, r3, r8, r9}
  3c:	00000048 	andeq	r0, r0, r8, asr #32
  40:	0000000c 	andeq	r0, r0, ip
  44:	00000000 	andeq	r0, r0, r0
  48:	08000354 	stmdaeq	r0, {r2, r4, r6, r8, r9}
  4c:	00000002 	andeq	r0, r0, r2
  50:	0000000c 	andeq	r0, r0, ip
  54:	00000000 	andeq	r0, r0, r0
  58:	08000356 	stmdaeq	r0, {r1, r2, r4, r6, r8, r9}
  5c:	00000002 	andeq	r0, r0, r2
  60:	0000000c 	andeq	r0, r0, ip
  64:	00000000 	andeq	r0, r0, r0
  68:	08000358 	stmdaeq	r0, {r3, r4, r6, r8, r9}
  6c:	0000000c 	andeq	r0, r0, ip
  70:	00000014 	andeq	r0, r0, r4, lsl r0
  74:	00000000 	andeq	r0, r0, r0
  78:	08000c6c 	stmdaeq	r0, {r2, r3, r5, r6, sl, fp}
  7c:	00000084 	andeq	r0, r0, r4, lsl #1
  80:	84080e41 	strhi	r0, [r8], #-3649	; 0xfffff1bf
  84:	00018e02 	andeq	r8, r1, r2, lsl #28
  88:	0000000c 	andeq	r0, r0, ip
  8c:	ffffffff 			; <UNDEFINED> instruction: 0xffffffff
  90:	7c020001 	stcvc	0, cr0, [r2], {1}
  94:	000d0c0e 	andeq	r0, sp, lr, lsl #24
  98:	0000000c 	andeq	r0, r0, ip
  9c:	00000088 	andeq	r0, r0, r8, lsl #1
  a0:	08000364 	stmdaeq	r0, {r2, r5, r6, r8, r9}
  a4:	00000002 	andeq	r0, r0, r2
  a8:	0000000c 	andeq	r0, r0, ip
  ac:	00000088 	andeq	r0, r0, r8, lsl #1
  b0:	08000366 	stmdaeq	r0, {r1, r2, r5, r6, r8, r9}
  b4:	00000002 	andeq	r0, r0, r2
  b8:	0000000c 	andeq	r0, r0, ip
  bc:	00000088 	andeq	r0, r0, r8, lsl #1
  c0:	08000368 	stmdaeq	r0, {r3, r5, r6, r8, r9}
  c4:	00000002 	andeq	r0, r0, r2
  c8:	0000000c 	andeq	r0, r0, ip
  cc:	00000088 	andeq	r0, r0, r8, lsl #1
  d0:	0800036a 	stmdaeq	r0, {r1, r3, r5, r6, r8, r9}
  d4:	00000004 	andeq	r0, r0, r4
  d8:	0000000c 	andeq	r0, r0, ip
  dc:	00000088 	andeq	r0, r0, r8, lsl #1
  e0:	0800036e 	stmdaeq	r0, {r1, r2, r3, r5, r6, r8, r9}
  e4:	00000004 	andeq	r0, r0, r4
  e8:	0000000c 	andeq	r0, r0, ip
  ec:	00000088 	andeq	r0, r0, r8, lsl #1
  f0:	08000372 	stmdaeq	r0, {r1, r4, r5, r6, r8, r9}
  f4:	0000006e 	andeq	r0, r0, lr, rrx
  f8:	0000001c 	andeq	r0, r0, ip, lsl r0
  fc:	00000088 	andeq	r0, r0, r8, lsl #1
 100:	080003e0 	stmdaeq	r0, {r5, r6, r7, r8, r9}
 104:	0000010c 	andeq	r0, r0, ip, lsl #2
 108:	84140e41 	ldrhi	r0, [r4], #-3649	; 0xfffff1bf
 10c:	86048505 	strhi	r8, [r4], -r5, lsl #10
 110:	8e028703 	cdphi	7, 0, cr8, cr2, cr3, {0}
 114:	00000001 	andeq	r0, r0, r1
 118:	0000001c 	andeq	r0, r0, ip, lsl r0
 11c:	00000088 	andeq	r0, r0, r8, lsl #1
 120:	080004ec 	stmdaeq	r0, {r2, r3, r5, r6, r7, sl}
 124:	0000013c 	andeq	r0, r0, ip, lsr r1
 128:	84140e41 	ldrhi	r0, [r4], #-3649	; 0xfffff1bf
 12c:	86048505 	strhi	r8, [r4], -r5, lsl #10
 130:	8e028703 	cdphi	7, 0, cr8, cr2, cr3, {0}
 134:	00000001 	andeq	r0, r0, r1
 138:	00000018 	andeq	r0, r0, r8, lsl r0
 13c:	00000088 	andeq	r0, r0, r8, lsl #1
 140:	08000628 	stmdaeq	r0, {r3, r5, r9, sl}
 144:	00000128 	andeq	r0, r0, r8, lsr #2
 148:	83100e41 	tsthi	r0, #1040	; 0x410
 14c:	85038404 	strhi	r8, [r3, #-1028]	; 0xfffffbfc
 150:	00018e02 	andeq	r8, r1, r2, lsl #28
 154:	0000001c 	andeq	r0, r0, ip, lsl r0
 158:	00000088 	andeq	r0, r0, r8, lsl #1
 15c:	08000750 	stmdaeq	r0, {r4, r6, r8, r9, sl}
 160:	00000054 	andeq	r0, r0, r4, asr r0
 164:	84140e41 	ldrhi	r0, [r4], #-3649	; 0xfffff1bf
 168:	86048505 	strhi	r8, [r4], -r5, lsl #10
 16c:	8e028703 	cdphi	7, 0, cr8, cr2, cr3, {0}
 170:	00000001 	andeq	r0, r0, r1
 174:	0000001c 	andeq	r0, r0, ip, lsl r0
 178:	00000088 	andeq	r0, r0, r8, lsl #1
 17c:	080007a4 	stmdaeq	r0, {r2, r5, r7, r8, r9, sl}
 180:	0000005c 	andeq	r0, r0, ip, asr r0
 184:	83180e41 	tsthi	r8, #1040	; 0x410
 188:	85058406 	strhi	r8, [r5, #-1030]	; 0xfffffbfa
 18c:	87038604 	strhi	r8, [r3, -r4, lsl #12]
 190:	00018e02 	andeq	r8, r1, r2, lsl #28
 194:	00000018 	andeq	r0, r0, r8, lsl r0
 198:	00000088 	andeq	r0, r0, r8, lsl #1
 19c:	08000800 	stmdaeq	r0, {fp}
 1a0:	0000005a 	andeq	r0, r0, sl, asr r0
 1a4:	840c0e41 	strhi	r0, [ip], #-3649	; 0xfffff1bf
 1a8:	8e028503 	cfsh32hi	mvfx8, mvfx2, #3
 1ac:	00000001 	andeq	r0, r0, r1
 1b0:	00000020 	andeq	r0, r0, r0, lsr #32
 1b4:	00000088 	andeq	r0, r0, r8, lsl #1
 1b8:	0800085a 	stmdaeq	r0, {r1, r3, r4, r6, fp}
 1bc:	0000011a 	andeq	r0, r0, sl, lsl r1
 1c0:	84180e41 	ldrhi	r0, [r8], #-3649	; 0xfffff1bf
 1c4:	86038504 	strhi	r8, [r3], -r4, lsl #10
 1c8:	02018e02 	andeq	r8, r1, #2, 28
 1cc:	100e0a46 	andne	r0, lr, r6, asr #20
 1d0:	00000b41 	andeq	r0, r0, r1, asr #22
 1d4:	0000000c 	andeq	r0, r0, ip
 1d8:	ffffffff 			; <UNDEFINED> instruction: 0xffffffff
 1dc:	7c020001 	stcvc	0, cr0, [r2], {1}
 1e0:	000d0c0e 	andeq	r0, sp, lr, lsl #24
 1e4:	0000000c 	andeq	r0, r0, ip
 1e8:	000001d4 	ldrdeq	r0, [r0], -r4
 1ec:	08000974 	stmdaeq	r0, {r2, r4, r5, r6, r8, fp}
 1f0:	00000002 	andeq	r0, r0, r2
 1f4:	0000001c 	andeq	r0, r0, ip, lsl r0
 1f8:	000001d4 	ldrdeq	r0, [r0], -r4
 1fc:	08000976 	stmdaeq	r0, {r1, r2, r4, r5, r6, r8, fp}
 200:	00000056 	andeq	r0, r0, r6, asr r0
 204:	84080e41 	strhi	r0, [r8], #-3649	; 0xfffff1bf
 208:	42018e02 	andmi	r8, r1, #2, 28
 20c:	0a5d480e 	beq	175224c <_Min_Stack_Size+0x1751e4c>
 210:	0b41080e 	bleq	1042250 <_Min_Stack_Size+0x1041e50>
 214:	00000018 	andeq	r0, r0, r8, lsl r0
 218:	000001d4 	ldrdeq	r0, [r0], -r4
 21c:	080009cc 	stmdaeq	r0, {r2, r3, r6, r7, r8, fp}
 220:	00000030 	andeq	r0, r0, r0, lsr r0
 224:	84040e42 	strhi	r0, [r4], #-3650	; 0xfffff1be
 228:	0ec45101 	poleqs	f5, f4, f1
 22c:	00000000 	andeq	r0, r0, r0
 230:	0000000c 	andeq	r0, r0, ip
 234:	000001d4 	ldrdeq	r0, [r0], -r4
 238:	080009fc 	stmdaeq	r0, {r2, r3, r4, r5, r6, r7, r8, fp}
 23c:	0000007c 	andeq	r0, r0, ip, ror r0
 240:	0000000c 	andeq	r0, r0, ip
 244:	000001d4 	ldrdeq	r0, [r0], -r4
 248:	08000a78 	stmdaeq	r0, {r3, r4, r5, r6, r9, fp}
 24c:	00000024 	andeq	r0, r0, r4, lsr #32
 250:	00000014 	andeq	r0, r0, r4, lsl r0
 254:	000001d4 	ldrdeq	r0, [r0], -r4
 258:	08000a9c 	stmdaeq	r0, {r2, r3, r4, r7, r9, fp}
 25c:	00000028 	andeq	r0, r0, r8, lsr #32
 260:	83080e41 	movwhi	r0, #36417	; 0x8e41
 264:	00018e02 	andeq	r8, r1, r2, lsl #28
 268:	00000014 	andeq	r0, r0, r4, lsl r0
 26c:	000001d4 	ldrdeq	r0, [r0], -r4
 270:	08000ac4 	stmdaeq	r0, {r2, r6, r7, r9, fp}
 274:	00000032 	andeq	r0, r0, r2, lsr r0
 278:	84080e49 	strhi	r0, [r8], #-3657	; 0xfffff1b7
 27c:	00018e02 	andeq	r8, r1, r2, lsl #28
 280:	00000018 	andeq	r0, r0, r8, lsl r0
 284:	000001d4 	ldrdeq	r0, [r0], -r4
 288:	08000af6 	stmdaeq	r0, {r1, r2, r4, r5, r6, r7, r9, fp}
 28c:	00000026 	andeq	r0, r0, r6, lsr #32
 290:	84100e41 	ldrhi	r0, [r0], #-3649	; 0xfffff1bf
 294:	4e018e02 	cdpmi	14, 0, cr8, cr1, cr2, {0}
 298:	0000080e 	andeq	r0, r0, lr, lsl #16
 29c:	00000014 	andeq	r0, r0, r4, lsl r0
 2a0:	000001d4 	ldrdeq	r0, [r0], -r4
 2a4:	08000b1c 	stmdaeq	r0, {r2, r3, r4, r8, r9, fp}
 2a8:	00000020 	andeq	r0, r0, r0, lsr #32
 2ac:	84080e41 	strhi	r0, [r8], #-3649	; 0xfffff1bf
 2b0:	00018e02 	andeq	r8, r1, r2, lsl #28
 2b4:	00000018 	andeq	r0, r0, r8, lsl r0
 2b8:	000001d4 	ldrdeq	r0, [r0], -r4
 2bc:	08000b3c 	stmdaeq	r0, {r2, r3, r4, r5, r8, r9, fp}
 2c0:	00000038 	andeq	r0, r0, r8, lsr r0
 2c4:	84080e41 	strhi	r0, [r8], #-3649	; 0xfffff1bf
 2c8:	4e018e02 	cdpmi	14, 0, cr8, cr1, cr2, {0}
 2cc:	000ec4ce 	andeq	ip, lr, lr, asr #9
 2d0:	0000001c 	andeq	r0, r0, ip, lsl r0
 2d4:	000001d4 	ldrdeq	r0, [r0], -r4
 2d8:	08000b74 	stmdaeq	r0, {r2, r4, r5, r6, r8, r9, fp}
 2dc:	00000064 	andeq	r0, r0, r4, rrx
 2e0:	84100e41 	ldrhi	r0, [r0], #-3649	; 0xfffff1bf
 2e4:	67018e02 	strvs	r8, [r1, -r2, lsl #28]
 2e8:	41080e0a 	tstmi	r8, sl, lsl #28
 2ec:	0000000b 	andeq	r0, r0, fp
 2f0:	0000000c 	andeq	r0, r0, ip
 2f4:	ffffffff 			; <UNDEFINED> instruction: 0xffffffff
 2f8:	7c020001 	stcvc	0, cr0, [r2], {1}
 2fc:	000d0c0e 	andeq	r0, sp, lr, lsl #24
 300:	00000018 	andeq	r0, r0, r8, lsl r0
 304:	000002f0 	strdeq	r0, [r0], -r0	; <UNPREDICTABLE>
 308:	08000bd8 	stmdaeq	r0, {r3, r4, r6, r7, r8, r9, fp}
 30c:	00000048 	andeq	r0, r0, r8, asr #32
 310:	84100e41 	ldrhi	r0, [r0], #-3649	; 0xfffff1bf
 314:	86038504 	strhi	r8, [r3], -r4, lsl #10
 318:	00018e02 	andeq	r8, r1, r2, lsl #28
