
res/firmware.elf:     file format elf32-littlearm


Disassembly of section .isr_vector:

08000000 <g_pfnVectors>:
 8000000:	20007fff 	strdcs	r7, [r0], -pc	; <UNPREDICTABLE>
 8000004:	08000d0d 	stmdaeq	r0, {r0, r2, r3, r8, sl, fp}
 8000008:	08000d55 	stmdaeq	r0, {r0, r2, r4, r6, r8, sl, fp}
 800000c:	08000d55 	stmdaeq	r0, {r0, r2, r4, r6, r8, sl, fp}
 8000010:	08000d55 	stmdaeq	r0, {r0, r2, r4, r6, r8, sl, fp}
 8000014:	08000d55 	stmdaeq	r0, {r0, r2, r4, r6, r8, sl, fp}
 8000018:	08000d55 	stmdaeq	r0, {r0, r2, r4, r6, r8, sl, fp}
	...
 800002c:	08000d55 	stmdaeq	r0, {r0, r2, r4, r6, r8, sl, fp}
 8000030:	08000d55 	stmdaeq	r0, {r0, r2, r4, r6, r8, sl, fp}
 8000034:	00000000 	andeq	r0, r0, r0
 8000038:	08000d55 	stmdaeq	r0, {r0, r2, r4, r6, r8, sl, fp}
 800003c:	08000d55 	stmdaeq	r0, {r0, r2, r4, r6, r8, sl, fp}
 8000040:	08000d55 	stmdaeq	r0, {r0, r2, r4, r6, r8, sl, fp}
 8000044:	08000d55 	stmdaeq	r0, {r0, r2, r4, r6, r8, sl, fp}
 8000048:	08000d55 	stmdaeq	r0, {r0, r2, r4, r6, r8, sl, fp}
 800004c:	08000d55 	stmdaeq	r0, {r0, r2, r4, r6, r8, sl, fp}
 8000050:	08000d55 	stmdaeq	r0, {r0, r2, r4, r6, r8, sl, fp}
 8000054:	08000d55 	stmdaeq	r0, {r0, r2, r4, r6, r8, sl, fp}
 8000058:	08000d55 	stmdaeq	r0, {r0, r2, r4, r6, r8, sl, fp}
 800005c:	08000d55 	stmdaeq	r0, {r0, r2, r4, r6, r8, sl, fp}
 8000060:	08000d55 	stmdaeq	r0, {r0, r2, r4, r6, r8, sl, fp}
 8000064:	08000d55 	stmdaeq	r0, {r0, r2, r4, r6, r8, sl, fp}
 8000068:	08000d55 	stmdaeq	r0, {r0, r2, r4, r6, r8, sl, fp}
 800006c:	08000d55 	stmdaeq	r0, {r0, r2, r4, r6, r8, sl, fp}
 8000070:	08000d55 	stmdaeq	r0, {r0, r2, r4, r6, r8, sl, fp}
 8000074:	08000d55 	stmdaeq	r0, {r0, r2, r4, r6, r8, sl, fp}
 8000078:	08000d55 	stmdaeq	r0, {r0, r2, r4, r6, r8, sl, fp}
 800007c:	08000d55 	stmdaeq	r0, {r0, r2, r4, r6, r8, sl, fp}
 8000080:	08000d55 	stmdaeq	r0, {r0, r2, r4, r6, r8, sl, fp}
 8000084:	08000d55 	stmdaeq	r0, {r0, r2, r4, r6, r8, sl, fp}
 8000088:	08000d55 	stmdaeq	r0, {r0, r2, r4, r6, r8, sl, fp}
 800008c:	08000d55 	stmdaeq	r0, {r0, r2, r4, r6, r8, sl, fp}
 8000090:	08000639 	stmdaeq	r0, {r0, r3, r4, r5, r9, sl}
 8000094:	08000d55 	stmdaeq	r0, {r0, r2, r4, r6, r8, sl, fp}
 8000098:	08000d55 	stmdaeq	r0, {r0, r2, r4, r6, r8, sl, fp}
 800009c:	08000d55 	stmdaeq	r0, {r0, r2, r4, r6, r8, sl, fp}
 80000a0:	00000000 	andeq	r0, r0, r0
 80000a4:	08000d55 	stmdaeq	r0, {r0, r2, r4, r6, r8, sl, fp}
 80000a8:	08000d55 	stmdaeq	r0, {r0, r2, r4, r6, r8, sl, fp}
 80000ac:	08000d55 	stmdaeq	r0, {r0, r2, r4, r6, r8, sl, fp}
 80000b0:	08000d55 	stmdaeq	r0, {r0, r2, r4, r6, r8, sl, fp}
 80000b4:	08000d55 	stmdaeq	r0, {r0, r2, r4, r6, r8, sl, fp}
 80000b8:	08000b29 	stmdaeq	r0, {r0, r3, r5, r8, r9, fp}
 80000bc:	08000d55 	stmdaeq	r0, {r0, r2, r4, r6, r8, sl, fp}
 80000c0:	08000d55 	stmdaeq	r0, {r0, r2, r4, r6, r8, sl, fp}
 80000c4:	08000d55 	stmdaeq	r0, {r0, r2, r4, r6, r8, sl, fp}
 80000c8:	08000d55 	stmdaeq	r0, {r0, r2, r4, r6, r8, sl, fp}
 80000cc:	08000d55 	stmdaeq	r0, {r0, r2, r4, r6, r8, sl, fp}
 80000d0:	08000d55 	stmdaeq	r0, {r0, r2, r4, r6, r8, sl, fp}
 80000d4:	08000d55 	stmdaeq	r0, {r0, r2, r4, r6, r8, sl, fp}
 80000d8:	08000d55 	stmdaeq	r0, {r0, r2, r4, r6, r8, sl, fp}
 80000dc:	08000d55 	stmdaeq	r0, {r0, r2, r4, r6, r8, sl, fp}
 80000e0:	08000d55 	stmdaeq	r0, {r0, r2, r4, r6, r8, sl, fp}
 80000e4:	08000d55 	stmdaeq	r0, {r0, r2, r4, r6, r8, sl, fp}
 80000e8:	08000d55 	stmdaeq	r0, {r0, r2, r4, r6, r8, sl, fp}
 80000ec:	08000d55 	stmdaeq	r0, {r0, r2, r4, r6, r8, sl, fp}
 80000f0:	08000d55 	stmdaeq	r0, {r0, r2, r4, r6, r8, sl, fp}
 80000f4:	00000000 	andeq	r0, r0, r0
 80000f8:	08000d55 	stmdaeq	r0, {r0, r2, r4, r6, r8, sl, fp}
 80000fc:	08000d55 	stmdaeq	r0, {r0, r2, r4, r6, r8, sl, fp}
	...
 8000108:	08000d55 	stmdaeq	r0, {r0, r2, r4, r6, r8, sl, fp}
 800010c:	08000d55 	stmdaeq	r0, {r0, r2, r4, r6, r8, sl, fp}
 8000110:	08000d55 	stmdaeq	r0, {r0, r2, r4, r6, r8, sl, fp}
 8000114:	08000d55 	stmdaeq	r0, {r0, r2, r4, r6, r8, sl, fp}
 8000118:	08000d55 	stmdaeq	r0, {r0, r2, r4, r6, r8, sl, fp}
 800011c:	00000000 	andeq	r0, r0, r0
 8000120:	08000d55 	stmdaeq	r0, {r0, r2, r4, r6, r8, sl, fp}
	...
 8000138:	f108f85f 			; <UNDEFINED> instruction: 0xf108f85f

Disassembly of section .text:

0800013c <init32-0x14>:
 800013c:	080010ec 	stmdaeq	r0, {r2, r3, r5, r6, r7, ip}
 8000140:	20000000 	andcs	r0, r0, r0
 8000144:	20000004 	andcs	r0, r0, r4
 8000148:	20000004 	andcs	r0, r0, r4
 800014c:	20000064 	andcs	r0, r0, r4, rrx

08000150 <init32>:
#define CLOCK_FAIL_LSI -4

#define RTC_LSE 1

void init32(uint8_t reinit){
  RCC->APB1ENR |= RCC_APB1ENR_PWREN;
 8000150:	4b21      	ldr	r3, [pc, #132]	; (80001d8 <init32+0x88>)
  PWR->CR |= PWR_CR_DBP;
 8000152:	4922      	ldr	r1, [pc, #136]	; (80001dc <init32+0x8c>)
  RCC->APB1ENR |= RCC_APB1ENR_PWREN;
 8000154:	6a5a      	ldr	r2, [r3, #36]	; 0x24
 8000156:	f042 5280 	orr.w	r2, r2, #268435456	; 0x10000000
 800015a:	625a      	str	r2, [r3, #36]	; 0x24
  PWR->CR |= PWR_CR_DBP;
 800015c:	680a      	ldr	r2, [r1, #0]
 800015e:	f442 7280 	orr.w	r2, r2, #256	; 0x100
 8000162:	600a      	str	r2, [r1, #0]
  
  if(!reinit){
    //if(RCC->CSR & RCC_CSR_RTCEN)return;
  }
  
  RCC->CSR |= RCC_CSR_RTCRST;
 8000164:	6b5a      	ldr	r2, [r3, #52]	; 0x34
 8000166:	f442 0200 	orr.w	r2, r2, #8388608	; 0x800000
 800016a:	635a      	str	r2, [r3, #52]	; 0x34
  RCC->CSR &=~RCC_CSR_RTCRST;
 800016c:	6b5a      	ldr	r2, [r3, #52]	; 0x34
 800016e:	f422 0200 	bic.w	r2, r2, #8388608	; 0x800000
 8000172:	635a      	str	r2, [r3, #52]	; 0x34
  
#if RTC_LSE
  RCC->CSR |= RCC_CSR_LSEON; while(!(RCC->CSR & RCC_CSR_LSERDY)){}
 8000174:	6b5a      	ldr	r2, [r3, #52]	; 0x34
 8000176:	f442 7280 	orr.w	r2, r2, #256	; 0x100
 800017a:	635a      	str	r2, [r3, #52]	; 0x34
 800017c:	6b5a      	ldr	r2, [r3, #52]	; 0x34
 800017e:	0591      	lsls	r1, r2, #22
 8000180:	d5fc      	bpl.n	800017c <init32+0x2c>
#else
  RCC->CSR |= RCC_CSR_LSION; while(!(RCC->CSR & RCC_CSR_LSIRDY)){}
#endif
  
  RCC->CSR &=~RCC_CSR_RTCSEL;
 8000182:	6b5a      	ldr	r2, [r3, #52]	; 0x34
 8000184:	f422 3240 	bic.w	r2, r2, #196608	; 0x30000
 8000188:	635a      	str	r2, [r3, #52]	; 0x34
#if RTC_LSE
  RCC->CSR |= RCC_CSR_RTCSEL_LSE; // NOCLOCK / LSI / LSE / HSE
 800018a:	6b5a      	ldr	r2, [r3, #52]	; 0x34
 800018c:	f442 3280 	orr.w	r2, r2, #65536	; 0x10000
 8000190:	635a      	str	r2, [r3, #52]	; 0x34
#else
  RCC->CSR |= RCC_CSR_RTCSEL_LSI; // NOCLOCK / LSI / LSE / HSE
#endif
  RCC->CSR |= RCC_CSR_RTCEN;
 8000192:	6b5a      	ldr	r2, [r3, #52]	; 0x34
 8000194:	f442 0280 	orr.w	r2, r2, #4194304	; 0x400000
 8000198:	635a      	str	r2, [r3, #52]	; 0x34
  
  RTC->WPR = 0xCA;
 800019a:	22ca      	movs	r2, #202	; 0xca
 800019c:	4b10      	ldr	r3, [pc, #64]	; (80001e0 <init32+0x90>)
 800019e:	625a      	str	r2, [r3, #36]	; 0x24
  RTC->WPR = 0x53;
 80001a0:	2253      	movs	r2, #83	; 0x53
 80001a2:	625a      	str	r2, [r3, #36]	; 0x24
  RTC->ISR |= RTC_ISR_INIT;
 80001a4:	68da      	ldr	r2, [r3, #12]
 80001a6:	f042 0280 	orr.w	r2, r2, #128	; 0x80
 80001aa:	60da      	str	r2, [r3, #12]
  while(!(RTC->ISR & RTC_ISR_INITF)){}
 80001ac:	68da      	ldr	r2, [r3, #12]
 80001ae:	0652      	lsls	r2, r2, #25
 80001b0:	d5fc      	bpl.n	80001ac <init32+0x5c>
  //LSE
  RTC->PRER &=~(RTC_PRER_PREDIV_A | RTC_PRER_PREDIV_S);
 80001b2:	6919      	ldr	r1, [r3, #16]
 80001b4:	4a0b      	ldr	r2, [pc, #44]	; (80001e4 <init32+0x94>)
 80001b6:	400a      	ands	r2, r1
 80001b8:	611a      	str	r2, [r3, #16]
#if RTC_LSE
  RTC->PRER |= 255;
 80001ba:	691a      	ldr	r2, [r3, #16]
 80001bc:	f042 02ff 	orr.w	r2, r2, #255	; 0xff
 80001c0:	611a      	str	r2, [r3, #16]
  RTC->PRER |= (127 << 16);
 80001c2:	691a      	ldr	r2, [r3, #16]
 80001c4:	f442 02fe 	orr.w	r2, r2, #8323072	; 0x7f0000
 80001c8:	611a      	str	r2, [r3, #16]
  //RTC->TR &=~RTC_TR_SU;
  //RTC->DR = 0;
  //RTC->DR &=~RTC_DR_DU;
  
  
  RTC->ISR &=~RTC_ISR_INIT;
 80001ca:	68da      	ldr	r2, [r3, #12]
 80001cc:	f022 0280 	bic.w	r2, r2, #128	; 0x80
 80001d0:	60da      	str	r2, [r3, #12]
  RTC->WPR = 0xFF;
 80001d2:	22ff      	movs	r2, #255	; 0xff
 80001d4:	625a      	str	r2, [r3, #36]	; 0x24
}
 80001d6:	4770      	bx	lr
 80001d8:	40023800 	andmi	r3, r2, r0, lsl #16
 80001dc:	40007000 	andmi	r7, r0, r0
 80001e0:	40002800 	andmi	r2, r0, r0, lsl #16
 80001e4:	ff808000 			; <UNDEFINED> instruction: 0xff808000

080001e8 <clock_HS>:
int8_t clock_HS(int8_t quartz){
  uint16_t i;
  uint32_t tmp;
  
  //clock by MSI
  tmp = RCC->CFGR;
 80001e8:	4b45      	ldr	r3, [pc, #276]	; (8000300 <clock_HS+0x118>)
 80001ea:	689a      	ldr	r2, [r3, #8]
  tmp &=~RCC_CFGR_SW;
 80001ec:	f022 0203 	bic.w	r2, r2, #3
  tmp |= RCC_CFGR_SW_MSI; // MSI / HSI / HSE / PLL
  RCC->CFGR = tmp;
 80001f0:	609a      	str	r2, [r3, #8]
 80001f2:	f640 72ff 	movw	r2, #4095	; 0xfff
  for(i=0;i<0x0FFF;i++){
    if((RCC->CFGR & RCC_CFGR_SWS)==RCC_CFGR_SWS_MSI){i=0x1FFF; break;}
 80001f6:	6899      	ldr	r1, [r3, #8]
 80001f8:	f011 0f0c 	tst.w	r1, #12
 80001fc:	d047      	beq.n	800028e <clock_HS+0xa6>
 80001fe:	3a01      	subs	r2, #1
 8000200:	b292      	uxth	r2, r2
  for(i=0;i<0x0FFF;i++){
 8000202:	2a00      	cmp	r2, #0
 8000204:	d1f7      	bne.n	80001f6 <clock_HS+0xe>
  }
  if(i != 0x1FFF)return CLOCK_FAIL_MSI;
 8000206:	f04f 30ff 	mov.w	r0, #4294967295	; 0xffffffff
 800020a:	4770      	bx	lr
 800020c:	2000      	movs	r0, #0
    }
    if(i != 0x1FFF)return CLOCK_FAIL_HSI;
  }
  
  // configure flash
  FLASH->ACR |= FLASH_ACR_ACC64;
 800020e:	4b3d      	ldr	r3, [pc, #244]	; (8000304 <clock_HS+0x11c>)
 8000210:	681a      	ldr	r2, [r3, #0]
 8000212:	f042 0204 	orr.w	r2, r2, #4
 8000216:	601a      	str	r2, [r3, #0]
  FLASH->ACR |= FLASH_ACR_PRFTEN;
 8000218:	681a      	ldr	r2, [r3, #0]
 800021a:	f042 0202 	orr.w	r2, r2, #2
 800021e:	601a      	str	r2, [r3, #0]
  FLASH->ACR |= FLASH_ACR_LATENCY;
 8000220:	681a      	ldr	r2, [r3, #0]
 8000222:	f042 0201 	orr.w	r2, r2, #1
 8000226:	601a      	str	r2, [r3, #0]

  
  tmp = RCC->CFGR;
 8000228:	4a35      	ldr	r2, [pc, #212]	; (8000300 <clock_HS+0x118>)
 800022a:	6893      	ldr	r3, [r2, #8]
  tmp &=~ (RCC_CFGR_PLLSRC | RCC_CFGR_PLLMUL | RCC_CFGR_PLLDIV);
 800022c:	f423 037d 	bic.w	r3, r3, #16580608	; 0xfd0000
  
  if(quartz){
 8000230:	b1a8      	cbz	r0, 800025e <clock_HS+0x76>
    tmp |= RCC_CFGR_PLLSRC;  //PLL src = HSE
    tmp |= RCC_CFGR_PLLMUL12;//PLLCLK = F_HSE * 12 = 96 MHz
    tmp |= RCC_CFGR_PLLDIV3; //PLLCLK = F_HSE * 12 / 3 = 32 MHz
 8000232:	f443 0311 	orr.w	r3, r3, #9502720	; 0x910000
  tmp |= RCC_CFGR_HPRE_DIV1;
  //AHB = PLLCLK/HPRE = 32 MHz
  tmp &=~RCC_CFGR_PPRE2;
  tmp |= RCC_CFGR_PPRE2_DIV1;
  //APB2 = HCLK/PPRE2 = 32 MHz
  tmp &=~RCC_CFGR_PPRE1;
 8000236:	4934      	ldr	r1, [pc, #208]	; (8000308 <clock_HS+0x120>)
 8000238:	4019      	ands	r1, r3
  tmp |= RCC_CFGR_PPRE1_DIV1;
  //APB1 = HCLK/PPRE1 = 32 MHz
  RCC->CFGR = tmp;
 800023a:	6091      	str	r1, [r2, #8]
  
  RCC->CR |= RCC_CR_PLLON;
 800023c:	6813      	ldr	r3, [r2, #0]
 800023e:	f043 7380 	orr.w	r3, r3, #16777216	; 0x1000000
 8000242:	6013      	str	r3, [r2, #0]
 8000244:	f640 73ff 	movw	r3, #4095	; 0xfff
  for(i=0;i<0x0FFF;i++){
    if(RCC->CR & RCC_CR_PLLRDY){i=0x1FFF; break;}
 8000248:	4a2d      	ldr	r2, [pc, #180]	; (8000300 <clock_HS+0x118>)
 800024a:	6811      	ldr	r1, [r2, #0]
 800024c:	0189      	lsls	r1, r1, #6
 800024e:	d40d      	bmi.n	800026c <clock_HS+0x84>
 8000250:	3b01      	subs	r3, #1
 8000252:	b29b      	uxth	r3, r3
  for(i=0;i<0x0FFF;i++){
 8000254:	2b00      	cmp	r3, #0
 8000256:	d1f8      	bne.n	800024a <clock_HS+0x62>
  }
  if(i != 0x1FFF)return CLOCK_FAIL_PLL; //can not enable PLL
 8000258:	f06f 0002 	mvn.w	r0, #2
 800025c:	4770      	bx	lr
    tmp |= RCC_CFGR_PLLDIV3; //PLLCLK = F_HSI * 6 / 3 = 32 MHz
 800025e:	f443 0308 	orr.w	r3, r3, #8912896	; 0x880000
 8000262:	e7e8      	b.n	8000236 <clock_HS+0x4e>
  tmp |= RCC_CFGR_SW_PLL; // MSI / HSI / HSE / PLL
  RCC->CFGR = tmp;
  for(i=0;i<0x0FFF;i++){
    if((RCC->CFGR & RCC_CFGR_SWS)==RCC_CFGR_SWS_PLL){i=0x1FFF; break;}
  }
  if(i != 0x1FFF)return CLOCK_FAIL_PLL;
 8000264:	3000      	adds	r0, #0
 8000266:	bf18      	it	ne
 8000268:	2001      	movne	r0, #1
  
  if(quartz)return CLOCK_HSE;
    else return CLOCK_HSI;
}
 800026a:	4770      	bx	lr
  tmp = RCC->CFGR;
 800026c:	6893      	ldr	r3, [r2, #8]
    if((RCC->CFGR & RCC_CFGR_SWS)==RCC_CFGR_SWS_PLL){i=0x1FFF; break;}
 800026e:	4924      	ldr	r1, [pc, #144]	; (8000300 <clock_HS+0x118>)
  tmp |= RCC_CFGR_SW_PLL; // MSI / HSI / HSE / PLL
 8000270:	f043 0303 	orr.w	r3, r3, #3
  RCC->CFGR = tmp;
 8000274:	6093      	str	r3, [r2, #8]
 8000276:	f640 73ff 	movw	r3, #4095	; 0xfff
    if((RCC->CFGR & RCC_CFGR_SWS)==RCC_CFGR_SWS_PLL){i=0x1FFF; break;}
 800027a:	688a      	ldr	r2, [r1, #8]
 800027c:	f002 020c 	and.w	r2, r2, #12
 8000280:	2a0c      	cmp	r2, #12
 8000282:	d0ef      	beq.n	8000264 <clock_HS+0x7c>
 8000284:	3b01      	subs	r3, #1
 8000286:	b29b      	uxth	r3, r3
  for(i=0;i<0x0FFF;i++){
 8000288:	2b00      	cmp	r3, #0
 800028a:	d1f6      	bne.n	800027a <clock_HS+0x92>
 800028c:	e7e4      	b.n	8000258 <clock_HS+0x70>
  RCC->CR &=~ RCC_CR_HSEON;
 800028e:	681a      	ldr	r2, [r3, #0]
 8000290:	f422 3280 	bic.w	r2, r2, #65536	; 0x10000
 8000294:	601a      	str	r2, [r3, #0]
  RCC->CR &=~ RCC_CR_HSION;
 8000296:	681a      	ldr	r2, [r3, #0]
 8000298:	f022 0201 	bic.w	r2, r2, #1
 800029c:	601a      	str	r2, [r3, #0]
  RCC->CR &=~ RCC_CR_HSEBYP;
 800029e:	681a      	ldr	r2, [r3, #0]
 80002a0:	f422 2280 	bic.w	r2, r2, #262144	; 0x40000
 80002a4:	601a      	str	r2, [r3, #0]
  RCC->CR &=~ RCC_CR_PLLON;
 80002a6:	681a      	ldr	r2, [r3, #0]
 80002a8:	f022 7280 	bic.w	r2, r2, #16777216	; 0x1000000
 80002ac:	601a      	str	r2, [r3, #0]
  RCC->CR &=~ RCC_CR_RTCPRE;
 80002ae:	681a      	ldr	r2, [r3, #0]
 80002b0:	f022 42c0 	bic.w	r2, r2, #1610612736	; 0x60000000
 80002b4:	601a      	str	r2, [r3, #0]
  RCC->CR |= RCC_CR_RTCPRE_1; //0b00=2 MHz ; 0b01=4MHz ; 0b10=8MHz ; 0b11=16MHz
 80002b6:	681a      	ldr	r2, [r3, #0]
 80002b8:	f042 4280 	orr.w	r2, r2, #1073741824	; 0x40000000
 80002bc:	601a      	str	r2, [r3, #0]
  if(quartz){
 80002be:	b168      	cbz	r0, 80002dc <clock_HS+0xf4>
    RCC->CR |= RCC_CR_HSEON;
 80002c0:	681a      	ldr	r2, [r3, #0]
 80002c2:	f442 3280 	orr.w	r2, r2, #65536	; 0x10000
 80002c6:	601a      	str	r2, [r3, #0]
 80002c8:	f640 73ff 	movw	r3, #4095	; 0xfff
      if(RCC->CR & RCC_CR_HSERDY){i=0x1FFF; break;}
 80002cc:	4a0c      	ldr	r2, [pc, #48]	; (8000300 <clock_HS+0x118>)
 80002ce:	6811      	ldr	r1, [r2, #0]
 80002d0:	0389      	lsls	r1, r1, #14
 80002d2:	d49c      	bmi.n	800020e <clock_HS+0x26>
 80002d4:	3b01      	subs	r3, #1
 80002d6:	b29b      	uxth	r3, r3
    for(i=0;i<0x0FFF;i++){
 80002d8:	2b00      	cmp	r3, #0
 80002da:	d1f8      	bne.n	80002ce <clock_HS+0xe6>
    RCC->CR |= RCC_CR_HSION;
 80002dc:	4a08      	ldr	r2, [pc, #32]	; (8000300 <clock_HS+0x118>)
 80002de:	6813      	ldr	r3, [r2, #0]
 80002e0:	f043 0301 	orr.w	r3, r3, #1
 80002e4:	6013      	str	r3, [r2, #0]
 80002e6:	f640 73ff 	movw	r3, #4095	; 0xfff
      if(RCC->CR & RCC_CR_HSIRDY){i=0x1FFF; break;}
 80002ea:	6811      	ldr	r1, [r2, #0]
 80002ec:	0788      	lsls	r0, r1, #30
 80002ee:	d48d      	bmi.n	800020c <clock_HS+0x24>
 80002f0:	3b01      	subs	r3, #1
 80002f2:	b29b      	uxth	r3, r3
    for(i=0;i<0x0FFF;i++){
 80002f4:	2b00      	cmp	r3, #0
 80002f6:	d1f8      	bne.n	80002ea <clock_HS+0x102>
    if(i != 0x1FFF)return CLOCK_FAIL_HSI;
 80002f8:	f06f 0001 	mvn.w	r0, #1
 80002fc:	4770      	bx	lr
 80002fe:	bf00      	nop
 8000300:	40023800 	andmi	r3, r2, r0, lsl #16
 8000304:	40023c00 	andmi	r3, r2, r0, lsl #24
 8000308:	ff9bc00f 			; <UNDEFINED> instruction: 0xff9bc00f

0800030c <clock_MS>:
void clock_MS(){
  uint16_t i;
  uint32_t tmp;
  
  //clock by MSI
  tmp = RCC->CFGR;
 800030c:	4b10      	ldr	r3, [pc, #64]	; (8000350 <clock_MS+0x44>)
 800030e:	689a      	ldr	r2, [r3, #8]
  tmp &=~RCC_CFGR_SW;
 8000310:	f022 0203 	bic.w	r2, r2, #3
  tmp |= RCC_CFGR_SW_MSI; // MSI / HSI / HSE / PLL
  RCC->CFGR = tmp;
 8000314:	609a      	str	r2, [r3, #8]
 8000316:	f640 72ff 	movw	r2, #4095	; 0xfff
  for(i=0;i<0x0FFF;i++){
    if((RCC->CFGR & RCC_CFGR_SWS)==RCC_CFGR_SWS_MSI){i=0x1FFF; break;}
 800031a:	6899      	ldr	r1, [r3, #8]
 800031c:	f011 0f0c 	tst.w	r1, #12
 8000320:	d004      	beq.n	800032c <clock_MS+0x20>
 8000322:	3a01      	subs	r2, #1
 8000324:	b292      	uxth	r2, r2
  for(i=0;i<0x0FFF;i++){
 8000326:	2a00      	cmp	r2, #0
 8000328:	d1f7      	bne.n	800031a <clock_MS+0xe>
 800032a:	4770      	bx	lr
  }
  if(i != 0x1FFF)return;;
  
  //disable HSE, PLL
  RCC->CR &=~ RCC_CR_HSEON;
 800032c:	681a      	ldr	r2, [r3, #0]
 800032e:	f422 3280 	bic.w	r2, r2, #65536	; 0x10000
 8000332:	601a      	str	r2, [r3, #0]
  RCC->CR &=~ RCC_CR_HSION;
 8000334:	681a      	ldr	r2, [r3, #0]
 8000336:	f022 0201 	bic.w	r2, r2, #1
 800033a:	601a      	str	r2, [r3, #0]
  RCC->CR &=~ RCC_CR_HSEBYP;
 800033c:	681a      	ldr	r2, [r3, #0]
 800033e:	f422 2280 	bic.w	r2, r2, #262144	; 0x40000
 8000342:	601a      	str	r2, [r3, #0]
  RCC->CR &=~ RCC_CR_PLLON;
 8000344:	681a      	ldr	r2, [r3, #0]
 8000346:	f022 7280 	bic.w	r2, r2, #16777216	; 0x1000000
 800034a:	601a      	str	r2, [r3, #0]
}
 800034c:	4770      	bx	lr
 800034e:	bf00      	nop
 8000350:	40023800 	andmi	r3, r2, r0, lsl #16

08000354 <_init>:
 8000354:	4770      	bx	lr

08000356 <SystemInit>:
#include "hardware.h"
#include "usb_lib.h"
#include "clock.h"

void __attribute__((weak)) _init(void){}
void __attribute__((weak)) SystemInit(void){}
 8000356:	4770      	bx	lr

08000358 <sleep>:

void sleep(uint32_t time){
  while(time--)asm volatile("nop");
 8000358:	f110 30ff 	adds.w	r0, r0, #4294967295	; 0xffffffff
 800035c:	d200      	bcs.n	8000360 <sleep+0x8>
}
 800035e:	4770      	bx	lr
  while(time--)asm volatile("nop");
 8000360:	bf00      	nop
 8000362:	e7f9      	b.n	8000358 <sleep>

#define STM32ENDPOINTS          8
#define usb_epdata   ((volatile usb_epdata_t*)(USB_PMAADDR))
#define LASTADDR_DEFAULT                (STM32ENDPOINTS * 8)

__attribute__((weak))void usb_class_init(){}
 8000364:	4770      	bx	lr

08000366 <usb_class_disconnect>:
 8000366:	4770      	bx	lr
 8000368:	4770      	bx	lr
__attribute__((weak))void usb_class_disconnect(){}
__attribute__((weak))void usb_class_poll(){}
__attribute__((weak))char usb_class_ep0_in(config_pack_t *req, void **data, uint16_t *size){return 0;}
 800036a:	2000      	movs	r0, #0
 800036c:	4770      	bx	lr
__attribute__((weak))char usb_class_ep0_out(config_pack_t *req, uint16_t offset, uint16_t rx_size){return 0;}
 800036e:	2000      	movs	r0, #0
 8000370:	4770      	bx	lr

08000372 <USB_setup>:
epfunc_t epfunc_out[STM32ENDPOINTS];

static config_pack_t setup_packet;

void USB_setup(){
  RCC->APB1ENR |= RCC_APB1ENR_USBEN;
 8000372:	4b16      	ldr	r3, [pc, #88]	; (80003cc <USB_setup+0x5a>)
 8000374:	6a5a      	ldr	r2, [r3, #36]	; 0x24
 8000376:	f442 0200 	orr.w	r2, r2, #8388608	; 0x800000
 800037a:	625a      	str	r2, [r3, #36]	; 0x24
  RCC->APB2ENR |= RCC_APB2ENR_SYSCFGEN;
 800037c:	6a1a      	ldr	r2, [r3, #32]
 800037e:	f042 0201 	orr.w	r2, r2, #1
 8000382:	621a      	str	r2, [r3, #32]
  
  SYSCFG->PMC &=~ SYSCFG_PMC_USB_PU;
 8000384:	4a12      	ldr	r2, [pc, #72]	; (80003d0 <USB_setup+0x5e>)
 8000386:	6853      	ldr	r3, [r2, #4]
 8000388:	f023 0301 	bic.w	r3, r3, #1
 800038c:	6053      	str	r3, [r2, #4]
  USB->CNTR   = USB_CNTR_FRES; // Force USB Reset
 800038e:	2201      	movs	r2, #1
 8000390:	4b10      	ldr	r3, [pc, #64]	; (80003d4 <USB_setup+0x62>)
 8000392:	f8a3 2040 	strh.w	r2, [r3, #64]	; 0x40
 8000396:	4a10      	ldr	r2, [pc, #64]	; (80003d8 <USB_setup+0x66>)
  for(uint32_t ctr = 0; ctr < 100000; ++ctr) asm volatile("nop"); // wait >1ms
 8000398:	bf00      	nop
 800039a:	3a01      	subs	r2, #1
 800039c:	d1fc      	bne.n	8000398 <USB_setup+0x26>
  USB->CNTR   = 0;
 800039e:	f8a3 2040 	strh.w	r2, [r3, #64]	; 0x40
  USB->BTABLE = 0;
 80003a2:	f8a3 2050 	strh.w	r2, [r3, #80]	; 0x50
  USB->DADDR  = 0;
 80003a6:	f8a3 204c 	strh.w	r2, [r3, #76]	; 0x4c
  USB->ISTR   = 0;
 80003aa:	f8a3 2044 	strh.w	r2, [r3, #68]	; 0x44
  USB->CNTR   = USB_CNTR_RESETM | USB_CNTR_WKUPM;
 80003ae:	f44f 52a0 	mov.w	r2, #5120	; 0x1400
 80003b2:	f8a3 2040 	strh.w	r2, [r3, #64]	; 0x40
 * Enable a device specific interupt in the NVIC interrupt controller.
 * The interrupt number cannot be a negative value.
 */
static __INLINE void NVIC_EnableIRQ(IRQn_Type IRQn)
{
  NVIC->ISER[((uint32_t)(IRQn) >> 5)] = (1 << ((uint32_t)(IRQn) & 0x1F)); /* enable interrupt */
 80003b6:	f44f 1280 	mov.w	r2, #1048576	; 0x100000
 80003ba:	4b08      	ldr	r3, [pc, #32]	; (80003dc <USB_setup+0x6a>)
 80003bc:	601a      	str	r2, [r3, #0]
  NVIC_EnableIRQ(USB_LP_IRQn);
  SYSCFG->PMC |= SYSCFG_PMC_USB_PU;
 80003be:	4a04      	ldr	r2, [pc, #16]	; (80003d0 <USB_setup+0x5e>)
 80003c0:	6853      	ldr	r3, [r2, #4]
 80003c2:	f043 0301 	orr.w	r3, r3, #1
 80003c6:	6053      	str	r3, [r2, #4]
}
 80003c8:	4770      	bx	lr
 80003ca:	bf00      	nop
 80003cc:	40023800 	andmi	r3, r2, r0, lsl #16
 80003d0:	40010000 	andmi	r0, r1, r0
 80003d4:	40005c00 	andmi	r5, r0, r0, lsl #24
 80003d8:	000186a0 	andeq	r8, r1, r0, lsr #13
 80003dc:	e000e100 	and	lr, r0, r0, lsl #2

080003e0 <usb_ep_init>:
    if( bytesread >= setup_packet.wLength )usb_ep_write(0, NULL, 0);
  }
}

static uint16_t lastaddr = LASTADDR_DEFAULT;
void usb_ep_init(uint8_t epnum, uint8_t ep_type, uint16_t size, epfunc_t func){
 80003e0:	b5f0      	push	{r4, r5, r6, r7, lr}
  uint8_t dir_in = (epnum & 0x80);
  epnum &= 0x0F;
 80003e2:	f000 070f 	and.w	r7, r0, #15
  
  if(dir_in){
 80003e6:	fa4f fc80 	sxtb.w	ip, r0
 80003ea:	00bd      	lsls	r5, r7, #2
 80003ec:	f105 4580 	add.w	r5, r5, #1073741824	; 0x40000000
 80003f0:	f1bc 0f00 	cmp.w	ip, #0
 80003f4:	f505 45b8 	add.w	r5, r5, #23552	; 0x5c00
 80003f8:	da17      	bge.n	800042a <usb_ep_init+0x4a>
    ENDP_STAT_TX(epnum, USB_EP_TX_DIS);
 80003fa:	8828      	ldrh	r0, [r5, #0]
 80003fc:	f020 00c0 	bic.w	r0, r0, #192	; 0xc0
 8000400:	0500      	lsls	r0, r0, #20
 8000402:	0d00      	lsrs	r0, r0, #20
 8000404:	f440 4000 	orr.w	r0, r0, #32768	; 0x8000
 8000408:	f040 0080 	orr.w	r0, r0, #128	; 0x80
 800040c:	8028      	strh	r0, [r5, #0]
  }else{
    ENDP_STAT_RX(epnum, USB_EP_RX_DIS);
  }
  
  uint16_t buf = USB_EPx(epnum);
 800040e:	882c      	ldrh	r4, [r5, #0]
  buf = (buf & ~(USB_EP_DTOG_RX | USB_EP_DTOG_TX | USB_EPTX_STAT | USB_EPRX_STAT)) | USB_EP_CTR_RX | USB_EP_CTR_TX;
  buf = (buf & ~USB_EPADDR_FIELD) | epnum;
  //buf = (buf & ~USB_EP_T_FIELD) | ep_type;
  buf &=~ USB_EP_T_FIELD;
  switch(ep_type){
 8000410:	2902      	cmp	r1, #2
 8000412:	f404 6410 	and.w	r4, r4, #2304	; 0x900
 8000416:	ea44 0407 	orr.w	r4, r4, r7
 800041a:	d011      	beq.n	8000440 <usb_ep_init+0x60>
 800041c:	2903      	cmp	r1, #3
 800041e:	d035      	beq.n	800048c <usb_ep_init+0xac>
 8000420:	2900      	cmp	r1, #0
 8000422:	d136      	bne.n	8000492 <usb_ep_init+0xb2>
    case USB_ENDP_CTRL: buf |= USB_EP_CONTROL; break;
 8000424:	f444 4402 	orr.w	r4, r4, #33280	; 0x8200
 8000428:	e00c      	b.n	8000444 <usb_ep_init+0x64>
    ENDP_STAT_RX(epnum, USB_EP_RX_DIS);
 800042a:	882c      	ldrh	r4, [r5, #0]
 800042c:	f024 04f0 	bic.w	r4, r4, #240	; 0xf0
 8000430:	04a4      	lsls	r4, r4, #18
 8000432:	0ca4      	lsrs	r4, r4, #18
 8000434:	f444 4400 	orr.w	r4, r4, #32768	; 0x8000
 8000438:	f044 0480 	orr.w	r4, r4, #128	; 0x80
 800043c:	802c      	strh	r4, [r5, #0]
 800043e:	e7e6      	b.n	800040e <usb_ep_init+0x2e>
  buf &=~ USB_EP_T_FIELD;
 8000440:	f444 4400 	orr.w	r4, r4, #32768	; 0x8000
    case USB_ENDP_BULK: buf |= USB_EP_BULK; break;
    case USB_ENDP_INTR: buf |= USB_EP_INTERRUPT; break;
    default: buf |= USB_EP_ISOCHRONOUS; //в дескрипторах изохронные точки могут иметь расширенные настройки
 8000444:	f044 0480 	orr.w	r4, r4, #128	; 0x80
  }
  USB_EPx(epnum) = buf;
 8000448:	802c      	strh	r4, [r5, #0]
  
  if( dir_in ){
 800044a:	4825      	ldr	r0, [pc, #148]	; (80004e0 <usb_ep_init+0x100>)
 800044c:	013c      	lsls	r4, r7, #4
 800044e:	f104 4480 	add.w	r4, r4, #1073741824	; 0x40000000
 8000452:	f1bc 0f00 	cmp.w	ip, #0
 8000456:	8806      	ldrh	r6, [r0, #0]
 8000458:	f504 44c0 	add.w	r4, r4, #24576	; 0x6000
 800045c:	da1c      	bge.n	8000498 <usb_ep_init+0xb8>
    usb_epdata[epnum].usb_tx_addr = lastaddr;
 800045e:	6026      	str	r6, [r4, #0]
    epfunc_in[epnum] = func;
 8000460:	4c20      	ldr	r4, [pc, #128]	; (80004e4 <usb_ep_init+0x104>)
    if((ep_type & 0x03) == USB_ENDP_ISO){
 8000462:	f001 0103 	and.w	r1, r1, #3
    epfunc_in[epnum] = func;
 8000466:	f844 3027 	str.w	r3, [r4, r7, lsl #2]
    if((ep_type & 0x03) == USB_ENDP_ISO){
 800046a:	f640 733f 	movw	r3, #3903	; 0xf3f
 800046e:	2901      	cmp	r1, #1
      ENDP_STAT_TX(epnum, USB_EP_TX_VALID);
 8000470:	8829      	ldrh	r1, [r5, #0]
 8000472:	ea03 0301 	and.w	r3, r3, r1
 8000476:	f483 4300 	eor.w	r3, r3, #32768	; 0x8000
 800047a:	bf0c      	ite	eq
 800047c:	f083 03b0 	eoreq.w	r3, r3, #176	; 0xb0
    }else{
      ENDP_STAT_TX(epnum, USB_EP_TX_NAK);
 8000480:	f083 03a0 	eorne.w	r3, r3, #160	; 0xa0
      usb_epdata[epnum].rx_num_blocks = size / 32 - 1;
    }
    epfunc_out[epnum] = func;
    ENDP_STAT_RX(epnum, USB_EP_RX_VALID);
  }
  lastaddr += size;
 8000484:	4432      	add	r2, r6
    ENDP_STAT_RX(epnum, USB_EP_RX_VALID);
 8000486:	802b      	strh	r3, [r5, #0]
  lastaddr += size;
 8000488:	8002      	strh	r2, [r0, #0]
}
 800048a:	bdf0      	pop	{r4, r5, r6, r7, pc}
    case USB_ENDP_INTR: buf |= USB_EP_INTERRUPT; break;
 800048c:	f444 4406 	orr.w	r4, r4, #34304	; 0x8600
 8000490:	e7d8      	b.n	8000444 <usb_ep_init+0x64>
    default: buf |= USB_EP_ISOCHRONOUS; //в дескрипторах изохронные точки могут иметь расширенные настройки
 8000492:	f444 4404 	orr.w	r4, r4, #33792	; 0x8400
 8000496:	e7d5      	b.n	8000444 <usb_ep_init+0x64>
    usb_epdata[epnum].usb_rx_addr = lastaddr;
 8000498:	60a6      	str	r6, [r4, #8]
      usb_epdata[epnum].rx_blocksize = 0;
 800049a:	89a1      	ldrh	r1, [r4, #12]
    if(size < 64){
 800049c:	2a3f      	cmp	r2, #63	; 0x3f
      usb_epdata[epnum].rx_blocksize = 1;
 800049e:	bf8b      	itete	hi
 80004a0:	f441 4100 	orrhi.w	r1, r1, #32768	; 0x8000
      usb_epdata[epnum].rx_blocksize = 0;
 80004a4:	f36f 31cf 	bfcls	r1, #15, #1
      usb_epdata[epnum].rx_blocksize = 1;
 80004a8:	81a1      	strhhi	r1, [r4, #12]
      usb_epdata[epnum].rx_blocksize = 0;
 80004aa:	81a1      	strhls	r1, [r4, #12]
      usb_epdata[epnum].rx_num_blocks = size / 32 - 1;
 80004ac:	f8b4 c00c 	ldrh.w	ip, [r4, #12]
 80004b0:	bf8a      	itet	hi
 80004b2:	0951      	lsrhi	r1, r2, #5
      usb_epdata[epnum].rx_num_blocks = size / 2;
 80004b4:	f3c2 0144 	ubfxls	r1, r2, #1, #5
      usb_epdata[epnum].rx_num_blocks = size / 32 - 1;
 80004b8:	f101 31ff 	addhi.w	r1, r1, #4294967295	; 0xffffffff
 80004bc:	f361 2c8e 	bfi	ip, r1, #10, #5
    epfunc_out[epnum] = func;
 80004c0:	4909      	ldr	r1, [pc, #36]	; (80004e8 <usb_ep_init+0x108>)
      usb_epdata[epnum].rx_num_blocks = size / 32 - 1;
 80004c2:	f8a4 c00c 	strh.w	ip, [r4, #12]
    epfunc_out[epnum] = func;
 80004c6:	f841 3027 	str.w	r3, [r1, r7, lsl #2]
    ENDP_STAT_RX(epnum, USB_EP_RX_VALID);
 80004ca:	882b      	ldrh	r3, [r5, #0]
 80004cc:	f023 03f0 	bic.w	r3, r3, #240	; 0xf0
 80004d0:	049b      	lsls	r3, r3, #18
 80004d2:	0c9b      	lsrs	r3, r3, #18
 80004d4:	f483 4330 	eor.w	r3, r3, #45056	; 0xb000
 80004d8:	f083 0380 	eor.w	r3, r3, #128	; 0x80
 80004dc:	e7d2      	b.n	8000484 <usb_ep_init+0xa4>
 80004de:	bf00      	nop
 80004e0:	20000000 	andcs	r0, r0, r0
 80004e4:	20000024 	andcs	r0, r0, r4, lsr #32
 80004e8:	20000044 	andcs	r0, r0, r4, asr #32

080004ec <usb_ep_init_double>:

void usb_ep_init_double(uint8_t epnum, uint8_t ep_type, uint16_t size, epfunc_t func){
 80004ec:	b5f0      	push	{r4, r5, r6, r7, lr}
  uint8_t dir_in = (epnum & 0x80);
  epnum &= 0x0F;
  
  ENDP_STAT_TX(epnum, USB_EP_TX_DIS);
 80004ee:	f248 0780 	movw	r7, #32896	; 0x8080
  epnum &= 0x0F;
 80004f2:	f000 060f 	and.w	r6, r0, #15
  ENDP_STAT_TX(epnum, USB_EP_TX_DIS);
 80004f6:	00b5      	lsls	r5, r6, #2
 80004f8:	f105 4580 	add.w	r5, r5, #1073741824	; 0x40000000
 80004fc:	f505 45b8 	add.w	r5, r5, #23552	; 0x5c00
 8000500:	882c      	ldrh	r4, [r5, #0]
  uint16_t buf = USB_EPx(epnum);
  buf = (buf & ~(USB_EP_DTOG_RX | USB_EP_DTOG_TX | USB_EPTX_STAT | USB_EPRX_STAT)) | USB_EP_CTR_RX | USB_EP_CTR_TX;
  buf = (buf & ~USB_EPADDR_FIELD) | epnum;
  
  buf &=~ USB_EP_T_FIELD;
  switch(ep_type){
 8000502:	2902      	cmp	r1, #2
  ENDP_STAT_TX(epnum, USB_EP_TX_DIS);
 8000504:	f024 04c0 	bic.w	r4, r4, #192	; 0xc0
 8000508:	ea4f 5404 	mov.w	r4, r4, lsl #20
 800050c:	ea4f 5414 	mov.w	r4, r4, lsr #20
 8000510:	ea44 0407 	orr.w	r4, r4, r7
 8000514:	802c      	strh	r4, [r5, #0]
  ENDP_STAT_RX(epnum, USB_EP_RX_DIS);
 8000516:	882c      	ldrh	r4, [r5, #0]
 8000518:	f024 04f0 	bic.w	r4, r4, #240	; 0xf0
 800051c:	ea4f 4484 	mov.w	r4, r4, lsl #18
 8000520:	ea4f 4494 	mov.w	r4, r4, lsr #18
 8000524:	ea44 0407 	orr.w	r4, r4, r7
 8000528:	802c      	strh	r4, [r5, #0]
  uint16_t buf = USB_EPx(epnum);
 800052a:	882c      	ldrh	r4, [r5, #0]
  buf &=~ USB_EP_T_FIELD;
 800052c:	f404 6410 	and.w	r4, r4, #2304	; 0x900
 8000530:	ea44 0406 	orr.w	r4, r4, r6
  switch(ep_type){
 8000534:	d008      	beq.n	8000548 <usb_ep_init_double+0x5c>
 8000536:	2903      	cmp	r1, #3
 8000538:	d038      	beq.n	80005ac <usb_ep_init_double+0xc0>
 800053a:	2900      	cmp	r1, #0
 800053c:	d139      	bne.n	80005b2 <usb_ep_init_double+0xc6>
    case USB_ENDP_CTRL: buf |= USB_EP_CONTROL; break;
 800053e:	f444 4102 	orr.w	r1, r4, #33280	; 0x8200
    case USB_ENDP_BULK: buf |= USB_EP_BULK; break;
    case USB_ENDP_INTR: buf |= USB_EP_INTERRUPT; break;
    default: buf |= USB_EP_ISOCHRONOUS; //в дескрипторах изохронные точки могут иметь расширенные настройки
 8000542:	f041 0180 	orr.w	r1, r1, #128	; 0x80
 8000546:	e001      	b.n	800054c <usb_ep_init_double+0x60>
  buf &=~ USB_EP_T_FIELD;
 8000548:	ea44 0107 	orr.w	r1, r4, r7
  }
  USB_EPx(epnum) = buf;
 800054c:	f8df c0e4 	ldr.w	ip, [pc, #228]	; 8000634 <usb_ep_init_double+0x148>
 8000550:	8029      	strh	r1, [r5, #0]
  
  if( dir_in ){
 8000552:	f8bc 4000 	ldrh.w	r4, [ip]
 8000556:	0131      	lsls	r1, r6, #4
 8000558:	f101 4180 	add.w	r1, r1, #1073741824	; 0x40000000
 800055c:	f010 0f80 	tst.w	r0, #128	; 0x80
 8000560:	f501 41c0 	add.w	r1, r1, #24576	; 0x6000
 8000564:	eb02 0704 	add.w	r7, r2, r4
 8000568:	4660      	mov	r0, ip
 800056a:	d025      	beq.n	80005b8 <usb_ep_init_double+0xcc>
    usb_epdata[epnum].usb_tx_addr = lastaddr;
 800056c:	600c      	str	r4, [r1, #0]
    usb_epdata[epnum].usb_rx_addr = lastaddr + size;
 800056e:	608f      	str	r7, [r1, #8]
    ENDP_STAT_TX(epnum, USB_EP_TX_NAK);
 8000570:	8829      	ldrh	r1, [r5, #0]
 8000572:	f021 01c0 	bic.w	r1, r1, #192	; 0xc0
 8000576:	0509      	lsls	r1, r1, #20
 8000578:	0d09      	lsrs	r1, r1, #20
 800057a:	f481 4100 	eor.w	r1, r1, #32768	; 0x8000
 800057e:	f081 01a0 	eor.w	r1, r1, #160	; 0xa0
 8000582:	8029      	strh	r1, [r5, #0]
    ENDP_STAT_RX(epnum, USB_EP_RX_NAK);
 8000584:	8829      	ldrh	r1, [r5, #0]
 8000586:	f021 01f0 	bic.w	r1, r1, #240	; 0xf0
 800058a:	0489      	lsls	r1, r1, #18
 800058c:	0c89      	lsrs	r1, r1, #18
 800058e:	f481 4120 	eor.w	r1, r1, #40960	; 0xa000
 8000592:	f081 0180 	eor.w	r1, r1, #128	; 0x80
      usb_epdata[epnum].rx_blocksize = usb_epdata[epnum].tx_blocksize = 1;
      if(size < 32)size = 32;
      usb_epdata[epnum].rx_num_blocks = usb_epdata[epnum].tx_num_blocks = size / 32 - 1;
    }
    ENDP_STAT_RX(epnum, USB_EP_RX_VALID);
    ENDP_STAT_TX(epnum, USB_EP_TX_VALID);
 8000596:	8029      	strh	r1, [r5, #0]
  }
  epfunc_in[epnum] = func;
 8000598:	4924      	ldr	r1, [pc, #144]	; (800062c <usb_ep_init_double+0x140>)
  epfunc_out[epnum]= func;
    
  lastaddr += 2*size;
 800059a:	eb04 0242 	add.w	r2, r4, r2, lsl #1
  epfunc_in[epnum] = func;
 800059e:	f841 3026 	str.w	r3, [r1, r6, lsl #2]
  epfunc_out[epnum]= func;
 80005a2:	4923      	ldr	r1, [pc, #140]	; (8000630 <usb_ep_init_double+0x144>)
  lastaddr += 2*size;
 80005a4:	8002      	strh	r2, [r0, #0]
  epfunc_out[epnum]= func;
 80005a6:	f841 3026 	str.w	r3, [r1, r6, lsl #2]
}
 80005aa:	bdf0      	pop	{r4, r5, r6, r7, pc}
    case USB_ENDP_INTR: buf |= USB_EP_INTERRUPT; break;
 80005ac:	f444 4106 	orr.w	r1, r4, #34304	; 0x8600
 80005b0:	e7c7      	b.n	8000542 <usb_ep_init_double+0x56>
    default: buf |= USB_EP_ISOCHRONOUS; //в дескрипторах изохронные точки могут иметь расширенные настройки
 80005b2:	f444 4104 	orr.w	r1, r4, #33792	; 0x8400
 80005b6:	e7c4      	b.n	8000542 <usb_ep_init_double+0x56>
    usb_epdata[epnum].usb_rx_addr = lastaddr;
 80005b8:	608c      	str	r4, [r1, #8]
    if(size < 64){
 80005ba:	2a3f      	cmp	r2, #63	; 0x3f
    usb_epdata[epnum].usb_tx_addr = lastaddr + size;
 80005bc:	600f      	str	r7, [r1, #0]
      usb_epdata[epnum].rx_blocksize = usb_epdata[epnum].tx_blocksize = 0;
 80005be:	888f      	ldrh	r7, [r1, #4]
    if(size < 64){
 80005c0:	d828      	bhi.n	8000614 <usb_ep_init_double+0x128>
      usb_epdata[epnum].rx_blocksize = usb_epdata[epnum].tx_blocksize = 0;
 80005c2:	f36f 37cf 	bfc	r7, #15, #1
 80005c6:	808f      	strh	r7, [r1, #4]
 80005c8:	898f      	ldrh	r7, [r1, #12]
 80005ca:	f36f 37cf 	bfc	r7, #15, #1
 80005ce:	818f      	strh	r7, [r1, #12]
      usb_epdata[epnum].rx_num_blocks = usb_epdata[epnum].tx_num_blocks = size / 2;
 80005d0:	f3c2 0744 	ubfx	r7, r2, #1, #5
      usb_epdata[epnum].rx_num_blocks = usb_epdata[epnum].tx_num_blocks = size / 32 - 1;
 80005d4:	f8b1 c004 	ldrh.w	ip, [r1, #4]
 80005d8:	f367 2c8e 	bfi	ip, r7, #10, #5
 80005dc:	f8a1 c004 	strh.w	ip, [r1, #4]
 80005e0:	f8b1 c00c 	ldrh.w	ip, [r1, #12]
 80005e4:	f367 2c8e 	bfi	ip, r7, #10, #5
 80005e8:	f8a1 c00c 	strh.w	ip, [r1, #12]
    ENDP_STAT_RX(epnum, USB_EP_RX_VALID);
 80005ec:	8829      	ldrh	r1, [r5, #0]
 80005ee:	f021 01f0 	bic.w	r1, r1, #240	; 0xf0
 80005f2:	0489      	lsls	r1, r1, #18
 80005f4:	0c89      	lsrs	r1, r1, #18
 80005f6:	f481 4130 	eor.w	r1, r1, #45056	; 0xb000
 80005fa:	f081 0180 	eor.w	r1, r1, #128	; 0x80
 80005fe:	8029      	strh	r1, [r5, #0]
    ENDP_STAT_TX(epnum, USB_EP_TX_VALID);
 8000600:	8829      	ldrh	r1, [r5, #0]
 8000602:	f021 01c0 	bic.w	r1, r1, #192	; 0xc0
 8000606:	0509      	lsls	r1, r1, #20
 8000608:	0d09      	lsrs	r1, r1, #20
 800060a:	f481 4100 	eor.w	r1, r1, #32768	; 0x8000
 800060e:	f081 01b0 	eor.w	r1, r1, #176	; 0xb0
 8000612:	e7c0      	b.n	8000596 <usb_ep_init_double+0xaa>
      usb_epdata[epnum].rx_blocksize = usb_epdata[epnum].tx_blocksize = 1;
 8000614:	f447 4700 	orr.w	r7, r7, #32768	; 0x8000
 8000618:	808f      	strh	r7, [r1, #4]
 800061a:	898f      	ldrh	r7, [r1, #12]
 800061c:	f447 4700 	orr.w	r7, r7, #32768	; 0x8000
 8000620:	818f      	strh	r7, [r1, #12]
      usb_epdata[epnum].rx_num_blocks = usb_epdata[epnum].tx_num_blocks = size / 32 - 1;
 8000622:	0957      	lsrs	r7, r2, #5
 8000624:	3f01      	subs	r7, #1
 8000626:	f007 071f 	and.w	r7, r7, #31
 800062a:	e7d3      	b.n	80005d4 <usb_ep_init_double+0xe8>
 800062c:	20000024 	andcs	r0, r0, r4, lsr #32
 8000630:	20000044 	andcs	r0, r0, r4, asr #32
 8000634:	20000000 	andcs	r0, r0, r0

08000638 <USB_LP_IRQHandler>:

// standard IRQ handler
void USB_LP_IRQHandler(){
 8000638:	b538      	push	{r3, r4, r5, lr}
  if(USB->ISTR & USB_ISTR_RESET){
 800063a:	4c42      	ldr	r4, [pc, #264]	; (8000744 <USB_LP_IRQHandler+0x10c>)
 800063c:	f8b4 3044 	ldrh.w	r3, [r4, #68]	; 0x44
 8000640:	055d      	lsls	r5, r3, #21
 8000642:	d52c      	bpl.n	800069e <USB_LP_IRQHandler+0x66>
    usb_class_disconnect();
 8000644:	f7ff fe8f 	bl	8000366 <usb_class_disconnect>
    USB->CNTR = USB_CNTR_RESETM | USB_CNTR_CTRM | USB_CNTR_SUSPM | USB_CNTR_WKUPM;
 8000648:	f44f 431c 	mov.w	r3, #39936	; 0x9c00
    lastaddr = LASTADDR_DEFAULT;
 800064c:	2240      	movs	r2, #64	; 0x40
    USB->CNTR = USB_CNTR_RESETM | USB_CNTR_CTRM | USB_CNTR_SUSPM | USB_CNTR_WKUPM;
 800064e:	f8a4 3040 	strh.w	r3, [r4, #64]	; 0x40
    lastaddr = LASTADDR_DEFAULT;
 8000652:	4b3d      	ldr	r3, [pc, #244]	; (8000748 <USB_LP_IRQHandler+0x110>)
 8000654:	493d      	ldr	r1, [pc, #244]	; (800074c <USB_LP_IRQHandler+0x114>)
 8000656:	801a      	strh	r2, [r3, #0]
    USB->DADDR = USB_DADDR_EF;
 8000658:	2380      	movs	r3, #128	; 0x80
    for(uint8_t i=0; i<STM32ENDPOINTS; i++){
      epfunc_in[i] = epfunc_out[i] = NULL;
 800065a:	2200      	movs	r2, #0
    USB->DADDR = USB_DADDR_EF;
 800065c:	f8a4 304c 	strh.w	r3, [r4, #76]	; 0x4c
 8000660:	2408      	movs	r4, #8
 8000662:	4b3b      	ldr	r3, [pc, #236]	; (8000750 <USB_LP_IRQHandler+0x118>)
      epfunc_in[i] = epfunc_out[i] = NULL;
 8000664:	3c01      	subs	r4, #1
    for(uint8_t i=0; i<STM32ENDPOINTS; i++){
 8000666:	f014 04ff 	ands.w	r4, r4, #255	; 0xff
      epfunc_in[i] = epfunc_out[i] = NULL;
 800066a:	f841 2b04 	str.w	r2, [r1], #4
 800066e:	f843 2b04 	str.w	r2, [r3], #4
    for(uint8_t i=0; i<STM32ENDPOINTS; i++){
 8000672:	d1f7      	bne.n	8000664 <USB_LP_IRQHandler+0x2c>
    }
    // state is default - wait for enumeration
    USB->ISTR = (uint16_t)~USB_ISTR_RESET;
 8000674:	f64f 32ff 	movw	r2, #64511	; 0xfbff
 8000678:	4b32      	ldr	r3, [pc, #200]	; (8000744 <USB_LP_IRQHandler+0x10c>)
    usb_ep_init(0x00, USB_ENDP_CTRL, USB_EP0_BUFSZ, ep0_out);
 800067a:	4621      	mov	r1, r4
    USB->ISTR = (uint16_t)~USB_ISTR_RESET;
 800067c:	f8a3 2044 	strh.w	r2, [r3, #68]	; 0x44
    usb_ep_init(0x00, USB_ENDP_CTRL, USB_EP0_BUFSZ, ep0_out);
 8000680:	4620      	mov	r0, r4
 8000682:	4b34      	ldr	r3, [pc, #208]	; (8000754 <USB_LP_IRQHandler+0x11c>)
 8000684:	2208      	movs	r2, #8
 8000686:	f7ff feab 	bl	80003e0 <usb_ep_init>
    usb_ep_init(0x80, USB_ENDP_CTRL, USB_EP0_BUFSZ, ep0_in);
 800068a:	4b33      	ldr	r3, [pc, #204]	; (8000758 <USB_LP_IRQHandler+0x120>)
 800068c:	2208      	movs	r2, #8
 800068e:	4621      	mov	r1, r4
 8000690:	2080      	movs	r0, #128	; 0x80
 8000692:	f7ff fea5 	bl	80003e0 <usb_ep_init>
    ep0_buf = NULL;
 8000696:	4b31      	ldr	r3, [pc, #196]	; (800075c <USB_LP_IRQHandler+0x124>)
 8000698:	601c      	str	r4, [r3, #0]
    usb_class_init();
 800069a:	f000 fa5f 	bl	8000b5c <usb_class_init>
  }
  
  if(USB->ISTR & USB_ISTR_CTR){
 800069e:	4b29      	ldr	r3, [pc, #164]	; (8000744 <USB_LP_IRQHandler+0x10c>)
 80006a0:	f8b3 2044 	ldrh.w	r2, [r3, #68]	; 0x44
 80006a4:	0414      	lsls	r4, r2, #16
 80006a6:	d529      	bpl.n	80006fc <USB_LP_IRQHandler+0xc4>
    uint8_t epnum = USB->ISTR & USB_ISTR_EP_ID;
 80006a8:	f8b3 5044 	ldrh.w	r5, [r3, #68]	; 0x44
 80006ac:	f005 050f 	and.w	r5, r5, #15
    if(USB_EPx(epnum) & USB_EP_CTR_RX){ //OUT
 80006b0:	00ac      	lsls	r4, r5, #2
 80006b2:	f104 4480 	add.w	r4, r4, #1073741824	; 0x40000000
 80006b6:	f504 44b8 	add.w	r4, r4, #23552	; 0x5c00
 80006ba:	8823      	ldrh	r3, [r4, #0]
 80006bc:	0418      	lsls	r0, r3, #16
 80006be:	d50c      	bpl.n	80006da <USB_LP_IRQHandler+0xa2>
      epfunc_out[epnum](epnum);
 80006c0:	4b22      	ldr	r3, [pc, #136]	; (800074c <USB_LP_IRQHandler+0x114>)
 80006c2:	4628      	mov	r0, r5
 80006c4:	f853 3025 	ldr.w	r3, [r3, r5, lsl #2]
 80006c8:	4798      	blx	r3
      ENDP_CTR_RX_CLR(epnum);
 80006ca:	8823      	ldrh	r3, [r4, #0]
 80006cc:	f023 03f0 	bic.w	r3, r3, #240	; 0xf0
 80006d0:	051b      	lsls	r3, r3, #20
 80006d2:	0d1b      	lsrs	r3, r3, #20
 80006d4:	f043 0380 	orr.w	r3, r3, #128	; 0x80
 80006d8:	8023      	strh	r3, [r4, #0]
    }
    if(USB_EPx(epnum) & USB_EP_CTR_TX){//IN
 80006da:	8823      	ldrh	r3, [r4, #0]
 80006dc:	0619      	lsls	r1, r3, #24
 80006de:	d50d      	bpl.n	80006fc <USB_LP_IRQHandler+0xc4>
      epfunc_in[epnum](epnum | 0x80);
 80006e0:	4b1b      	ldr	r3, [pc, #108]	; (8000750 <USB_LP_IRQHandler+0x118>)
 80006e2:	f045 0080 	orr.w	r0, r5, #128	; 0x80
 80006e6:	f853 3025 	ldr.w	r3, [r3, r5, lsl #2]
 80006ea:	4798      	blx	r3
      ENDP_CTR_TX_CLR(epnum);
 80006ec:	8823      	ldrh	r3, [r4, #0]
 80006ee:	f023 03f0 	bic.w	r3, r3, #240	; 0xf0
 80006f2:	051b      	lsls	r3, r3, #20
 80006f4:	0d1b      	lsrs	r3, r3, #20
 80006f6:	f443 4300 	orr.w	r3, r3, #32768	; 0x8000
 80006fa:	8023      	strh	r3, [r4, #0]
    }
  }
  
  if(USB->ISTR & USB_ISTR_SUSP){ // suspend -> still no connection, may sleep
 80006fc:	4c11      	ldr	r4, [pc, #68]	; (8000744 <USB_LP_IRQHandler+0x10c>)
 80006fe:	f8b4 3044 	ldrh.w	r3, [r4, #68]	; 0x44
 8000702:	051a      	lsls	r2, r3, #20
 8000704:	d50b      	bpl.n	800071e <USB_LP_IRQHandler+0xe6>
    usb_class_disconnect();
 8000706:	f7ff fe2e 	bl	8000366 <usb_class_disconnect>
    USB->CNTR |= USB_CNTR_FSUSP | USB_CNTR_LP_MODE;
 800070a:	f8b4 3040 	ldrh.w	r3, [r4, #64]	; 0x40
 800070e:	f043 030c 	orr.w	r3, r3, #12
 8000712:	f8a4 3040 	strh.w	r3, [r4, #64]	; 0x40
    USB->ISTR = (uint16_t)~USB_ISTR_SUSP;
 8000716:	f24f 73ff 	movw	r3, #63487	; 0xf7ff
 800071a:	f8a4 3044 	strh.w	r3, [r4, #68]	; 0x44
  }
  
  if(USB->ISTR & USB_ISTR_WKUP){ // wakeup
 800071e:	4a09      	ldr	r2, [pc, #36]	; (8000744 <USB_LP_IRQHandler+0x10c>)
 8000720:	f8b2 3044 	ldrh.w	r3, [r2, #68]	; 0x44
 8000724:	04db      	lsls	r3, r3, #19
 8000726:	d50b      	bpl.n	8000740 <USB_LP_IRQHandler+0x108>
    USB->CNTR &= ~(USB_CNTR_FSUSP | USB_CNTR_LP_MODE); // clear suspend flags
 8000728:	f8b2 3040 	ldrh.w	r3, [r2, #64]	; 0x40
 800072c:	f023 030c 	bic.w	r3, r3, #12
 8000730:	041b      	lsls	r3, r3, #16
 8000732:	0c1b      	lsrs	r3, r3, #16
 8000734:	f8a2 3040 	strh.w	r3, [r2, #64]	; 0x40
    USB->ISTR = (uint16_t)~USB_ISTR_WKUP;
 8000738:	f64e 73ff 	movw	r3, #61439	; 0xefff
 800073c:	f8a2 3044 	strh.w	r3, [r2, #68]	; 0x44
  }
}
 8000740:	bd38      	pop	{r3, r4, r5, pc}
 8000742:	bf00      	nop
 8000744:	40005c00 	andmi	r5, r0, r0, lsl #24
 8000748:	20000000 	andcs	r0, r0, r0
 800074c:	20000044 	andcs	r0, r0, r4, asr #32
 8000750:	20000024 	andcs	r0, r0, r4, lsr #32
 8000754:	0800086b 	stmdaeq	r0, {r0, r1, r3, r5, r6, fp}
 8000758:	080007b5 	stmdaeq	r0, {r0, r2, r4, r5, r7, r8, r9, sl}
 800075c:	20000004 	andcs	r0, r0, r4

08000760 <_usb_ep_write>:
      uint32_t rx_blocksize:1;
    };
  };
}pma_descr_t;

void _usb_ep_write(uint8_t idx, const uint8_t *buf, uint16_t size){
 8000760:	b5f0      	push	{r4, r5, r6, r7, lr}
  pma_descr_t *descr = &((pma_descr_t*)usb_epdata)[idx];
  uint16_t N2 = (size + 1) >> 1;
  // the buffer is 16-bit, so we should copy data as it would be uint16_t
  uint16_t *buf16 = (uint16_t *)buf;
  uint32_t *out = (uint32_t*)((uint16_t *)(USB_PMAADDR + descr->addr*2));
  for(uint16_t i = 0; i < N2; ++i, ++out){
 8000762:	2500      	movs	r5, #0
  pma_descr_t *descr = &((pma_descr_t*)usb_epdata)[idx];
 8000764:	00c4      	lsls	r4, r0, #3
 8000766:	f104 4480 	add.w	r4, r4, #1073741824	; 0x40000000
 800076a:	f504 44c0 	add.w	r4, r4, #24576	; 0x6000
  uint32_t *out = (uint32_t*)((uint16_t *)(USB_PMAADDR + descr->addr*2));
 800076e:	6823      	ldr	r3, [r4, #0]
  uint16_t N2 = (size + 1) >> 1;
 8000770:	1c56      	adds	r6, r2, #1
  uint32_t *out = (uint32_t*)((uint16_t *)(USB_PMAADDR + descr->addr*2));
 8000772:	f103 5300 	add.w	r3, r3, #536870912	; 0x20000000
 8000776:	f503 5340 	add.w	r3, r3, #12288	; 0x3000
  uint16_t N2 = (size + 1) >> 1;
 800077a:	0876      	lsrs	r6, r6, #1
  uint32_t *out = (uint32_t*)((uint16_t *)(USB_PMAADDR + descr->addr*2));
 800077c:	005b      	lsls	r3, r3, #1
  for(uint16_t i = 0; i < N2; ++i, ++out){
 800077e:	b2af      	uxth	r7, r5
 8000780:	42be      	cmp	r6, r7
 8000782:	d811      	bhi.n	80007a8 <_usb_ep_write+0x48>
    *out = buf16[i];
  }
  descr->count = size;
  
  ENDP_STAT_TX((idx/2), USB_EP_TX_VALID);
 8000784:	0840      	lsrs	r0, r0, #1
 8000786:	0080      	lsls	r0, r0, #2
 8000788:	f100 4080 	add.w	r0, r0, #1073741824	; 0x40000000
  descr->count = size;
 800078c:	6062      	str	r2, [r4, #4]
  ENDP_STAT_TX((idx/2), USB_EP_TX_VALID);
 800078e:	f500 40b8 	add.w	r0, r0, #23552	; 0x5c00
 8000792:	8803      	ldrh	r3, [r0, #0]
 8000794:	f023 03c0 	bic.w	r3, r3, #192	; 0xc0
 8000798:	051b      	lsls	r3, r3, #20
 800079a:	0d1b      	lsrs	r3, r3, #20
 800079c:	f483 4300 	eor.w	r3, r3, #32768	; 0x8000
 80007a0:	f083 03b0 	eor.w	r3, r3, #176	; 0xb0
 80007a4:	8003      	strh	r3, [r0, #0]
}
 80007a6:	bdf0      	pop	{r4, r5, r6, r7, pc}
    *out = buf16[i];
 80007a8:	f831 7015 	ldrh.w	r7, [r1, r5, lsl #1]
 80007ac:	f843 7025 	str.w	r7, [r3, r5, lsl #2]
 80007b0:	3501      	adds	r5, #1
 80007b2:	e7e4      	b.n	800077e <_usb_ep_write+0x1e>

080007b4 <ep0_in>:
static void ep0_in(uint8_t epnum){
 80007b4:	b5f8      	push	{r3, r4, r5, r6, r7, lr}
  if( (USB->DADDR & USB_DADDR_ADD) != USB_Addr ){
 80007b6:	4b14      	ldr	r3, [pc, #80]	; (8000808 <ep0_in+0x54>)
 80007b8:	4c14      	ldr	r4, [pc, #80]	; (800080c <ep0_in+0x58>)
 80007ba:	f8b3 104c 	ldrh.w	r1, [r3, #76]	; 0x4c
 80007be:	7922      	ldrb	r2, [r4, #4]
 80007c0:	f001 017f 	and.w	r1, r1, #127	; 0x7f
 80007c4:	4291      	cmp	r1, r2
    USB->DADDR = USB_DADDR_EF | USB_Addr;
 80007c6:	bf1c      	itt	ne
 80007c8:	f042 0280 	orrne.w	r2, r2, #128	; 0x80
 80007cc:	f8a3 204c 	strhne.w	r2, [r3, #76]	; 0x4c
  if( (USB_EPx(0) & USB_EPTX_STAT) == USB_EP_TX_VALID )return;
 80007d0:	881b      	ldrh	r3, [r3, #0]
 80007d2:	f003 0330 	and.w	r3, r3, #48	; 0x30
 80007d6:	2b30      	cmp	r3, #48	; 0x30
 80007d8:	d014      	beq.n	8000804 <ep0_in+0x50>
  if(ep0_buf == NULL)return;
 80007da:	6825      	ldr	r5, [r4, #0]
 80007dc:	b195      	cbz	r5, 8000804 <ep0_in+0x50>
  uint16_t left = ep0_count;
 80007de:	88e7      	ldrh	r7, [r4, #6]
#define bLENGTH 0
#define wTOTALLENGTH 0,0

void _usb_ep_write(uint8_t idx, const uint8_t *buf, uint16_t size);
static inline void usb_ep_write(uint8_t epnum, const uint8_t *buf, uint16_t size){
  _usb_ep_write((epnum & 0x0F)*2, buf, size);
 80007e0:	4629      	mov	r1, r5
 80007e2:	2f08      	cmp	r7, #8
 80007e4:	463e      	mov	r6, r7
 80007e6:	bf28      	it	cs
 80007e8:	2608      	movcs	r6, #8
 80007ea:	2000      	movs	r0, #0
 80007ec:	4632      	mov	r2, r6
 80007ee:	f7ff ffb7 	bl	8000760 <_usb_ep_write>
  if(left < USB_EP0_BUFSZ){
 80007f2:	2f07      	cmp	r7, #7
  ep0_count -= left;
 80007f4:	eba7 0306 	sub.w	r3, r7, r6
 80007f8:	80e3      	strh	r3, [r4, #6]
    ep0_buf = NULL;
 80007fa:	bf93      	iteet	ls
 80007fc:	2300      	movls	r3, #0
  ep0_buf += left;
 80007fe:	19ad      	addhi	r5, r5, r6
 8000800:	6025      	strhi	r5, [r4, #0]
    ep0_buf = NULL;
 8000802:	6023      	strls	r3, [r4, #0]
}
 8000804:	bdf8      	pop	{r3, r4, r5, r6, r7, pc}
 8000806:	bf00      	nop
 8000808:	40005c00 	andmi	r5, r0, r0, lsl #24
 800080c:	20000004 	andcs	r0, r0, r4

08000810 <_usb_ep_read>:

int _usb_ep_read(uint8_t idx, uint16_t *buf){
 8000810:	b530      	push	{r4, r5, lr}
  pma_descr_t *descr = &((pma_descr_t*)usb_epdata)[idx];
 8000812:	00c2      	lsls	r2, r0, #3
 8000814:	f102 4280 	add.w	r2, r2, #1073741824	; 0x40000000
 8000818:	f502 42c0 	add.w	r2, r2, #24576	; 0x6000
int _usb_ep_read(uint8_t idx, uint16_t *buf){
 800081c:	4603      	mov	r3, r0
  int sz = descr->rx_count;
 800081e:	6850      	ldr	r0, [r2, #4]
 8000820:	f3c0 0009 	ubfx	r0, r0, #0, #10
  if(!sz) return 0;
 8000824:	b300      	cbz	r0, 8000868 <_usb_ep_read+0x58>
  int n = (sz + 1) >> 1;
  uint32_t *in = (uint32_t*)((uint16_t *)(USB_PMAADDR + descr->addr*2));
 8000826:	6812      	ldr	r2, [r2, #0]
  int n = (sz + 1) >> 1;
 8000828:	1c44      	adds	r4, r0, #1
  uint32_t *in = (uint32_t*)((uint16_t *)(USB_PMAADDR + descr->addr*2));
 800082a:	f102 5200 	add.w	r2, r2, #536870912	; 0x20000000
 800082e:	f502 5240 	add.w	r2, r2, #12288	; 0x3000
 8000832:	0052      	lsls	r2, r2, #1
  int n = (sz + 1) >> 1;
 8000834:	1064      	asrs	r4, r4, #1
 8000836:	3902      	subs	r1, #2
 8000838:	eb02 0484 	add.w	r4, r2, r4, lsl #2
  for(int i = 0; i < n; ++i, ++in)
    buf[i] = *(uint16_t*)in;
 800083c:	f832 5b04 	ldrh.w	r5, [r2], #4
  for(int i = 0; i < n; ++i, ++in)
 8000840:	42a2      	cmp	r2, r4
    buf[i] = *(uint16_t*)in;
 8000842:	f821 5f02 	strh.w	r5, [r1, #2]!
  for(int i = 0; i < n; ++i, ++in)
 8000846:	d1f9      	bne.n	800083c <_usb_ep_read+0x2c>
  
  ENDP_STAT_RX((idx/2), USB_EP_RX_VALID);
 8000848:	085b      	lsrs	r3, r3, #1
 800084a:	009b      	lsls	r3, r3, #2
 800084c:	f103 4380 	add.w	r3, r3, #1073741824	; 0x40000000
 8000850:	f503 43b8 	add.w	r3, r3, #23552	; 0x5c00
 8000854:	881a      	ldrh	r2, [r3, #0]
 8000856:	f022 02f0 	bic.w	r2, r2, #240	; 0xf0
 800085a:	0492      	lsls	r2, r2, #18
 800085c:	0c92      	lsrs	r2, r2, #18
 800085e:	f482 4230 	eor.w	r2, r2, #45056	; 0xb000
 8000862:	f082 0280 	eor.w	r2, r2, #128	; 0x80
 8000866:	801a      	strh	r2, [r3, #0]
  return sz;
}
 8000868:	bd30      	pop	{r4, r5, pc}

0800086a <ep0_out>:
static void ep0_out(uint8_t epnum){
 800086a:	b573      	push	{r0, r1, r4, r5, r6, lr}
  uint16_t rxcount = usb_epdata[0].rx_count;
 800086c:	4b3f      	ldr	r3, [pc, #252]	; (800096c <ep0_out+0x102>)
 800086e:	4c40      	ldr	r4, [pc, #256]	; (8000970 <ep0_out+0x106>)
 8000870:	68dd      	ldr	r5, [r3, #12]
  uint8_t setup = !!(USB_EPx(0) & USB_EP_SETUP);
 8000872:	f5a3 6380 	sub.w	r3, r3, #1024	; 0x400
 8000876:	881b      	ldrh	r3, [r3, #0]
  uint16_t rxcount = usb_epdata[0].rx_count;
 8000878:	f3c5 0509 	ubfx	r5, r5, #0, #10
  if( setup ){
 800087c:	f413 6600 	ands.w	r6, r3, #2048	; 0x800
 8000880:	d009      	beq.n	8000896 <ep0_out+0x2c>
    if( setup_packet.bmRequestType & 0x80 ){ //предыдущий пакет=IN, этот точно будет запросом
 8000882:	f994 3008 	ldrsb.w	r3, [r4, #8]
 8000886:	2b00      	cmp	r3, #0
 8000888:	da17      	bge.n	80008ba <ep0_out+0x50>
      bytesread = 0;
 800088a:	2500      	movs	r5, #0
  _usb_ep_write((epnum & 0x0F)*2 + idx, buf, size);
}

int _usb_ep_read(uint8_t idx, uint16_t *buf);
static inline int usb_ep_read(uint8_t epnum, uint16_t *buf){
  return _usb_ep_read((epnum & 0x0F)*2 + 1, buf);
 800088c:	4939      	ldr	r1, [pc, #228]	; (8000974 <ep0_out+0x10a>)
 800088e:	2001      	movs	r0, #1
 8000890:	f7ff ffbe 	bl	8000810 <_usb_ep_read>
 8000894:	8225      	strh	r5, [r4, #16]
  uint8_t req = setup_packet.bmRequestType & 0x7F;
 8000896:	7a22      	ldrb	r2, [r4, #8]
 8000898:	f002 037f 	and.w	r3, r2, #127	; 0x7f
  if(setup_packet.bmRequestType & 0x80){
 800089c:	0612      	lsls	r2, r2, #24
 800089e:	d53c      	bpl.n	800091a <ep0_out+0xb0>
    if( !setup )return; //какой-то костыль. Иначе вызывается два раза
 80008a0:	b34e      	cbz	r6, 80008f6 <ep0_out+0x8c>
    if(req == (USB_REQ_STANDARD | USB_REQ_DEVICE)){
 80008a2:	bb73      	cbnz	r3, 8000902 <ep0_out+0x98>
      switch(setup_packet.bRequest){
 80008a4:	7a60      	ldrb	r0, [r4, #9]
 80008a6:	2806      	cmp	r0, #6
 80008a8:	d00c      	beq.n	80008c4 <ep0_out+0x5a>
 80008aa:	2808      	cmp	r0, #8
 80008ac:	d025      	beq.n	80008fa <ep0_out+0x90>
 80008ae:	bb40      	cbnz	r0, 8000902 <ep0_out+0x98>
  _usb_ep_write((epnum & 0x0F)*2, buf, size);
 80008b0:	2202      	movs	r2, #2
 80008b2:	4931      	ldr	r1, [pc, #196]	; (8000978 <ep0_out+0x10e>)
 80008b4:	f7ff ff54 	bl	8000760 <_usb_ep_write>
 80008b8:	e01d      	b.n	80008f6 <ep0_out+0x8c>
      if( bytesread >= setup_packet.wLength ){
 80008ba:	89e2      	ldrh	r2, [r4, #14]
 80008bc:	8a23      	ldrh	r3, [r4, #16]
 80008be:	429a      	cmp	r2, r3
 80008c0:	d8e9      	bhi.n	8000896 <ep0_out+0x2c>
 80008c2:	e7e2      	b.n	800088a <ep0_out+0x20>
          const void *data = ZLPP;
 80008c4:	2201      	movs	r2, #1
          usb_class_get_std_descr(setup_packet.wValue, &data, &size);
 80008c6:	a901      	add	r1, sp, #4
          const void *data = ZLPP;
 80008c8:	9201      	str	r2, [sp, #4]
          usb_class_get_std_descr(setup_packet.wValue, &data, &size);
 80008ca:	8960      	ldrh	r0, [r4, #10]
 80008cc:	f10d 0202 	add.w	r2, sp, #2
          uint16_t size = 0;
 80008d0:	f8ad 3002 	strh.w	r3, [sp, #2]
          usb_class_get_std_descr(setup_packet.wValue, &data, &size);
 80008d4:	f000 f87e 	bl	80009d4 <usb_class_get_std_descr>
    if(setup_packet.wLength < size) size = setup_packet.wLength;
 80008d8:	89e3      	ldrh	r3, [r4, #14]
 80008da:	f8bd 2002 	ldrh.w	r2, [sp, #2]
  ep0_in(0x80);
 80008de:	2080      	movs	r0, #128	; 0x80
    if(setup_packet.wLength < size) size = setup_packet.wLength;
 80008e0:	429a      	cmp	r2, r3
 80008e2:	bf88      	it	hi
 80008e4:	f8ad 3002 	strhhi.w	r3, [sp, #2]
  ep0_count = size;
 80008e8:	f8bd 3002 	ldrh.w	r3, [sp, #2]
 80008ec:	80e3      	strh	r3, [r4, #6]
  ep0_buf = buf;
 80008ee:	9b01      	ldr	r3, [sp, #4]
 80008f0:	6023      	str	r3, [r4, #0]
  ep0_in(0x80);
 80008f2:	f7ff ff5f 	bl	80007b4 <ep0_in>
}
 80008f6:	b002      	add	sp, #8
 80008f8:	bd70      	pop	{r4, r5, r6, pc}
 80008fa:	2201      	movs	r2, #1
 80008fc:	491f      	ldr	r1, [pc, #124]	; (800097c <ep0_out+0x112>)
 80008fe:	4618      	mov	r0, r3
 8000900:	e7d8      	b.n	80008b4 <ep0_out+0x4a>
    void *data = ZLPP;
 8000902:	2301      	movs	r3, #1
 8000904:	9301      	str	r3, [sp, #4]
    uint16_t size = 0;
 8000906:	2300      	movs	r3, #0
    usb_class_ep0_in( &setup_packet, &data, &size );
 8000908:	f10d 0202 	add.w	r2, sp, #2
 800090c:	a901      	add	r1, sp, #4
 800090e:	4819      	ldr	r0, [pc, #100]	; (8000974 <ep0_out+0x10a>)
    uint16_t size = 0;
 8000910:	f8ad 3002 	strh.w	r3, [sp, #2]
    usb_class_ep0_in( &setup_packet, &data, &size );
 8000914:	f000 f89c 	bl	8000a50 <usb_class_ep0_in>
 8000918:	e7de      	b.n	80008d8 <ep0_out+0x6e>
    if(req == (USB_REQ_STANDARD | USB_REQ_DEVICE)){
 800091a:	b96b      	cbnz	r3, 8000938 <ep0_out+0xce>
      if(setup_packet.bRequest == SET_ADDRESS){
 800091c:	7a62      	ldrb	r2, [r4, #9]
 800091e:	2a05      	cmp	r2, #5
 8000920:	d105      	bne.n	800092e <ep0_out+0xc4>
        USB_Addr = setup_packet.wValue;
 8000922:	8962      	ldrh	r2, [r4, #10]
 8000924:	7122      	strb	r2, [r4, #4]
 8000926:	2200      	movs	r2, #0
 8000928:	4611      	mov	r1, r2
 800092a:	4610      	mov	r0, r2
 800092c:	e7c2      	b.n	80008b4 <ep0_out+0x4a>
      }else if(setup_packet.bRequest == SET_CONFIGURATION){
 800092e:	2a09      	cmp	r2, #9
 8000930:	d102      	bne.n	8000938 <ep0_out+0xce>
        configuration = setup_packet.wValue;
 8000932:	8962      	ldrh	r2, [r4, #10]
 8000934:	74a2      	strb	r2, [r4, #18]
 8000936:	e7f6      	b.n	8000926 <ep0_out+0xbc>
    if(!usb_class_ep0_out( &setup_packet, bytesread, rxcount )){
 8000938:	462a      	mov	r2, r5
 800093a:	8a21      	ldrh	r1, [r4, #16]
 800093c:	480d      	ldr	r0, [pc, #52]	; (8000974 <ep0_out+0x10a>)
 800093e:	f000 f889 	bl	8000a54 <usb_class_ep0_out>
 8000942:	b950      	cbnz	r0, 800095a <ep0_out+0xf0>
      ENDP_STAT_RX(0, USB_EP_RX_VALID);
 8000944:	4a0e      	ldr	r2, [pc, #56]	; (8000980 <ep0_out+0x116>)
 8000946:	8813      	ldrh	r3, [r2, #0]
 8000948:	f023 03f0 	bic.w	r3, r3, #240	; 0xf0
 800094c:	049b      	lsls	r3, r3, #18
 800094e:	0c9b      	lsrs	r3, r3, #18
 8000950:	f483 4330 	eor.w	r3, r3, #45056	; 0xb000
 8000954:	f083 0380 	eor.w	r3, r3, #128	; 0x80
 8000958:	8013      	strh	r3, [r2, #0]
    bytesread += rxcount;
 800095a:	8a23      	ldrh	r3, [r4, #16]
 800095c:	441d      	add	r5, r3
    if( bytesread >= setup_packet.wLength )usb_ep_write(0, NULL, 0);
 800095e:	89e3      	ldrh	r3, [r4, #14]
    bytesread += rxcount;
 8000960:	b2ad      	uxth	r5, r5
    if( bytesread >= setup_packet.wLength )usb_ep_write(0, NULL, 0);
 8000962:	42ab      	cmp	r3, r5
    bytesread += rxcount;
 8000964:	8225      	strh	r5, [r4, #16]
    if( bytesread >= setup_packet.wLength )usb_ep_write(0, NULL, 0);
 8000966:	d8c6      	bhi.n	80008f6 <ep0_out+0x8c>
 8000968:	e7dd      	b.n	8000926 <ep0_out+0xbc>
 800096a:	bf00      	nop
 800096c:	40006000 	andmi	r6, r0, r0
 8000970:	20000004 	andcs	r0, r0, r4
 8000974:	2000000c 	andcs	r0, r0, ip
 8000978:	08000ddc 	stmdaeq	r0, {r2, r3, r4, r6, r7, r8, sl, fp}
 800097c:	20000016 	andcs	r0, r0, r6, lsl r0
 8000980:	40005c00 	andmi	r5, r0, r0, lsl #24

08000984 <data_out_callback>:

#define INTR_FREQ_HZ 1000
#define SAMPLE_COUNT ((F_SAMPLE / INTR_FREQ_HZ))
#define RES_FREQ_HZ 1000

void data_out_callback(uint8_t epnum){
 8000984:	b530      	push	{r4, r5, lr}
}
static inline int usb_ep_read_double(uint8_t epnum, uint16_t *buf){
  uint8_t idx = !(USB_EPx(epnum) & USB_EP_DTOG_TX);
 8000986:	4b11      	ldr	r3, [pc, #68]	; (80009cc <data_out_callback+0x48>)
 8000988:	b091      	sub	sp, #68	; 0x44
 800098a:	8818      	ldrh	r0, [r3, #0]
  return _usb_ep_read((epnum & 0x0F)*2 + idx, buf);
 800098c:	4669      	mov	r1, sp
  uint8_t idx = !(USB_EPx(epnum) & USB_EP_DTOG_TX);
 800098e:	f080 0040 	eor.w	r0, r0, #64	; 0x40
 8000992:	f3c0 1080 	ubfx	r0, r0, #6, #1
  return _usb_ep_read((epnum & 0x0F)*2 + idx, buf);
 8000996:	3002      	adds	r0, #2
 8000998:	f7ff ff3a 	bl	8000810 <_usb_ep_read>
  int cnt;
  int16_t buf[ENDP_DATA_SIZE/2];
  cnt = usb_ep_read_double(ENDP_DATA_NUM, (void*)buf);
  cnt /= 2;
  GPO_OFF(GLED);
 800099c:	f04f 7300 	mov.w	r3, #33554432	; 0x2000000
 80009a0:	4a0b      	ldr	r2, [pc, #44]	; (80009d0 <data_out_callback+0x4c>)
  for(int i=0; i<cnt; i++){
    if(buf[i] > 10000)GPO_ON(GLED);
 80009a2:	f242 7110 	movw	r1, #10000	; 0x2710
  GPO_OFF(GLED);
 80009a6:	6193      	str	r3, [r2, #24]
    if(buf[i] > 10000)GPO_ON(GLED);
 80009a8:	f44f 7400 	mov.w	r4, #512	; 0x200
  for(int i=0; i<cnt; i++){
 80009ac:	2300      	movs	r3, #0
  cnt /= 2;
 80009ae:	eb00 70d0 	add.w	r0, r0, r0, lsr #31
 80009b2:	1040      	asrs	r0, r0, #1
  for(int i=0; i<cnt; i++){
 80009b4:	4283      	cmp	r3, r0
 80009b6:	db01      	blt.n	80009bc <data_out_callback+0x38>
  }
}
 80009b8:	b011      	add	sp, #68	; 0x44
 80009ba:	bd30      	pop	{r4, r5, pc}
    if(buf[i] > 10000)GPO_ON(GLED);
 80009bc:	f93d 5013 	ldrsh.w	r5, [sp, r3, lsl #1]
  for(int i=0; i<cnt; i++){
 80009c0:	3301      	adds	r3, #1
    if(buf[i] > 10000)GPO_ON(GLED);
 80009c2:	428d      	cmp	r5, r1
 80009c4:	bfc8      	it	gt
 80009c6:	6194      	strgt	r4, [r2, #24]
 80009c8:	e7f4      	b.n	80009b4 <data_out_callback+0x30>
 80009ca:	bf00      	nop
 80009cc:	40005c04 	andmi	r5, r0, r4, lsl #24
 80009d0:	40020400 	andmi	r0, r2, r0, lsl #8

080009d4 <usb_class_get_std_descr>:
  switch(descr & 0xFF00){
 80009d4:	f400 437f 	and.w	r3, r0, #65280	; 0xff00
 80009d8:	f5b3 7f00 	cmp.w	r3, #512	; 0x200
 80009dc:	d010      	beq.n	8000a00 <usb_class_get_std_descr+0x2c>
 80009de:	d803      	bhi.n	80009e8 <usb_class_get_std_descr+0x14>
 80009e0:	f5b3 7f80 	cmp.w	r3, #256	; 0x100
 80009e4:	d007      	beq.n	80009f6 <usb_class_get_std_descr+0x22>
 80009e6:	4770      	bx	lr
 80009e8:	f5b3 7f40 	cmp.w	r3, #768	; 0x300
 80009ec:	d010      	beq.n	8000a10 <usb_class_get_std_descr+0x3c>
 80009ee:	f5b3 6fc0 	cmp.w	r3, #1536	; 0x600
 80009f2:	d009      	beq.n	8000a08 <usb_class_get_std_descr+0x34>
 80009f4:	4770      	bx	lr
      *data = &USB_DeviceDescriptor;
 80009f6:	4b0f      	ldr	r3, [pc, #60]	; (8000a34 <usb_class_get_std_descr+0x60>)
 80009f8:	600b      	str	r3, [r1, #0]
      *size = sizeof(USB_DeviceDescriptor);
 80009fa:	2312      	movs	r3, #18
      *size = ((uint8_t*)*data)[0]; //data->bLength
 80009fc:	8013      	strh	r3, [r2, #0]
}
 80009fe:	4770      	bx	lr
      *data = &USB_ConfigDescriptor;
 8000a00:	4b0d      	ldr	r3, [pc, #52]	; (8000a38 <usb_class_get_std_descr+0x64>)
 8000a02:	600b      	str	r3, [r1, #0]
      *size = sizeof(USB_ConfigDescriptor);
 8000a04:	23c0      	movs	r3, #192	; 0xc0
 8000a06:	e7f9      	b.n	80009fc <usb_class_get_std_descr+0x28>
      *data = &USB_DeviceQualifierDescriptor;
 8000a08:	4b0c      	ldr	r3, [pc, #48]	; (8000a3c <usb_class_get_std_descr+0x68>)
 8000a0a:	600b      	str	r3, [r1, #0]
      *size = USB_DeviceQualifierDescriptor[0];
 8000a0c:	230a      	movs	r3, #10
 8000a0e:	e7f5      	b.n	80009fc <usb_class_get_std_descr+0x28>
      switch(descr & 0xFF){
 8000a10:	b2c0      	uxtb	r0, r0
 8000a12:	2803      	cmp	r0, #3
 8000a14:	d8f3      	bhi.n	80009fe <usb_class_get_std_descr+0x2a>
 8000a16:	e8df f000 	tbb	[pc, r0]
 8000a1a:	0b090702 	bleq	824262a <__exidx_end+0x24153e>
          *data = &USB_StringLangDescriptor;
 8000a1e:	4b08      	ldr	r3, [pc, #32]	; (8000a40 <usb_class_get_std_descr+0x6c>)
          *data = &USB_StringSerialDescriptor;
 8000a20:	600b      	str	r3, [r1, #0]
      *size = ((uint8_t*)*data)[0]; //data->bLength
 8000a22:	680b      	ldr	r3, [r1, #0]
 8000a24:	781b      	ldrb	r3, [r3, #0]
 8000a26:	e7e9      	b.n	80009fc <usb_class_get_std_descr+0x28>
          *data = &USB_StringManufacturingDescriptor;
 8000a28:	4b06      	ldr	r3, [pc, #24]	; (8000a44 <usb_class_get_std_descr+0x70>)
 8000a2a:	e7f9      	b.n	8000a20 <usb_class_get_std_descr+0x4c>
          *data = &USB_StringProdDescriptor;
 8000a2c:	4b06      	ldr	r3, [pc, #24]	; (8000a48 <usb_class_get_std_descr+0x74>)
 8000a2e:	e7f7      	b.n	8000a20 <usb_class_get_std_descr+0x4c>
          *data = &USB_StringSerialDescriptor;
 8000a30:	4b06      	ldr	r3, [pc, #24]	; (8000a4c <usb_class_get_std_descr+0x78>)
 8000a32:	e7f5      	b.n	8000a20 <usb_class_get_std_descr+0x4c>
 8000a34:	08000dde 	stmdaeq	r0, {r1, r2, r3, r4, r6, r7, r8, sl, fp}
 8000a38:	08000df0 	stmdaeq	r0, {r4, r5, r6, r7, r8, sl, fp}
 8000a3c:	08000eb0 	stmdaeq	r0, {r4, r5, r7, r9, sl, fp}
 8000a40:	08000eba 	stmdaeq	r0, {r1, r3, r4, r5, r7, r9, sl, fp}
 8000a44:	08000ebe 	stmdaeq	r0, {r1, r2, r3, r4, r5, r7, r9, sl, fp}
 8000a48:	08000ed4 	stmdaeq	r0, {r2, r4, r6, r7, r9, sl, fp}
 8000a4c:	08000ee8 	stmdaeq	r0, {r3, r5, r6, r7, r9, sl, fp}

08000a50 <usb_class_ep0_in>:
}
 8000a50:	2000      	movs	r0, #0
 8000a52:	4770      	bx	lr

08000a54 <usb_class_ep0_out>:
char usb_class_ep0_out(config_pack_t *req, uint16_t offset, uint16_t rx_size){
 8000a54:	b510      	push	{r4, lr}
  if(req->bmRequestType == 0x01){
 8000a56:	7804      	ldrb	r4, [r0, #0]
 8000a58:	2c01      	cmp	r4, #1
 8000a5a:	d10d      	bne.n	8000a78 <usb_class_ep0_out+0x24>
    if(req->bRequest == 0x0B){
 8000a5c:	7843      	ldrb	r3, [r0, #1]
 8000a5e:	2b0b      	cmp	r3, #11
 8000a60:	d10a      	bne.n	8000a78 <usb_class_ep0_out+0x24>
      interface[req->wIndex] = req->wValue;
 8000a62:	8841      	ldrh	r1, [r0, #2]
 8000a64:	8883      	ldrh	r3, [r0, #4]
 8000a66:	4a05      	ldr	r2, [pc, #20]	; (8000a7c <usb_class_ep0_out+0x28>)
 8000a68:	54d1      	strb	r1, [r2, r3]
  _usb_ep_write((epnum & 0x0F)*2, buf, size);
 8000a6a:	2200      	movs	r2, #0
 8000a6c:	4611      	mov	r1, r2
 8000a6e:	4610      	mov	r0, r2
 8000a70:	f7ff fe76 	bl	8000760 <_usb_ep_write>
}
 8000a74:	4620      	mov	r0, r4
 8000a76:	bd10      	pop	{r4, pc}
  return 0;
 8000a78:	2400      	movs	r4, #0
 8000a7a:	e7fb      	b.n	8000a74 <usb_class_ep0_out+0x20>
 8000a7c:	20000018 	andcs	r0, r0, r8, lsl r0

08000a80 <dsin>:
int16_t dsin(uint8_t x){
 8000a80:	b510      	push	{r4, lr}
 8000a82:	4604      	mov	r4, r0
 8000a84:	f5ad 7d00 	sub.w	sp, sp, #512	; 0x200
  const int16_t arr[256] = {
 8000a88:	f44f 7200 	mov.w	r2, #512	; 0x200
 8000a8c:	4904      	ldr	r1, [pc, #16]	; (8000aa0 <dsin+0x20>)
 8000a8e:	4668      	mov	r0, sp
 8000a90:	f000 f8c6 	bl	8000c20 <memcpy>
}
 8000a94:	f93d 0014 	ldrsh.w	r0, [sp, r4, lsl #1]
 8000a98:	f50d 7d00 	add.w	sp, sp, #512	; 0x200
 8000a9c:	bd10      	pop	{r4, pc}
 8000a9e:	bf00      	nop
 8000aa0:	08000eec 	stmdaeq	r0, {r2, r3, r5, r6, r7, r9, sl, fp}

08000aa4 <data_in_callback>:

volatile uint16_t count = 0;
void data_in_callback(uint8_t epnum){
 8000aa4:	e92d 43f0 	stmdb	sp!, {r4, r5, r6, r7, r8, r9, lr}
  if(count > (ENDP_DATA_SIZE/2)){
    txsize = (ENDP_DATA_SIZE/2);
  }
  
  static int32_t cnt = 0;
  for(uint8_t i=0; i<txsize; i++){
 8000aa8:	2700      	movs	r7, #0
  uint8_t txsize = count;
 8000aaa:	4d1d      	ldr	r5, [pc, #116]	; (8000b20 <data_in_callback+0x7c>)
  for(uint8_t i=0; i<txsize; i++){
 8000aac:	463a      	mov	r2, r7
  uint8_t txsize = count;
 8000aae:	88ac      	ldrh	r4, [r5, #4]
  if(count > (ENDP_DATA_SIZE/2)){
 8000ab0:	88ab      	ldrh	r3, [r5, #4]
    buf[i] = dsin( (uint32_t)cnt * RES_FREQ_HZ * 256 / F_SAMPLE );
 8000ab2:	f44f 387a 	mov.w	r8, #256000	; 0x3e800
  if(count > (ENDP_DATA_SIZE/2)){
 8000ab6:	2b20      	cmp	r3, #32
 8000ab8:	bf88      	it	hi
 8000aba:	2420      	movhi	r4, #32
    buf[i] = dsin( (uint32_t)cnt * RES_FREQ_HZ * 256 / F_SAMPLE );
 8000abc:	f44f 597a 	mov.w	r9, #16000	; 0x3e80
 8000ac0:	68ae      	ldr	r6, [r5, #8]
void data_in_callback(uint8_t epnum){
 8000ac2:	b0a1      	sub	sp, #132	; 0x84
 8000ac4:	b2e4      	uxtb	r4, r4
  for(uint8_t i=0; i<txsize; i++){
 8000ac6:	b2fb      	uxtb	r3, r7
 8000ac8:	429c      	cmp	r4, r3
 8000aca:	d814      	bhi.n	8000af6 <data_in_callback+0x52>
 8000acc:	b102      	cbz	r2, 8000ad0 <data_in_callback+0x2c>
 8000ace:	60ae      	str	r6, [r5, #8]
  uint8_t idx = !(USB_EPx(epnum) & USB_EP_DTOG_TX);
 8000ad0:	4b14      	ldr	r3, [pc, #80]	; (8000b24 <data_in_callback+0x80>)
    cnt++;
    if(cnt >= F_SAMPLE)cnt -= F_SAMPLE;
  }
  usb_ep_write_double(ENDP_IN_NUM, (void*)buf, txsize*2);
 8000ad2:	b2a4      	uxth	r4, r4
 8000ad4:	8818      	ldrh	r0, [r3, #0]
  _usb_ep_write((epnum & 0x0F)*2 + idx, buf, size);
 8000ad6:	0062      	lsls	r2, r4, #1
  uint8_t idx = !(USB_EPx(epnum) & USB_EP_DTOG_TX);
 8000ad8:	f080 0040 	eor.w	r0, r0, #64	; 0x40
 8000adc:	f3c0 1080 	ubfx	r0, r0, #6, #1
  _usb_ep_write((epnum & 0x0F)*2 + idx, buf, size);
 8000ae0:	4669      	mov	r1, sp
 8000ae2:	3004      	adds	r0, #4
 8000ae4:	f7ff fe3c 	bl	8000760 <_usb_ep_write>

  count -= txsize;
 8000ae8:	88ab      	ldrh	r3, [r5, #4]
 8000aea:	1b1c      	subs	r4, r3, r4
 8000aec:	b2a4      	uxth	r4, r4
 8000aee:	80ac      	strh	r4, [r5, #4]
}
 8000af0:	b021      	add	sp, #132	; 0x84
 8000af2:	e8bd 83f0 	ldmia.w	sp!, {r4, r5, r6, r7, r8, r9, pc}
    buf[i] = dsin( (uint32_t)cnt * RES_FREQ_HZ * 256 / F_SAMPLE );
 8000af6:	fb08 f006 	mul.w	r0, r8, r6
 8000afa:	fbb0 f0f9 	udiv	r0, r0, r9
 8000afe:	b2c0      	uxtb	r0, r0
 8000b00:	f7ff ffbe 	bl	8000a80 <dsin>
    cnt++;
 8000b04:	1c73      	adds	r3, r6, #1
    if(cnt >= F_SAMPLE)cnt -= F_SAMPLE;
 8000b06:	f5b3 5f7a 	cmp.w	r3, #16000	; 0x3e80
 8000b0a:	bfa4      	itt	ge
 8000b0c:	f5a6 5379 	subge.w	r3, r6, #15936	; 0x3e40
 8000b10:	3b3f      	subge	r3, #63	; 0x3f
    buf[i] = dsin( (uint32_t)cnt * RES_FREQ_HZ * 256 / F_SAMPLE );
 8000b12:	f82d 0017 	strh.w	r0, [sp, r7, lsl #1]
    if(cnt >= F_SAMPLE)cnt -= F_SAMPLE;
 8000b16:	2201      	movs	r2, #1
 8000b18:	3701      	adds	r7, #1
  for(uint8_t i=0; i<txsize; i++){
 8000b1a:	461e      	mov	r6, r3
 8000b1c:	e7d3      	b.n	8000ac6 <data_in_callback+0x22>
 8000b1e:	bf00      	nop
 8000b20:	20000018 	andcs	r0, r0, r8, lsl r0
 8000b24:	40005c08 	andmi	r5, r0, r8, lsl #24

08000b28 <TIM4_IRQHandler>:

void TIM4_IRQHandler(){
  TIM4->SR = ~TIM_SR_UIF;
 8000b28:	f06f 0201 	mvn.w	r2, #1
 8000b2c:	4b08      	ldr	r3, [pc, #32]	; (8000b50 <TIM4_IRQHandler+0x28>)
 8000b2e:	611a      	str	r2, [r3, #16]
  
  count += SAMPLE_COUNT;
 8000b30:	4a08      	ldr	r2, [pc, #32]	; (8000b54 <TIM4_IRQHandler+0x2c>)
 8000b32:	8893      	ldrh	r3, [r2, #4]
 8000b34:	3310      	adds	r3, #16
 8000b36:	b29b      	uxth	r3, r3
 8000b38:	8093      	strh	r3, [r2, #4]
  if(count > 0x8FFF){
 8000b3a:	8893      	ldrh	r3, [r2, #4]
 8000b3c:	f5b3 4f10 	cmp.w	r3, #36864	; 0x9000
 8000b40:	d305      	bcc.n	8000b4e <TIM4_IRQHandler+0x26>
    GPO_ON(RLED);
 8000b42:	f44f 7180 	mov.w	r1, #256	; 0x100
 8000b46:	4b04      	ldr	r3, [pc, #16]	; (8000b58 <TIM4_IRQHandler+0x30>)
 8000b48:	6199      	str	r1, [r3, #24]
    count = 0;
 8000b4a:	2300      	movs	r3, #0
 8000b4c:	8093      	strh	r3, [r2, #4]
  }
}
 8000b4e:	4770      	bx	lr
 8000b50:	40000800 	andmi	r0, r0, r0, lsl #16
 8000b54:	20000018 	andcs	r0, r0, r8, lsl r0
 8000b58:	40020400 	andmi	r0, r2, r0, lsl #8

08000b5c <usb_class_init>:

void usb_class_init(){
  usb_ep_init_double( ENDP_DATA_NUM, USB_ENDP_ISO, ENDP_DATA_SIZE, data_out_callback);
 8000b5c:	2101      	movs	r1, #1
void usb_class_init(){
 8000b5e:	b508      	push	{r3, lr}
  usb_ep_init_double( ENDP_DATA_NUM, USB_ENDP_ISO, ENDP_DATA_SIZE, data_out_callback);
 8000b60:	4608      	mov	r0, r1
 8000b62:	4b10      	ldr	r3, [pc, #64]	; (8000ba4 <usb_class_init+0x48>)
 8000b64:	2240      	movs	r2, #64	; 0x40
 8000b66:	f7ff fcc1 	bl	80004ec <usb_ep_init_double>
  usb_ep_init_double( ENDP_IN_NUM | 0x80, USB_ENDP_ISO, ENDP_DATA_SIZE, data_in_callback);
 8000b6a:	4b0f      	ldr	r3, [pc, #60]	; (8000ba8 <usb_class_init+0x4c>)
 8000b6c:	2240      	movs	r2, #64	; 0x40
 8000b6e:	2101      	movs	r1, #1
 8000b70:	2082      	movs	r0, #130	; 0x82
 8000b72:	f7ff fcbb 	bl	80004ec <usb_ep_init_double>
  
  
  RCC->APB1ENR |= RCC_APB1ENR_TIM4EN; //F_APB1=32MHz
 8000b76:	4a0d      	ldr	r2, [pc, #52]	; (8000bac <usb_class_init+0x50>)
 8000b78:	f04f 4080 	mov.w	r0, #1073741824	; 0x40000000
 8000b7c:	6a53      	ldr	r3, [r2, #36]	; 0x24
 8000b7e:	490c      	ldr	r1, [pc, #48]	; (8000bb0 <usb_class_init+0x54>)
 8000b80:	f043 0304 	orr.w	r3, r3, #4
 8000b84:	6253      	str	r3, [r2, #36]	; 0x24
  TIM4->PSC = 31; //1 MHz
 8000b86:	221f      	movs	r2, #31
 8000b88:	4b0a      	ldr	r3, [pc, #40]	; (8000bb4 <usb_class_init+0x58>)
 8000b8a:	629a      	str	r2, [r3, #40]	; 0x28
  TIM4->ARR = (1000000 / INTR_FREQ_HZ)-1;
 8000b8c:	f240 32e7 	movw	r2, #999	; 0x3e7
 8000b90:	62da      	str	r2, [r3, #44]	; 0x2c
  TIM4->CR1 |= (TIM_CR1_ARPE);
 8000b92:	681a      	ldr	r2, [r3, #0]
 8000b94:	f042 0280 	orr.w	r2, r2, #128	; 0x80
 8000b98:	601a      	str	r2, [r3, #0]
  TIM4->DIER = (TIM_DIER_UIE);
 8000b9a:	2201      	movs	r2, #1
 8000b9c:	60da      	str	r2, [r3, #12]
 8000b9e:	6008      	str	r0, [r1, #0]
  NVIC_EnableIRQ(TIM4_IRQn);
  TIM4->CR1 = (TIM_CR1_CEN);
 8000ba0:	601a      	str	r2, [r3, #0]
}
 8000ba2:	bd08      	pop	{r3, pc}
 8000ba4:	08000985 	stmdaeq	r0, {r0, r2, r7, r8, fp}
 8000ba8:	08000aa5 	stmdaeq	r0, {r0, r2, r5, r7, r9, fp}
 8000bac:	40023800 	andmi	r3, r2, r0, lsl #16
 8000bb0:	e000e100 	and	lr, r0, r0, lsl #2
 8000bb4:	40000800 	andmi	r0, r0, r0, lsl #16

08000bb8 <usb_class_poll>:

void usb_class_poll(){
  if(GPI_ON(LBTN)){GPO_OFF(RLED); GPO_OFF(GLED);}
 8000bb8:	4b05      	ldr	r3, [pc, #20]	; (8000bd0 <usb_class_poll+0x18>)
 8000bba:	691b      	ldr	r3, [r3, #16]
 8000bbc:	049b      	lsls	r3, r3, #18
 8000bbe:	d406      	bmi.n	8000bce <usb_class_poll+0x16>
 8000bc0:	f04f 7280 	mov.w	r2, #16777216	; 0x1000000
 8000bc4:	4b03      	ldr	r3, [pc, #12]	; (8000bd4 <usb_class_poll+0x1c>)
 8000bc6:	619a      	str	r2, [r3, #24]
 8000bc8:	f04f 7200 	mov.w	r2, #33554432	; 0x2000000
 8000bcc:	619a      	str	r2, [r3, #24]
}
 8000bce:	4770      	bx	lr
 8000bd0:	40020800 	andmi	r0, r2, r0, lsl #16
 8000bd4:	40020400 	andmi	r0, r2, r0, lsl #8

08000bd8 <__libc_init_array>:
 8000bd8:	b570      	push	{r4, r5, r6, lr}
 8000bda:	4e0d      	ldr	r6, [pc, #52]	; (8000c10 <__libc_init_array+0x38>)
 8000bdc:	4d0d      	ldr	r5, [pc, #52]	; (8000c14 <__libc_init_array+0x3c>)
 8000bde:	1b76      	subs	r6, r6, r5
 8000be0:	10b6      	asrs	r6, r6, #2
 8000be2:	d006      	beq.n	8000bf2 <__libc_init_array+0x1a>
 8000be4:	2400      	movs	r4, #0
 8000be6:	3401      	adds	r4, #1
 8000be8:	f855 3b04 	ldr.w	r3, [r5], #4
 8000bec:	4798      	blx	r3
 8000bee:	42a6      	cmp	r6, r4
 8000bf0:	d1f9      	bne.n	8000be6 <__libc_init_array+0xe>
 8000bf2:	4e09      	ldr	r6, [pc, #36]	; (8000c18 <__libc_init_array+0x40>)
 8000bf4:	4d09      	ldr	r5, [pc, #36]	; (8000c1c <__libc_init_array+0x44>)
 8000bf6:	f7ff fbad 	bl	8000354 <_init>
 8000bfa:	1b76      	subs	r6, r6, r5
 8000bfc:	10b6      	asrs	r6, r6, #2
 8000bfe:	d006      	beq.n	8000c0e <__libc_init_array+0x36>
 8000c00:	2400      	movs	r4, #0
 8000c02:	3401      	adds	r4, #1
 8000c04:	f855 3b04 	ldr.w	r3, [r5], #4
 8000c08:	4798      	blx	r3
 8000c0a:	42a6      	cmp	r6, r4
 8000c0c:	d1f9      	bne.n	8000c02 <__libc_init_array+0x2a>
 8000c0e:	bd70      	pop	{r4, r5, r6, pc}
 8000c10:	080010ec 	stmdaeq	r0, {r2, r3, r5, r6, r7, ip}
 8000c14:	080010ec 	stmdaeq	r0, {r2, r3, r5, r6, r7, ip}
 8000c18:	080010ec 	stmdaeq	r0, {r2, r3, r5, r6, r7, ip}
 8000c1c:	080010ec 	stmdaeq	r0, {r2, r3, r5, r6, r7, ip}

08000c20 <memcpy>:
 8000c20:	4684      	mov	ip, r0
 8000c22:	ea41 0300 	orr.w	r3, r1, r0
 8000c26:	f013 0303 	ands.w	r3, r3, #3
 8000c2a:	d149      	bne.n	8000cc0 <memcpy+0xa0>
 8000c2c:	3a40      	subs	r2, #64	; 0x40
 8000c2e:	d323      	bcc.n	8000c78 <memcpy+0x58>
 8000c30:	680b      	ldr	r3, [r1, #0]
 8000c32:	6003      	str	r3, [r0, #0]
 8000c34:	684b      	ldr	r3, [r1, #4]
 8000c36:	6043      	str	r3, [r0, #4]
 8000c38:	688b      	ldr	r3, [r1, #8]
 8000c3a:	6083      	str	r3, [r0, #8]
 8000c3c:	68cb      	ldr	r3, [r1, #12]
 8000c3e:	60c3      	str	r3, [r0, #12]
 8000c40:	690b      	ldr	r3, [r1, #16]
 8000c42:	6103      	str	r3, [r0, #16]
 8000c44:	694b      	ldr	r3, [r1, #20]
 8000c46:	6143      	str	r3, [r0, #20]
 8000c48:	698b      	ldr	r3, [r1, #24]
 8000c4a:	6183      	str	r3, [r0, #24]
 8000c4c:	69cb      	ldr	r3, [r1, #28]
 8000c4e:	61c3      	str	r3, [r0, #28]
 8000c50:	6a0b      	ldr	r3, [r1, #32]
 8000c52:	6203      	str	r3, [r0, #32]
 8000c54:	6a4b      	ldr	r3, [r1, #36]	; 0x24
 8000c56:	6243      	str	r3, [r0, #36]	; 0x24
 8000c58:	6a8b      	ldr	r3, [r1, #40]	; 0x28
 8000c5a:	6283      	str	r3, [r0, #40]	; 0x28
 8000c5c:	6acb      	ldr	r3, [r1, #44]	; 0x2c
 8000c5e:	62c3      	str	r3, [r0, #44]	; 0x2c
 8000c60:	6b0b      	ldr	r3, [r1, #48]	; 0x30
 8000c62:	6303      	str	r3, [r0, #48]	; 0x30
 8000c64:	6b4b      	ldr	r3, [r1, #52]	; 0x34
 8000c66:	6343      	str	r3, [r0, #52]	; 0x34
 8000c68:	6b8b      	ldr	r3, [r1, #56]	; 0x38
 8000c6a:	6383      	str	r3, [r0, #56]	; 0x38
 8000c6c:	6bcb      	ldr	r3, [r1, #60]	; 0x3c
 8000c6e:	63c3      	str	r3, [r0, #60]	; 0x3c
 8000c70:	3040      	adds	r0, #64	; 0x40
 8000c72:	3140      	adds	r1, #64	; 0x40
 8000c74:	3a40      	subs	r2, #64	; 0x40
 8000c76:	d2db      	bcs.n	8000c30 <memcpy+0x10>
 8000c78:	3230      	adds	r2, #48	; 0x30
 8000c7a:	d30b      	bcc.n	8000c94 <memcpy+0x74>
 8000c7c:	680b      	ldr	r3, [r1, #0]
 8000c7e:	6003      	str	r3, [r0, #0]
 8000c80:	684b      	ldr	r3, [r1, #4]
 8000c82:	6043      	str	r3, [r0, #4]
 8000c84:	688b      	ldr	r3, [r1, #8]
 8000c86:	6083      	str	r3, [r0, #8]
 8000c88:	68cb      	ldr	r3, [r1, #12]
 8000c8a:	60c3      	str	r3, [r0, #12]
 8000c8c:	3010      	adds	r0, #16
 8000c8e:	3110      	adds	r1, #16
 8000c90:	3a10      	subs	r2, #16
 8000c92:	d2f3      	bcs.n	8000c7c <memcpy+0x5c>
 8000c94:	320c      	adds	r2, #12
 8000c96:	d305      	bcc.n	8000ca4 <memcpy+0x84>
 8000c98:	f851 3b04 	ldr.w	r3, [r1], #4
 8000c9c:	f840 3b04 	str.w	r3, [r0], #4
 8000ca0:	3a04      	subs	r2, #4
 8000ca2:	d2f9      	bcs.n	8000c98 <memcpy+0x78>
 8000ca4:	3204      	adds	r2, #4
 8000ca6:	d008      	beq.n	8000cba <memcpy+0x9a>
 8000ca8:	07d2      	lsls	r2, r2, #31
 8000caa:	bf1c      	itt	ne
 8000cac:	f811 3b01 	ldrbne.w	r3, [r1], #1
 8000cb0:	f800 3b01 	strbne.w	r3, [r0], #1
 8000cb4:	d301      	bcc.n	8000cba <memcpy+0x9a>
 8000cb6:	880b      	ldrh	r3, [r1, #0]
 8000cb8:	8003      	strh	r3, [r0, #0]
 8000cba:	4660      	mov	r0, ip
 8000cbc:	4770      	bx	lr
 8000cbe:	bf00      	nop
 8000cc0:	2a08      	cmp	r2, #8
 8000cc2:	d313      	bcc.n	8000cec <memcpy+0xcc>
 8000cc4:	078b      	lsls	r3, r1, #30
 8000cc6:	d0b1      	beq.n	8000c2c <memcpy+0xc>
 8000cc8:	f010 0303 	ands.w	r3, r0, #3
 8000ccc:	d0ae      	beq.n	8000c2c <memcpy+0xc>
 8000cce:	f1c3 0304 	rsb	r3, r3, #4
 8000cd2:	1ad2      	subs	r2, r2, r3
 8000cd4:	07db      	lsls	r3, r3, #31
 8000cd6:	bf1c      	itt	ne
 8000cd8:	f811 3b01 	ldrbne.w	r3, [r1], #1
 8000cdc:	f800 3b01 	strbne.w	r3, [r0], #1
 8000ce0:	d3a4      	bcc.n	8000c2c <memcpy+0xc>
 8000ce2:	f831 3b02 	ldrh.w	r3, [r1], #2
 8000ce6:	f820 3b02 	strh.w	r3, [r0], #2
 8000cea:	e79f      	b.n	8000c2c <memcpy+0xc>
 8000cec:	3a04      	subs	r2, #4
 8000cee:	d3d9      	bcc.n	8000ca4 <memcpy+0x84>
 8000cf0:	3a01      	subs	r2, #1
 8000cf2:	f811 3b01 	ldrb.w	r3, [r1], #1
 8000cf6:	f800 3b01 	strb.w	r3, [r0], #1
 8000cfa:	d2f9      	bcs.n	8000cf0 <memcpy+0xd0>
 8000cfc:	780b      	ldrb	r3, [r1, #0]
 8000cfe:	7003      	strb	r3, [r0, #0]
 8000d00:	784b      	ldrb	r3, [r1, #1]
 8000d02:	7043      	strb	r3, [r0, #1]
 8000d04:	788b      	ldrb	r3, [r1, #2]
 8000d06:	7083      	strb	r3, [r0, #2]
 8000d08:	4660      	mov	r0, ip
 8000d0a:	4770      	bx	lr

08000d0c <Reset_Handler>:
 8000d0c:	2100      	movs	r1, #0
 8000d0e:	e003      	b.n	8000d18 <LoopCopyDataInit>

08000d10 <CopyDataInit>:
 8000d10:	4b0b      	ldr	r3, [pc, #44]	; (8000d40 <LoopFillZerobss+0x14>)
 8000d12:	585b      	ldr	r3, [r3, r1]
 8000d14:	5043      	str	r3, [r0, r1]
 8000d16:	3104      	adds	r1, #4

08000d18 <LoopCopyDataInit>:
 8000d18:	480a      	ldr	r0, [pc, #40]	; (8000d44 <LoopFillZerobss+0x18>)
 8000d1a:	4b0b      	ldr	r3, [pc, #44]	; (8000d48 <LoopFillZerobss+0x1c>)
 8000d1c:	1842      	adds	r2, r0, r1
 8000d1e:	429a      	cmp	r2, r3
 8000d20:	d3f6      	bcc.n	8000d10 <CopyDataInit>
 8000d22:	4a0a      	ldr	r2, [pc, #40]	; (8000d4c <LoopFillZerobss+0x20>)
 8000d24:	e002      	b.n	8000d2c <LoopFillZerobss>

08000d26 <FillZerobss>:
 8000d26:	2300      	movs	r3, #0
 8000d28:	f842 3b04 	str.w	r3, [r2], #4

08000d2c <LoopFillZerobss>:
 8000d2c:	4b08      	ldr	r3, [pc, #32]	; (8000d50 <LoopFillZerobss+0x24>)
 8000d2e:	429a      	cmp	r2, r3
 8000d30:	d3f9      	bcc.n	8000d26 <FillZerobss>
 8000d32:	f7ff fb10 	bl	8000356 <SystemInit>
 8000d36:	f7ff ff4f 	bl	8000bd8 <__libc_init_array>
 8000d3a:	f000 f80d 	bl	8000d58 <main>
 8000d3e:	4770      	bx	lr
 8000d40:	080010ec 	stmdaeq	r0, {r2, r3, r5, r6, r7, ip}
 8000d44:	20000000 	andcs	r0, r0, r0
 8000d48:	20000004 	andcs	r0, r0, r4
 8000d4c:	20000004 	andcs	r0, r0, r4
 8000d50:	20000064 	andcs	r0, r0, r4, rrx

08000d54 <ADC1_IRQHandler>:
 8000d54:	e7fe      	b.n	8000d54 <ADC1_IRQHandler>
	...

08000d58 <main>:

int main(void){
 8000d58:	b510      	push	{r4, lr}
  clock_HS(1);
 8000d5a:	2001      	movs	r0, #1
 8000d5c:	f7ff fa44 	bl	80001e8 <clock_HS>
  RCC->AHBENR |= RCC_AHBENR_GPIOAEN | RCC_AHBENR_GPIOBEN | RCC_AHBENR_GPIOCEN | RCC_AHBENR_GPIODEN;
 8000d60:	4a1a      	ldr	r2, [pc, #104]	; (8000dcc <main+0x74>)
 8000d62:	69d3      	ldr	r3, [r2, #28]
 8000d64:	f043 030f 	orr.w	r3, r3, #15
 8000d68:	61d3      	str	r3, [r2, #28]
  GPIO_config(GLED); GPIO_config(RLED);
 8000d6a:	4b19      	ldr	r3, [pc, #100]	; (8000dd0 <main+0x78>)
 8000d6c:	681a      	ldr	r2, [r3, #0]
 8000d6e:	f422 2240 	bic.w	r2, r2, #786432	; 0xc0000
 8000d72:	f442 2280 	orr.w	r2, r2, #262144	; 0x40000
 8000d76:	601a      	str	r2, [r3, #0]
 8000d78:	689a      	ldr	r2, [r3, #8]
 8000d7a:	f442 2240 	orr.w	r2, r2, #786432	; 0xc0000
 8000d7e:	609a      	str	r2, [r3, #8]
 8000d80:	681a      	ldr	r2, [r3, #0]
 8000d82:	f422 3240 	bic.w	r2, r2, #196608	; 0x30000
 8000d86:	f442 3280 	orr.w	r2, r2, #65536	; 0x10000
 8000d8a:	601a      	str	r2, [r3, #0]
 8000d8c:	689a      	ldr	r2, [r3, #8]
 8000d8e:	f442 3240 	orr.w	r2, r2, #196608	; 0x30000
 8000d92:	609a      	str	r2, [r3, #8]
  GPIO_config(LBTN); GPIO_config(JBTN);
 8000d94:	4a0f      	ldr	r2, [pc, #60]	; (8000dd4 <main+0x7c>)
 8000d96:	6811      	ldr	r1, [r2, #0]
 8000d98:	f021 6140 	bic.w	r1, r1, #201326592	; 0xc000000
 8000d9c:	6011      	str	r1, [r2, #0]
 8000d9e:	6891      	ldr	r1, [r2, #8]
 8000da0:	f041 6140 	orr.w	r1, r1, #201326592	; 0xc000000
 8000da4:	6091      	str	r1, [r2, #8]
 8000da6:	681a      	ldr	r2, [r3, #0]
 8000da8:	f422 6240 	bic.w	r2, r2, #3072	; 0xc00
 8000dac:	601a      	str	r2, [r3, #0]
 8000dae:	689a      	ldr	r2, [r3, #8]
 8000db0:	f442 6240 	orr.w	r2, r2, #3072	; 0xc00
 8000db4:	609a      	str	r2, [r3, #8]
  
  USB_setup();
 8000db6:	f7ff fadc 	bl	8000372 <USB_setup>
static __INLINE void __enable_irq()               { __ASM volatile ("cpsie i"); }
 8000dba:	b662      	cpsie	i
  __enable_irq();
  while (1){
    usb_class_poll();
    sleep(100000);
 8000dbc:	4c06      	ldr	r4, [pc, #24]	; (8000dd8 <main+0x80>)
    usb_class_poll();
 8000dbe:	f7ff fefb 	bl	8000bb8 <usb_class_poll>
    sleep(100000);
 8000dc2:	4620      	mov	r0, r4
 8000dc4:	f7ff fac8 	bl	8000358 <sleep>
 8000dc8:	e7f9      	b.n	8000dbe <main+0x66>
 8000dca:	bf00      	nop
 8000dcc:	40023800 	andmi	r3, r2, r0, lsl #16
 8000dd0:	40020400 	andmi	r0, r2, r0, lsl #8
 8000dd4:	40020800 	andmi	r0, r2, r0, lsl #16
 8000dd8:	000186a0 	andeq	r8, r1, r0, lsr #13

Disassembly of section .rodata:

08000ddc <USB_DeviceDescriptor-0x2>:
	...

08000dde <USB_DeviceDescriptor>:
static const uint8_t USB_DeviceDescriptor[] = {
 8000dde:	01100112 	tsteq	r0, r2, lsl r1
 8000de2:	08000000 	stmdaeq	r0, {}	; <UNPREDICTABLE>
 8000de6:	05df16c0 	ldrbeq	r1, [pc, #1728]	; 80014ae <__exidx_end+0x3c2>
 8000dea:	02010001 	andeq	r0, r1, #1
 8000dee:	 	andeq	r0, r9, #-1073741824	; 0xc0000000

08000df0 <USB_ConfigDescriptor>:
static const uint8_t USB_ConfigDescriptor[] = {
 8000df0:	00c00209 	sbceq	r0, r0, r9, lsl #4
 8000df4:	80000103 	andhi	r0, r0, r3, lsl #2
 8000df8:	00040932 	andeq	r0, r4, r2, lsr r9
 8000dfc:	01010000 	mrseq	r0, (UNDEF: 1)
 8000e00:	240a0000 	strcs	r0, [sl], #-0
 8000e04:	46010001 	strmi	r0, [r1], -r1
 8000e08:	02010200 	andeq	r0, r1, #0, 4
 8000e0c:	0102240c 	tsteq	r2, ip, lsl #8
 8000e10:	01000101 	tsteq	r0, r1, lsl #2
 8000e14:	00000000 	andeq	r0, r0, r0
 8000e18:	0202240c 	andeq	r2, r2, #12, 8	; 0xc000000
 8000e1c:	01000201 	tsteq	r0, r1, lsl #4
 8000e20:	00000000 	andeq	r0, r0, r0
 8000e24:	05032409 	streq	r2, [r3, #-1033]	; 0xfffffbf7
 8000e28:	03000301 	movweq	r0, #769	; 0x301
 8000e2c:	03240900 			; <UNDEFINED> instruction: 0x03240900
 8000e30:	00010106 	andeq	r0, r1, r6, lsl #2
 8000e34:	24090004 	strcs	r0, [r9], #-4
 8000e38:	01010306 	tsteq	r1, r6, lsl #6
 8000e3c:	09000001 	stmdbeq	r0, {r0}
 8000e40:	02040624 	andeq	r0, r4, #36, 12	; 0x2400000
 8000e44:	00000101 	andeq	r0, r0, r1, lsl #2
 8000e48:	00010409 	andeq	r0, r1, r9, lsl #8
 8000e4c:	00020100 	andeq	r0, r2, r0, lsl #2
 8000e50:	01040900 	tsteq	r4, r0, lsl #18
 8000e54:	02010101 	andeq	r0, r1, #1073741824	; 0x40000000
 8000e58:	24070000 	strcs	r0, [r7], #-0
 8000e5c:	01010601 	tsteq	r1, r1, lsl #12
 8000e60:	02240b00 	eoreq	r0, r4, #0, 22
 8000e64:	10020101 	andne	r0, r2, r1, lsl #2
 8000e68:	003e8001 	eorseq	r8, lr, r1
 8000e6c:	01820509 	orreq	r0, r2, r9, lsl #10
 8000e70:	00010040 	andeq	r0, r1, r0, asr #32
 8000e74:	01250700 			; <UNDEFINED> instruction: 0x01250700
 8000e78:	00000000 	andeq	r0, r0, r0
 8000e7c:	00020409 	andeq	r0, r2, r9, lsl #8
 8000e80:	00020100 	andeq	r0, r2, r0, lsl #2
 8000e84:	02040900 	andeq	r0, r4, #0, 18
 8000e88:	02010101 	andeq	r0, r1, #1073741824	; 0x40000000
 8000e8c:	24070000 	strcs	r0, [r7], #-0
 8000e90:	01010101 	tsteq	r1, r1, lsl #2
 8000e94:	02240b00 	eoreq	r0, r4, #0, 22
 8000e98:	10020101 	andne	r0, r2, r1, lsl #2
 8000e9c:	003e8001 	eorseq	r8, lr, r1
 8000ea0:	01010509 	tsteq	r1, r9, lsl #10
 8000ea4:	00010040 	andeq	r0, r1, r0, asr #32
 8000ea8:	01250700 			; <UNDEFINED> instruction: 0x01250700
 8000eac:	00000000 	andeq	r0, r0, r0

08000eb0 <USB_DeviceQualifierDescriptor>:
static const uint8_t USB_DeviceQualifierDescriptor[] = {
 8000eb0:	0200060a 	andeq	r0, r0, #10485760	; 0xa00000
 8000eb4:	08000000 	stmdaeq	r0, {}	; <UNPREDICTABLE>
 8000eb8:	 	movweq	r0, #16385	; 0x4001

08000eba <USB_StringLangDescriptor>:
USB_STRING(USB_StringLangDescriptor, u"\x0409"); //lang US
 8000eba:	04090304 	streq	r0, [r9], #-772	; 0xfffffcfc

08000ebe <USB_StringManufacturingDescriptor>:
USB_STRING(USB_StringManufacturingDescriptor, u"COKPOWEHEU"); //Vendor
 8000ebe:	00430316 	subeq	r0, r3, r6, lsl r3
 8000ec2:	004b004f 	subeq	r0, fp, pc, asr #32
 8000ec6:	004f0050 	subeq	r0, pc, r0, asr r0	; <UNPREDICTABLE>
 8000eca:	00450057 	subeq	r0, r5, r7, asr r0
 8000ece:	00450048 	subeq	r0, r5, r8, asr #32
 8000ed2:	 	tsteq	r4, #85	; 0x55

08000ed4 <USB_StringProdDescriptor>:
USB_STRING(USB_StringProdDescriptor, u"USB Audio"); //Product
 8000ed4:	00550314 	subseq	r0, r5, r4, lsl r3
 8000ed8:	00420053 	subeq	r0, r2, r3, asr r0
 8000edc:	00410020 	subeq	r0, r1, r0, lsr #32
 8000ee0:	00640075 	rsbeq	r0, r4, r5, ror r0
 8000ee4:	006f0069 	rsbeq	r0, pc, r9, rrx

08000ee8 <USB_StringSerialDescriptor>:
USB_STRING(USB_StringSerialDescriptor, u"1"); //Serial (BCD)
 8000ee8:	00310304 	eorseq	r0, r1, r4, lsl #6
 8000eec:	03110000 	tsteq	r1, #0
 8000ef0:	09320622 	ldmdbeq	r2!, {r1, r5, r9, sl}
 8000ef4:	0f4d0c40 	svceq	0x004d0c40
 8000ef8:	155e1257 	ldrbne	r1, [lr, #-599]	; 0xfffffda9
 8000efc:	1b631862 	blne	98c708c <__exidx_end+0x18c5fa0>
 8000f00:	21561e5f 	cmpcs	r6, pc, asr lr
 8000f04:	27352449 	ldrcs	r2, [r5, -r9, asr #8]!
 8000f08:	2cfc2a1c 	vldmiacs	ip!, {s5-s32}
 8000f0c:	32a72fd5 	adccc	r2, r7, #852	; 0x354
 8000f10:	38333571 	ldmdacc	r3!, {r0, r4, r5, r6, r8, sl, ip, sp}
 8000f14:	3d9c3aec 	vldrcc	s6, [ip, #944]	; 0x3b0
 8000f18:	42df4043 	sbcsmi	r4, pc, #67	; 0x43
 8000f1c:	47f94572 			; <UNDEFINED> instruction: 0x47f94572
 8000f20:	4ce74a76 	vstmiami	r7!, {s9-s126}
 8000f24:	51a54f4c 			; <UNDEFINED> instruction: 0x51a54f4c
 8000f28:	563153f1 			; <UNDEFINED> instruction: 0x563153f1
 8000f2c:	5a875863 	bpl	61d70c0 <_Min_Stack_Size+0x61d6cc0>
 8000f30:	5ea65c9e 	mcrpl	12, 5, r5, cr6, cr14, {4}
 8000f34:	628b60a0 	addvs	r6, fp, #160	; 0xa0
 8000f38:	66326466 	ldrtvs	r6, [r2], -r6, ror #8
 8000f3c:	699b67ef 	ldmibvs	fp, {r0, r1, r2, r3, r5, r6, r7, r8, r9, sl, sp, lr}
 8000f40:	6cc26b37 	fstmiaxvs	r2, {d22-d48}	;@ Deprecated
 8000f44:	6fa76e3d 	svcvs	0x00a76e3d
 8000f48:	724670ff 	subvc	r7, r6, #255	; 0xff
 8000f4c:	749f737c 	ldrvc	r7, [pc], #892	; 8000f54 <USB_StringSerialDescriptor+0x6c>
 8000f50:	76b075b1 			; <UNDEFINED> instruction: 0x76b075b1
 8000f54:	7878779e 	ldmdavc	r8!, {r1, r2, r3, r4, r7, r8, r9, sl, ip, sp, lr}^
 8000f58:	79f67941 	ldmibvc	r6!, {r0, r6, r8, fp, ip, sp, lr}^
 8000f5c:	7b287a99 	blvc	8a1f9c8 <__exidx_end+0xa1e8dc>
 8000f60:	7c0f7ba5 			; <UNDEFINED> instruction: 0x7c0f7ba5
 8000f64:	7ca97c65 	stcvc	12, cr7, [r9], #404	; 0x194
 8000f68:	7cf67cd9 	ldclvc	12, cr7, [r6], #868	; 0x364
 8000f6c:	7cf67d00 	ldclvc	13, cr7, [r6]
 8000f70:	7ca97cd9 	stcvc	12, cr7, [r9], #868	; 0x364
 8000f74:	7c0f7c65 	stcvc	12, cr7, [pc], {101}	; 0x65
 8000f78:	7b287ba5 	blvc	8a1fe14 <__exidx_end+0xa1ed28>
 8000f7c:	79f67a99 	ldmibvc	r6!, {r0, r3, r4, r7, r9, fp, ip, sp, lr}^
 8000f80:	78787941 	ldmdavc	r8!, {r0, r6, r8, fp, ip, sp, lr}^
 8000f84:	76b0779e 	ssatvc	r7, #17, lr, lsl #15
 8000f88:	749f75b1 	ldrvc	r7, [pc], #1457	; 8000f90 <USB_StringSerialDescriptor+0xa8>
 8000f8c:	7246737c 	subvc	r7, r6, #124, 6	; 0xf0000001
 8000f90:	6fa770ff 	svcvs	0x00a770ff
 8000f94:	6cc26e3d 	stclvs	14, cr6, [r2], {61}	; 0x3d
 8000f98:	699b6b37 	ldmibvs	fp, {r0, r1, r2, r4, r5, r8, r9, fp, sp, lr}
 8000f9c:	663267ef 	ldrtvs	r6, [r2], -pc, ror #15
 8000fa0:	628b6466 	addvs	r6, fp, #1711276032	; 0x66000000
 8000fa4:	5ea660a0 	cdppl	0, 10, cr6, cr6, cr0, {5}
 8000fa8:	5a875c9e 	bpl	61d8228 <_Min_Stack_Size+0x61d7e28>
 8000fac:	56315863 	ldrtpl	r5, [r1], -r3, ror #16
 8000fb0:	51a553f1 	strdpl	r5, [r5, r1]!
 8000fb4:	4ce74f4c 	stclmi	15, cr4, [r7], #304	; 0x130
 8000fb8:	47f94a76 			; <UNDEFINED> instruction: 0x47f94a76
 8000fbc:	42df4572 	sbcsmi	r4, pc, #478150656	; 0x1c800000
 8000fc0:	3d9c4043 	ldccc	0, cr4, [ip, #268]	; 0x10c
 8000fc4:	38333aec 	ldmdacc	r3!, {r2, r3, r5, r6, r7, r9, fp, ip, sp}
 8000fc8:	32a73571 	adccc	r3, r7, #473956352	; 0x1c400000
 8000fcc:	2cfc2fd5 	ldclcs	15, cr2, [ip], #852	; 0x354
 8000fd0:	27352a1c 			; <UNDEFINED> instruction: 0x27352a1c
 8000fd4:	21562449 	cmpcs	r6, r9, asr #8
 8000fd8:	1b631e5f 	blne	98c895c <__exidx_end+0x18c7870>
 8000fdc:	155e1862 	ldrbne	r1, [lr, #-2146]	; 0xfffff79e
 8000fe0:	0f4d1257 	svceq	0x004d1257
 8000fe4:	09320c40 	ldmdbeq	r2!, {r6, sl, fp}
 8000fe8:	03110622 	tsteq	r1, #35651584	; 0x2200000
 8000fec:	fcef0000 	stc2l	0, cr0, [pc]	; 8000ff4 <USB_StringSerialDescriptor+0x10c>
 8000ff0:	f6cef9de 			; <UNDEFINED> instruction: 0xf6cef9de
 8000ff4:	f0b3f3c0 			; <UNDEFINED> instruction: 0xf0b3f3c0
 8000ff8:	eaa2eda9 	b	68bc6a4 <_Min_Stack_Size+0x68bc2a4>
 8000ffc:	e49de79e 	ldr	lr, [sp], #1950	; 0x79e
 8001000:	deaae1a1 	tanle<illegal precision>p	f6, f1
 8001004:	d8cbdbb7 	stmiale	fp, {r0, r1, r2, r4, r5, r7, r8, r9, fp, ip, lr, pc}^
 8001008:	d304d5e4 	movwle	sp, #17892	; 0x45e4
 800100c:	cd59d02b 	ldclgt	0, cr13, [r9, #-172]	; 0xffffff54
 8001010:	c7cdca8f 	strbgt	ip, [sp, pc, lsl #21]
 8001014:	c264c514 	rsbgt	ip, r4, #20, 10	; 0x5000000
 8001018:	bd21bfbd 	stclt	15, cr11, [r1, #-756]!	; 0xfffffd0c
 800101c:	b807ba8e 	stmdalt	r7, {r1, r2, r3, r7, r9, fp, ip, sp, pc}
 8001020:	b319b58a 	tstlt	r9, #578813952	; 0x22800000
 8001024:	ae5bb0b4 	mrcge	0, 2, fp, cr11, cr4, {5}
 8001028:	a9cfac0f 	stmibge	pc, {r0, r1, r2, r3, sl, fp, sp, pc}^	; <UNPREDICTABLE>
 800102c:	a579a79d 	ldrbge	sl, [r9, #-1949]!	; 0xfffff863
 8001030:	a15aa362 	cmpge	sl, r2, ror #6
 8001034:	9d759f60 	ldclls	15, cr9, [r5, #-384]!	; 0xfffffe80
 8001038:	99ce9b9a 	stmibls	lr, {r1, r3, r4, r7, r8, r9, fp, ip, pc}^
 800103c:	96659811 			; <UNDEFINED> instruction: 0x96659811
 8001040:	933e94c9 	teqls	lr, #-922746880	; 0xc9000000
 8001044:	905991c3 	subsls	r9, r9, r3, asr #3
 8001048:	8dba8f01 	ldchi	15, cr8, [sl, #4]!
 800104c:	8b618c84 	blhi	9864264 <__exidx_end+0x1863178>
 8001050:	89508a4f 	ldmdbhi	r0, {r0, r1, r2, r3, r6, r9, fp, pc}^
 8001054:	87888862 	strhi	r8, [r8, r2, ror #16]
 8001058:	860a86bf 			; <UNDEFINED> instruction: 0x860a86bf
 800105c:	84d88567 	ldrbhi	r8, [r8], #1383	; 0x567
 8001060:	83f1845b 	mvnshi	r8, #1526726656	; 0x5b000000
 8001064:	8357839b 	cmphi	r7, #1811939330	; 0x6c000002
 8001068:	830a8327 	movwhi	r8, #41767	; 0xa327
 800106c:	830a8300 	movwhi	r8, #41728	; 0xa300
 8001070:	83578327 	cmphi	r7, #-1677721600	; 0x9c000000
 8001074:	83f1839b 	mvnshi	r8, #1811939330	; 0x6c000002
 8001078:	84d8845b 	ldrbhi	r8, [r8], #1115	; 0x45b
 800107c:	860a8567 	strhi	r8, [sl], -r7, ror #10
 8001080:	878886bf 			; <UNDEFINED> instruction: 0x878886bf
 8001084:	89508862 	ldmdbhi	r0, {r1, r5, r6, fp, pc}^
 8001088:	8b618a4f 	blhi	98639cc <__exidx_end+0x18628e0>
 800108c:	8dba8c84 	ldchi	12, cr8, [sl, #528]!	; 0x210
 8001090:	90598f01 	subsls	r8, r9, r1, lsl #30
 8001094:	933e91c3 	teqls	lr, #-1073741776	; 0xc0000030
 8001098:	966594c9 	strbtls	r9, [r5], -r9, asr #9
 800109c:	99ce9811 	stmibls	lr, {r0, r4, fp, ip, pc}^
 80010a0:	9d759b9a 	vldmdbls	r5!, {d25-<overflow reg d37>}
 80010a4:	a15a9f60 	cmpge	sl, r0, ror #30
 80010a8:	a579a362 	ldrbge	sl, [r9, #-866]!	; 0xfffffc9e
 80010ac:	a9cfa79d 	stmibge	pc, {r0, r2, r3, r4, r7, r8, r9, sl, sp, pc}^	; <UNPREDICTABLE>
 80010b0:	ae5bac0f 	cdpge	12, 5, cr10, cr11, cr15, {0}
 80010b4:	b319b0b4 	tstlt	r9, #180	; 0xb4
 80010b8:	b807b58a 	stmdalt	r7, {r1, r3, r7, r8, sl, ip, sp, pc}
 80010bc:	bd21ba8e 	vstmdblt	r1!, {s22-s163}
 80010c0:	c264bfbd 	rsbgt	fp, r4, #756	; 0x2f4
 80010c4:	c7cdc514 	bfigt	ip, r4, #10, #4
 80010c8:	cd59ca8f 	vldrgt	s25, [r9, #-572]	; 0xfffffdc4
 80010cc:	d304d02b 	movwle	sp, #16427	; 0x402b
 80010d0:	d8cbd5e4 	stmiale	fp, {r2, r5, r6, r7, r8, sl, ip, lr, pc}^
 80010d4:	deaadbb7 			; <UNDEFINED> instruction: 0xdeaadbb7
 80010d8:	e49de1a1 	ldr	lr, [sp], #417	; 0x1a1
 80010dc:	eaa2e79e 	b	68baf5c <_Min_Stack_Size+0x68bab5c>
 80010e0:	f0b3eda9 			; <UNDEFINED> instruction: 0xf0b3eda9
 80010e4:	f6cef3c0 			; <UNDEFINED> instruction: 0xf6cef3c0
 80010e8:	fceff9de 	stc2l	9, cr15, [pc], #444	; 80012ac <__exidx_end+0x1c0>	; <UNPREDICTABLE>

Disassembly of section .data:

20000000 <lastaddr>:
20000000:	00000040 	andeq	r0, r0, r0, asr #32

Disassembly of section .bss:

20000004 <ep0_buf>:
20000004:	00000000 	andeq	r0, r0, r0

20000008 <USB_Addr>:
	...

2000000a <ep0_count>:
	...

2000000c <setup_packet>:
	...

20000014 <bytesread.4440>:
	...

20000016 <configuration>:
	...

20000018 <interface>:
uint8_t interface[3] = {0,0,0};
20000018:	00000000 	andeq	r0, r0, r0

2000001c <count>:
volatile uint16_t count = 0;
2000001c:	00000000 	andeq	r0, r0, r0

20000020 <cnt.5213>:
20000020:	00000000 	andeq	r0, r0, r0

20000024 <epfunc_in>:
	...

20000044 <epfunc_out>:
	...

Disassembly of section ._user_heap_stack:

20000064 <._user_heap_stack>:
	...

Disassembly of section .ARM.attributes:

00000000 <.ARM.attributes>:
   0:	00002e41 	andeq	r2, r0, r1, asr #28
   4:	61656100 	cmnvs	r5, r0, lsl #2
   8:	01006962 	tsteq	r0, r2, ror #18
   c:	00000024 	andeq	r0, r0, r4, lsr #32
  10:	726f4305 	rsbvc	r4, pc, #335544320	; 0x14000000
  14:	2d786574 	cfldr64cs	mvdx6, [r8, #-464]!	; 0xfffffe30
  18:	0600334d 	streq	r3, [r0], -sp, asr #6
  1c:	094d070a 	stmdbeq	sp, {r1, r3, r8, r9, sl}^
  20:	14041202 	strne	r1, [r4], #-514	; 0xfffffdfe
  24:	17011501 	strne	r1, [r1, -r1, lsl #10]
  28:	1a011803 	bne	4603c <_Min_Stack_Size+0x45c3c>
  2c:	Address 0x000000000000002c is out of bounds.


Disassembly of section .debug_info:

00000000 <.debug_info>:
       0:	00000928 	andeq	r0, r0, r8, lsr #18
       4:	00000002 	andeq	r0, r0, r2
       8:	01040000 	mrseq	r0, (UNDEF: 4)
       c:	00000347 	andeq	r0, r0, r7, asr #6
      10:	0000120c 	andeq	r1, r0, ip, lsl #4
      14:	0001fc00 	andeq	pc, r1, r0, lsl #24
	...
      28:	06010200 	streq	r0, [r1], -r0, lsl #4
      2c:	0000027f 	andeq	r0, r0, pc, ror r2
      30:	00031903 	andeq	r1, r3, r3, lsl #18
      34:	17220400 	strne	r0, [r2, -r0, lsl #8]!
      38:	00000029 	andeq	r0, r0, r9, lsr #32
      3c:	98050202 	stmdals	r5, {r1, r9}
      40:	02000002 	andeq	r0, r0, #2
      44:	00820504 	addeq	r0, r2, r4, lsl #10
      48:	08020000 	stmdaeq	r2, {}	; <UNPREDICTABLE>
      4c:	00007d05 	andeq	r7, r0, r5, lsl #26
      50:	03180300 	tsteq	r8, #0, 6
      54:	2e040000 	cdpcs	0, 0, cr0, cr4, cr0, {0}
      58:	00005d18 	andeq	r5, r0, r8, lsl sp
      5c:	08010200 	stmdaeq	r1, {r9}
      60:	0000027d 	andeq	r0, r0, sp, ror r2
      64:	0000ff03 	andeq	pc, r0, r3, lsl #30
      68:	19310400 	ldmdbne	r1!, {sl}
      6c:	00000070 	andeq	r0, r0, r0, ror r0
      70:	7e070202 	cdpvc	2, 0, cr0, cr7, cr2, {0}
      74:	03000001 	movweq	r0, #1
      78:	000002d2 	ldrdeq	r0, [r0], -r2
      7c:	88193404 	ldmdahi	r9, {r2, sl, ip, sp}
      80:	04000000 	streq	r0, [r0], #-0
      84:	00000077 	andeq	r0, r0, r7, ror r0
      88:	4d070402 	cfstrsmi	mvf0, [r7, #-8]
      8c:	02000000 	andeq	r0, r0, #0
      90:	00480708 	subeq	r0, r8, r8, lsl #14
      94:	04050000 	streq	r0, [r5], #-0
      98:	746e6905 	strbtvc	r6, [lr], #-2309	; 0xfffff6fb
      9c:	00960400 	addseq	r0, r6, r0, lsl #8
      a0:	04020000 	streq	r0, [r2], #-0
      a4:	00005207 	andeq	r5, r0, r7, lsl #4
      a8:	028b0600 	addeq	r0, fp, #0, 12
      ac:	ce030000 	cdpgt	0, 0, cr0, cr3, cr0, {0}
      b0:	009d1506 	addseq	r1, sp, r6, lsl #10
      b4:	01010000 	mrseq	r0, (UNDEF: 1)
      b8:	00013a07 	andeq	r3, r1, r7, lsl #20
      bc:	114c0500 	cmpne	ip, r0, lsl #10
      c0:	00000077 	andeq	r0, r0, r7, ror r0
      c4:	84080101 	strhi	r0, [r8], #-257	; 0xfffffeff
      c8:	09012506 	stmdbeq	r1, {r1, r2, r8, sl, sp}
      cc:	00000181 	andeq	r0, r0, r1, lsl #3
      d0:	52434109 	subpl	r4, r3, #1073741826	; 0x40000002
      d4:	01270600 			; <UNDEFINED> instruction: 0x01270600
      d8:	00008311 	andeq	r8, r0, r1, lsl r3
      dc:	00230200 	eoreq	r0, r3, r0, lsl #4
      e0:	00009e0a 	andeq	r9, r0, sl, lsl #28
      e4:	01280600 			; <UNDEFINED> instruction: 0x01280600
      e8:	00008311 	andeq	r8, r0, r1, lsl r3
      ec:	04230200 	strteq	r0, [r3], #-512	; 0xfffffe00
      f0:	00010f0a 	andeq	r0, r1, sl, lsl #30
      f4:	01290600 			; <UNDEFINED> instruction: 0x01290600
      f8:	00008311 	andeq	r8, r0, r1, lsl r3
      fc:	08230200 	stmdaeq	r3!, {r9}
     100:	0003200a 	andeq	r2, r3, sl
     104:	012a0600 			; <UNDEFINED> instruction: 0x012a0600
     108:	00008311 	andeq	r8, r0, r1, lsl r3
     10c:	0c230200 	sfmeq	f0, 4, [r3], #-0
     110:	00005f0a 	andeq	r5, r0, sl, lsl #30
     114:	012b0600 			; <UNDEFINED> instruction: 0x012b0600
     118:	00008311 	andeq	r8, r0, r1, lsl r3
     11c:	10230200 	eorne	r0, r3, r0, lsl #4
     120:	0000e80a 	andeq	lr, r0, sl, lsl #16
     124:	012c0600 			; <UNDEFINED> instruction: 0x012c0600
     128:	00008311 	andeq	r8, r0, r1, lsl r3
     12c:	14230200 	strtne	r0, [r3], #-512	; 0xfffffe00
     130:	00525309 	subseq	r5, r2, r9, lsl #6
     134:	11012d06 	tstne	r1, r6, lsl #26
     138:	00000083 	andeq	r0, r0, r3, lsl #1
     13c:	09182302 	ldmdbeq	r8, {r1, r8, r9, sp}
     140:	0052424f 	subseq	r4, r2, pc, asr #4
     144:	11012e06 	tstne	r1, r6, lsl #28
     148:	00000083 	andeq	r0, r0, r3, lsl #1
     14c:	0a1c2302 	beq	708d5c <_Min_Stack_Size+0x70895c>
     150:	000001f0 	strdeq	r0, [r0], -r0	; <UNPREDICTABLE>
     154:	11012f06 	tstne	r1, r6, lsl #30
     158:	00000083 	andeq	r0, r0, r3, lsl #1
     15c:	0a202302 	beq	808d6c <_Min_Stack_Size+0x80896c>
     160:	000002a8 	andeq	r0, r0, r8, lsr #5
     164:	0e013006 	cdpeq	0, 0, cr3, cr1, cr6, {0}
     168:	00000181 	andeq	r0, r0, r1, lsl #3
     16c:	0a242302 	beq	908d7c <_Min_Stack_Size+0x90897c>
     170:	000001f6 	strdeq	r0, [r0], -r6
     174:	11013106 	tstne	r1, r6, lsl #2
     178:	00000083 	andeq	r0, r0, r3, lsl #1
     17c:	01802303 	orreq	r2, r0, r3, lsl #6
     180:	00770b00 	rsbseq	r0, r7, r0, lsl #22
     184:	01910000 	orrseq	r0, r1, r0
     188:	a20c0000 	andge	r0, ip, #0
     18c:	16000000 	strne	r0, [r0], -r0
     190:	00900d00 	addseq	r0, r0, r0, lsl #26
     194:	32060000 	andcc	r0, r6, #0
     198:	00c60301 	sbceq	r0, r6, r1, lsl #6
     19c:	2c080000 	stccs	0, cr0, [r8], {-0}
     1a0:	09014f06 	stmdbeq	r1, {r1, r2, r8, r9, sl, fp, lr}
     1a4:	00000249 	andeq	r0, r0, r9, asr #4
     1a8:	0000420a 	andeq	r4, r0, sl, lsl #4
     1ac:	01510600 	cmpeq	r1, r0, lsl #12
     1b0:	00008311 	andeq	r8, r0, r1, lsl r3
     1b4:	00230200 	eoreq	r0, r3, r0, lsl #4
     1b8:	0000290a 	andeq	r2, r0, sl, lsl #18
     1bc:	01520600 	cmpeq	r2, r0, lsl #12
     1c0:	00008311 	andeq	r8, r0, r1, lsl r3
     1c4:	04230200 	strteq	r0, [r3], #-512	; 0xfffffe00
     1c8:	0001160a 	andeq	r1, r1, sl, lsl #12
     1cc:	01530600 	cmpeq	r3, r0, lsl #12
     1d0:	00008311 	andeq	r8, r0, r1, lsl r3
     1d4:	08230200 	stmdaeq	r3!, {r9}
     1d8:	0000070a 	andeq	r0, r0, sl, lsl #14
     1dc:	01540600 	cmpeq	r4, r0, lsl #12
     1e0:	00008311 	andeq	r8, r0, r1, lsl r3
     1e4:	0c230200 	sfmeq	f0, 4, [r3], #-0
     1e8:	52444909 	subpl	r4, r4, #147456	; 0x24000
     1ec:	01550600 	cmpeq	r5, r0, lsl #12
     1f0:	00008311 	andeq	r8, r0, r1, lsl r3
     1f4:	10230200 	eorne	r0, r3, r0, lsl #4
     1f8:	52444f09 	subpl	r4, r4, #9, 30	; 0x24
     1fc:	01560600 	cmpeq	r6, r0, lsl #12
     200:	00008311 	andeq	r8, r0, r1, lsl r3
     204:	14230200 	strtne	r0, [r3], #-512	; 0xfffffe00
     208:	00008b0a 	andeq	r8, r0, sl, lsl #22
     20c:	01570600 	cmpeq	r7, r0, lsl #12
     210:	00008311 	andeq	r8, r0, r1, lsl r3
     214:	18230200 	stmdane	r3!, {r9}
     218:	00000d0a 	andeq	r0, r0, sl, lsl #26
     21c:	01580600 	cmpeq	r8, r0, lsl #12
     220:	00008311 	andeq	r8, r0, r1, lsl r3
     224:	1c230200 	sfmne	f0, 4, [r3], #-0
     228:	52464109 	subpl	r4, r6, #1073741826	; 0x40000002
     22c:	01590600 	cmpeq	r9, r0, lsl #12
     230:	00025911 	andeq	r5, r2, r1, lsl r9
     234:	20230200 	eorcs	r0, r3, r0, lsl #4
     238:	52524209 	subspl	r4, r2, #-1879048192	; 0x90000000
     23c:	015a0600 	cmpeq	sl, r0, lsl #12
     240:	00008311 	andeq	r8, r0, r1, lsl r3
     244:	28230200 	stmdacs	r3!, {r9}
     248:	00830b00 	addeq	r0, r3, r0, lsl #22
     24c:	02590000 	subseq	r0, r9, #0
     250:	a20c0000 	andge	r0, ip, #0
     254:	01000000 	mrseq	r0, (UNDEF: 0)
     258:	02490400 	subeq	r0, r9, #0, 8
     25c:	570d0000 	strpl	r0, [sp, -r0]
     260:	06000001 	streq	r0, [r0], -r1
     264:	9e03015b 	mcrls	1, 0, r0, cr3, cr11, {2}
     268:	08000001 	stmdaeq	r0, {r0}
     26c:	01890608 	orreq	r0, r9, r8, lsl #12
     270:	00029509 	andeq	r9, r2, r9, lsl #10
     274:	52430900 	subpl	r0, r3, #0, 18
     278:	018b0600 	orreq	r0, fp, r0, lsl #12
     27c:	00008311 	andeq	r8, r0, r1, lsl r3
     280:	00230200 	eoreq	r0, r3, r0, lsl #4
     284:	52534309 	subspl	r4, r3, #603979776	; 0x24000000
     288:	018c0600 	orreq	r0, ip, r0, lsl #12
     28c:	00008311 	andeq	r8, r0, r1, lsl r3
     290:	04230200 	strteq	r0, [r3], #-512	; 0xfffffe00
     294:	01c40d00 	biceq	r0, r4, r0, lsl #26
     298:	8d060000 	stchi	0, cr0, [r6, #-0]
     29c:	026b0301 	rsbeq	r0, fp, #67108864	; 0x4000000
     2a0:	38080000 	stmdacc	r8, {}	; <UNPREDICTABLE>
     2a4:	09019306 	stmdbeq	r1, {r1, r2, r8, r9, ip, pc}
     2a8:	0000038c 	andeq	r0, r0, ip, lsl #7
     2ac:	00524309 	subseq	r4, r2, r9, lsl #6
     2b0:	11019506 	tstne	r1, r6, lsl #10
     2b4:	00000083 	andeq	r0, r0, r3, lsl #1
     2b8:	0a002302 	beq	8ec8 <_Min_Stack_Size+0x8ac8>
     2bc:	0000030c 	andeq	r0, r0, ip, lsl #6
     2c0:	11019606 	tstne	r1, r6, lsl #12
     2c4:	00000083 	andeq	r0, r0, r3, lsl #1
     2c8:	0a042302 	beq	108ed8 <_Min_Stack_Size+0x108ad8>
     2cc:	000002c7 	andeq	r0, r0, r7, asr #5
     2d0:	11019706 	tstne	r1, r6, lsl #14
     2d4:	00000083 	andeq	r0, r0, r3, lsl #1
     2d8:	09082302 	stmdbeq	r8, {r1, r8, r9, sp}
     2dc:	00524943 	subseq	r4, r2, r3, asr #18
     2e0:	11019806 	tstne	r1, r6, lsl #16
     2e4:	00000083 	andeq	r0, r0, r3, lsl #1
     2e8:	0a0c2302 	beq	308ef8 <_Min_Stack_Size+0x308af8>
     2ec:	0000022a 	andeq	r0, r0, sl, lsr #4
     2f0:	11019906 	tstne	r1, r6, lsl #18
     2f4:	00000083 	andeq	r0, r0, r3, lsl #1
     2f8:	0a102302 	beq	408f08 <_Min_Stack_Size+0x408b08>
     2fc:	000000c0 	andeq	r0, r0, r0, asr #1
     300:	11019a06 	tstne	r1, r6, lsl #20
     304:	00000083 	andeq	r0, r0, r3, lsl #1
     308:	0a142302 	beq	508f18 <_Min_Stack_Size+0x508b18>
     30c:	00000237 	andeq	r0, r0, r7, lsr r2
     310:	11019b06 	tstne	r1, r6, lsl #22
     314:	00000083 	andeq	r0, r0, r3, lsl #1
     318:	0a182302 	beq	608f28 <_Min_Stack_Size+0x608b28>
     31c:	000003da 	ldrdeq	r0, [r0], -sl
     320:	11019c06 	tstne	r1, r6, lsl #24
     324:	00000083 	andeq	r0, r0, r3, lsl #1
     328:	0a1c2302 	beq	708f38 <_Min_Stack_Size+0x708b38>
     32c:	000002b8 			; <UNDEFINED> instruction: 0x000002b8
     330:	11019d06 	tstne	r1, r6, lsl #26
     334:	00000083 	andeq	r0, r0, r3, lsl #1
     338:	0a202302 	beq	808f48 <_Min_Stack_Size+0x808b48>
     33c:	000002ed 	andeq	r0, r0, sp, ror #5
     340:	11019e06 	tstne	r1, r6, lsl #28
     344:	00000083 	andeq	r0, r0, r3, lsl #1
     348:	0a242302 	beq	908f58 <_Min_Stack_Size+0x908b58>
     34c:	000000d8 	ldrdeq	r0, [r0], -r8
     350:	11019f06 	tstne	r1, r6, lsl #30
     354:	00000083 	andeq	r0, r0, r3, lsl #1
     358:	0a282302 	beq	a08f68 <_Min_Stack_Size+0xa08b68>
     35c:	000001ba 			; <UNDEFINED> instruction: 0x000001ba
     360:	1101a006 	tstne	r1, r6
     364:	00000083 	andeq	r0, r0, r3, lsl #1
     368:	0a2c2302 	beq	b08f78 <_Min_Stack_Size+0xb08b78>
     36c:	00000197 	muleq	r0, r7, r1
     370:	1101a106 	tstne	r1, r6, lsl #2
     374:	00000083 	andeq	r0, r0, r3, lsl #1
     378:	09302302 	ldmdbeq	r0!, {r1, r8, r9, sp}
     37c:	00525343 	subseq	r5, r2, r3, asr #6
     380:	1101a206 	tstne	r1, r6, lsl #4
     384:	00000083 	andeq	r0, r0, r3, lsl #1
     388:	00342302 	eorseq	r2, r4, r2, lsl #6
     38c:	0001640d 	andeq	r6, r1, sp, lsl #8
     390:	01a30600 			; <UNDEFINED> instruction: 0x01a30600
     394:	0002a203 	andeq	sl, r2, r3, lsl #4
     398:	06d00800 	ldrbeq	r0, [r0], r0, lsl #16
     39c:	f50901c0 			; <UNDEFINED> instruction: 0xf50901c0
     3a0:	09000006 	stmdbeq	r0, {r1, r2}
     3a4:	06005254 			; <UNDEFINED> instruction: 0x06005254
     3a8:	831101c2 	tsthi	r1, #-2147483600	; 0x80000030
     3ac:	02000000 	andeq	r0, r0, #0
     3b0:	44090023 	strmi	r0, [r9], #-35	; 0xffffffdd
     3b4:	c3060052 	movwgt	r0, #24658	; 0x6052
     3b8:	00831101 	addeq	r1, r3, r1, lsl #2
     3bc:	23020000 	movwcs	r0, #8192	; 0x2000
     3c0:	52430904 	subpl	r0, r3, #4, 18	; 0x10000
     3c4:	01c40600 	biceq	r0, r4, r0, lsl #12
     3c8:	00008311 	andeq	r8, r0, r1, lsl r3
     3cc:	08230200 	stmdaeq	r3!, {r9}
     3d0:	52534909 	subspl	r4, r3, #147456	; 0x24000
     3d4:	01c50600 	biceq	r0, r5, r0, lsl #12
     3d8:	00008311 	andeq	r8, r0, r1, lsl r3
     3dc:	0c230200 	sfmeq	f0, 4, [r3], #-0
     3e0:	00003d0a 	andeq	r3, r0, sl, lsl #26
     3e4:	01c60600 	biceq	r0, r6, r0, lsl #12
     3e8:	00008311 	andeq	r8, r0, r1, lsl r3
     3ec:	10230200 	eorne	r0, r3, r0, lsl #4
     3f0:	0002db0a 	andeq	sp, r2, sl, lsl #22
     3f4:	01c70600 	biceq	r0, r7, r0, lsl #12
     3f8:	00008311 	andeq	r8, r0, r1, lsl r3
     3fc:	14230200 	strtne	r0, [r3], #-512	; 0xfffffe00
     400:	0000000a 	andeq	r0, r0, sl
     404:	01c80600 	biceq	r0, r8, r0, lsl #12
     408:	00008311 	andeq	r8, r0, r1, lsl r3
     40c:	18230200 	stmdane	r3!, {r9}
     410:	00024d0a 	andeq	r4, r2, sl, lsl #26
     414:	01c90600 	biceq	r0, r9, r0, lsl #12
     418:	00008311 	andeq	r8, r0, r1, lsl r3
     41c:	1c230200 	sfmne	f0, 4, [r3], #-0
     420:	0002c00a 	andeq	ip, r2, sl
     424:	01ca0600 	biceq	r0, sl, r0, lsl #12
     428:	00008311 	andeq	r8, r0, r1, lsl r3
     42c:	20230200 	eorcs	r0, r3, r0, lsl #4
     430:	52505709 	subspl	r5, r0, #2359296	; 0x240000
     434:	01cb0600 	biceq	r0, fp, r0, lsl #12
     438:	00008311 	andeq	r8, r0, r1, lsl r3
     43c:	24230200 	strtcs	r0, [r3], #-512	; 0xfffffe00
     440:	52535309 	subspl	r5, r3, #603979776	; 0x24000000
     444:	01cc0600 	biceq	r0, ip, r0, lsl #12
     448:	00008311 	andeq	r8, r0, r1, lsl r3
     44c:	28230200 	stmdacs	r3!, {r9}
     450:	0003050a 	andeq	r0, r3, sl, lsl #10
     454:	01cd0600 	biceq	r0, sp, r0, lsl #12
     458:	00008311 	andeq	r8, r0, r1, lsl r3
     45c:	2c230200 	sfmcs	f0, 4, [r3], #-0
     460:	0001a10a 	andeq	sl, r1, sl, lsl #2
     464:	01ce0600 	biceq	r0, lr, r0, lsl #12
     468:	00008311 	andeq	r8, r0, r1, lsl r3
     46c:	30230200 	eorcc	r0, r3, r0, lsl #4
     470:	00001d0a 	andeq	r1, r0, sl, lsl #26
     474:	01cf0600 	biceq	r0, pc, r0, lsl #12
     478:	00008311 	andeq	r8, r0, r1, lsl r3
     47c:	34230200 	strtcc	r0, [r3], #-512	; 0xfffffe00
     480:	0000b30a 	andeq	fp, r0, sl, lsl #6
     484:	01d00600 	bicseq	r0, r0, r0, lsl #12
     488:	00008311 	andeq	r8, r0, r1, lsl r3
     48c:	38230200 	stmdacc	r3!, {r9}
     490:	0001dd0a 	andeq	sp, r1, sl, lsl #26
     494:	01d10600 	bicseq	r0, r1, r0, lsl #12
     498:	00008311 	andeq	r8, r0, r1, lsl r3
     49c:	3c230200 	sfmcc	f0, 4, [r3], #-0
     4a0:	0001a60a 	andeq	sl, r1, sl, lsl #12
     4a4:	01d20600 	bicseq	r0, r2, r0, lsl #12
     4a8:	00008311 	andeq	r8, r0, r1, lsl r3
     4ac:	40230200 	eormi	r0, r3, r0, lsl #4
     4b0:	0001310a 	andeq	r3, r1, sl, lsl #2
     4b4:	01d30600 	bicseq	r0, r3, r0, lsl #12
     4b8:	00008311 	andeq	r8, r0, r1, lsl r3
     4bc:	44230200 	strtmi	r0, [r3], #-512	; 0xfffffe00
     4c0:	0000cf0a 	andeq	ip, r0, sl, lsl #30
     4c4:	01d40600 	bicseq	r0, r4, r0, lsl #12
     4c8:	00008311 	andeq	r8, r0, r1, lsl r3
     4cc:	48230200 	stmdami	r3!, {r9}
     4d0:	0002610a 	andeq	r6, r2, sl, lsl #2
     4d4:	01d50600 	bicseq	r0, r5, r0, lsl #12
     4d8:	0000770c 	andeq	r7, r0, ip, lsl #14
     4dc:	4c230200 	sfmmi	f0, 4, [r3], #-0
     4e0:	0002a20a 	andeq	sl, r2, sl, lsl #4
     4e4:	01d60600 	bicseq	r0, r6, r0, lsl #12
     4e8:	00008311 	andeq	r8, r0, r1, lsl r3
     4ec:	50230200 	eorpl	r0, r3, r0, lsl #4
     4f0:	0002e70a 	andeq	lr, r2, sl, lsl #14
     4f4:	01d70600 	bicseq	r0, r7, r0, lsl #12
     4f8:	00008311 	andeq	r8, r0, r1, lsl r3
     4fc:	54230200 	strtpl	r0, [r3], #-512	; 0xfffffe00
     500:	00032e0a 	andeq	r2, r3, sl, lsl #28
     504:	01d80600 	bicseq	r0, r8, r0, lsl #12
     508:	00008311 	andeq	r8, r0, r1, lsl r3
     50c:	58230200 	stmdapl	r3!, {r9}
     510:	0000370a 	andeq	r3, r0, sl, lsl #14
     514:	01d90600 	bicseq	r0, r9, r0, lsl #12
     518:	00008311 	andeq	r8, r0, r1, lsl r3
     51c:	5c230200 	sfmpl	f0, 4, [r3], #-0
     520:	0000c90a 	andeq	ip, r0, sl, lsl #18
     524:	01da0600 	bicseq	r0, sl, r0, lsl #12
     528:	00008311 	andeq	r8, r0, r1, lsl r3
     52c:	60230200 	eorvs	r0, r3, r0, lsl #4
     530:	00014a0a 	andeq	r4, r1, sl, lsl #20
     534:	01db0600 	bicseq	r0, fp, r0, lsl #12
     538:	00008311 	andeq	r8, r0, r1, lsl r3
     53c:	64230200 	strtvs	r0, [r3], #-512	; 0xfffffe00
     540:	0001d00a 	andeq	sp, r1, sl
     544:	01dc0600 	bicseq	r0, ip, r0, lsl #12
     548:	00008311 	andeq	r8, r0, r1, lsl r3
     54c:	68230200 	stmdavs	r3!, {r9}
     550:	0002540a 	andeq	r5, r2, sl, lsl #8
     554:	01dd0600 	bicseq	r0, sp, r0, lsl #12
     558:	00008311 	andeq	r8, r0, r1, lsl r3
     55c:	6c230200 	sfmvs	f0, 4, [r3], #-0
     560:	0002cc0a 	andeq	ip, r2, sl, lsl #24
     564:	01de0600 	bicseq	r0, lr, r0, lsl #12
     568:	00008311 	andeq	r8, r0, r1, lsl r3
     56c:	70230200 	eorvc	r0, r3, r0, lsl #4
     570:	0003120a 	andeq	r1, r3, sl, lsl #4
     574:	01df0600 	bicseq	r0, pc, r0, lsl #12
     578:	00008311 	andeq	r8, r0, r1, lsl r3
     57c:	74230200 	strtvc	r0, [r3], #-512	; 0xfffffe00
     580:	0001ac0a 	andeq	sl, r1, sl, lsl #24
     584:	01e00600 	mvneq	r0, r0, lsl #12
     588:	00008311 	andeq	r8, r0, r1, lsl r3
     58c:	78230200 	stmdavc	r3!, {r9}
     590:	0002230a 	andeq	r2, r2, sl, lsl #6
     594:	01e10600 	mvneq	r0, r0, lsl #12
     598:	00008311 	andeq	r8, r0, r1, lsl r3
     59c:	7c230200 	sfmvc	f0, 4, [r3], #-0
     5a0:	0002b10a 	andeq	fp, r2, sl, lsl #2
     5a4:	01e20600 	mvneq	r0, r0, lsl #12
     5a8:	00008311 	andeq	r8, r0, r1, lsl r3
     5ac:	80230300 	eorhi	r0, r3, r0, lsl #6
     5b0:	02f50a01 	rscseq	r0, r5, #4096	; 0x1000
     5b4:	e3060000 	movw	r0, #24576	; 0x6000
     5b8:	00831101 	addeq	r1, r3, r1, lsl #2
     5bc:	23030000 	movwcs	r0, #12288	; 0x3000
     5c0:	3b0a0184 	blcc	280bd8 <_Min_Stack_Size+0x2807d8>
     5c4:	06000003 	streq	r0, [r0], -r3
     5c8:	831101e4 	tsthi	r1, #228, 2	; 0x39
     5cc:	03000000 	movweq	r0, #0
     5d0:	0a018823 	beq	62664 <_Min_Stack_Size+0x62264>
     5d4:	00000170 	andeq	r0, r0, r0, ror r1
     5d8:	1101e506 	tstne	r1, r6, lsl #10
     5dc:	00000083 	andeq	r0, r0, r3, lsl #1
     5e0:	018c2303 	orreq	r2, ip, r3, lsl #6
     5e4:	0000e10a 	andeq	lr, r0, sl, lsl #2
     5e8:	01e60600 	mvneq	r0, r0, lsl #12
     5ec:	00008311 	andeq	r8, r0, r1, lsl r3
     5f0:	90230300 	eorls	r0, r3, r0, lsl #6
     5f4:	01500a01 	cmpeq	r0, r1, lsl #20
     5f8:	e7060000 	str	r0, [r6, -r0]
     5fc:	00831101 	addeq	r1, r3, r1, lsl #2
     600:	23030000 	movwcs	r0, #12288	; 0x3000
     604:	d60a0194 			; <UNDEFINED> instruction: 0xd60a0194
     608:	06000001 	streq	r0, [r0], -r1
     60c:	831101e8 	tsthi	r1, #232, 2	; 0x3a
     610:	03000000 	movweq	r0, #0
     614:	0a019823 	beq	666a8 <_Min_Stack_Size+0x662a8>
     618:	0000025a 	andeq	r0, r0, sl, asr r2
     61c:	1101e906 	tstne	r1, r6, lsl #18
     620:	00000083 	andeq	r0, r0, r3, lsl #1
     624:	019c2303 	orrseq	r2, ip, r3, lsl #6
     628:	0001080a 	andeq	r0, r1, sl, lsl #16
     62c:	01ea0600 	mvneq	r0, r0, lsl #12
     630:	00008311 	andeq	r8, r0, r1, lsl r3
     634:	a0230300 	eorge	r0, r3, r0, lsl #6
     638:	01770a01 	cmneq	r7, r1, lsl #20
     63c:	eb060000 	bl	180644 <_Min_Stack_Size+0x180244>
     640:	00831101 	addeq	r1, r3, r1, lsl #2
     644:	23030000 	movwcs	r0, #12288	; 0x3000
     648:	e90a01a4 	stmdb	sl, {r2, r5, r7, r8}
     64c:	06000001 	streq	r0, [r0], -r1
     650:	831101ec 	tsthi	r1, #236, 2	; 0x3b
     654:	03000000 	movweq	r0, #0
     658:	0a01a823 	beq	6a6ec <_Min_Stack_Size+0x6a2ec>
     65c:	00000276 	andeq	r0, r0, r6, ror r2
     660:	1101ed06 	tstne	r1, r6, lsl #26
     664:	00000083 	andeq	r0, r0, r3, lsl #1
     668:	01ac2303 			; <UNDEFINED> instruction: 0x01ac2303
     66c:	0002e00a 	andeq	lr, r2, sl
     670:	01ee0600 	mvneq	r0, r0, lsl #12
     674:	00008311 	andeq	r8, r0, r1, lsl r3
     678:	b0230300 	eorlt	r0, r3, r0, lsl #6
     67c:	03270a01 			; <UNDEFINED> instruction: 0x03270a01
     680:	ef060000 	svc	0x00060000
     684:	00831101 	addeq	r1, r3, r1, lsl #2
     688:	23030000 	movwcs	r0, #12288	; 0x3000
     68c:	220a01b4 	andcs	r0, sl, #180, 2	; 0x2d
     690:	06000000 	streq	r0, [r0], -r0
     694:	831101f0 	tsthi	r1, #240, 2	; 0x3c
     698:	03000000 	movweq	r0, #0
     69c:	0a01b823 	beq	6e730 <_Min_Stack_Size+0x6e330>
     6a0:	000000ac 	andeq	r0, r0, ip, lsr #1
     6a4:	1101f106 	tstne	r1, r6, lsl #2	; <UNPREDICTABLE>
     6a8:	00000083 	andeq	r0, r0, r3, lsl #1
     6ac:	01bc2303 			; <UNDEFINED> instruction: 0x01bc2303
     6b0:	0001250a 	andeq	r2, r1, sl, lsl #10
     6b4:	01f20600 	mvnseq	r0, r0, lsl #12
     6b8:	00008311 	andeq	r8, r0, r1, lsl r3
     6bc:	c0230300 	eorgt	r0, r3, r0, lsl #6
     6c0:	01b30a01 			; <UNDEFINED> instruction: 0x01b30a01
     6c4:	f3060000 	vhadd.u8	d0, d6, d0
     6c8:	00831101 	addeq	r1, r3, r1, lsl #2
     6cc:	23030000 	movwcs	r0, #12288	; 0x3000
     6d0:	300a01c4 	andcc	r0, sl, r4, asr #3
     6d4:	06000000 	streq	r0, [r0], -r0
     6d8:	831101f4 	tsthi	r1, #244, 2	; 0x3d
     6dc:	03000000 	movweq	r0, #0
     6e0:	0a01c823 	beq	72774 <_Min_Stack_Size+0x72374>
     6e4:	000000b9 	strheq	r0, [r0], -r9
     6e8:	1101f506 	tstne	r1, r6, lsl #10	; <UNPREDICTABLE>
     6ec:	00000083 	andeq	r0, r0, r3, lsl #1
     6f0:	01cc2303 	biceq	r2, ip, r3, lsl #6
     6f4:	00670d00 	rsbeq	r0, r7, r0, lsl #26
     6f8:	f6060000 			; <UNDEFINED> instruction: 0xf6060000
     6fc:	03990301 	orrseq	r0, r9, #67108864	; 0x4000000
     700:	010e0000 	mrseq	r0, (UNDEF: 14)
     704:	00000342 	andeq	r0, r0, r2, asr #6
     708:	01050e02 	tsteq	r5, r2, lsl #28
     70c:	00000096 	muleq	r0, r6, r0
     710:	08000d58 	stmdaeq	r0, {r3, r4, r6, r8, sl, fp}
     714:	08000ddc 	stmdaeq	r0, {r2, r3, r4, r6, r7, r8, sl, fp}
     718:	00000000 	andeq	r0, r0, r0
     71c:	0007f401 	andeq	pc, r7, r1, lsl #8
     720:	0d6a0f00 	stcleq	15, cr0, [sl, #-0]
     724:	0d800800 	stceq	8, cr0, [r0]
     728:	07430800 	strbeq	r0, [r3, -r0, lsl #16]
     72c:	2c100000 	ldccs	0, cr0, [r0], {-0}
     730:	02000001 	andeq	r0, r0, #1
     734:	00770311 	rsbseq	r0, r7, r1, lsl r3
     738:	00280000 	eoreq	r0, r8, r0
     73c:	00200000 	eoreq	r0, r0, r0
     740:	0f000000 	svceq	0x00000000
     744:	08000d80 	stmdaeq	r0, {r7, r8, sl, fp}
     748:	08000d94 	stmdaeq	r0, {r2, r4, r7, r8, sl, fp}
     74c:	00000765 	andeq	r0, r0, r5, ror #14
     750:	00012c10 	andeq	r2, r1, r0, lsl ip
     754:	16110200 	ldrne	r0, [r1], -r0, lsl #4
     758:	00000077 	andeq	r0, r0, r7, ror r0
     75c:	0000006c 	andeq	r0, r0, ip, rrx
     760:	00000064 	andeq	r0, r0, r4, rrx
     764:	0d940f00 	ldceq	15, cr0, [r4]
     768:	0da60800 	stceq	8, cr0, [r6]
     76c:	07870800 	streq	r0, [r7, r0, lsl #16]
     770:	2c100000 	ldccs	0, cr0, [r0], {-0}
     774:	02000001 	andeq	r0, r0, #1
     778:	00770312 	rsbseq	r0, r7, r2, lsl r3
     77c:	00ae0000 	adceq	r0, lr, r0
     780:	00a80000 	adceq	r0, r8, r0
     784:	0f000000 	svceq	0x00000000
     788:	08000da6 	stmdaeq	r0, {r1, r2, r5, r7, r8, sl, fp}
     78c:	08000db6 	stmdaeq	r0, {r1, r2, r4, r5, r7, r8, sl, fp}
     790:	000007a9 	andeq	r0, r0, r9, lsr #15
     794:	00012c10 	andeq	r2, r1, r0, lsl ip
     798:	16120200 	ldrne	r0, [r2], -r0, lsl #4
     79c:	00000077 	andeq	r0, r0, r7, ror r0
     7a0:	000000e6 	andeq	r0, r0, r6, ror #1
     7a4:	000000e0 	andeq	r0, r0, r0, ror #1
     7a8:	09051100 	stmdbeq	r5, {r8, ip}
     7ac:	0dba0000 	ldceq	0, cr0, [sl]
     7b0:	ba010800 	blt	427b8 <_Min_Stack_Size+0x423b8>
     7b4:	bc08000d 	stclt	0, cr0, [r8], {13}
     7b8:	0208000d 	andeq	r0, r8, #13
     7bc:	60120315 	andsvs	r0, r2, r5, lsl r3
     7c0:	8308000d 	movwhi	r0, #32781	; 0x800d
     7c4:	d1000008 	tstle	r0, r8
     7c8:	13000007 	movwne	r0, #7
     7cc:	31015001 	tstcc	r1, r1
     7d0:	0dba1400 	cfldrseq	mvf1, [sl]
     7d4:	090f0800 	stmdbeq	pc, {fp}	; <UNPREDICTABLE>
     7d8:	c2140000 	andsgt	r0, r4, #0
     7dc:	1d08000d 	stcne	0, cr0, [r8, #-52]	; 0xffffffcc
     7e0:	15000009 	strne	r0, [r0, #-9]
     7e4:	08000dc8 	stmdaeq	r0, {r3, r6, r7, r8, sl, fp}
     7e8:	000007f4 	strdeq	r0, [r0], -r4
     7ec:	02500113 	subseq	r0, r0, #-1073741820	; 0xc0000004
     7f0:	00000074 	andeq	r0, r0, r4, ror r0
     7f4:	01910116 	orrseq	r0, r1, r6, lsl r1
     7f8:	0a020000 	beq	80800 <_Min_Stack_Size+0x80400>
     7fc:	03580106 	cmpeq	r8, #-2147483647	; 0x80000001
     800:	03640800 	cmneq	r4, #0, 16
     804:	7d020800 	stcvc	8, cr0, [r2, #-0]
     808:	08230100 	stmdaeq	r3!, {r8}
     80c:	32170000 	andscc	r0, r7, #0
     810:	02000002 	andeq	r0, r0, #2
     814:	0077150a 	rsbseq	r1, r7, sl, lsl #10
     818:	011b0000 	tsteq	fp, r0
     81c:	01150000 	tsteq	r5, r0
     820:	18000000 	stmdane	r0, {}	; <UNPREDICTABLE>
     824:	00026b01 	andeq	r6, r2, r1, lsl #22
     828:	1c080200 	sfmne	f0, 4, [r8], {-0}
     82c:	00035601 	andeq	r5, r3, r1, lsl #12
     830:	00035808 	andeq	r5, r3, r8, lsl #16
     834:	007d0208 	rsbseq	r0, sp, r8, lsl #4
     838:	50011901 	andpl	r1, r1, r1, lsl #18
     83c:	02000008 	andeq	r0, r0, #8
     840:	1a011c07 	bne	47864 <_Min_Stack_Size+0x47464>
     844:	0002fc01 	andeq	pc, r2, r1, lsl #24
     848:	06a40100 	strteq	r0, [r4], r0, lsl #2
     84c:	0800030c 	stmdaeq	r0, {r2, r3, r8, r9}
     850:	08000354 	stmdaeq	r0, {r2, r4, r6, r8, r9}
     854:	01007d02 	tsteq	r0, r2, lsl #26
     858:	00000883 	andeq	r0, r0, r3, lsl #17
     85c:	0100691b 	tsteq	r0, fp, lsl r9
     860:	00640ca5 	rsbeq	r0, r4, r5, lsr #25
     864:	014e0000 	mrseq	r0, (UNDEF: 78)
     868:	01460000 	mrseq	r0, (UNDEF: 70)
     86c:	741b0000 	ldrvc	r0, [fp], #-0
     870:	0100706d 	tsteq	r0, sp, rrx
     874:	00770ca6 	rsbseq	r0, r7, r6, lsr #25
     878:	01960000 	orrseq	r0, r6, r0
     87c:	01920000 	orrseq	r0, r2, r0
     880:	1c000000 	stcne	0, cr0, [r0], {-0}
     884:	0000a301 	andeq	sl, r0, r1, lsl #6
     888:	084c0100 	stmdaeq	ip, {r8}^
     88c:	00003001 	andeq	r3, r0, r1
     890:	0001e800 	andeq	lr, r1, r0, lsl #16
     894:	00030c08 	andeq	r0, r3, r8, lsl #24
     898:	007d0208 	rsbseq	r0, sp, r8, lsl #4
     89c:	0008dc01 	andeq	sp, r8, r1, lsl #24
     8a0:	01e21700 	mvneq	r1, r0, lsl #14
     8a4:	4c010000 	stcmi	0, cr0, [r1], {-0}
     8a8:	00003018 	andeq	r3, r0, r8, lsl r0
     8ac:	0001bd00 	andeq	fp, r1, r0, lsl #26
     8b0:	0001b500 	andeq	fp, r1, r0, lsl #10
     8b4:	00691b00 	rsbeq	r1, r9, r0, lsl #22
     8b8:	640c4d01 	strvs	r4, [ip], #-3329	; 0xfffff2ff
     8bc:	1b000000 	blne	8c4 <_Min_Stack_Size+0x4c4>
     8c0:	f7000002 			; <UNDEFINED> instruction: 0xf7000002
     8c4:	1b000001 	blne	8d0 <_Min_Stack_Size+0x4d0>
     8c8:	00706d74 	rsbseq	r6, r0, r4, ror sp
     8cc:	770c4e01 	strvc	r4, [ip, -r1, lsl #28]
     8d0:	5a000000 	bpl	8d8 <_Min_Stack_Size+0x4d8>
     8d4:	36000003 	strcc	r0, [r0], -r3
     8d8:	00000003 	andeq	r0, r0, r3
     8dc:	011e0116 	tsteq	lr, r6, lsl r1
     8e0:	1c010000 	stcne	0, cr0, [r1], {-0}
     8e4:	01500106 	cmpeq	r0, r6, lsl #2
     8e8:	01e80800 	mvneq	r0, r0, lsl #16
     8ec:	7d020800 	stcvc	8, cr0, [r2, #-0]
     8f0:	09050100 	stmdbeq	r5, {r8}
     8f4:	341d0000 	ldrcc	r0, [sp], #-0
     8f8:	01000003 	tsteq	r0, r3
     8fc:	0051151c 	subseq	r1, r1, ip, lsl r5
     900:	50010000 	andpl	r0, r1, r0
     904:	02401e00 	subeq	r1, r0, #0, 28
     908:	b4030000 	strlt	r0, [r3], #-0
     90c:	1f031604 	svcne	0x00031604
     910:	00730101 	rsbseq	r0, r3, r1, lsl #2
     914:	00730000 	rsbseq	r0, r3, r0
     918:	24070000 	strcs	r0, [r7], #-0
     91c:	01011f06 	tsteq	r1, r6, lsl #30
     920:	000000f0 	strdeq	r0, [r0], -r0	; <UNPREDICTABLE>
     924:	000000f0 	strdeq	r0, [r0], -r0	; <UNPREDICTABLE>
     928:	00064207 	andeq	r4, r6, r7, lsl #4
     92c:	0000126a 	andeq	r1, r0, sl, ror #4
     930:	02170002 	andseq	r0, r7, #2
     934:	01040000 	mrseq	r0, (UNDEF: 4)
     938:	00000347 	andeq	r0, r0, r7, asr #6
     93c:	00076b0c 	andeq	r6, r7, ip, lsl #22
     940:	0001fc00 	andeq	pc, r1, r0, lsl #24
     944:	00036400 	andeq	r6, r3, r0, lsl #8
     948:	00098408 	andeq	r8, r9, r8, lsl #8
     94c:	00043308 	andeq	r3, r4, r8, lsl #6
     950:	06010200 	streq	r0, [r1], -r0, lsl #4
     954:	0000027f 	andeq	r0, r0, pc, ror r2
     958:	98050202 	stmdals	r5, {r1, r9}
     95c:	02000002 	andeq	r0, r0, #2
     960:	00820504 	addeq	r0, r2, r4, lsl #10
     964:	08020000 	stmdaeq	r2, {}	; <UNPREDICTABLE>
     968:	00007d05 	andeq	r7, r0, r5, lsl #26
     96c:	03180300 	tsteq	r8, #0, 6
     970:	2e040000 	cdpcs	0, 0, cr0, cr4, cr0, {0}
     974:	00005718 	andeq	r5, r0, r8, lsl r7
     978:	00410400 	subeq	r0, r1, r0, lsl #8
     97c:	41050000 	mrsmi	r0, (UNDEF: 5)
     980:	02000000 	andeq	r0, r0, #0
     984:	027d0801 	rsbseq	r0, sp, #65536	; 0x10000
     988:	ff030000 			; <UNDEFINED> instruction: 0xff030000
     98c:	04000000 	streq	r0, [r0], #-0
     990:	006f1931 	rsbeq	r1, pc, r1, lsr r9	; <UNPREDICTABLE>
     994:	5e040000 	cdppl	0, 0, cr0, cr4, cr0, {0}
     998:	02000000 	andeq	r0, r0, #0
     99c:	017e0702 	cmneq	lr, r2, lsl #14
     9a0:	d2030000 	andle	r0, r3, #0
     9a4:	04000002 	streq	r0, [r0], #-2
     9a8:	00871934 	addeq	r1, r7, r4, lsr r9
     9ac:	76040000 	strvc	r0, [r4], -r0
     9b0:	02000000 	andeq	r0, r0, #0
     9b4:	004d0704 	subeq	r0, sp, r4, lsl #14
     9b8:	08020000 	stmdaeq	r2, {}	; <UNPREDICTABLE>
     9bc:	00004807 	andeq	r4, r0, r7, lsl #16
     9c0:	05040600 	streq	r0, [r4, #-1536]	; 0xfffffa00
     9c4:	00746e69 	rsbseq	r6, r4, r9, ror #28
     9c8:	00009504 	andeq	r9, r0, r4, lsl #10
     9cc:	07040200 	streq	r0, [r4, -r0, lsl #4]
     9d0:	00000052 	andeq	r0, r0, r2, asr r0
     9d4:	00072003 	andeq	r2, r7, r3
     9d8:	0f1a0300 	svceq	0x001a0300
     9dc:	000000b4 	strheq	r0, [r0], -r4
     9e0:	00ba0407 	adcseq	r0, sl, r7, lsl #8
     9e4:	01080000 	mrseq	r0, (UNDEF: 8)
     9e8:	000000c6 	andeq	r0, r0, r6, asr #1
     9ec:	00004109 	andeq	r4, r0, r9, lsl #2
     9f0:	080a0000 	stmdaeq	sl, {}	; <UNPREDICTABLE>
     9f4:	1b091b03 	blne	247608 <_Min_Stack_Size+0x247208>
     9f8:	0b000001 	bleq	a04 <_Min_Stack_Size+0x604>
     9fc:	00000464 	andeq	r0, r0, r4, ror #8
     a00:	410b1c03 	tstmi	fp, r3, lsl #24
     a04:	02000000 	andeq	r0, r0, #0
     a08:	870b0023 	strhi	r0, [fp, -r3, lsr #32]
     a0c:	03000008 	movweq	r0, #8
     a10:	00410b1d 	subeq	r0, r1, sp, lsl fp
     a14:	23020000 	movwcs	r0, #8192	; 0x2000
     a18:	04d30b01 	ldrbeq	r0, [r3], #2817	; 0xb01
     a1c:	1e030000 	cdpne	0, 0, cr0, cr3, cr0, {0}
     a20:	00005e0c 	andeq	r5, r0, ip, lsl #28
     a24:	02230200 	eoreq	r0, r3, #0, 4
     a28:	0003ec0b 	andeq	lr, r3, fp, lsl #24
     a2c:	0c1f0300 	ldceq	3, cr0, [pc], {-0}
     a30:	0000005e 	andeq	r0, r0, lr, asr r0
     a34:	0b042302 	bleq	109644 <_Min_Stack_Size+0x109244>
     a38:	0000086a 	andeq	r0, r0, sl, ror #16
     a3c:	5e0c2003 	cdppl	0, 0, cr2, cr12, cr3, {0}
     a40:	02000000 	andeq	r0, r0, #0
     a44:	03000623 	movweq	r0, #1571	; 0x623
     a48:	000008f3 	strdeq	r0, [r0], -r3
     a4c:	c6022103 	strgt	r2, [r2], -r3, lsl #2
     a50:	0c000000 	stceq	0, cr0, [r0], {-0}
     a54:	00250105 	eoreq	r0, r5, r5, lsl #2
     a58:	58050000 	stmdapl	r5, {}	; <UNPREDICTABLE>
     a5c:	00029e01 	andeq	r9, r2, r1, lsl #28
     a60:	08560d00 	ldmdaeq	r6, {r8, sl, fp}^
     a64:	0d720000 	ldcleq	0, cr0, [r2, #-0]
     a68:	000004da 	ldrdeq	r0, [r0], -sl
     a6c:	06fe0d74 			; <UNDEFINED> instruction: 0x06fe0d74
     a70:	0d750000 	ldcleq	0, cr0, [r5, #-0]
     a74:	00000939 	andeq	r0, r0, r9, lsr r9
     a78:	04320d76 	ldrteq	r0, [r2], #-3446	; 0xfffff28a
     a7c:	0d7b0000 	ldcleq	0, cr0, [fp, #-0]
     a80:	00000927 	andeq	r0, r0, r7, lsr #18
     a84:	04b70d7c 	ldrteq	r0, [r7], #3452	; 0xd7c
     a88:	0d7e0000 	ldcleq	0, cr0, [lr, #-0]
     a8c:	000008bf 			; <UNDEFINED> instruction: 0x000008bf
     a90:	06da0e7f 			; <UNDEFINED> instruction: 0x06da0e7f
     a94:	0e000000 	cdpeq	0, 0, cr0, cr0, cr0, {0}
     a98:	00000717 	andeq	r0, r0, r7, lsl r7
     a9c:	04ff0e01 	ldrbteq	r0, [pc], #3585	; aa4 <_Min_Stack_Size+0x6a4>
     aa0:	0e020000 	cdpeq	0, 0, cr0, cr2, cr0, {0}
     aa4:	000005ee 	andeq	r0, r0, lr, ror #11
     aa8:	047f0e03 	ldrbteq	r0, [pc], #-3587	; ab0 <_Min_Stack_Size+0x6b0>
     aac:	0e040000 	cdpeq	0, 0, cr0, cr4, cr0, {0}
     ab0:	000004ca 	andeq	r0, r0, sl, asr #9
     ab4:	04940e05 	ldreq	r0, [r4], #3589	; 0xe05
     ab8:	0e060000 	cdpeq	0, 0, cr0, cr6, cr0, {0}
     abc:	0000087c 	andeq	r0, r0, ip, ror r8
     ac0:	06180e07 	ldreq	r0, [r8], -r7, lsl #28
     ac4:	0e080000 	cdpeq	0, 0, cr0, cr8, cr0, {0}
     ac8:	000009ce 	andeq	r0, r0, lr, asr #19
     acc:	070c0e09 	streq	r0, [ip, -r9, lsl #28]
     ad0:	0e0a0000 	cdpeq	0, 0, cr0, cr10, cr0, {0}
     ad4:	000006a1 	andeq	r0, r0, r1, lsr #13
     ad8:	04450e0b 	strbeq	r0, [r5], #-3595	; 0xfffff1f5
     adc:	0e0c0000 	cdpeq	0, 0, cr0, cr12, cr0, {0}
     ae0:	00000758 	andeq	r0, r0, r8, asr r7
     ae4:	05540e0d 	ldrbeq	r0, [r4, #-3597]	; 0xfffff1f3
     ae8:	0e0e0000 	cdpeq	0, 0, cr0, cr14, cr0, {0}
     aec:	000009a3 	andeq	r0, r0, r3, lsr #19
     af0:	06640e0f 	strbteq	r0, [r4], -pc, lsl #28
     af4:	0e100000 	cdpeq	0, 1, cr0, cr0, cr0, {0}
     af8:	00000412 	andeq	r0, r0, r2, lsl r4
     afc:	06230e11 			; <UNDEFINED> instruction: 0x06230e11
     b00:	0e120000 	cdpeq	0, 1, cr0, cr2, cr0, {0}
     b04:	0000091b 	andeq	r0, r0, fp, lsl r9
     b08:	0a2f0e13 	beq	bc435c <_Min_Stack_Size+0xbc3f5c>
     b0c:	0e140000 	cdpeq	0, 1, cr0, cr4, cr0, {0}
     b10:	000009bd 			; <UNDEFINED> instruction: 0x000009bd
     b14:	05760e15 	ldrbeq	r0, [r6, #-3605]!	; 0xfffff1eb
     b18:	0e160000 	cdpeq	0, 1, cr0, cr6, cr0, {0}
     b1c:	00000973 	andeq	r0, r0, r3, ror r9
     b20:	04080e17 	streq	r0, [r8], #-3607	; 0xfffff1e9
     b24:	0e190000 	cdpeq	0, 1, cr0, cr9, cr0, {0}
     b28:	000006cf 	andeq	r0, r0, pc, asr #13
     b2c:	03e10e1a 	mvneq	r0, #416	; 0x1a0
     b30:	0e1b0000 	cdpeq	0, 1, cr0, cr11, cr0, {0}
     b34:	000008d2 	ldrdeq	r0, [r0], -r2
     b38:	06970e1c 			; <UNDEFINED> instruction: 0x06970e1c
     b3c:	0e1d0000 	cdpeq	0, 1, cr0, cr13, cr0, {0}
     b40:	0000043b 	andeq	r0, r0, fp, lsr r4
     b44:	07790e1e 			; <UNDEFINED> instruction: 0x07790e1e
     b48:	0e1f0000 	cdpeq	0, 1, cr0, cr15, cr0, {0}
     b4c:	000008b2 			; <UNDEFINED> instruction: 0x000008b2
     b50:	062d0e20 	strteq	r0, [sp], -r0, lsr #28
     b54:	0e210000 	cdpeq	0, 2, cr0, cr1, cr0, {0}
     b58:	00000425 	andeq	r0, r0, r5, lsr #8
     b5c:	05320e22 	ldreq	r0, [r2, #-3618]!	; 0xfffff1de
     b60:	0e230000 	cdpeq	0, 2, cr0, cr3, cr0, {0}
     b64:	0000098a 	andeq	r0, r0, sl, lsl #19
     b68:	083e0e24 	ldmdaeq	lr!, {r2, r5, r9, sl, fp}
     b6c:	0e250000 	cdpeq	0, 2, cr0, cr5, cr0, {0}
     b70:	000005cf 	andeq	r0, r0, pc, asr #11
     b74:	0a190e26 	beq	644414 <_Min_Stack_Size+0x644014>
     b78:	0e270000 	cdpeq	0, 2, cr0, cr7, cr0, {0}
     b7c:	0000049f 	muleq	r0, pc, r4	; <UNPREDICTABLE>
     b80:	07b70e28 	ldreq	r0, [r7, r8, lsr #28]!
     b84:	0e290000 	cdpeq	0, 2, cr0, cr9, cr0, {0}
     b88:	00000819 	andeq	r0, r0, r9, lsl r8
     b8c:	054a0e2a 	strbeq	r0, [sl, #-3626]	; 0xfffff1d6
     b90:	0e2b0000 	cdpeq	0, 2, cr0, cr11, cr0, {0}
     b94:	00000999 	muleq	r0, r9, r9
     b98:	074e0e2c 	strbeq	r0, [lr, -ip, lsr #28]
     b9c:	0e2e0000 	cdpeq	0, 2, cr0, cr14, cr0, {0}
     ba0:	0000063f 	andeq	r0, r0, pc, lsr r6
     ba4:	06770e2f 	ldrbteq	r0, [r7], -pc, lsr #28
     ba8:	0e320000 	cdpeq	0, 3, cr0, cr2, cr0, {0}
     bac:	00000a06 	andeq	r0, r0, r6, lsl #20
     bb0:	073b0e33 			; <UNDEFINED> instruction: 0x073b0e33
     bb4:	0e340000 	cdpeq	0, 3, cr0, cr4, cr0, {0}
     bb8:	00000516 	andeq	r0, r0, r6, lsl r5
     bbc:	089f0e35 	ldmeq	pc, {r0, r2, r4, r5, r9, sl, fp}	; <UNPREDICTABLE>
     bc0:	0e360000 	cdpeq	0, 3, cr0, cr6, cr0, {0}
     bc4:	00000656 	andeq	r0, r0, r6, asr r6
     bc8:	bc030038 	stclt	0, cr0, [r3], {56}	; 0x38
     bcc:	05000005 	streq	r0, [r0, #-5]
     bd0:	01270398 			; <UNDEFINED> instruction: 0x01270398
     bd4:	040f0000 	streq	r0, [pc], #-0	; bdc <_Min_Stack_Size+0x7dc>
     bd8:	0984020e 	stmibeq	r4, {r1, r2, r3, r9}
     bdc:	00000382 	andeq	r0, r0, r2, lsl #7
     be0:	0005110b 	andeq	r1, r5, fp, lsl #2
     be4:	11860200 	orrne	r0, r6, r0, lsl #4
     be8:	00000392 	muleq	r0, r2, r3
     bec:	0b002302 	bleq	97fc <_Min_Stack_Size+0x93fc>
     bf0:	000007d3 	ldrdeq	r0, [r0], -r3
     bf4:	97118702 	ldrls	r8, [r1, -r2, lsl #14]
     bf8:	02000003 	andeq	r0, r0, #3
     bfc:	850b2023 	strhi	r2, [fp, #-35]	; 0xffffffdd
     c00:	02000009 	andeq	r0, r0, #9
     c04:	03921188 	orrseq	r1, r2, #136, 2	; 0x22
     c08:	23030000 	movwcs	r0, #12288	; 0x3000
     c0c:	290b0180 	stmdbcs	fp, {r7, r8}
     c10:	02000005 	andeq	r0, r0, #5
     c14:	03971189 	orrseq	r1, r7, #1073741858	; 0x40000022
     c18:	23030000 	movwcs	r0, #12288	; 0x3000
     c1c:	ec0b01a0 	stfs	f0, [fp], {160}	; 0xa0
     c20:	02000009 	andeq	r0, r0, #9
     c24:	0392118a 	orrseq	r1, r2, #-2147483614	; 0x80000022
     c28:	23030000 	movwcs	r0, #12288	; 0x3000
     c2c:	e70b0280 	str	r0, [fp, -r0, lsl #5]
     c30:	02000007 	andeq	r0, r0, #7
     c34:	0397118b 	orrseq	r1, r7, #-1073741790	; 0xc0000022
     c38:	23030000 	movwcs	r0, #12288	; 0x3000
     c3c:	360b02a0 	strcc	r0, [fp], -r0, lsr #5
     c40:	02000007 	andeq	r0, r0, #7
     c44:	0392118c 	orrseq	r1, r2, #140, 2	; 0x23
     c48:	23030000 	movwcs	r0, #12288	; 0x3000
     c4c:	f10b0380 			; <UNDEFINED> instruction: 0xf10b0380
     c50:	02000007 	andeq	r0, r0, #7
     c54:	0397118d 	orrseq	r1, r7, #1073741859	; 0x40000023
     c58:	23030000 	movwcs	r0, #12288	; 0x3000
     c5c:	940b03a0 	strls	r0, [fp], #-928	; 0xfffffc60
     c60:	02000009 	andeq	r0, r0, #9
     c64:	0392118e 	orrseq	r1, r2, #-2147483613	; 0x80000023
     c68:	23030000 	movwcs	r0, #12288	; 0x3000
     c6c:	fb0b0480 	blx	2c1e76 <_Min_Stack_Size+0x2c1a76>
     c70:	02000007 	andeq	r0, r0, #7
     c74:	03a7118f 			; <UNDEFINED> instruction: 0x03a7118f
     c78:	23030000 	movwcs	r0, #12288	; 0x3000
     c7c:	491004a0 	ldmdbmi	r0, {r5, r7, sl}
     c80:	90020050 	andls	r0, r2, r0, asr r0
     c84:	0003c711 	andeq	ip, r3, r1, lsl r7
     c88:	80230300 	eorhi	r0, r3, r0, lsl #6
     c8c:	08050b06 	stmdaeq	r5, {r1, r2, r8, r9, fp}
     c90:	91020000 	mrsls	r0, (UNDEF: 2)
     c94:	0003cc11 	andeq	ip, r3, r1, lsl ip
     c98:	f0230300 			; <UNDEFINED> instruction: 0xf0230300
     c9c:	07b20b07 	ldreq	r0, [r2, r7, lsl #22]!
     ca0:	92020000 	andls	r0, r2, #0
     ca4:	00008211 	andeq	r8, r0, r1, lsl r2
     ca8:	80230300 	eorhi	r0, r3, r0, lsl #6
     cac:	8211001c 	andshi	r0, r1, #28
     cb0:	92000000 	andls	r0, r0, #0
     cb4:	12000003 	andne	r0, r0, #3
     cb8:	000000a1 	andeq	r0, r0, r1, lsr #1
     cbc:	82040007 	andhi	r0, r4, #7
     cc0:	11000003 	tstne	r0, r3
     cc4:	00000076 	andeq	r0, r0, r6, ror r0
     cc8:	000003a7 	andeq	r0, r0, r7, lsr #7
     ccc:	0000a112 	andeq	sl, r0, r2, lsl r1
     cd0:	11001700 	tstne	r0, r0, lsl #14
     cd4:	00000076 	andeq	r0, r0, r6, ror r0
     cd8:	000003b7 			; <UNDEFINED> instruction: 0x000003b7
     cdc:	0000a112 	andeq	sl, r0, r2, lsl r1
     ce0:	11003700 	tstne	r0, r0, lsl #14
     ce4:	0000004d 	andeq	r0, r0, sp, asr #32
     ce8:	000003c7 	andeq	r0, r0, r7, asr #7
     cec:	0000a112 	andeq	sl, r0, r2, lsl r1
     cf0:	0400ef00 	streq	lr, [r0], #-3840	; 0xfffff100
     cf4:	000003b7 			; <UNDEFINED> instruction: 0x000003b7
     cf8:	00007611 	andeq	r7, r0, r1, lsl r6
     cfc:	0003dd00 	andeq	sp, r3, r0, lsl #26
     d00:	00a11300 	adceq	r1, r1, r0, lsl #6
     d04:	02830000 	addeq	r0, r3, #0
     d08:	08900300 	ldmeq	r0, {r8, r9}
     d0c:	93020000 	movwls	r0, #8192	; 0x2000
     d10:	0002aa04 	andeq	sl, r2, r4, lsl #20
     d14:	028b1400 	addeq	r1, fp, #0, 8
     d18:	ce020000 	cdpgt	0, 0, cr0, cr2, cr0, {0}
     d1c:	009c1506 	addseq	r1, ip, r6, lsl #10
     d20:	01010000 	mrseq	r0, (UNDEF: 1)
     d24:	00013a15 	andeq	r3, r1, r5, lsl sl
     d28:	114c0600 	cmpne	ip, r0, lsl #12
     d2c:	00000076 	andeq	r0, r0, r6, ror r0
     d30:	18160101 	ldmdane	r6, {r0, r8}
     d34:	09016105 	stmdbeq	r1, {r0, r2, r8, sp, lr}
     d38:	00000441 	andeq	r0, r0, r1, asr #8
     d3c:	0004c317 	andeq	ip, r4, r7, lsl r3
     d40:	01630500 	cmneq	r3, r0, lsl #10
     d44:	00008211 	andeq	r8, r0, r1, lsl r2
     d48:	00230200 	eoreq	r0, r3, r0, lsl #4
     d4c:	434d5018 	movtmi	r5, #53272	; 0xd018
     d50:	01640500 	cmneq	r4, r0, lsl #10
     d54:	00008211 	andeq	r8, r0, r1, lsl r2
     d58:	04230200 	strteq	r0, [r3], #-512	; 0xfffffe00
     d5c:	0006c317 	andeq	ip, r6, r7, lsl r3
     d60:	01650500 	cmneq	r5, r0, lsl #10
     d64:	00045111 	andeq	r5, r4, r1, lsl r1
     d68:	08230200 	stmdaeq	r3!, {r9}
     d6c:	00821100 	addeq	r1, r2, r0, lsl #2
     d70:	04510000 	ldrbeq	r0, [r1], #-0
     d74:	a1120000 	tstge	r2, r0
     d78:	03000000 	movweq	r0, #0
     d7c:	04410400 	strbeq	r0, [r1], #-1024	; 0xfffffc00
     d80:	f3190000 	vhadd.u16	d0, d9, d0
     d84:	05000003 	streq	r0, [r0, #-3]
     d88:	06030166 	streq	r0, [r3], -r6, ror #2
     d8c:	16000004 	strne	r0, [r0], -r4
     d90:	01930538 	orrseq	r0, r3, r8, lsr r5
     d94:	00054d09 	andeq	r4, r5, r9, lsl #26
     d98:	52431800 	subpl	r1, r3, #0, 16
     d9c:	01950500 	orrseq	r0, r5, r0, lsl #10
     da0:	00008211 	andeq	r8, r0, r1, lsl r2
     da4:	00230200 	eoreq	r0, r3, r0, lsl #4
     da8:	00030c17 	andeq	r0, r3, r7, lsl ip
     dac:	01960500 	orrseq	r0, r6, r0, lsl #10
     db0:	00008211 	andeq	r8, r0, r1, lsl r2
     db4:	04230200 	strteq	r0, [r3], #-512	; 0xfffffe00
     db8:	0002c717 	andeq	ip, r2, r7, lsl r7
     dbc:	01970500 	orrseq	r0, r7, r0, lsl #10
     dc0:	00008211 	andeq	r8, r0, r1, lsl r2
     dc4:	08230200 	stmdaeq	r3!, {r9}
     dc8:	52494318 	subpl	r4, r9, #24, 6	; 0x60000000
     dcc:	01980500 	orrseq	r0, r8, r0, lsl #10
     dd0:	00008211 	andeq	r8, r0, r1, lsl r2
     dd4:	0c230200 	sfmeq	f0, 4, [r3], #-0
     dd8:	00022a17 	andeq	r2, r2, r7, lsl sl
     ddc:	01990500 	orrseq	r0, r9, r0, lsl #10
     de0:	00008211 	andeq	r8, r0, r1, lsl r2
     de4:	10230200 	eorne	r0, r3, r0, lsl #4
     de8:	0000c017 	andeq	ip, r0, r7, lsl r0
     dec:	019a0500 	orrseq	r0, sl, r0, lsl #10
     df0:	00008211 	andeq	r8, r0, r1, lsl r2
     df4:	14230200 	strtne	r0, [r3], #-512	; 0xfffffe00
     df8:	00023717 	andeq	r3, r2, r7, lsl r7
     dfc:	019b0500 	orrseq	r0, fp, r0, lsl #10
     e00:	00008211 	andeq	r8, r0, r1, lsl r2
     e04:	18230200 	stmdane	r3!, {r9}
     e08:	0003da17 	andeq	sp, r3, r7, lsl sl
     e0c:	019c0500 	orrseq	r0, ip, r0, lsl #10
     e10:	00008211 	andeq	r8, r0, r1, lsl r2
     e14:	1c230200 	sfmne	f0, 4, [r3], #-0
     e18:	0002b817 	andeq	fp, r2, r7, lsl r8
     e1c:	019d0500 	orrseq	r0, sp, r0, lsl #10
     e20:	00008211 	andeq	r8, r0, r1, lsl r2
     e24:	20230200 	eorcs	r0, r3, r0, lsl #4
     e28:	0002ed17 	andeq	lr, r2, r7, lsl sp
     e2c:	019e0500 	orrseq	r0, lr, r0, lsl #10
     e30:	00008211 	andeq	r8, r0, r1, lsl r2
     e34:	24230200 	strtcs	r0, [r3], #-512	; 0xfffffe00
     e38:	0000d817 	andeq	sp, r0, r7, lsl r8
     e3c:	019f0500 	orrseq	r0, pc, r0, lsl #10
     e40:	00008211 	andeq	r8, r0, r1, lsl r2
     e44:	28230200 	stmdacs	r3!, {r9}
     e48:	0001ba17 	andeq	fp, r1, r7, lsl sl
     e4c:	01a00500 	lsleq	r0, r0, #10
     e50:	00008211 	andeq	r8, r0, r1, lsl r2
     e54:	2c230200 	sfmcs	f0, 4, [r3], #-0
     e58:	00019717 	andeq	r9, r1, r7, lsl r7
     e5c:	01a10500 			; <UNDEFINED> instruction: 0x01a10500
     e60:	00008211 	andeq	r8, r0, r1, lsl r2
     e64:	30230200 	eorcc	r0, r3, r0, lsl #4
     e68:	52534318 	subspl	r4, r3, #24, 6	; 0x60000000
     e6c:	01a20500 			; <UNDEFINED> instruction: 0x01a20500
     e70:	00008211 	andeq	r8, r0, r1, lsl r2
     e74:	34230200 	strtcc	r0, [r3], #-512	; 0xfffffe00
     e78:	01641900 	cmneq	r4, r0, lsl #18
     e7c:	a3050000 	movwge	r0, #20480	; 0x5000
     e80:	04630301 	strbteq	r0, [r3], #-769	; 0xfffffcff
     e84:	54160000 	ldrpl	r0, [r6], #-0
     e88:	09023705 	stmdbeq	r2, {r0, r2, r8, r9, sl, ip, sp}
     e8c:	00000705 	andeq	r0, r0, r5, lsl #14
     e90:	0005e917 	andeq	lr, r5, r7, lsl r9
     e94:	02390500 	eorseq	r0, r9, #0, 10
     e98:	00006a11 	andeq	r6, r0, r1, lsl sl
     e9c:	00230200 	eoreq	r0, r3, r0, lsl #4
     ea0:	0007d317 	andeq	sp, r7, r7, lsl r3
     ea4:	023a0500 	eorseq	r0, sl, #0, 10
     ea8:	00006a11 	andeq	r6, r0, r1, lsl sl
     eac:	02230200 	eoreq	r0, r3, #0, 4
     eb0:	00063a17 	andeq	r3, r6, r7, lsl sl
     eb4:	023b0500 	eorseq	r0, fp, #0, 10
     eb8:	00006a11 	andeq	r6, r0, r1, lsl sl
     ebc:	04230200 	strteq	r0, [r3], #-512	; 0xfffffe00
     ec0:	0007dd17 	andeq	sp, r7, r7, lsl sp
     ec4:	023c0500 	eorseq	r0, ip, #0, 10
     ec8:	00006a11 	andeq	r6, r0, r1, lsl sl
     ecc:	06230200 	strteq	r0, [r3], -r0, lsl #4
     ed0:	0006ca17 	andeq	ip, r6, r7, lsl sl
     ed4:	023d0500 	eorseq	r0, sp, #0, 10
     ed8:	00006a11 	andeq	r6, r0, r1, lsl sl
     edc:	08230200 	stmdaeq	r3!, {r9}
     ee0:	0007e717 	andeq	lr, r7, r7, lsl r7
     ee4:	023e0500 	eorseq	r0, lr, #0, 10
     ee8:	00006a11 	andeq	r6, r0, r1, lsl sl
     eec:	0a230200 	beq	8c16f4 <_Min_Stack_Size+0x8c12f4>
     ef0:	0006f917 	andeq	pc, r6, r7, lsl r9	; <UNPREDICTABLE>
     ef4:	023f0500 	eorseq	r0, pc, #0, 10
     ef8:	00006a11 	andeq	r6, r0, r1, lsl sl
     efc:	0c230200 	sfmeq	f0, 4, [r3], #-0
     f00:	0007f117 	andeq	pc, r7, r7, lsl r1	; <UNPREDICTABLE>
     f04:	02400500 	subeq	r0, r0, #0, 10
     f08:	00006a11 	andeq	r6, r0, r1, lsl sl
     f0c:	0e230200 	cdpeq	2, 2, cr0, cr3, cr0, {0}
     f10:	00098017 	andeq	r8, r9, r7, lsl r0
     f14:	02410500 	subeq	r0, r1, #0, 10
     f18:	00006a11 	andeq	r6, r0, r1, lsl sl
     f1c:	10230200 	eorne	r0, r3, r0, lsl #4
     f20:	0007fb17 	andeq	pc, r7, r7, lsl fp	; <UNPREDICTABLE>
     f24:	02420500 	subeq	r0, r2, #0, 10
     f28:	00006a11 	andeq	r6, r0, r1, lsl sl
     f2c:	12230200 	eorne	r0, r3, #0, 4
     f30:	0007ce17 	andeq	ip, r7, r7, lsl lr
     f34:	02430500 	subeq	r0, r3, #0, 10
     f38:	00006a11 	andeq	r6, r0, r1, lsl sl
     f3c:	14230200 	strtne	r0, [r3], #-512	; 0xfffffe00
     f40:	00080517 	andeq	r0, r8, r7, lsl r5
     f44:	02440500 	subeq	r0, r4, #0, 10
     f48:	00006a11 	andeq	r6, r0, r1, lsl sl
     f4c:	16230200 	strtne	r0, [r3], -r0, lsl #4
     f50:	00087217 	andeq	r7, r8, r7, lsl r2
     f54:	02450500 	subeq	r0, r5, #0, 10
     f58:	00006a11 	andeq	r6, r0, r1, lsl sl
     f5c:	18230200 	stmdane	r3!, {r9}
     f60:	00080f17 	andeq	r0, r8, r7, lsl pc
     f64:	02460500 	subeq	r0, r6, #0, 10
     f68:	00006a11 	andeq	r6, r0, r1, lsl sl
     f6c:	1a230200 	bne	8c1774 <_Min_Stack_Size+0x8c1374>
     f70:	0008ee17 	andeq	lr, r8, r7, lsl lr
     f74:	02470500 	subeq	r0, r7, #0, 10
     f78:	00006a11 	andeq	r6, r0, r1, lsl sl
     f7c:	1c230200 	sfmne	f0, 4, [r3], #-0
     f80:	00026117 	andeq	r6, r2, r7, lsl r1
     f84:	02480500 	subeq	r0, r8, #0, 10
     f88:	00071511 	andeq	r1, r7, r1, lsl r5
     f8c:	1e230200 	cdpne	2, 2, cr0, cr3, cr0, {0}
     f90:	00089a17 	andeq	r9, r8, r7, lsl sl
     f94:	02490500 	subeq	r0, r9, #0, 10
     f98:	00006a11 	andeq	r6, r0, r1, lsl sl
     f9c:	40230200 	eormi	r0, r3, r0, lsl #4
     fa0:	000a2517 	andeq	r2, sl, r7, lsl r5
     fa4:	024a0500 	subeq	r0, sl, #0, 10
     fa8:	00006a11 	andeq	r6, r0, r1, lsl sl
     fac:	42230200 	eormi	r0, r3, #0, 4
     fb0:	0004fa17 	andeq	pc, r4, r7, lsl sl	; <UNPREDICTABLE>
     fb4:	024b0500 	subeq	r0, fp, #0, 10
     fb8:	00006a11 	andeq	r6, r0, r1, lsl sl
     fbc:	44230200 	strtmi	r0, [r3], #-512	; 0xfffffe00
     fc0:	00082a17 	andeq	r2, r8, r7, lsl sl
     fc4:	024c0500 	subeq	r0, ip, #0, 10
     fc8:	00006a11 	andeq	r6, r0, r1, lsl sl
     fcc:	46230200 	strtmi	r0, [r3], -r0, lsl #4
     fd0:	524e4618 	subpl	r4, lr, #24, 12	; 0x1800000
     fd4:	024d0500 	subeq	r0, sp, #0, 10
     fd8:	00006a11 	andeq	r6, r0, r1, lsl sl
     fdc:	48230200 	stmdami	r3!, {r9}
     fe0:	00083417 	andeq	r3, r8, r7, lsl r4
     fe4:	024e0500 	subeq	r0, lr, #0, 10
     fe8:	00006a11 	andeq	r6, r0, r1, lsl sl
     fec:	4a230200 	bmi	8c17f4 <_Min_Stack_Size+0x8c13f4>
     ff0:	00058c17 	andeq	r8, r5, r7, lsl ip
     ff4:	024f0500 	subeq	r0, pc, #0, 10
     ff8:	00006a11 	andeq	r6, r0, r1, lsl sl
     ffc:	4c230200 	sfmmi	f0, 4, [r3], #-0
    1000:	000a3b17 	andeq	r3, sl, r7, lsl fp
    1004:	02500500 	subseq	r0, r0, #0, 10
    1008:	00006a11 	andeq	r6, r0, r1, lsl sl
    100c:	4e230200 	cdpmi	2, 2, cr0, cr3, cr0, {0}
    1010:	0009b617 	andeq	fp, r9, r7, lsl r6
    1014:	02510500 	subseq	r0, r1, #0, 10
    1018:	00006a11 	andeq	r6, r0, r1, lsl sl
    101c:	50230200 	eorpl	r0, r3, r0, lsl #4
    1020:	000a4517 	andeq	r4, sl, r7, lsl r5
    1024:	02520500 	subseq	r0, r2, #0, 10
    1028:	00006a11 	andeq	r6, r0, r1, lsl sl
    102c:	52230200 	eorpl	r0, r3, #0, 4
    1030:	006a1100 	rsbeq	r1, sl, r0, lsl #2
    1034:	07150000 	ldreq	r0, [r5, -r0]
    1038:	a1120000 	tstge	r2, r0
    103c:	10000000 	andne	r0, r0, r0
    1040:	07050400 	streq	r0, [r5, -r0, lsl #8]
    1044:	80190000 	andshi	r0, r9, r0
    1048:	05000005 	streq	r0, [r0, #-5]
    104c:	5a030253 	bpl	c19a0 <_Min_Stack_Size+0xc15a0>
    1050:	0a000005 	beq	106c <_Min_Stack_Size+0xc6c>
    1054:	07210104 	streq	r0, [r1, -r4, lsl #2]!
    1058:	00000767 	andeq	r0, r0, r7, ror #14
    105c:	00072d1a 	andeq	r2, r7, sl, lsl sp
    1060:	12220100 	eorne	r0, r2, #0, 2
    1064:	00000076 	andeq	r0, r0, r6, ror r0
    1068:	02160a04 	andseq	r0, r6, #4, 20	; 0x4000
    106c:	0d1a0023 	ldceq	0, cr0, [sl, #-140]	; 0xffffff74
    1070:	01000009 	tsteq	r0, r9
    1074:	00761223 	rsbseq	r1, r6, r3, lsr #4
    1078:	05040000 	streq	r0, [r4, #-0]
    107c:	00230211 	eoreq	r0, r3, r1, lsl r2
    1080:	0007a51a 	andeq	sl, r7, sl, lsl r5
    1084:	12240100 	eorne	r0, r4, #0, 2
    1088:	00000076 	andeq	r0, r0, r6, ror r0
    108c:	02100104 	andseq	r0, r0, #4, 2
    1090:	1b000023 	blne	1124 <_Min_Stack_Size+0xd24>
    1094:	0e1f0104 	mufeqe	f0, f7, f4
    1098:	00000782 	andeq	r0, r0, r2, lsl #15
    109c:	0007291c 	andeq	r2, r7, ip, lsl r9
    10a0:	10200100 	eorne	r0, r0, r0, lsl #2
    10a4:	00000076 	andeq	r0, r0, r6, ror r0
    10a8:	0007271d 	andeq	r2, r7, sp, lsl r7
    10ac:	67040000 	strvs	r0, [r4, -r0]
    10b0:	0a000007 	beq	10d4 <_Min_Stack_Size+0xcd4>
    10b4:	072a0104 	streq	r0, [sl, -r4, lsl #2]!
    10b8:	000007c7 	andeq	r0, r0, r7, asr #15
    10bc:	0009f51a 	andeq	pc, r9, sl, lsl r5	; <UNPREDICTABLE>
    10c0:	122b0100 	eorne	r0, fp, #0, 2
    10c4:	00000076 	andeq	r0, r0, r6, ror r0
    10c8:	02160a04 	andseq	r0, r6, #4, 20	; 0x4000
    10cc:	861a0023 	ldrhi	r0, [sl], -r3, lsr #32
    10d0:	01000007 	tsteq	r0, r7
    10d4:	0076122c 	rsbseq	r1, r6, ip, lsr #4
    10d8:	05040000 	streq	r0, [r4, #-0]
    10dc:	00230211 	eoreq	r0, r3, r1, lsl r2
    10e0:	0009491a 	andeq	r4, r9, sl, lsl r9
    10e4:	122d0100 	eorne	r0, sp, #0, 2
    10e8:	00000076 	andeq	r0, r0, r6, ror r0
    10ec:	02100104 	andseq	r0, r0, #4, 2
    10f0:	1b000023 	blne	1184 <_Min_Stack_Size+0xd84>
    10f4:	0e280104 	sufeqe	f0, f0, f4
    10f8:	000007e2 	andeq	r0, r0, r2, ror #15
    10fc:	0009f11c 	andeq	pc, r9, ip, lsl r1	; <UNPREDICTABLE>
    1100:	10290100 	eorne	r0, r9, r0, lsl #2
    1104:	00000076 	andeq	r0, r0, r6, ror r0
    1108:	0007871d 	andeq	r8, r7, sp, lsl r7
    110c:	c7040000 	strgt	r0, [r4, -r0]
    1110:	0a000007 	beq	1134 <_Min_Stack_Size+0xd34>
    1114:	091d0110 	ldmdbeq	sp, {r4, r8}
    1118:	0000081f 	andeq	r0, r0, pc, lsl r8
    111c:	0009e00b 	andeq	lr, r9, fp
    1120:	171e0100 	ldrne	r0, [lr, -r0, lsl #2]
    1124:	00000082 	andeq	r0, r0, r2, lsl #1
    1128:	1e002302 	cdpne	3, 0, cr2, cr0, cr2, {0}
    112c:	00000782 	andeq	r0, r0, r2, lsl #15
    1130:	0b042302 	bleq	109d40 <_Min_Stack_Size+0x109940>
    1134:	00000901 	andeq	r0, r0, r1, lsl #18
    1138:	82172701 	andshi	r2, r7, #262144	; 0x40000
    113c:	02000000 	andeq	r0, r0, #0
    1140:	e21e0823 	ands	r0, lr, #2293760	; 0x230000
    1144:	02000007 	andeq	r0, r0, #7
    1148:	03000c23 	movweq	r0, #3107	; 0xc23
    114c:	00000649 	andeq	r0, r0, r9, asr #12
    1150:	e7023001 	str	r3, [r2, -r1]
    1154:	11000007 	tstne	r0, r7
    1158:	000000a8 	andeq	r0, r0, r8, lsr #1
    115c:	0000083b 	andeq	r0, r0, fp, lsr r8
    1160:	0000a112 	andeq	sl, r0, r2, lsl r1
    1164:	1f000700 	svcne	0x00000700
    1168:	00000956 	andeq	r0, r0, r6, asr r9
    116c:	2b0a3201 	blcs	28d978 <_Min_Stack_Size+0x28d578>
    1170:	01000008 	tsteq	r0, r8
    1174:	00240305 	eoreq	r0, r4, r5, lsl #6
    1178:	051f2000 	ldreq	r2, [pc, #-0]	; 1180 <_Min_Stack_Size+0xd80>
    117c:	01000006 	tsteq	r0, r6
    1180:	082b0a33 	stmdaeq	fp!, {r0, r1, r4, r5, r9, fp}
    1184:	05010000 	streq	r0, [r1, #-0]
    1188:	00004403 	andeq	r4, r0, r3, lsl #8
    118c:	04722020 	ldrbteq	r2, [r2], #-32	; 0xffffffe0
    1190:	35010000 	strcc	r0, [r1, #-0]
    1194:	00011b16 	andeq	r1, r1, r6, lsl fp
    1198:	0c030500 	cfstr32eq	mvfx0, [r3], {-0}
    119c:	20200000 	eorcs	r0, r0, r0
    11a0:	000005fc 	strdeq	r0, [r0], -ip
    11a4:	41104701 	tstmi	r0, r1, lsl #14
    11a8:	05000000 	streq	r0, [r0, #-0]
    11ac:	00000803 	andeq	r0, r0, r3, lsl #16
    11b0:	06102020 	ldreq	r2, [r0], -r0, lsr #32
    11b4:	48010000 	stmdami	r1, {}	; <UNPREDICTABLE>
    11b8:	00089717 	andeq	r9, r8, r7, lsl r7
    11bc:	04030500 	streq	r0, [r3], #-1280	; 0xfffffb00
    11c0:	07200000 	streq	r0, [r0, -r0]!
    11c4:	00005204 	andeq	r5, r0, r4, lsl #4
    11c8:	04f02000 	ldrbteq	r2, [r0], #0
    11cc:	49010000 	stmdbmi	r1, {}	; <UNPREDICTABLE>
    11d0:	00005e11 	andeq	r5, r0, r1, lsl lr
    11d4:	0a030500 	beq	c25dc <_Min_Stack_Size+0xc21dc>
    11d8:	20200000 	eorcs	r0, r0, r0
    11dc:	000005db 	ldrdeq	r0, [r0], -fp
    11e0:	41106401 	tstmi	r0, r1, lsl #8
    11e4:	05000000 	streq	r0, [r0, #-0]
    11e8:	00001603 	andeq	r1, r0, r3, lsl #12
    11ec:	04ae2020 	strteq	r2, [lr], #32
    11f0:	aa010000 	bge	411f8 <_Min_Stack_Size+0x40df8>
    11f4:	00005e11 	andeq	r5, r0, r1, lsl lr
    11f8:	00030500 	andeq	r0, r3, r0, lsl #10
    11fc:	16200000 	strtne	r0, [r0], -r0
    1200:	01360104 	teqeq	r6, r4, lsl #2
    1204:	00091705 	andeq	r1, r9, r5, lsl #14
    1208:	09f52100 	ldmibeq	r5!, {r8, sp}^
    120c:	37010000 	strcc	r0, [r1, -r0]
    1210:	00761001 	rsbseq	r1, r6, r1
    1214:	0a040000 	beq	10121c <_Min_Stack_Size+0x100e1c>
    1218:	00230216 	eoreq	r0, r3, r6, lsl r2
    121c:	00078621 	andeq	r8, r7, r1, lsr #12
    1220:	01380100 	teqeq	r8, r0, lsl #2
    1224:	00007610 	andeq	r7, r0, r0, lsl r6
    1228:	11050400 	tstne	r5, r0, lsl #8
    122c:	21002302 	tstcs	r0, r2, lsl #6
    1230:	00000949 	andeq	r0, r0, r9, asr #18
    1234:	10013901 	andne	r3, r1, r1, lsl #18
    1238:	00000076 	andeq	r0, r0, r6, ror r0
    123c:	02100104 	andseq	r0, r0, #4, 2
    1240:	22000023 	andcs	r0, r0, #35	; 0x23
    1244:	01340104 	teqeq	r4, r4, lsl #2
    1248:	0009340c 	andeq	r3, r9, ip, lsl #8
    124c:	04f42300 	ldrbteq	r2, [r4], #768	; 0x300
    1250:	35010000 	strcc	r0, [r1, #-0]
    1254:	00760e01 	rsbseq	r0, r6, r1, lsl #28
    1258:	d31d0000 	tstle	sp, #0
    125c:	00000008 	andeq	r0, r0, r8
    1260:	00091704 	andeq	r1, r9, r4, lsl #14
    1264:	01081600 	tsteq	r8, r0, lsl #12
    1268:	5c090132 	stfpls	f0, [r9], {50}	; 0x32
    126c:	17000009 	strne	r0, [r0, -r9]
    1270:	00000908 	andeq	r0, r0, r8, lsl #18
    1274:	15013301 	strne	r3, [r1, #-769]	; 0xfffffcff
    1278:	00000082 	andeq	r0, r0, r2, lsl #1
    127c:	1e002302 	cdpne	3, 0, cr2, cr0, cr2, {0}
    1280:	00000934 	andeq	r0, r0, r4, lsr r9
    1284:	00042302 	andeq	r2, r4, r2, lsl #6
    1288:	00045819 	andeq	r5, r4, r9, lsl r8
    128c:	013c0100 	teqeq	ip, r0, lsl #2
    1290:	00093902 	andeq	r3, r9, r2, lsl #18
    1294:	8a012400 	bhi	4a29c <_Min_Stack_Size+0x49e9c>
    1298:	01000006 	tsteq	r0, r6
    129c:	0105014c 	tsteq	r5, ip, asr #2
    12a0:	00000095 	muleq	r0, r5, r0
    12a4:	08000810 	stmdaeq	r0, {r4, fp}
    12a8:	0800086a 	stmdaeq	r0, {r1, r3, r5, r6, fp}
    12ac:	0000044f 	andeq	r0, r0, pc, asr #8
    12b0:	000a1d01 	andeq	r1, sl, r1, lsl #26
    12b4:	64692500 	strbtvs	r2, [r9], #-1280	; 0xfffffb00
    12b8:	4c010078 	stcmi	0, cr0, [r1], {120}	; 0x78
    12bc:	00411a01 	subeq	r1, r1, r1, lsl #20
    12c0:	04730000 	ldrbteq	r0, [r3], #-0
    12c4:	046f0000 	strbteq	r0, [pc], #-0	; 12cc <_Min_Stack_Size+0xecc>
    12c8:	62250000 	eorvs	r0, r5, #0
    12cc:	01006675 	tsteq	r0, r5, ror r6
    12d0:	1d29014c 	stfnes	f0, [r9, #-304]!	; 0xfffffed0
    12d4:	9a00000a 	bls	1304 <_Min_Stack_Size+0xf04>
    12d8:	94000004 	strls	r0, [r0], #-4
    12dc:	26000004 	strcs	r0, [r0], -r4
    12e0:	000005b6 			; <UNDEFINED> instruction: 0x000005b6
    12e4:	10014d01 	andne	r4, r1, r1, lsl #26
    12e8:	00000a23 	andeq	r0, r0, r3, lsr #20
    12ec:	000004cc 	andeq	r0, r0, ip, asr #9
    12f0:	000004c8 	andeq	r0, r0, r8, asr #9
    12f4:	007a7327 	rsbseq	r7, sl, r7, lsr #6
    12f8:	07014e01 	streq	r4, [r1, -r1, lsl #28]
    12fc:	00000095 	muleq	r0, r5, r0
    1300:	000004f6 	strdeq	r0, [r0], -r6
    1304:	000004f4 	strdeq	r0, [r0], -r4
    1308:	01006e27 	tsteq	r0, r7, lsr #28
    130c:	95070150 	strls	r0, [r7, #-336]	; 0xfffffeb0
    1310:	0f000000 	svceq	0x00000000
    1314:	09000005 	stmdbeq	r0, {r0, r2}
    1318:	27000005 	strcs	r0, [r0, -r5]
    131c:	01006e69 	tsteq	r0, r9, ror #28
    1320:	290d0151 	stmdbcs	sp, {r0, r4, r6, r8}
    1324:	4600000a 	strmi	r0, [r0], -sl
    1328:	40000005 	andmi	r0, r0, r5
    132c:	28000005 	stmdacs	r0, {r0, r2}
    1330:	00000088 	andeq	r0, r0, r8, lsl #1
    1334:	01006927 	tsteq	r0, r7, lsr #18
    1338:	950b0152 	strls	r0, [fp, #-338]	; 0xfffffeae
    133c:	73000000 	movwvc	r0, #0
    1340:	71000005 	tstvc	r0, r5
    1344:	00000005 	andeq	r0, r0, r5
    1348:	5e040700 	cdppl	7, 0, cr0, cr4, cr0, {0}
    134c:	07000000 	streq	r0, [r0, -r0]
    1350:	00095c04 	andeq	r5, r9, r4, lsl #24
    1354:	76040700 	strvc	r0, [r4], -r0, lsl #14
    1358:	29000000 	stmdbcs	r0, {}	; <UNPREDICTABLE>
    135c:	00053c01 	andeq	r3, r5, r1, lsl #24
    1360:	013e0100 	teqeq	lr, r0, lsl #2
    1364:	07600106 	strbeq	r0, [r0, -r6, lsl #2]!
    1368:	07b40800 	ldreq	r0, [r4, r0, lsl #16]!
    136c:	05870800 	streq	r0, [r7, #2048]	; 0x800
    1370:	eb010000 	bl	41378 <_Min_Stack_Size+0x40f78>
    1374:	2500000a 	strcs	r0, [r0, #-10]
    1378:	00786469 	rsbseq	r6, r8, r9, ror #8
    137c:	1c013e01 	stcne	14, cr3, [r1], {1}
    1380:	00000041 	andeq	r0, r0, r1, asr #32
    1384:	000005ad 	andeq	r0, r0, sp, lsr #11
    1388:	000005a7 	andeq	r0, r0, r7, lsr #11
    138c:	6675622a 	ldrbtvs	r6, [r5], -sl, lsr #4
    1390:	013e0100 	teqeq	lr, r0, lsl #2
    1394:	00089730 	andeq	r9, r8, r0, lsr r7
    1398:	2b510100 	blcs	14417a0 <_Min_Stack_Size+0x14413a0>
    139c:	000007c9 	andeq	r0, r0, r9, asr #15
    13a0:	3e013e01 	cdpcc	14, 0, cr3, cr1, cr1, {0}
    13a4:	0000005e 	andeq	r0, r0, lr, asr r0
    13a8:	b6265201 	strtlt	r5, [r6], -r1, lsl #4
    13ac:	01000005 	tsteq	r0, r5
    13b0:	2310013f 	tstcs	r0, #-1073741809	; 0xc000000f
    13b4:	db00000a 	blle	13e4 <_Min_Stack_Size+0xfe4>
    13b8:	d9000005 	stmdble	r0, {r0, r2}
    13bc:	27000005 	strcs	r0, [r0, -r5]
    13c0:	0100324e 	tsteq	r0, lr, asr #4
    13c4:	5e0c0140 	adfplem	f0, f4, f0
    13c8:	f0000000 			; <UNDEFINED> instruction: 0xf0000000
    13cc:	ee000005 	cdp	0, 0, cr0, cr0, cr5, {0}
    13d0:	26000005 	strcs	r0, [r0], -r5
    13d4:	00000402 	andeq	r0, r0, r2, lsl #8
    13d8:	0d014201 	sfmeq	f4, 4, [r1, #-4]
    13dc:	00000a1d 	andeq	r0, r0, sp, lsl sl
    13e0:	00000605 	andeq	r0, r0, r5, lsl #12
    13e4:	00000603 	andeq	r0, r0, r3, lsl #12
    13e8:	74756f27 	ldrbtvc	r6, [r5], #-3879	; 0xfffff0d9
    13ec:	01430100 	mrseq	r0, (UNDEF: 83)
    13f0:	000a290d 	andeq	r2, sl, sp, lsl #18
    13f4:	00061e00 	andeq	r1, r6, r0, lsl #28
    13f8:	00061800 	andeq	r1, r6, r0, lsl #16
    13fc:	00502800 	subseq	r2, r0, r0, lsl #16
    1400:	69270000 	stmdbvs	r7!, {}	; <UNPREDICTABLE>
    1404:	01440100 	mrseq	r0, (UNDEF: 84)
    1408:	00005e10 	andeq	r5, r0, r0, lsl lr
    140c:	00065900 	andeq	r5, r6, r0, lsl #18
    1410:	00065500 	andeq	r5, r6, r0, lsl #10
    1414:	2c000000 	stccs	0, cr0, [r0], {-0}
    1418:	00059201 	andeq	r9, r5, r1, lsl #4
    141c:	01080100 	mrseq	r0, (UNDEF: 24)
    1420:	00063806 	andeq	r3, r6, r6, lsl #16
    1424:	00076008 	andeq	r6, r7, r8
    1428:	00067908 	andeq	r7, r6, r8, lsl #18
    142c:	0bd10100 	bleq	ff441834 <BootRAM+0xe3b1fd5>
    1430:	302d0000 	eorcc	r0, sp, r0
    1434:	23000000 	movwcs	r0, #0
    1438:	2700000b 	strcs	r0, [r0, -fp]
    143c:	0e010069 	cdpeq	0, 0, cr0, cr1, cr9, {3}
    1440:	00411101 	subeq	r1, r1, r1, lsl #2
    1444:	069d0000 	ldreq	r0, [sp], r0
    1448:	06990000 	ldreq	r0, [r9], r0
    144c:	2e000000 	cdpcs	0, 0, cr0, cr0, cr0, {0}
    1450:	080006a8 	stmdaeq	r0, {r3, r5, r7, r9, sl}
    1454:	080006fc 	stmdaeq	r0, {r2, r3, r4, r5, r6, r7, r9, sl}
    1458:	00000b65 	andeq	r0, r0, r5, ror #22
    145c:	0008cc26 	andeq	ip, r8, r6, lsr #24
    1460:	011a0100 	tsteq	sl, r0, lsl #2
    1464:	0000410d 	andeq	r4, r0, sp, lsl #2
    1468:	0006c200 	andeq	ip, r6, r0, lsl #4
    146c:	0006c000 	andeq	ip, r6, r0
    1470:	06ca2f00 	strbeq	r2, [sl], r0, lsl #30
    1474:	0b550800 	bleq	154347c <_Min_Stack_Size+0x154307c>
    1478:	01300000 	teqeq	r0, r0
    147c:	00750250 	rsbseq	r0, r5, r0, asr r2
    1480:	06ec3100 	strbteq	r3, [ip], r0, lsl #2
    1484:	01300800 	teqeq	r0, r0, lsl #16
    1488:	00750550 	rsbseq	r0, r5, r0, asr r5
    148c:	00218008 	eoreq	r8, r1, r8
    1490:	06483200 	strbeq	r3, [r8], -r0, lsl #4
    1494:	11c00800 	bicne	r0, r0, r0, lsl #16
    1498:	8a330000 	bhi	cc14a0 <_Min_Stack_Size+0xcc10a0>
    149c:	5f080006 	svcpl	0x00080006
    14a0:	9600000c 	strls	r0, [r0], -ip
    14a4:	3000000b 	andcc	r0, r0, fp
    14a8:	74025001 	strvc	r5, [r2], #-1
    14ac:	51013000 	mrspl	r3, (UNDEF: 1)
    14b0:	30007402 	andcc	r7, r0, r2, lsl #8
    14b4:	38015201 	stmdacc	r1, {r0, r9, ip, lr}
    14b8:	05530130 	ldrbeq	r0, [r3, #-304]	; 0xfffffed0
    14bc:	00086b03 	andeq	r6, r8, r3, lsl #22
    14c0:	96330008 	ldrtls	r0, [r3], -r8
    14c4:	5f080006 	svcpl	0x00080006
    14c8:	be00000c 	cdplt	0, 0, cr0, cr0, cr12, {0}
    14cc:	3000000b 	andcc	r0, r0, fp
    14d0:	09025001 	stmdbeq	r2, {r0, ip, lr}
    14d4:	51013080 	smlabbpl	r1, r0, r0, r3
    14d8:	30007402 	andcc	r7, r0, r2, lsl #8
    14dc:	38015201 	stmdacc	r1, {r0, r9, ip, lr}
    14e0:	05530130 	ldrbeq	r0, [r3, #-304]	; 0xfffffed0
    14e4:	0007b503 	andeq	fp, r7, r3, lsl #10
    14e8:	9e320008 	cdpls	0, 3, cr0, cr2, cr8, {0}
    14ec:	c9080006 	stmdbgt	r8, {r1, r2}
    14f0:	32000011 	andcc	r0, r0, #17
    14f4:	0800070a 	stmdaeq	r0, {r1, r3, r8, r9, sl}
    14f8:	000011c0 	andeq	r1, r0, r0, asr #3
    14fc:	60013400 	andvs	r3, r1, r0, lsl #8
    1500:	01000009 	tsteq	r0, r9
    1504:	ec0106da 	stc	6, cr0, [r1], {218}	; 0xda
    1508:	38080004 	stmdacc	r8, {r2}
    150c:	d5080006 	strle	r0, [r8, #-6]
    1510:	01000006 	tsteq	r0, r6
    1514:	00000c5f 	andeq	r0, r0, pc, asr ip
    1518:	0008cc35 	andeq	ip, r8, r5, lsr ip
    151c:	21da0100 	bicscs	r0, sl, r0, lsl #2
    1520:	00000041 	andeq	r0, r0, r1, asr #32
    1524:	000006f9 	strdeq	r0, [r0], -r9
    1528:	000006f5 	strdeq	r0, [r0], -r5
    152c:	0009c635 	andeq	ip, r9, r5, lsr r6
    1530:	30da0100 	sbcscc	r0, sl, r0, lsl #2
    1534:	00000041 	andeq	r0, r0, r1, asr #32
    1538:	00000727 	andeq	r0, r0, r7, lsr #14
    153c:	00000717 	andeq	r0, r0, r7, lsl r7
    1540:	0007c935 	andeq	ip, r7, r5, lsr r9
    1544:	42da0100 	sbcsmi	r0, sl, #0, 2
    1548:	0000005e 	andeq	r0, r0, lr, asr r0
    154c:	00000799 	muleq	r0, r9, r7
    1550:	00000793 	muleq	r0, r3, r7
    1554:	000c7136 	andeq	r7, ip, r6, lsr r1
    1558:	51da0100 	bicspl	r0, sl, r0, lsl #2
    155c:	000000a8 	andeq	r0, r0, r8, lsr #1
    1560:	d9375301 	ldmdble	r7!, {r0, r8, r9, ip, lr}
    1564:	01000009 	tsteq	r0, r9
    1568:	00410bdb 	ldrdeq	r0, [r1], #-187	; 0xffffff45
    156c:	07cd0000 	strbeq	r0, [sp, r0]
    1570:	07c50000 	strbeq	r0, [r5, r0]
    1574:	62380000 	eorsvs	r0, r8, #0
    1578:	01006675 	tsteq	r0, r5, ror r6
    157c:	005e0ce1 	subseq	r0, lr, r1, ror #25
    1580:	082b0000 	stmdaeq	fp!, {}	; <UNPREDICTABLE>
    1584:	08170000 	ldmdaeq	r7, {}	; <UNPREDICTABLE>
    1588:	34000000 	strcc	r0, [r0], #-0
    158c:	00084a01 	andeq	r4, r8, r1, lsl #20
    1590:	06ab0100 	strteq	r0, [fp], r0, lsl #2
    1594:	0003e001 	andeq	lr, r3, r1
    1598:	0004ec08 	andeq	lr, r4, r8, lsl #24
    159c:	0008cf08 	andeq	ip, r8, r8, lsl #30
    15a0:	0cf30100 	ldfeqe	f0, [r3]
    15a4:	cc350000 	ldcgt	0, cr0, [r5], #-0
    15a8:	01000008 	tsteq	r0, r8
    15ac:	00411aab 	subeq	r1, r1, fp, lsr #21
    15b0:	08f30000 	ldmeq	r3!, {}^	; <UNPREDICTABLE>
    15b4:	08ef0000 	stmiaeq	pc!, {}^	; <UNPREDICTABLE>
    15b8:	c6350000 	ldrtgt	r0, [r5], -r0
    15bc:	01000009 	tsteq	r0, r9
    15c0:	004129ab 	subeq	r2, r1, fp, lsr #19
    15c4:	09190000 	ldmdbeq	r9, {}	; <UNPREDICTABLE>
    15c8:	09110000 	ldmdbeq	r1, {}	; <UNPREDICTABLE>
    15cc:	c9350000 	ldmdbgt	r5!, {}	; <UNPREDICTABLE>
    15d0:	01000007 	tsteq	r0, r7
    15d4:	005e3bab 	subseq	r3, lr, fp, lsr #23
    15d8:	09590000 	ldmdbeq	r9, {}^	; <UNPREDICTABLE>
    15dc:	09530000 	ldmdbeq	r3, {}^	; <UNPREDICTABLE>
    15e0:	71350000 	teqvc	r5, r0
    15e4:	0100000c 	tsteq	r0, ip
    15e8:	00a84aab 	adceq	r4, r8, fp, lsr #21
    15ec:	098f0000 	stmibeq	pc, {}	; <UNPREDICTABLE>
    15f0:	09850000 	stmibeq	r5, {}	; <UNPREDICTABLE>
    15f4:	d9370000 	ldmdble	r7!, {}	; <UNPREDICTABLE>
    15f8:	01000009 	tsteq	r0, r9
    15fc:	00410bac 	subeq	r0, r1, ip, lsr #23
    1600:	09e70000 	stmibeq	r7!, {}^	; <UNPREDICTABLE>
    1604:	09dd0000 	ldmibeq	sp, {}^	; <UNPREDICTABLE>
    1608:	62380000 	eorsvs	r0, r8, #0
    160c:	01006675 	tsteq	r0, r5, ror r6
    1610:	005e0cb5 	ldrheq	r0, [lr], #-197	; 0xffffff3b
    1614:	0a4e0000 	beq	138161c <_Min_Stack_Size+0x138121c>
    1618:	0a400000 	beq	1001620 <_Min_Stack_Size+0x1001220>
    161c:	39000000 	stmdbcc	r0, {}	; <UNPREDICTABLE>
    1620:	000008e6 	andeq	r0, r0, r6, ror #17
    1624:	010d6601 	tsteq	sp, r1, lsl #12
    1628:	0800086a 	stmdaeq	r0, {r1, r3, r5, r6, fp}
    162c:	08000984 	stmdaeq	r0, {r2, r7, r8, fp}
    1630:	00000ad5 	ldrdeq	r0, [r0], -r5
    1634:	000fe401 	andeq	lr, pc, r1, lsl #8
    1638:	08cc3500 	stmiaeq	ip, {r8, sl, ip, sp}^
    163c:	66010000 	strvs	r0, [r1], -r0
    1640:	0000411d 	andeq	r4, r0, sp, lsl r1
    1644:	000b1500 	andeq	r1, fp, r0, lsl #10
    1648:	000b0d00 	andeq	r0, fp, r0, lsl #26
    164c:	048a2000 	streq	r2, [sl], #0
    1650:	67010000 	strvs	r0, [r1, -r0]
    1654:	00005e13 	andeq	r5, r0, r3, lsl lr
    1658:	14030500 	strne	r0, [r3], #-1280	; 0xfffffb00
    165c:	37200000 	strcc	r0, [r0, -r0]!
    1660:	000009fe 	strdeq	r0, [r0], -lr
    1664:	5e0c6801 	cdppl	8, 0, cr6, cr12, cr1, {0}
    1668:	57000000 	strpl	r0, [r0, -r0]
    166c:	4f00000b 	svcmi	0x0000000b
    1670:	3700000b 	strcc	r0, [r0, -fp]
    1674:	00000077 	andeq	r0, r0, r7, ror r0
    1678:	410b6901 	tstmi	fp, r1, lsl #18
    167c:	8d000000 	stchi	0, cr0, [r0, #-0]
    1680:	8b00000b 	blhi	16b4 <_Min_Stack_Size+0x12b4>
    1684:	3800000b 	stmdacc	r0, {r0, r1, r3}
    1688:	00716572 	rsbseq	r6, r1, r2, ror r5
    168c:	410b7901 	tstmi	fp, r1, lsl #18
    1690:	b6000000 	strlt	r0, [r0], -r0
    1694:	aa00000b 	bge	16c8 <_Min_Stack_Size+0x12c8>
    1698:	2d00000b 	stccs	0, cr0, [r0, #-44]	; 0xffffffd4
    169c:	000000b8 	strheq	r0, [r0], -r8
    16a0:	00000eba 			; <UNDEFINED> instruction: 0x00000eba
    16a4:	000da520 	andeq	sl, sp, r0, lsr #10
    16a8:	0b900100 	bleq	fe401ab0 <BootRAM+0xd372251>
    16ac:	00000fe4 	andeq	r0, r0, r4, ror #31
    16b0:	206c9102 	rsbcs	r9, ip, r2, lsl #2
    16b4:	000007c9 	andeq	r0, r0, r9, asr #15
    16b8:	5e0e9101 	mvfple	f1, f1
    16bc:	02000000 	andeq	r0, r0, #0
    16c0:	c42e6a91 	strtgt	r6, [lr], #-2705	; 0xfffff56f
    16c4:	d8080008 	stmdale	r8, {r3}
    16c8:	d8080008 	stmdale	r8, {r3}
    16cc:	2000000d 	andcs	r0, r0, sp
    16d0:	00000da5 	andeq	r0, r0, r5, lsr #27
    16d4:	e6178101 	ldr	r8, [r7], -r1, lsl #2
    16d8:	0200000f 	andeq	r0, r0, #15
    16dc:	c9206c91 	stmdbgt	r0!, {r0, r4, r7, sl, fp, sp, lr}
    16e0:	01000007 	tsteq	r0, r7
    16e4:	005e1482 	subseq	r1, lr, r2, lsl #9
    16e8:	91020000 	mrsls	r0, (UNDEF: 2)
    16ec:	08d83a6a 	ldmeq	r8, {r1, r3, r5, r6, r9, fp, ip, sp}^
    16f0:	125f0800 	subsne	r0, pc, #0, 16
    16f4:	01300000 	teqeq	r0, r0
    16f8:	6c910251 	lfmvs	f0, 4, [r1], {81}	; 0x51
    16fc:	02520130 	subseq	r0, r2, #48, 2
    1700:	00006a91 	muleq	r0, r1, sl
    1704:	0011fe3b 	andseq	pc, r1, fp, lsr lr	; <UNPREDICTABLE>
    1708:	0008b000 	andeq	fp, r8, r0
    170c:	08b00108 	ldmeq	r0!, {r3, r8}
    1710:	08b40800 	ldmeq	r4!, {fp}
    1714:	89010800 	stmdbhi	r1, {fp}
    1718:	000e190b 	andeq	r1, lr, fp, lsl #18
    171c:	12243c00 	eorne	r3, r4, #0, 24
    1720:	0c0c0000 	stceq	0, cr0, [ip], {-0}
    1724:	0c0a0000 	stceq	0, cr0, [sl], {-0}
    1728:	183c0000 	ldmdane	ip!, {}	; <UNPREDICTABLE>
    172c:	22000012 	andcs	r0, r0, #18
    1730:	2000000c 	andcs	r0, r0, ip
    1734:	3c00000c 	stccc	0, cr0, [r0], {12}
    1738:	0000120c 	andeq	r1, r0, ip, lsl #4
    173c:	00000c3c 	andeq	r0, r0, ip, lsr ip
    1740:	00000c3a 	andeq	r0, r0, sl, lsr ip
    1744:	0fed3d00 	svceq	0x00ed3d00
    1748:	08e80000 	stmiaeq	r8!, {}^	; <UNPREDICTABLE>
    174c:	d8010800 	stmdale	r1, {fp}
    1750:	01000000 	mrseq	r0, (UNDEF: 0)
    1754:	0e590594 	mrceq	5, 2, r0, cr9, cr4, {4}
    1758:	073c0000 	ldreq	r0, [ip, -r0]!
    175c:	52000010 	andpl	r0, r0, #16
    1760:	5000000c 	andpl	r0, r0, ip
    1764:	3c00000c 	stccc	0, cr0, [r0], {12}
    1768:	00000ffb 	strdeq	r0, [r0], -fp
    176c:	00000c68 	andeq	r0, r0, r8, ror #24
    1770:	00000c66 	andeq	r0, r0, r6, ror #24
    1774:	0008f63a 	andeq	pc, r8, sl, lsr r6	; <UNPREDICTABLE>
    1778:	00101408 	andseq	r1, r0, r8, lsl #8
    177c:	50013000 	andpl	r3, r1, r0
    1780:	00800902 	addeq	r0, r0, r2, lsl #18
    1784:	11fe3b00 	mvnsne	r3, r0, lsl #22
    1788:	08fa0000 	ldmeq	sl!, {}^	; <UNPREDICTABLE>
    178c:	fa010800 	blx	43794 <_Min_Stack_Size+0x43394>
    1790:	02080008 	andeq	r0, r8, #8
    1794:	01080009 	tsteq	r8, r9
    1798:	0e9a0b8c 	vfnmseq.f64	d0, d26, d12
    179c:	243c0000 	ldrtcs	r0, [ip], #-0
    17a0:	7e000012 	mcrvc	0, 0, r0, cr0, cr2, {0}
    17a4:	7c00000c 	stcvc	0, cr0, [r0], {12}
    17a8:	3c00000c 	stccc	0, cr0, [r0], {12}
    17ac:	00001218 	andeq	r1, r0, r8, lsl r2
    17b0:	00000c94 	muleq	r0, r4, ip
    17b4:	00000c92 	muleq	r0, r2, ip
    17b8:	00120c3c 	andseq	r0, r2, ip, lsr ip
    17bc:	000cae00 	andeq	sl, ip, r0, lsl #28
    17c0:	000cac00 	andeq	sl, ip, r0, lsl #24
    17c4:	183a0000 	ldmdane	sl!, {}	; <UNPREDICTABLE>
    17c8:	62080009 	andvs	r0, r8, #9
    17cc:	30000011 	andcc	r0, r0, r1, lsl r0
    17d0:	03055001 	movweq	r5, #20481	; 0x5001
    17d4:	2000000c 	andcs	r0, r0, ip
    17d8:	02510130 	subseq	r0, r1, #48, 2
    17dc:	01306c91 	teqeq	r0, r1	; <illegal shifter operand>
    17e0:	6a910252 	bvs	fe442130 <BootRAM+0xd3b28d1>
    17e4:	d33d0000 	teqle	sp, #0
    17e8:	8a000011 	bhi	1834 <_Min_Stack_Size+0x1434>
    17ec:	01080008 	tsteq	r8, r8
    17f0:	000000a0 	andeq	r0, r0, r0, lsr #1
    17f4:	02076d01 	andeq	r6, r7, #1, 26	; 0x40
    17f8:	3c00000f 	stccc	0, cr0, [r0], {15}
    17fc:	000011e5 	andeq	r1, r0, r5, ror #3
    1800:	00000cc4 	andeq	r0, r0, r4, asr #25
    1804:	00000cc2 	andeq	r0, r0, r2, asr #25
    1808:	0011f13c 	andseq	pc, r1, ip, lsr r1	; <UNPREDICTABLE>
    180c:	000cda00 	andeq	sp, ip, r0, lsl #20
    1810:	000cd800 	andeq	sp, ip, r0, lsl #16
    1814:	08943a00 	ldmeq	r4, {r9, fp, ip, sp}
    1818:	09690800 	stmdbeq	r9!, {fp}^
    181c:	01300000 	teqeq	r0, r0
    1820:	30310150 	eorscc	r0, r1, r0, asr r1
    1824:	03055101 	movweq	r5, #20737	; 0x5101
    1828:	2000000c 	andcs	r0, r0, ip
    182c:	fe3d0000 	cdp2	0, 3, cr0, cr13, cr0, {0}
    1830:	26000011 			; <UNDEFINED> instruction: 0x26000011
    1834:	05080009 	streq	r0, [r8, #-9]
    1838:	000000f0 	strdeq	r0, [r0], -r0	; <UNPREDICTABLE>
    183c:	482ca601 	stmdami	ip!, {r0, r9, sl, sp, pc}
    1840:	3c00000f 	stccc	0, cr0, [r0], {15}
    1844:	00001224 	andeq	r1, r0, r4, lsr #4
    1848:	00000cf4 	strdeq	r0, [r0], -r4
    184c:	00000cf2 	strdeq	r0, [r0], -r2
    1850:	0012183c 	andseq	r1, r2, ip, lsr r8
    1854:	000cf400 	andeq	pc, ip, r0, lsl #8
    1858:	000cf200 	andeq	pc, ip, r0, lsl #4
    185c:	120c3c00 	andne	r3, ip, #0, 24
    1860:	0cf40000 	ldcleq	0, cr0, [r4]
    1864:	0cf20000 	ldcleq	0, cr0, [r2]
    1868:	b8320000 	ldmdalt	r2!, {}	; <UNPREDICTABLE>
    186c:	2f080008 	svccs	0x00080008
    1870:	0000000a 	andeq	r0, r0, sl
    1874:	0011fe3b 	andseq	pc, r1, fp, lsr lr	; <UNPREDICTABLE>
    1878:	00092600 	andeq	r2, r9, r0, lsl #12
    187c:	09260108 	stmdbeq	r6!, {r3, r8}
    1880:	09260800 	stmdbeq	r6!, {fp}
    1884:	9a010800 	bls	4388c <_Min_Stack_Size+0x4348c>
    1888:	000f8909 	andeq	r8, pc, r9, lsl #18
    188c:	12243c00 	eorne	r3, r4, #0, 24
    1890:	0d0a0000 	stceq	0, cr0, [sl, #-0]
    1894:	0d080000 	stceq	0, cr0, [r8, #-0]
    1898:	183c0000 	ldmdane	ip!, {}	; <UNPREDICTABLE>
    189c:	0a000012 	beq	18ec <_Min_Stack_Size+0x14ec>
    18a0:	0800000d 	stmdaeq	r0, {r0, r2, r3}
    18a4:	3c00000d 	stccc	0, cr0, [r0], {13}
    18a8:	0000120c 	andeq	r1, r0, ip, lsl #4
    18ac:	00000d0a 	andeq	r0, r0, sl, lsl #26
    18b0:	00000d08 	andeq	r0, r0, r8, lsl #26
    18b4:	11fe3b00 	mvnsne	r3, r0, lsl #22
    18b8:	09360000 	ldmdbeq	r6!, {}	; <UNPREDICTABLE>
    18bc:	36010800 	strcc	r0, [r1], -r0, lsl #16
    18c0:	38080009 	stmdacc	r8, {r0, r3}
    18c4:	01080009 	tsteq	r8, r9
    18c8:	0fca099e 	svceq	0x00ca099e
    18cc:	243c0000 	ldrtcs	r0, [ip], #-0
    18d0:	20000012 	andcs	r0, r0, r2, lsl r0
    18d4:	1e00000d 	cdpne	0, 0, cr0, cr0, cr13, {0}
    18d8:	3c00000d 	stccc	0, cr0, [r0], {13}
    18dc:	00001218 	andeq	r1, r0, r8, lsl r2
    18e0:	00000d20 	andeq	r0, r0, r0, lsr #26
    18e4:	00000d1e 	andeq	r0, r0, lr, lsl sp
    18e8:	00120c3c 	andseq	r0, r2, ip, lsr ip
    18ec:	000d2000 	andeq	r2, sp, r0
    18f0:	000d1e00 	andeq	r1, sp, r0, lsl #28
    18f4:	423a0000 	eorsmi	r0, sl, #0
    18f8:	06080009 	streq	r0, [r8], -r9
    18fc:	30000011 	andcc	r0, r0, r1, lsl r0
    1900:	03055001 	movweq	r5, #20481	; 0x5001
    1904:	2000000c 	andcs	r0, r0, ip
    1908:	02520130 	subseq	r0, r2, #48, 2
    190c:	00000075 	andeq	r0, r0, r5, ror r0
    1910:	0407043e 	streq	r0, [r7], #-1086	; 0xfffffbc2
    1914:	00000fec 	andeq	r0, r0, ip, ror #31
    1918:	05c6403f 	strbeq	r4, [r6, #63]	; 0x3f
    191c:	5e010000 	cdppl	0, 0, cr0, cr1, cr0, {0}
    1920:	14030114 	strne	r0, [r3], #-276	; 0xfffffeec
    1924:	41000010 	tstmi	r0, r0, lsl r0
    1928:	00667562 	rsbeq	r7, r6, r2, ror #10
    192c:	972c5e01 	strls	r5, [ip, -r1, lsl #28]!
    1930:	42000008 	andmi	r0, r0, #8
    1934:	000007c9 	andeq	r0, r0, r9, asr #15
    1938:	5e3a5e01 	cdppl	14, 3, cr5, cr10, cr1, {0}
    193c:	00000000 	andeq	r0, r0, r0
    1940:	00079e39 	andeq	r9, r7, r9, lsr lr
    1944:	0d4b0100 	stfeqe	f0, [fp, #-0]
    1948:	0007b401 	andeq	fp, r7, r1, lsl #8
    194c:	00081008 	andeq	r1, r8, r8
    1950:	000d3408 	andeq	r3, sp, r8, lsl #8
    1954:	10ab0100 	adcne	r0, fp, r0, lsl #2
    1958:	cc350000 	ldcgt	0, cr0, [r5], #-0
    195c:	01000008 	tsteq	r0, r8
    1960:	00411c4b 	subeq	r1, r1, fp, asr #24
    1964:	0d580000 	ldcleq	0, cr0, [r8, #-0]
    1968:	0d540000 	ldcleq	0, cr0, [r4, #-0]
    196c:	77370000 	ldrvc	r0, [r7, -r0]!
    1970:	01000008 	tsteq	r0, r8
    1974:	005e0c52 	subseq	r0, lr, r2, asr ip
    1978:	0d7d0000 	ldcleq	0, cr0, [sp, #-0]
    197c:	0d790000 	ldcleq	0, cr0, [r9, #-0]
    1980:	fe430000 	cdp2	0, 4, cr0, cr3, cr0, {0}
    1984:	ea000011 	b	19d0 <_Min_Stack_Size+0x15d0>
    1988:	02080007 	andeq	r0, r8, #7
    198c:	00000070 	andeq	r0, r0, r0, ror r0
    1990:	3c035401 	cfstrscc	mvf5, [r3], {1}
    1994:	00001224 	andeq	r1, r0, r4, lsr #4
    1998:	00000d9d 	muleq	r0, sp, sp
    199c:	00000d9b 	muleq	r0, fp, sp
    19a0:	0012183c 	andseq	r1, r2, ip, lsr r8
    19a4:	000db200 	andeq	fp, sp, r0, lsl #4
    19a8:	000db000 	andeq	fp, sp, r0
    19ac:	120c3c00 	andne	r3, ip, #0, 24
    19b0:	0dc70000 	stcleq	0, cr0, [r7]
    19b4:	0dc50000 	stcleq	0, cr0, [r5]
    19b8:	f23a0000 	vhadd.s<illegal width 64>	d0, d10, d0
    19bc:	2f080007 	svccs	0x00080007
    19c0:	3000000a 	andcc	r0, r0, sl
    19c4:	30015001 	andcc	r5, r1, r1
    19c8:	02510130 	subseq	r0, r1, #48, 2
    19cc:	01300071 	teqeq	r0, r1, ror r0
    19d0:	00720252 	rsbseq	r0, r2, r2, asr r2
    19d4:	44000000 	strmi	r0, [r0], #-0
    19d8:	00007301 	andeq	r7, r0, r1, lsl #6
    19dc:	06370100 	ldrteq	r0, [r7], -r0, lsl #2
    19e0:	08000372 	stmdaeq	r0, {r1, r4, r5, r6, r8, r9}
    19e4:	080003e0 	stmdaeq	r0, {r5, r6, r7, r8, r9}
    19e8:	01007d02 	tsteq	r0, r2, lsl #26
    19ec:	00001106 	andeq	r1, r0, r6, lsl #2
    19f0:	0000182d 	andeq	r1, r0, sp, lsr #16
    19f4:	0010e200 	andseq	lr, r0, r0, lsl #4
    19f8:	74633800 	strbtvc	r3, [r3], #-2048	; 0xfffff800
    19fc:	3d010072 	stccc	0, cr0, [r1, #-456]	; 0xfffffe38
    1a00:	00007610 	andeq	r7, r0, r0, lsl r6
    1a04:	000de300 	andeq	lr, sp, r0, lsl #6
    1a08:	000ddb00 	andeq	sp, sp, r0, lsl #22
    1a0c:	31450000 	mrscc	r0, (UNDEF: 69)
    1a10:	b6000012 			; <UNDEFINED> instruction: 0xb6000012
    1a14:	01080003 	tsteq	r8, r3
    1a18:	080003b6 	stmdaeq	r0, {r1, r2, r4, r5, r7, r8, r9}
    1a1c:	080003be 	stmdaeq	r0, {r1, r2, r3, r4, r5, r7, r8, r9}
    1a20:	3c034301 	stccc	3, cr4, [r3], {1}
    1a24:	00001240 	andeq	r1, r0, r0, asr #4
    1a28:	00000e32 	andeq	r0, r0, r2, lsr lr
    1a2c:	00000e30 	andeq	r0, r0, r0, lsr lr
    1a30:	01460000 	mrseq	r0, (UNDEF: 70)
    1a34:	000008dc 	ldrdeq	r0, [r0], -ip
    1a38:	011b1b01 	tsteq	fp, r1, lsl #22
    1a3c:	00001155 	andeq	r1, r0, r5, asr r1
    1a40:	0800036e 	stmdaeq	r0, {r1, r2, r3, r5, r6, r8, r9}
    1a44:	08000372 	stmdaeq	r0, {r1, r4, r5, r6, r8, r9}
    1a48:	01007d02 	tsteq	r0, r2, lsl #26
    1a4c:	00001155 	andeq	r1, r0, r5, asr r1
    1a50:	71657247 	cmnvc	r5, r7, asr #4
    1a54:	3c1b0100 	ldfccs	f0, [fp], {-0}
    1a58:	0000115c 	andeq	r1, r0, ip, asr r1
    1a5c:	00000e4a 	andeq	r0, r0, sl, asr #28
    1a60:	00000e46 	andeq	r0, r0, r6, asr #28
    1a64:	000dd336 	andeq	sp, sp, r6, lsr r3
    1a68:	4a1b0100 	bmi	6c1e70 <_Min_Stack_Size+0x6c1a70>
    1a6c:	0000005e 	andeq	r0, r0, lr, asr r0
    1a70:	c6365101 	ldrtgt	r5, [r6], -r1, lsl #2
    1a74:	01000007 	tsteq	r0, r7
    1a78:	005e5b1b 	subseq	r5, lr, fp, lsl fp
    1a7c:	52010000 	andpl	r0, r1, #0
    1a80:	08010200 	stmdaeq	r1, {r9}
    1a84:	00000286 	andeq	r0, r0, r6, lsl #5
    1a88:	011b0407 	tsteq	fp, r7, lsl #8
    1a8c:	01460000 	mrseq	r0, (UNDEF: 70)
    1a90:	00000794 	muleq	r0, r4, r7
    1a94:	011b1a01 	tsteq	fp, r1, lsl #20
    1a98:	00001155 	andeq	r1, r0, r5, asr r1
    1a9c:	0800036a 	stmdaeq	r0, {r1, r3, r5, r6, r8, r9}
    1aa0:	0800036e 	stmdaeq	r0, {r1, r2, r3, r5, r6, r8, r9}
    1aa4:	01007d02 	tsteq	r0, r2, lsl #26
    1aa8:	000011b1 			; <UNDEFINED> instruction: 0x000011b1
    1aac:	71657247 	cmnvc	r5, r7, asr #4
    1ab0:	3b1a0100 	blcc	681eb8 <_Min_Stack_Size+0x681ab8>
    1ab4:	0000115c 	andeq	r1, r0, ip, asr r1
    1ab8:	00000e6f 	andeq	r0, r0, pc, ror #28
    1abc:	00000e6b 	andeq	r0, r0, fp, ror #28
    1ac0:	000da536 	andeq	sl, sp, r6, lsr r5
    1ac4:	471a0100 	ldrmi	r0, [sl, -r0, lsl #2]
    1ac8:	000011b1 			; <UNDEFINED> instruction: 0x000011b1
    1acc:	c9365101 	ldmdbgt	r6!, {r0, r8, ip, lr}
    1ad0:	01000007 	tsteq	r0, r7
    1ad4:	0a1d571a 	beq	757744 <_Min_Stack_Size+0x757344>
    1ad8:	52010000 	andpl	r0, r1, #0
    1adc:	e4040700 	str	r0, [r4], #-1792	; 0xfffff900
    1ae0:	4800000f 	stmdami	r0, {r0, r1, r2, r3}
    1ae4:	0000f001 	andeq	pc, r0, r1
    1ae8:	1b190100 	blne	641ef0 <_Min_Stack_Size+0x641af0>
    1aec:	06e40148 	strbteq	r0, [r4], r8, asr #2
    1af0:	18010000 	stmdane	r1, {}	; <UNPREDICTABLE>
    1af4:	b401491b 	strlt	r4, [r1], #-2331	; 0xfffff6e5
    1af8:	01000006 	tsteq	r0, r6
    1afc:	4a011b17 	bmi	48760 <_Min_Stack_Size+0x48360>
    1b00:	0000068b 	andeq	r0, r0, fp, lsl #13
    1b04:	0113b403 	tsteq	r3, r3, lsl #8
    1b08:	00000095 	muleq	r0, r5, r0
    1b0c:	0011fe03 	andseq	pc, r1, r3, lsl #28
    1b10:	08cc4200 	stmiaeq	ip, {r9, lr}^
    1b14:	b4030000 	strlt	r0, [r3], #-0
    1b18:	00004127 	andeq	r4, r0, r7, lsr #2
    1b1c:	75624100 	strbvc	r4, [r2, #-256]!	; 0xffffff00
    1b20:	b4030066 	strlt	r0, [r3], #-102	; 0xffffff9a
    1b24:	000a1d38 	andeq	r1, sl, r8, lsr sp
    1b28:	3d400000 	stclcc	0, cr0, [r0, #-0]
    1b2c:	03000005 	movweq	r0, #5
    1b30:	030114ab 	movweq	r1, #5291	; 0x14ab
    1b34:	00001231 	andeq	r1, r0, r1, lsr r2
    1b38:	0008cc42 	andeq	ip, r8, r2, asr #24
    1b3c:	29ab0300 	stmibcs	fp!, {r8, r9}
    1b40:	00000041 	andeq	r0, r0, r1, asr #32
    1b44:	66756241 	ldrbtvs	r6, [r5], -r1, asr #4
    1b48:	3fab0300 	svccc	0x00ab0300
    1b4c:	00000897 	muleq	r0, r7, r8
    1b50:	0007c942 	andeq	ip, r7, r2, asr #18
    1b54:	4dab0300 	stcmi	3, cr0, [fp]
    1b58:	0000005e 	andeq	r0, r0, lr, asr r0
    1b5c:	05674b00 	strbeq	r4, [r7, #-2816]!	; 0xfffff500
    1b60:	de020000 	cdple	0, 0, cr0, cr2, cr0, {0}
    1b64:	03011605 	movweq	r1, #5637	; 0x1605
    1b68:	0000124e 	andeq	r1, r0, lr, asr #4
    1b6c:	0006d54c 	andeq	sp, r6, ip, asr #10
    1b70:	05de0200 	ldrbeq	r0, [lr, #512]	; 0x200
    1b74:	00029e2f 	andeq	r9, r2, pc, lsr #28
    1b78:	c94d0000 	stmdbgt	sp, {}^	; <UNPREDICTABLE>
    1b7c:	64000011 	strvs	r0, [r0], #-17	; 0xffffffef
    1b80:	66080003 	strvs	r0, [r8], -r3
    1b84:	02080003 	andeq	r0, r8, #3
    1b88:	4e01007d 	mcrmi	0, 0, r0, cr1, cr13, {3}
    1b8c:	05a40101 	streq	r0, [r4, #257]!	; 0x101
    1b90:	05a40000 	streq	r0, [r4, #0]!
    1b94:	39030000 	stmdbcc	r3, {}	; <UNPREDICTABLE>
    1b98:	1a490006 	bne	1241bb8 <_Min_Stack_Size+0x12417b8>
    1b9c:	00020000 	andeq	r0, r2, r0
    1ba0:	000006f6 	strdeq	r0, [r0], -r6
    1ba4:	03470104 	movteq	r0, #28932	; 0x7104
    1ba8:	e00c0000 	and	r0, ip, r0
    1bac:	fc00000a 	stc2	0, cr0, [r0], {10}
    1bb0:	84000001 	strhi	r0, [r0], #-1
    1bb4:	d8080009 	stmdale	r8, {r0, r3}
    1bb8:	a808000b 	stmdage	r8, {r0, r1, r3}
    1bbc:	0200000b 	andeq	r0, r0, #11
    1bc0:	00520704 	subseq	r0, r2, r4, lsl #14
    1bc4:	01020000 	mrseq	r0, (UNDEF: 2)
    1bc8:	00027f06 	andeq	r7, r2, r6, lsl #30
    1bcc:	01000300 	mrseq	r0, LR_irq
    1bd0:	25040000 	strcs	r0, [r4, #-0]
    1bd4:	00004418 	andeq	r4, r0, r8, lsl r4
    1bd8:	00330400 	eorseq	r0, r3, r0, lsl #8
    1bdc:	02020000 	andeq	r0, r2, #0
    1be0:	00029805 	andeq	r9, r2, r5, lsl #16
    1be4:	02d30300 	sbcseq	r0, r3, #0, 6
    1be8:	28040000 	stmdacs	r4, {}	; <UNPREDICTABLE>
    1bec:	00005718 	andeq	r5, r0, r8, lsl r7
    1bf0:	05040200 	streq	r0, [r4, #-512]	; 0xfffffe00
    1bf4:	00000082 	andeq	r0, r0, r2, lsl #1
    1bf8:	7d050802 	stcvc	8, cr0, [r5, #-8]
    1bfc:	03000000 	movweq	r0, #0
    1c00:	00000318 	andeq	r0, r0, r8, lsl r3
    1c04:	7b182e04 	blvc	60d41c <_Min_Stack_Size+0x60d01c>
    1c08:	05000000 	streq	r0, [r0, #-0]
    1c0c:	00000065 	andeq	r0, r0, r5, rrx
    1c10:	00006504 	andeq	r6, r0, r4, lsl #10
    1c14:	08010200 	stmdaeq	r1, {r9}
    1c18:	0000027d 	andeq	r0, r0, sp, ror r2
    1c1c:	0000ff03 	andeq	pc, r0, r3, lsl #30
    1c20:	19310400 	ldmdbne	r1!, {sl}
    1c24:	00000093 	muleq	r0, r3, r0
    1c28:	00008205 	andeq	r8, r0, r5, lsl #4
    1c2c:	07020200 	streq	r0, [r2, -r0, lsl #4]
    1c30:	0000017e 	andeq	r0, r0, lr, ror r1
    1c34:	0002d203 	andeq	sp, r2, r3, lsl #4
    1c38:	19340400 	ldmdbne	r4!, {sl}
    1c3c:	000000ab 	andeq	r0, r0, fp, lsr #1
    1c40:	00009a05 	andeq	r9, r0, r5, lsl #20
    1c44:	07040200 	streq	r0, [r4, -r0, lsl #4]
    1c48:	0000004d 	andeq	r0, r0, sp, asr #32
    1c4c:	48070802 	stmdami	r7, {r1, fp}
    1c50:	06000000 	streq	r0, [r0], -r0
    1c54:	6e690504 	cdpvs	5, 6, cr0, cr9, cr4, {0}
    1c58:	b9050074 	stmdblt	r5, {r2, r4, r5, r6}
    1c5c:	07000000 	streq	r0, [r0, -r0]
    1c60:	091b0208 	ldmdbeq	fp, {r3, r9}
    1c64:	0000011a 	andeq	r0, r0, sl, lsl r1
    1c68:	00046408 	andeq	r6, r4, r8, lsl #8
    1c6c:	0b1c0200 	bleq	702474 <_Min_Stack_Size+0x702074>
    1c70:	00000065 	andeq	r0, r0, r5, rrx
    1c74:	08002302 	stmdaeq	r0, {r1, r8, r9, sp}
    1c78:	00000887 	andeq	r0, r0, r7, lsl #17
    1c7c:	650b1d02 	strvs	r1, [fp, #-3330]	; 0xfffff2fe
    1c80:	02000000 	andeq	r0, r0, #0
    1c84:	d3080123 	movwle	r0, #33059	; 0x8123
    1c88:	02000004 	andeq	r0, r0, #4
    1c8c:	00820c1e 	addeq	r0, r2, lr, lsl ip
    1c90:	23020000 	movwcs	r0, #8192	; 0x2000
    1c94:	03ec0802 	mvneq	r0, #131072	; 0x20000
    1c98:	1f020000 	svcne	0x00020000
    1c9c:	0000820c 	andeq	r8, r0, ip, lsl #4
    1ca0:	04230200 	strteq	r0, [r3], #-512	; 0xfffffe00
    1ca4:	00086a08 	andeq	r6, r8, r8, lsl #20
    1ca8:	0c200200 	sfmeq	f0, 4, [r0], #-0
    1cac:	00000082 	andeq	r0, r0, r2, lsl #1
    1cb0:	00062302 	andeq	r2, r6, r2, lsl #6
    1cb4:	0008f303 	andeq	pc, r8, r3, lsl #6
    1cb8:	02210200 	eoreq	r0, r1, #0, 4
    1cbc:	000000c5 	andeq	r0, r0, r5, asr #1
    1cc0:	2c010509 	cfstr32cs	mvfx0, [r1], {9}
    1cc4:	05000000 	streq	r0, [r0, #-0]
    1cc8:	029d0158 	addseq	r0, sp, #88, 2
    1ccc:	560a0000 	strpl	r0, [sl], -r0
    1cd0:	72000008 	andvc	r0, r0, #8
    1cd4:	0004da0a 	andeq	sp, r4, sl, lsl #20
    1cd8:	fe0a7400 	cdp2	4, 0, cr7, cr10, cr0, {0}
    1cdc:	75000006 	strvc	r0, [r0, #-6]
    1ce0:	0009390a 	andeq	r3, r9, sl, lsl #18
    1ce4:	320a7600 	andcc	r7, sl, #0, 12
    1ce8:	7b000004 	blvc	1d00 <_Min_Stack_Size+0x1900>
    1cec:	0009270a 	andeq	r2, r9, sl, lsl #14
    1cf0:	b70a7c00 	strlt	r7, [sl, -r0, lsl #24]
    1cf4:	7e000004 	cdpvc	0, 0, cr0, cr0, cr4, {0}
    1cf8:	0008bf0a 	andeq	fp, r8, sl, lsl #30
    1cfc:	da0b7f00 	ble	2e1904 <_Min_Stack_Size+0x2e1504>
    1d00:	00000006 	andeq	r0, r0, r6
    1d04:	0007170b 	andeq	r1, r7, fp, lsl #14
    1d08:	ff0b0100 			; <UNDEFINED> instruction: 0xff0b0100
    1d0c:	02000004 	andeq	r0, r0, #4
    1d10:	0005ee0b 	andeq	lr, r5, fp, lsl #28
    1d14:	7f0b0300 	svcvc	0x000b0300
    1d18:	04000004 	streq	r0, [r0], #-4
    1d1c:	0004ca0b 	andeq	ip, r4, fp, lsl #20
    1d20:	940b0500 	strls	r0, [fp], #-1280	; 0xfffffb00
    1d24:	06000004 	streq	r0, [r0], -r4
    1d28:	00087c0b 	andeq	r7, r8, fp, lsl #24
    1d2c:	180b0700 	stmdane	fp, {r8, r9, sl}
    1d30:	08000006 	stmdaeq	r0, {r1, r2}
    1d34:	0009ce0b 	andeq	ip, r9, fp, lsl #28
    1d38:	0c0b0900 			; <UNDEFINED> instruction: 0x0c0b0900
    1d3c:	0a000007 	beq	1d60 <_Min_Stack_Size+0x1960>
    1d40:	0006a10b 	andeq	sl, r6, fp, lsl #2
    1d44:	450b0b00 	strmi	r0, [fp, #-2816]	; 0xfffff500
    1d48:	0c000004 	stceq	0, cr0, [r0], {4}
    1d4c:	0007580b 	andeq	r5, r7, fp, lsl #16
    1d50:	540b0d00 	strpl	r0, [fp], #-3328	; 0xfffff300
    1d54:	0e000005 	cdpeq	0, 0, cr0, cr0, cr5, {0}
    1d58:	0009a30b 	andeq	sl, r9, fp, lsl #6
    1d5c:	640b0f00 	strvs	r0, [fp], #-3840	; 0xfffff100
    1d60:	10000006 	andne	r0, r0, r6
    1d64:	0004120b 	andeq	r1, r4, fp, lsl #4
    1d68:	230b1100 	movwcs	r1, #45312	; 0xb100
    1d6c:	12000006 	andne	r0, r0, #6
    1d70:	00091b0b 	andeq	r1, r9, fp, lsl #22
    1d74:	2f0b1300 	svccs	0x000b1300
    1d78:	1400000a 	strne	r0, [r0], #-10
    1d7c:	0009bd0b 	andeq	fp, r9, fp, lsl #26
    1d80:	760b1500 	strvc	r1, [fp], -r0, lsl #10
    1d84:	16000005 	strne	r0, [r0], -r5
    1d88:	0009730b 	andeq	r7, r9, fp, lsl #6
    1d8c:	080b1700 	stmdaeq	fp, {r8, r9, sl, ip}
    1d90:	19000004 	stmdbne	r0, {r2}
    1d94:	0006cf0b 	andeq	ip, r6, fp, lsl #30
    1d98:	e10b1a00 	tst	fp, r0, lsl #20
    1d9c:	1b000003 	blne	1db0 <_Min_Stack_Size+0x19b0>
    1da0:	0008d20b 	andeq	sp, r8, fp, lsl #4
    1da4:	970b1c00 	strls	r1, [fp, -r0, lsl #24]
    1da8:	1d000006 	stcne	0, cr0, [r0, #-24]	; 0xffffffe8
    1dac:	00043b0b 	andeq	r3, r4, fp, lsl #22
    1db0:	790b1e00 	stmdbvc	fp, {r9, sl, fp, ip}
    1db4:	1f000007 	svcne	0x00000007
    1db8:	0008b20b 	andeq	fp, r8, fp, lsl #4
    1dbc:	2d0b2000 	stccs	0, cr2, [fp, #-0]
    1dc0:	21000006 	tstcs	r0, r6
    1dc4:	0004250b 	andeq	r2, r4, fp, lsl #10
    1dc8:	320b2200 	andcc	r2, fp, #0, 4
    1dcc:	23000005 	movwcs	r0, #5
    1dd0:	00098a0b 	andeq	r8, r9, fp, lsl #20
    1dd4:	3e0b2400 	cfcpyscc	mvf2, mvf11
    1dd8:	25000008 	strcs	r0, [r0, #-8]
    1ddc:	0005cf0b 	andeq	ip, r5, fp, lsl #30
    1de0:	190b2600 	stmdbne	fp, {r9, sl, sp}
    1de4:	2700000a 	strcs	r0, [r0, -sl]
    1de8:	00049f0b 	andeq	r9, r4, fp, lsl #30
    1dec:	b70b2800 	strlt	r2, [fp, -r0, lsl #16]
    1df0:	29000007 	stmdbcs	r0, {r0, r1, r2}
    1df4:	0008190b 	andeq	r1, r8, fp, lsl #18
    1df8:	4a0b2a00 	bmi	2cc600 <_Min_Stack_Size+0x2cc200>
    1dfc:	2b000005 	blcs	1e18 <_Min_Stack_Size+0x1a18>
    1e00:	0009990b 	andeq	r9, r9, fp, lsl #18
    1e04:	4e0b2c00 	cdpmi	12, 0, cr2, cr11, cr0, {0}
    1e08:	2e000007 	cdpcs	0, 0, cr0, cr0, cr7, {0}
    1e0c:	00063f0b 	andeq	r3, r6, fp, lsl #30
    1e10:	770b2f00 	strvc	r2, [fp, -r0, lsl #30]
    1e14:	32000006 	andcc	r0, r0, #6
    1e18:	000a060b 	andeq	r0, sl, fp, lsl #12
    1e1c:	3b0b3300 	blcc	2cea24 <_Min_Stack_Size+0x2ce624>
    1e20:	34000007 	strcc	r0, [r0], #-7
    1e24:	0005160b 	andeq	r1, r5, fp, lsl #12
    1e28:	9f0b3500 	svcls	0x000b3500
    1e2c:	36000008 	strcc	r0, [r0], -r8
    1e30:	0006560b 	andeq	r5, r6, fp, lsl #12
    1e34:	03003800 	movweq	r3, #2048	; 0x800
    1e38:	000005bc 			; <UNDEFINED> instruction: 0x000005bc
    1e3c:	26039805 	strcs	r9, [r3], -r5, lsl #16
    1e40:	0c000001 	stceq	0, cr0, [r0], {1}
    1e44:	84030e04 	strhi	r0, [r3], #-3588	; 0xfffff1fc
    1e48:	00038109 	andeq	r8, r3, r9, lsl #2
    1e4c:	05110800 	ldreq	r0, [r1, #-2048]	; 0xfffff800
    1e50:	86030000 	strhi	r0, [r3], -r0
    1e54:	00039111 	andeq	r9, r3, r1, lsl r1
    1e58:	00230200 	eoreq	r0, r3, r0, lsl #4
    1e5c:	0007d308 	andeq	sp, r7, r8, lsl #6
    1e60:	11870300 	orrne	r0, r7, r0, lsl #6
    1e64:	00000396 	muleq	r0, r6, r3
    1e68:	08202302 	stmdaeq	r0!, {r1, r8, r9, sp}
    1e6c:	00000985 	andeq	r0, r0, r5, lsl #19
    1e70:	91118803 	tstls	r1, r3, lsl #16
    1e74:	03000003 	movweq	r0, #3
    1e78:	08018023 	stmdaeq	r1, {r0, r1, r5, pc}
    1e7c:	00000529 	andeq	r0, r0, r9, lsr #10
    1e80:	96118903 	ldrls	r8, [r1], -r3, lsl #18
    1e84:	03000003 	movweq	r0, #3
    1e88:	0801a023 	stmdaeq	r1, {r0, r1, r5, sp, pc}
    1e8c:	000009ec 	andeq	r0, r0, ip, ror #19
    1e90:	91118a03 	tstls	r1, r3, lsl #20
    1e94:	03000003 	movweq	r0, #3
    1e98:	08028023 	stmdaeq	r2, {r0, r1, r5, pc}
    1e9c:	000007e7 	andeq	r0, r0, r7, ror #15
    1ea0:	96118b03 	ldrls	r8, [r1], -r3, lsl #22
    1ea4:	03000003 	movweq	r0, #3
    1ea8:	0802a023 	stmdaeq	r2, {r0, r1, r5, sp, pc}
    1eac:	00000736 	andeq	r0, r0, r6, lsr r7
    1eb0:	91118c03 	tstls	r1, r3, lsl #24
    1eb4:	03000003 	movweq	r0, #3
    1eb8:	08038023 	stmdaeq	r3, {r0, r1, r5, pc}
    1ebc:	000007f1 	strdeq	r0, [r0], -r1
    1ec0:	96118d03 	ldrls	r8, [r1], -r3, lsl #26
    1ec4:	03000003 	movweq	r0, #3
    1ec8:	0803a023 	stmdaeq	r3, {r0, r1, r5, sp, pc}
    1ecc:	00000994 	muleq	r0, r4, r9
    1ed0:	91118e03 	tstls	r1, r3, lsl #28
    1ed4:	03000003 	movweq	r0, #3
    1ed8:	08048023 	stmdaeq	r4, {r0, r1, r5, pc}
    1edc:	000007fb 	strdeq	r0, [r0], -fp
    1ee0:	a6118f03 	ldrge	r8, [r1], -r3, lsl #30
    1ee4:	03000003 	movweq	r0, #3
    1ee8:	0d04a023 	stceq	0, cr10, [r4, #-140]	; 0xffffff74
    1eec:	03005049 	movweq	r5, #73	; 0x49
    1ef0:	03c61190 	biceq	r1, r6, #144, 2	; 0x24
    1ef4:	23030000 	movwcs	r0, #12288	; 0x3000
    1ef8:	05080680 	streq	r0, [r8, #-1664]	; 0xfffff980
    1efc:	03000008 	movweq	r0, #8
    1f00:	03cb1191 	biceq	r1, fp, #1073741860	; 0x40000024
    1f04:	23030000 	movwcs	r0, #12288	; 0x3000
    1f08:	b20807f0 	andlt	r0, r8, #240, 14	; 0x3c00000
    1f0c:	03000007 	movweq	r0, #7
    1f10:	00a61192 	umlaleq	r1, r6, r2, r1
    1f14:	23030000 	movwcs	r0, #12288	; 0x3000
    1f18:	0e001c80 	cdpeq	12, 0, cr1, cr0, cr0, {4}
    1f1c:	000000a6 	andeq	r0, r0, r6, lsr #1
    1f20:	00000391 	muleq	r0, r1, r3
    1f24:	0000250f 	andeq	r2, r0, pc, lsl #10
    1f28:	05000700 	streq	r0, [r0, #-1792]	; 0xfffff900
    1f2c:	00000381 	andeq	r0, r0, r1, lsl #7
    1f30:	00009a0e 	andeq	r9, r0, lr, lsl #20
    1f34:	0003a600 	andeq	sl, r3, r0, lsl #12
    1f38:	00250f00 	eoreq	r0, r5, r0, lsl #30
    1f3c:	00170000 	andseq	r0, r7, r0
    1f40:	00009a0e 	andeq	r9, r0, lr, lsl #20
    1f44:	0003b600 	andeq	fp, r3, r0, lsl #12
    1f48:	00250f00 	eoreq	r0, r5, r0, lsl #30
    1f4c:	00370000 	eorseq	r0, r7, r0
    1f50:	0000710e 	andeq	r7, r0, lr, lsl #2
    1f54:	0003c600 	andeq	ip, r3, r0, lsl #12
    1f58:	00250f00 	eoreq	r0, r5, r0, lsl #30
    1f5c:	00ef0000 	rsceq	r0, pc, r0
    1f60:	0003b605 	andeq	fp, r3, r5, lsl #12
    1f64:	009a0e00 	addseq	r0, sl, r0, lsl #28
    1f68:	03dc0000 	bicseq	r0, ip, #0
    1f6c:	25100000 	ldrcs	r0, [r0, #-0]
    1f70:	83000000 	movwhi	r0, #0
    1f74:	90030002 	andls	r0, r3, r2
    1f78:	03000008 	movweq	r0, #8
    1f7c:	02a90493 	adceq	r0, r9, #-1828716544	; 0x93000000
    1f80:	8b110000 	blhi	441f88 <_Min_Stack_Size+0x441b88>
    1f84:	03000002 	movweq	r0, #2
    1f88:	c01506ce 	andsgt	r0, r5, lr, asr #13
    1f8c:	01000000 	mrseq	r0, (UNDEF: 0)
    1f90:	013a1201 	teqeq	sl, r1, lsl #4
    1f94:	4c060000 	stcmi	0, cr0, [r6], {-0}
    1f98:	00009a11 	andeq	r9, r0, r1, lsl sl
    1f9c:	13010100 	movwne	r0, #4352	; 0x1100
    1fa0:	014f052c 	cmpeq	pc, ip, lsr #10
    1fa4:	0004b009 	andeq	fp, r4, r9
    1fa8:	00421400 	subeq	r1, r2, r0, lsl #8
    1fac:	51050000 	mrspl	r0, (UNDEF: 5)
    1fb0:	00a61101 	adceq	r1, r6, r1, lsl #2
    1fb4:	23020000 	movwcs	r0, #8192	; 0x2000
    1fb8:	00291400 	eoreq	r1, r9, r0, lsl #8
    1fbc:	52050000 	andpl	r0, r5, #0
    1fc0:	00a61101 	adceq	r1, r6, r1, lsl #2
    1fc4:	23020000 	movwcs	r0, #8192	; 0x2000
    1fc8:	01161404 	tsteq	r6, r4, lsl #8
    1fcc:	53050000 	movwpl	r0, #20480	; 0x5000
    1fd0:	00a61101 	adceq	r1, r6, r1, lsl #2
    1fd4:	23020000 	movwcs	r0, #8192	; 0x2000
    1fd8:	00071408 	andeq	r1, r7, r8, lsl #8
    1fdc:	54050000 	strpl	r0, [r5], #-0
    1fe0:	00a61101 	adceq	r1, r6, r1, lsl #2
    1fe4:	23020000 	movwcs	r0, #8192	; 0x2000
    1fe8:	4449150c 	strbmi	r1, [r9], #-1292	; 0xfffffaf4
    1fec:	55050052 	strpl	r0, [r5, #-82]	; 0xffffffae
    1ff0:	00a61101 	adceq	r1, r6, r1, lsl #2
    1ff4:	23020000 	movwcs	r0, #8192	; 0x2000
    1ff8:	444f1510 	strbmi	r1, [pc], #-1296	; 2000 <_Min_Stack_Size+0x1c00>
    1ffc:	56050052 			; <UNDEFINED> instruction: 0x56050052
    2000:	00a61101 	adceq	r1, r6, r1, lsl #2
    2004:	23020000 	movwcs	r0, #8192	; 0x2000
    2008:	008b1414 	addeq	r1, fp, r4, lsl r4
    200c:	57050000 	strpl	r0, [r5, -r0]
    2010:	00a61101 	adceq	r1, r6, r1, lsl #2
    2014:	23020000 	movwcs	r0, #8192	; 0x2000
    2018:	000d1418 	andeq	r1, sp, r8, lsl r4
    201c:	58050000 	stmdapl	r5, {}	; <UNPREDICTABLE>
    2020:	00a61101 	adceq	r1, r6, r1, lsl #2
    2024:	23020000 	movwcs	r0, #8192	; 0x2000
    2028:	4641151c 			; <UNDEFINED> instruction: 0x4641151c
    202c:	59050052 	stmdbpl	r5, {r1, r4, r6}
    2030:	04c01101 	strbeq	r1, [r0], #257	; 0x101
    2034:	23020000 	movwcs	r0, #8192	; 0x2000
    2038:	52421520 	subpl	r1, r2, #32, 10	; 0x8000000
    203c:	5a050052 	bpl	14218c <_Min_Stack_Size+0x141d8c>
    2040:	00a61101 	adceq	r1, r6, r1, lsl #2
    2044:	23020000 	movwcs	r0, #8192	; 0x2000
    2048:	a60e0028 	strge	r0, [lr], -r8, lsr #32
    204c:	c0000000 	andgt	r0, r0, r0
    2050:	0f000004 	svceq	0x00000004
    2054:	00000025 	andeq	r0, r0, r5, lsr #32
    2058:	b0050001 	andlt	r0, r5, r1
    205c:	16000004 	strne	r0, [r0], -r4
    2060:	00000157 	andeq	r0, r0, r7, asr r1
    2064:	03015b05 	movweq	r5, #6917	; 0x1b05
    2068:	00000405 	andeq	r0, r0, r5, lsl #8
    206c:	93053813 	movwls	r3, #22547	; 0x5813
    2070:	05bc0901 	ldreq	r0, [ip, #2305]!	; 0x901
    2074:	43150000 	tstmi	r5, #0
    2078:	95050052 	strls	r0, [r5, #-82]	; 0xffffffae
    207c:	00a61101 	adceq	r1, r6, r1, lsl #2
    2080:	23020000 	movwcs	r0, #8192	; 0x2000
    2084:	030c1400 	movweq	r1, #50176	; 0xc400
    2088:	96050000 	strls	r0, [r5], -r0
    208c:	00a61101 	adceq	r1, r6, r1, lsl #2
    2090:	23020000 	movwcs	r0, #8192	; 0x2000
    2094:	02c71404 	sbceq	r1, r7, #4, 8	; 0x4000000
    2098:	97050000 	strls	r0, [r5, -r0]
    209c:	00a61101 	adceq	r1, r6, r1, lsl #2
    20a0:	23020000 	movwcs	r0, #8192	; 0x2000
    20a4:	49431508 	stmdbmi	r3, {r3, r8, sl, ip}^
    20a8:	98050052 	stmdals	r5, {r1, r4, r6}
    20ac:	00a61101 	adceq	r1, r6, r1, lsl #2
    20b0:	23020000 	movwcs	r0, #8192	; 0x2000
    20b4:	022a140c 	eoreq	r1, sl, #12, 8	; 0xc000000
    20b8:	99050000 	stmdbls	r5, {}	; <UNPREDICTABLE>
    20bc:	00a61101 	adceq	r1, r6, r1, lsl #2
    20c0:	23020000 	movwcs	r0, #8192	; 0x2000
    20c4:	00c01410 	sbceq	r1, r0, r0, lsl r4
    20c8:	9a050000 	bls	1420d0 <_Min_Stack_Size+0x141cd0>
    20cc:	00a61101 	adceq	r1, r6, r1, lsl #2
    20d0:	23020000 	movwcs	r0, #8192	; 0x2000
    20d4:	02371414 	eorseq	r1, r7, #20, 8	; 0x14000000
    20d8:	9b050000 	blls	1420e0 <_Min_Stack_Size+0x141ce0>
    20dc:	00a61101 	adceq	r1, r6, r1, lsl #2
    20e0:	23020000 	movwcs	r0, #8192	; 0x2000
    20e4:	03da1418 	bicseq	r1, sl, #24, 8	; 0x18000000
    20e8:	9c050000 	stcls	0, cr0, [r5], {-0}
    20ec:	00a61101 	adceq	r1, r6, r1, lsl #2
    20f0:	23020000 	movwcs	r0, #8192	; 0x2000
    20f4:	02b8141c 	adcseq	r1, r8, #28, 8	; 0x1c000000
    20f8:	9d050000 	stcls	0, cr0, [r5, #-0]
    20fc:	00a61101 	adceq	r1, r6, r1, lsl #2
    2100:	23020000 	movwcs	r0, #8192	; 0x2000
    2104:	02ed1420 	rsceq	r1, sp, #32, 8	; 0x20000000
    2108:	9e050000 	cdpls	0, 0, cr0, cr5, cr0, {0}
    210c:	00a61101 	adceq	r1, r6, r1, lsl #2
    2110:	23020000 	movwcs	r0, #8192	; 0x2000
    2114:	00d81424 	sbcseq	r1, r8, r4, lsr #8
    2118:	9f050000 	svcls	0x00050000
    211c:	00a61101 	adceq	r1, r6, r1, lsl #2
    2120:	23020000 	movwcs	r0, #8192	; 0x2000
    2124:	01ba1428 			; <UNDEFINED> instruction: 0x01ba1428
    2128:	a0050000 	andge	r0, r5, r0
    212c:	00a61101 	adceq	r1, r6, r1, lsl #2
    2130:	23020000 	movwcs	r0, #8192	; 0x2000
    2134:	0197142c 	orrseq	r1, r7, ip, lsr #8
    2138:	a1050000 	mrsge	r0, (UNDEF: 5)
    213c:	00a61101 	adceq	r1, r6, r1, lsl #2
    2140:	23020000 	movwcs	r0, #8192	; 0x2000
    2144:	53431530 	movtpl	r1, #13616	; 0x3530
    2148:	a2050052 	andge	r0, r5, #82	; 0x52
    214c:	00a61101 	adceq	r1, r6, r1, lsl #2
    2150:	23020000 	movwcs	r0, #8192	; 0x2000
    2154:	64160034 	ldrvs	r0, [r6], #-52	; 0xffffffcc
    2158:	05000001 	streq	r0, [r0, #-1]
    215c:	d20301a3 	andle	r0, r3, #-1073741784	; 0xc0000028
    2160:	13000004 	movwne	r0, #4
    2164:	020c0554 	andeq	r0, ip, #84, 10	; 0x15000000
    2168:	00072209 	andeq	r2, r7, r9, lsl #4
    216c:	52431500 	subpl	r1, r3, #0, 10
    2170:	0e050031 	mcreq	0, 0, r0, cr5, cr1, {1}
    2174:	00a61102 	adceq	r1, r6, r2, lsl #2
    2178:	23020000 	movwcs	r0, #8192	; 0x2000
    217c:	52431500 	subpl	r1, r3, #0, 10
    2180:	0f050032 	svceq	0x00050032
    2184:	00a61102 	adceq	r1, r6, r2, lsl #2
    2188:	23020000 	movwcs	r0, #8192	; 0x2000
    218c:	0d751404 	cfldrdeq	mvd1, [r5, #-16]!
    2190:	10050000 	andne	r0, r5, r0
    2194:	00a61102 	adceq	r1, r6, r2, lsl #2
    2198:	23020000 	movwcs	r0, #8192	; 0x2000
    219c:	0c431408 	cfstrdeq	mvd1, [r3], {8}
    21a0:	11050000 	mrsne	r0, (UNDEF: 5)
    21a4:	00a61102 	adceq	r1, r6, r2, lsl #2
    21a8:	23020000 	movwcs	r0, #8192	; 0x2000
    21ac:	5253150c 	subspl	r1, r3, #12, 10	; 0x3000000
    21b0:	02120500 	andseq	r0, r2, #0, 10
    21b4:	0000a611 	andeq	sl, r0, r1, lsl r6
    21b8:	10230200 	eorne	r0, r3, r0, lsl #4
    21bc:	52474515 	subpl	r4, r7, #88080384	; 0x5400000
    21c0:	02130500 	andseq	r0, r3, #0, 10
    21c4:	0000a611 	andeq	sl, r0, r1, lsl r6
    21c8:	14230200 	strtne	r0, [r3], #-512	; 0xfffffe00
    21cc:	000bad14 	andeq	sl, fp, r4, lsl sp
    21d0:	02140500 	andseq	r0, r4, #0, 10
    21d4:	0000a611 	andeq	sl, r0, r1, lsl r6
    21d8:	18230200 	stmdane	r3!, {r9}
    21dc:	000bb314 	andeq	fp, fp, r4, lsl r3
    21e0:	02150500 	andseq	r0, r5, #0, 10
    21e4:	0000a611 	andeq	sl, r0, r1, lsl r6
    21e8:	1c230200 	sfmne	f0, 4, [r3], #-0
    21ec:	000b7e14 	andeq	r7, fp, r4, lsl lr
    21f0:	02160500 	andseq	r0, r6, #0, 10
    21f4:	0000a611 	andeq	sl, r0, r1, lsl r6
    21f8:	20230200 	eorcs	r0, r3, r0, lsl #4
    21fc:	544e4315 	strbpl	r4, [lr], #-789	; 0xfffffceb
    2200:	02170500 	andseq	r0, r7, #0, 10
    2204:	0000a611 	andeq	sl, r0, r1, lsl r6
    2208:	24230200 	strtcs	r0, [r3], #-512	; 0xfffffe00
    220c:	43535015 	cmpmi	r3, #21
    2210:	02180500 	andseq	r0, r8, #0, 10
    2214:	0000a611 	andeq	sl, r0, r1, lsl r6
    2218:	28230200 	stmdacs	r3!, {r9}
    221c:	52524115 	subspl	r4, r2, #1073741829	; 0x40000005
    2220:	02190500 	andseq	r0, r9, #0, 10
    2224:	0000a611 	andeq	sl, r0, r1, lsl r6
    2228:	2c230200 	sfmcs	f0, 4, [r3], #-0
    222c:	000eb814 	andeq	fp, lr, r4, lsl r8
    2230:	021a0500 	andseq	r0, sl, #0, 10
    2234:	00009a11 	andeq	r9, r0, r1, lsl sl
    2238:	30230200 	eorcc	r0, r3, r0, lsl #4
    223c:	000ba314 	andeq	sl, fp, r4, lsl r3
    2240:	021b0500 	andseq	r0, fp, #0, 10
    2244:	0000a611 	andeq	sl, r0, r1, lsl r6
    2248:	34230200 	strtcc	r0, [r3], #-512	; 0xfffffe00
    224c:	000ba814 	andeq	sl, fp, r4, lsl r8
    2250:	021c0500 	andseq	r0, ip, #0, 10
    2254:	0000a611 	andeq	sl, r0, r1, lsl r6
    2258:	38230200 	stmdacc	r3!, {r9}
    225c:	000e8c14 	andeq	r8, lr, r4, lsl ip
    2260:	021d0500 	andseq	r0, sp, #0, 10
    2264:	0000a611 	andeq	sl, r0, r1, lsl r6
    2268:	3c230200 	sfmcc	f0, 4, [r3], #-0
    226c:	000e9114 	andeq	r9, lr, r4, lsl r1
    2270:	021e0500 	andseq	r0, lr, #0, 10
    2274:	0000a611 	andeq	sl, r0, r1, lsl r6
    2278:	40230200 	eormi	r0, r3, r0, lsl #4
    227c:	000ec314 	andeq	ip, lr, r4, lsl r3
    2280:	021f0500 	andseq	r0, pc, #0, 10
    2284:	00009a11 	andeq	r9, r0, r1, lsl sl
    2288:	44230200 	strtmi	r0, [r3], #-512	; 0xfffffe00
    228c:	52434415 	subpl	r4, r3, #352321536	; 0x15000000
    2290:	02200500 	eoreq	r0, r0, #0, 10
    2294:	0000a611 	andeq	sl, r0, r1, lsl r6
    2298:	48230200 	stmdami	r3!, {r9}
    229c:	000d8c14 	andeq	r8, sp, r4, lsl ip
    22a0:	02210500 	eoreq	r0, r1, #0, 10
    22a4:	0000a611 	andeq	sl, r0, r1, lsl r6
    22a8:	4c230200 	sfmmi	f0, 4, [r3], #-0
    22ac:	00524f15 	subseq	r4, r2, r5, lsl pc
    22b0:	11022205 	tstne	r2, r5, lsl #4
    22b4:	000000a6 	andeq	r0, r0, r6, lsr #1
    22b8:	00502302 	subseq	r2, r0, r2, lsl #6
    22bc:	000b6316 	andeq	r6, fp, r6, lsl r3
    22c0:	02230500 	eoreq	r0, r3, #0, 10
    22c4:	0005c903 	andeq	ip, r5, r3, lsl #18
    22c8:	05541300 	ldrbeq	r1, [r4, #-768]	; 0xfffffd00
    22cc:	da090237 	ble	242bb0 <_Min_Stack_Size+0x2427b0>
    22d0:	14000008 	strne	r0, [r0], #-8
    22d4:	000005e9 	andeq	r0, r0, r9, ror #11
    22d8:	11023905 	tstne	r2, r5, lsl #18
    22dc:	0000008e 	andeq	r0, r0, lr, lsl #1
    22e0:	14002302 	strne	r2, [r0], #-770	; 0xfffffcfe
    22e4:	000007d3 	ldrdeq	r0, [r0], -r3
    22e8:	11023a05 	tstne	r2, r5, lsl #20
    22ec:	0000008e 	andeq	r0, r0, lr, lsl #1
    22f0:	14022302 	strne	r2, [r2], #-770	; 0xfffffcfe
    22f4:	0000063a 	andeq	r0, r0, sl, lsr r6
    22f8:	11023b05 	tstne	r2, r5, lsl #22
    22fc:	0000008e 	andeq	r0, r0, lr, lsl #1
    2300:	14042302 	strne	r2, [r4], #-770	; 0xfffffcfe
    2304:	000007dd 	ldrdeq	r0, [r0], -sp
    2308:	11023c05 	tstne	r2, r5, lsl #24
    230c:	0000008e 	andeq	r0, r0, lr, lsl #1
    2310:	14062302 	strne	r2, [r6], #-770	; 0xfffffcfe
    2314:	000006ca 	andeq	r0, r0, sl, asr #13
    2318:	11023d05 	tstne	r2, r5, lsl #26
    231c:	0000008e 	andeq	r0, r0, lr, lsl #1
    2320:	14082302 	strne	r2, [r8], #-770	; 0xfffffcfe
    2324:	000007e7 	andeq	r0, r0, r7, ror #15
    2328:	11023e05 	tstne	r2, r5, lsl #28
    232c:	0000008e 	andeq	r0, r0, lr, lsl #1
    2330:	140a2302 	strne	r2, [sl], #-770	; 0xfffffcfe
    2334:	000006f9 	strdeq	r0, [r0], -r9
    2338:	11023f05 	tstne	r2, r5, lsl #30
    233c:	0000008e 	andeq	r0, r0, lr, lsl #1
    2340:	140c2302 	strne	r2, [ip], #-770	; 0xfffffcfe
    2344:	000007f1 	strdeq	r0, [r0], -r1
    2348:	11024005 	tstne	r2, r5
    234c:	0000008e 	andeq	r0, r0, lr, lsl #1
    2350:	140e2302 	strne	r2, [lr], #-770	; 0xfffffcfe
    2354:	00000980 	andeq	r0, r0, r0, lsl #19
    2358:	11024105 	tstne	r2, r5, lsl #2
    235c:	0000008e 	andeq	r0, r0, lr, lsl #1
    2360:	14102302 	ldrne	r2, [r0], #-770	; 0xfffffcfe
    2364:	000007fb 	strdeq	r0, [r0], -fp
    2368:	11024205 	tstne	r2, r5, lsl #4
    236c:	0000008e 	andeq	r0, r0, lr, lsl #1
    2370:	14122302 	ldrne	r2, [r2], #-770	; 0xfffffcfe
    2374:	000007ce 	andeq	r0, r0, lr, asr #15
    2378:	11024305 	tstne	r2, r5, lsl #6
    237c:	0000008e 	andeq	r0, r0, lr, lsl #1
    2380:	14142302 	ldrne	r2, [r4], #-770	; 0xfffffcfe
    2384:	00000805 	andeq	r0, r0, r5, lsl #16
    2388:	11024405 	tstne	r2, r5, lsl #8
    238c:	0000008e 	andeq	r0, r0, lr, lsl #1
    2390:	14162302 	ldrne	r2, [r6], #-770	; 0xfffffcfe
    2394:	00000872 	andeq	r0, r0, r2, ror r8
    2398:	11024505 	tstne	r2, r5, lsl #10
    239c:	0000008e 	andeq	r0, r0, lr, lsl #1
    23a0:	14182302 	ldrne	r2, [r8], #-770	; 0xfffffcfe
    23a4:	0000080f 	andeq	r0, r0, pc, lsl #16
    23a8:	11024605 	tstne	r2, r5, lsl #12
    23ac:	0000008e 	andeq	r0, r0, lr, lsl #1
    23b0:	141a2302 	ldrne	r2, [sl], #-770	; 0xfffffcfe
    23b4:	000008ee 	andeq	r0, r0, lr, ror #17
    23b8:	11024705 	tstne	r2, r5, lsl #14
    23bc:	0000008e 	andeq	r0, r0, lr, lsl #1
    23c0:	141c2302 	ldrne	r2, [ip], #-770	; 0xfffffcfe
    23c4:	00000261 	andeq	r0, r0, r1, ror #4
    23c8:	11024805 	tstne	r2, r5, lsl #16
    23cc:	000008ea 	andeq	r0, r0, sl, ror #17
    23d0:	141e2302 	ldrne	r2, [lr], #-770	; 0xfffffcfe
    23d4:	0000089a 	muleq	r0, sl, r8
    23d8:	11024905 	tstne	r2, r5, lsl #18
    23dc:	0000008e 	andeq	r0, r0, lr, lsl #1
    23e0:	14402302 	strbne	r2, [r0], #-770	; 0xfffffcfe
    23e4:	00000a25 	andeq	r0, r0, r5, lsr #20
    23e8:	11024a05 	tstne	r2, r5, lsl #20
    23ec:	0000008e 	andeq	r0, r0, lr, lsl #1
    23f0:	14422302 	strbne	r2, [r2], #-770	; 0xfffffcfe
    23f4:	000004fa 	strdeq	r0, [r0], -sl
    23f8:	11024b05 	tstne	r2, r5, lsl #22
    23fc:	0000008e 	andeq	r0, r0, lr, lsl #1
    2400:	14442302 	strbne	r2, [r4], #-770	; 0xfffffcfe
    2404:	0000082a 	andeq	r0, r0, sl, lsr #16
    2408:	11024c05 	tstne	r2, r5, lsl #24
    240c:	0000008e 	andeq	r0, r0, lr, lsl #1
    2410:	15462302 	strbne	r2, [r6, #-770]	; 0xfffffcfe
    2414:	00524e46 	subseq	r4, r2, r6, asr #28
    2418:	11024d05 	tstne	r2, r5, lsl #26
    241c:	0000008e 	andeq	r0, r0, lr, lsl #1
    2420:	14482302 	strbne	r2, [r8], #-770	; 0xfffffcfe
    2424:	00000834 	andeq	r0, r0, r4, lsr r8
    2428:	11024e05 	tstne	r2, r5, lsl #28
    242c:	0000008e 	andeq	r0, r0, lr, lsl #1
    2430:	144a2302 	strbne	r2, [sl], #-770	; 0xfffffcfe
    2434:	0000058c 	andeq	r0, r0, ip, lsl #11
    2438:	11024f05 	tstne	r2, r5, lsl #30
    243c:	0000008e 	andeq	r0, r0, lr, lsl #1
    2440:	144c2302 	strbne	r2, [ip], #-770	; 0xfffffcfe
    2444:	00000a3b 	andeq	r0, r0, fp, lsr sl
    2448:	11025005 	tstne	r2, r5
    244c:	0000008e 	andeq	r0, r0, lr, lsl #1
    2450:	144e2302 	strbne	r2, [lr], #-770	; 0xfffffcfe
    2454:	000009b6 			; <UNDEFINED> instruction: 0x000009b6
    2458:	11025105 	tstne	r2, r5, lsl #2
    245c:	0000008e 	andeq	r0, r0, lr, lsl #1
    2460:	14502302 	ldrbne	r2, [r0], #-770	; 0xfffffcfe
    2464:	00000a45 	andeq	r0, r0, r5, asr #20
    2468:	11025205 	tstne	r2, r5, lsl #4
    246c:	0000008e 	andeq	r0, r0, lr, lsl #1
    2470:	00522302 	subseq	r2, r2, r2, lsl #6
    2474:	00008e0e 	andeq	r8, r0, lr, lsl #28
    2478:	0008ea00 	andeq	lr, r8, r0, lsl #20
    247c:	00250f00 	eoreq	r0, r5, r0, lsl #30
    2480:	00100000 	andseq	r0, r0, r0
    2484:	0008da05 	andeq	sp, r8, r5, lsl #20
    2488:	05801600 	streq	r1, [r0, #1536]	; 0x600
    248c:	53050000 	movwpl	r0, #20480	; 0x5000
    2490:	072f0302 	streq	r0, [pc, -r2, lsl #6]!
    2494:	08020000 	stmdaeq	r2, {}	; <UNPREDICTABLE>
    2498:	000d4b04 	andeq	r4, sp, r4, lsl #22
    249c:	0fcb1600 	svceq	0x00cb1600
    24a0:	65070000 	strvs	r0, [r7, #-0]
    24a4:	00251701 	eoreq	r1, r5, r1, lsl #14
    24a8:	98030000 	stmdals	r3, {}	; <UNPREDICTABLE>
    24ac:	0800000a 	stmdaeq	r0, {r1, r3}
    24b0:	00570e2e 	subseq	r0, r7, lr, lsr #28
    24b4:	3b030000 	blcc	c24bc <_Min_Stack_Size+0xc20bc>
    24b8:	0800000b 	stmdaeq	r0, {r0, r1, r3}
    24bc:	00570e74 	subseq	r0, r7, r4, ror lr
    24c0:	04170000 	ldreq	r0, [r7], #-0
    24c4:	4a03a508 	bmi	eb8ec <_Min_Stack_Size+0xeb4ec>
    24c8:	18000009 	stmdane	r0, {r0, r3}
    24cc:	00000c8e 	andeq	r0, r0, lr, lsl #25
    24d0:	030ca708 	movweq	sl, #50952	; 0xc708
    24d4:	18000009 	stmdane	r0, {r0, r3}
    24d8:	00000daa 	andeq	r0, r0, sl, lsr #27
    24dc:	4a13a808 	bmi	4ec504 <_Min_Stack_Size+0x4ec104>
    24e0:	00000009 	andeq	r0, r0, r9
    24e4:	00007b0e 	andeq	r7, r0, lr, lsl #22
    24e8:	00095a00 	andeq	r5, r9, r0, lsl #20
    24ec:	00250f00 	eoreq	r0, r5, r0, lsl #30
    24f0:	00030000 	andeq	r0, r3, r0
    24f4:	a2080807 	andge	r0, r8, #458752	; 0x70000
    24f8:	00098209 	andeq	r8, r9, r9, lsl #4
    24fc:	0b920800 	bleq	fe484504 <BootRAM+0xd3f4ca5>
    2500:	a4080000 	strge	r0, [r8], #-0
    2504:	0000b907 	andeq	fp, r0, r7, lsl #18
    2508:	00230200 	eoreq	r0, r3, r0, lsl #4
    250c:	000c4808 	andeq	r4, ip, r8, lsl #16
    2510:	05a90800 	streq	r0, [r9, #2048]!	; 0x800
    2514:	00000928 	andeq	r0, r0, r8, lsr #18
    2518:	00042302 	andeq	r2, r4, r2, lsl #6
    251c:	000d0603 	andeq	r0, sp, r3, lsl #12
    2520:	03aa0800 			; <UNDEFINED> instruction: 0x03aa0800
    2524:	0000095a 	andeq	r0, r0, sl, asr r9
    2528:	df030419 	svcle	0x00030419
    252c:	0900000c 	stmdbeq	r0, {r2, r3}
    2530:	00ab1916 	adceq	r1, fp, r6, lsl r9
    2534:	ce030000 	cdpgt	0, 0, cr0, cr3, cr0, {0}
    2538:	0a00000a 	beq	2568 <_Min_Stack_Size+0x2168>
    253c:	00b90d0c 	adcseq	r0, r9, ip, lsl #26
    2540:	85030000 	strhi	r0, [r3, #-0]
    2544:	0900000c 	stmdbeq	r0, {r2, r3}
    2548:	099c1b23 	ldmibeq	ip, {r0, r1, r5, r8, r9, fp, ip}
    254c:	841a0000 	ldrhi	r0, [sl], #-0
    2550:	1800000d 	stmdane	r0, {r0, r2, r3}
    2554:	1a083409 	bne	20f580 <_Min_Stack_Size+0x20f180>
    2558:	0800000a 	stmdaeq	r0, {r1, r3}
    255c:	00000fa9 	andeq	r0, r0, r9, lsr #31
    2560:	1a133609 	bne	4cfd8c <_Min_Stack_Size+0x4cf98c>
    2564:	0200000a 	andeq	r0, r0, #10
    2568:	5f0d0023 	svcpl	0x000d0023
    256c:	3709006b 	strcc	r0, [r9, -fp, rrx]
    2570:	0000b907 	andeq	fp, r0, r7, lsl #18
    2574:	04230200 	strteq	r0, [r3], #-512	; 0xfffffe00
    2578:	000e2d08 	andeq	r2, lr, r8, lsl #26
    257c:	0b370900 	bleq	dc4984 <_Min_Stack_Size+0xdc4584>
    2580:	000000b9 	strheq	r0, [r0], -r9
    2584:	08082302 	stmdaeq	r8, {r1, r8, r9, sp}
    2588:	00000d9e 	muleq	r0, lr, sp
    258c:	b9143709 	ldmdblt	r4, {r0, r3, r8, r9, sl, ip, sp}
    2590:	02000000 	andeq	r0, r0, #0
    2594:	f5080c23 			; <UNDEFINED> instruction: 0xf5080c23
    2598:	0900000b 	stmdbeq	r0, {r0, r1, r3}
    259c:	00b91b37 	adcseq	r1, r9, r7, lsr fp
    25a0:	23020000 	movwcs	r0, #8192	; 0x2000
    25a4:	785f0d10 	ldmdavc	pc, {r4, r8, sl, fp}^	; <UNPREDICTABLE>
    25a8:	0b380900 	bleq	e049b0 <_Min_Stack_Size+0xe045b0>
    25ac:	00000a20 	andeq	r0, r0, r0, lsr #20
    25b0:	00142302 	andseq	r2, r4, r2, lsl #6
    25b4:	09b4041b 	ldmibeq	r4!, {r0, r1, r3, r4, sl}
    25b8:	900e0000 	andls	r0, lr, r0
    25bc:	30000009 	andcc	r0, r0, r9
    25c0:	0f00000a 	svceq	0x0000000a
    25c4:	00000025 	andeq	r0, r0, r5, lsr #32
    25c8:	481a0000 	ldmdami	sl, {}	; <UNPREDICTABLE>
    25cc:	2400000e 	strcs	r0, [r0], #-14
    25d0:	c5083c09 	strgt	r3, [r8, #-3081]	; 0xfffff3f7
    25d4:	0800000a 	stmdaeq	r0, {r1, r3}
    25d8:	00000c1a 	andeq	r0, r0, sl, lsl ip
    25dc:	b9093e09 	stmdblt	r9, {r0, r3, r9, sl, fp, ip, sp}
    25e0:	02000000 	andeq	r0, r0, #0
    25e4:	9a080023 	bls	202678 <_Min_Stack_Size+0x202278>
    25e8:	0900000b 	stmdbeq	r0, {r0, r1, r3}
    25ec:	00b9093f 	adcseq	r0, r9, pc, lsr r9
    25f0:	23020000 	movwcs	r0, #8192	; 0x2000
    25f4:	0b830804 	bleq	fe0c460c <BootRAM+0xd034dad>
    25f8:	40090000 	andmi	r0, r9, r0
    25fc:	0000b909 	andeq	fp, r0, r9, lsl #18
    2600:	08230200 	stmdaeq	r3!, {r9}
    2604:	000c6208 	andeq	r6, ip, r8, lsl #4
    2608:	09410900 	stmdbeq	r1, {r8, fp}^
    260c:	000000b9 	strheq	r0, [r0], -r9
    2610:	080c2302 	stmdaeq	ip, {r1, r8, r9, sp}
    2614:	00000d42 	andeq	r0, r0, r2, asr #26
    2618:	b9094209 	stmdblt	r9, {r0, r3, r9, lr}
    261c:	02000000 	andeq	r0, r0, #0
    2620:	63081023 	movwvs	r1, #32803	; 0x8023
    2624:	0900000d 	stmdbeq	r0, {r0, r2, r3}
    2628:	00b90943 	adcseq	r0, r9, r3, asr #18
    262c:	23020000 	movwcs	r0, #8192	; 0x2000
    2630:	0b590814 	bleq	1644688 <_Min_Stack_Size+0x1644288>
    2634:	44090000 	strmi	r0, [r9], #-0
    2638:	0000b909 	andeq	fp, r0, r9, lsl #18
    263c:	18230200 	stmdane	r3!, {r9}
    2640:	000c2308 	andeq	r2, ip, r8, lsl #6
    2644:	09450900 	stmdbeq	r5, {r8, fp}^
    2648:	000000b9 	strheq	r0, [r0], -r9
    264c:	081c2302 	ldmdaeq	ip, {r1, r8, r9, sp}
    2650:	00000d11 	andeq	r0, r0, r1, lsl sp
    2654:	b9094609 	stmdblt	r9, {r0, r3, r9, sl, lr}
    2658:	02000000 	andeq	r0, r0, #0
    265c:	1c002023 	stcne	0, cr2, [r0], {35}	; 0x23
    2660:	00000dc4 	andeq	r0, r0, r4, asr #27
    2664:	4f090108 	svcmi	0x00090108
    2668:	000b1308 	andeq	r1, fp, r8, lsl #6
    266c:	0f420800 	svceq	0x00420800
    2670:	50090000 	andpl	r0, r9, r0
    2674:	000b130a 	andeq	r1, fp, sl, lsl #6
    2678:	00230200 	eoreq	r0, r3, r0, lsl #4
    267c:	000e7808 	andeq	r7, lr, r8, lsl #16
    2680:	09510900 	ldmdbeq	r1, {r8, fp}^
    2684:	00000b13 	andeq	r0, r0, r3, lsl fp
    2688:	01802303 	orreq	r2, r0, r3, lsl #6
    268c:	000f6a08 	andeq	r6, pc, r8, lsl #20
    2690:	0a530900 	beq	14c4a98 <_Min_Stack_Size+0x14c4698>
    2694:	00000990 	muleq	r0, r0, r9
    2698:	02802303 	addeq	r2, r0, #201326592	; 0xc000000
    269c:	000f9608 	andeq	r9, pc, r8, lsl #12
    26a0:	0a560900 	beq	1584aa8 <_Min_Stack_Size+0x15846a8>
    26a4:	00000990 	muleq	r0, r0, r9
    26a8:	02842303 	addeq	r2, r4, #201326592	; 0xc000000
    26ac:	098e0e00 	stmibeq	lr, {r9, sl, fp}
    26b0:	0b230000 	bleq	8c26b8 <_Min_Stack_Size+0x8c22b8>
    26b4:	250f0000 	strcs	r0, [pc, #-0]	; 26bc <_Min_Stack_Size+0x22bc>
    26b8:	1f000000 	svcne	0x00000000
    26bc:	0d6d1c00 	stcleq	12, cr1, [sp, #-0]
    26c0:	01900000 	orrseq	r0, r0, r0
    26c4:	6f086209 	svcvs	0x00086209
    26c8:	0800000b 	stmdaeq	r0, {r0, r1, r3}
    26cc:	00000fa9 	andeq	r0, r0, r9, lsr #31
    26d0:	6f126309 	svcvs	0x00126309
    26d4:	0200000b 	andeq	r0, r0, #11
    26d8:	2d080023 	stccs	0, cr0, [r8, #-140]	; 0xffffff74
    26dc:	0900000d 	stmdbeq	r0, {r0, r2, r3}
    26e0:	00b90664 	adcseq	r0, r9, r4, ror #12
    26e4:	23020000 	movwcs	r0, #8192	; 0x2000
    26e8:	0b430804 	bleq	10c4700 <_Min_Stack_Size+0x10c4300>
    26ec:	66090000 	strvs	r0, [r9], -r0
    26f0:	000b7509 	andeq	r7, fp, r9, lsl #10
    26f4:	08230200 	stmdaeq	r3!, {r9}
    26f8:	000dc408 	andeq	ip, sp, r8, lsl #8
    26fc:	1e670900 	vmulne.f16	s1, s14, s0	; <UNPREDICTABLE>
    2700:	00000ac5 	andeq	r0, r0, r5, asr #21
    2704:	01882303 	orreq	r2, r8, r3, lsl #6
    2708:	23041b00 	movwcs	r1, #19200	; 0x4b00
    270c:	0e00000b 	cdpeq	0, 0, cr0, cr0, cr11, {0}
    2710:	00000b85 	andeq	r0, r0, r5, lsl #23
    2714:	00000b85 	andeq	r0, r0, r5, lsl #23
    2718:	0000250f 	andeq	r2, r0, pc, lsl #10
    271c:	1b001f00 	blne	a324 <_Min_Stack_Size+0x9f24>
    2720:	000b8b04 	andeq	r8, fp, r4, lsl #22
    2724:	1a011d00 	bne	49b2c <_Min_Stack_Size+0x4972c>
    2728:	00000d5c 	andeq	r0, r0, ip, asr sp
    272c:	087a0908 	ldmdaeq	sl!, {r3, r8, fp}^
    2730:	00000bb9 			; <UNDEFINED> instruction: 0x00000bb9
    2734:	000cc908 	andeq	ip, ip, r8, lsl #18
    2738:	117b0900 	cmnne	fp, r0, lsl #18
    273c:	00000bb9 			; <UNDEFINED> instruction: 0x00000bb9
    2740:	08002302 	stmdaeq	r0, {r1, r8, r9, sp}
    2744:	000007c8 	andeq	r0, r0, r8, asr #15
    2748:	b9067c09 	stmdblt	r6, {r0, r3, sl, fp, ip, sp, lr}
    274c:	02000000 	andeq	r0, r0, #0
    2750:	1b000423 	blne	37e4 <_Min_Stack_Size+0x33e4>
    2754:	00007b04 	andeq	r7, r0, r4, lsl #22
    2758:	0bed1a00 	bleq	ffb48f60 <BootRAM+0xeab9701>
    275c:	09680000 	stmdbeq	r8!, {}^	; <UNPREDICTABLE>
    2760:	0d3208ba 	ldceq	8, cr0, [r2, #-744]!	; 0xfffffd18
    2764:	5f0d0000 	svcpl	0x000d0000
    2768:	bb090070 	bllt	242930 <_Min_Stack_Size+0x242530>
    276c:	000bb912 	andeq	fp, fp, r2, lsl r9
    2770:	00230200 	eoreq	r0, r3, r0, lsl #4
    2774:	00725f0d 	rsbseq	r5, r2, sp, lsl #30
    2778:	b907bc09 	stmdblt	r7, {r0, r3, sl, fp, ip, sp, pc}
    277c:	02000000 	andeq	r0, r0, #0
    2780:	5f0d0423 	svcpl	0x000d0423
    2784:	bd090077 	stclt	0, cr0, [r9, #-476]	; 0xfffffe24
    2788:	0000b907 	andeq	fp, r0, r7, lsl #18
    278c:	08230200 	stmdaeq	r3!, {r9}
    2790:	000a9108 	andeq	r9, sl, r8, lsl #2
    2794:	09be0900 	ldmibeq	lr!, {r8, fp}
    2798:	00000044 	andeq	r0, r0, r4, asr #32
    279c:	080c2302 	stmdaeq	ip, {r1, r8, r9, sp}
    27a0:	00000cf6 	strdeq	r0, [r0], -r6
    27a4:	4409bf09 	strmi	fp, [r9], #-3849	; 0xfffff0f7
    27a8:	02000000 	andeq	r0, r0, #0
    27ac:	5f0d0e23 	svcpl	0x000d0e23
    27b0:	09006662 	stmdbeq	r0, {r1, r5, r6, r9, sl, sp, lr}
    27b4:	0b8d11c0 	bleq	fe346ebc <BootRAM+0xd2b765d>
    27b8:	23020000 	movwcs	r0, #8192	; 0x2000
    27bc:	0a880810 	beq	fe204804 <BootRAM+0xd174fa5>
    27c0:	c1090000 	mrsgt	r0, (UNDEF: 9)
    27c4:	0000b907 	andeq	fp, r0, r7, lsl #18
    27c8:	18230200 	stmdane	r3!, {r9}
    27cc:	000b4808 	andeq	r4, fp, r8, lsl #16
    27d0:	0ac80900 	beq	ff204bd8 <BootRAM+0xe175379>
    27d4:	0000098e 	andeq	r0, r0, lr, lsl #19
    27d8:	081c2302 	ldmdaeq	ip, {r1, r8, r9, sp}
    27dc:	00000691 	muleq	r0, r1, r6
    27e0:	e31dca09 	tst	sp, #36864	; 0x9000
    27e4:	0200000e 	andeq	r0, r0, #14
    27e8:	43082023 	movwmi	r2, #32803	; 0x8023
    27ec:	09000005 	stmdbeq	r0, {r0, r2}
    27f0:	0f0e1dcc 	svceq	0x000e1dcc
    27f4:	23020000 	movwcs	r0, #8192	; 0x2000
    27f8:	0c030824 	stceq	8, cr0, [r3], {36}	; 0x24
    27fc:	cf090000 	svcgt	0x00090000
    2800:	000f330d 	andeq	r3, pc, sp, lsl #6
    2804:	28230200 	stmdacs	r3!, {r9}
    2808:	000c9a08 	andeq	r9, ip, r8, lsl #20
    280c:	09d00900 	ldmibeq	r0, {r8, fp}^
    2810:	00000f4e 	andeq	r0, r0, lr, asr #30
    2814:	0d2c2302 	stceq	3, cr2, [ip, #-8]!
    2818:	0062755f 	rsbeq	r7, r2, pc, asr r5
    281c:	8d11d309 	ldchi	3, cr13, [r1, #-36]	; 0xffffffdc
    2820:	0200000b 	andeq	r0, r0, #11
    2824:	5f0d3023 	svcpl	0x000d3023
    2828:	09007075 	stmdbeq	r0, {r0, r2, r4, r5, r6, ip, sp, lr}
    282c:	0bb912d4 	bleq	fee47384 <BootRAM+0xddb7b25>
    2830:	23020000 	movwcs	r0, #8192	; 0x2000
    2834:	755f0d38 	ldrbvc	r0, [pc, #-3384]	; 1b04 <_Min_Stack_Size+0x1704>
    2838:	d5090072 	strle	r0, [r9, #-114]	; 0xffffff8e
    283c:	0000b907 	andeq	fp, r0, r7, lsl #18
    2840:	3c230200 	sfmcc	f0, 4, [r3], #-0
    2844:	000c0908 	andeq	r0, ip, r8, lsl #18
    2848:	11d80900 	bicsne	r0, r8, r0, lsl #18
    284c:	00000f54 	andeq	r0, r0, r4, asr pc
    2850:	08402302 	stmdaeq	r0, {r1, r8, r9, sp}^
    2854:	00000f73 	andeq	r0, r0, r3, ror pc
    2858:	6411d909 	ldrvs	sp, [r1], #-2313	; 0xfffff6f7
    285c:	0200000f 	andeq	r0, r0, #15
    2860:	5f0d4323 	svcpl	0x000d4323
    2864:	0900626c 	stmdbeq	r0, {r2, r3, r5, r6, r9, sp, lr}
    2868:	0b8d11dc 	bleq	fe346fe0 <BootRAM+0xd2b7781>
    286c:	23020000 	movwcs	r0, #8192	; 0x2000
    2870:	0e3f0844 	cdpeq	8, 3, cr0, cr15, cr4, {2}
    2874:	df090000 	svcle	0x00090000
    2878:	0000b907 	andeq	fp, r0, r7, lsl #18
    287c:	4c230200 	sfmmi	f0, 4, [r3], #-0
    2880:	000dd208 	andeq	sp, sp, r8, lsl #4
    2884:	0ae00900 	beq	ff804c8c <BootRAM+0xe77542d>
    2888:	00000910 	andeq	r0, r0, r0, lsl r9
    288c:	08502302 	ldmdaeq	r0, {r1, r8, r9, sp}^
    2890:	00000da4 	andeq	r0, r0, r4, lsr #27
    2894:	5112e309 	tstpl	r2, r9, lsl #6
    2898:	0200000d 	andeq	r0, r0, #13
    289c:	4d085423 	cfstrsmi	mvf5, [r8, #-140]	; 0xffffff74
    28a0:	0900000e 	stmdbeq	r0, {r1, r2, r3}
    28a4:	09a80ce7 	stmibeq	r8!, {r0, r1, r2, r5, r6, r7, sl, fp}
    28a8:	23020000 	movwcs	r0, #8192	; 0x2000
    28ac:	0b500858 	bleq	1404a14 <_Min_Stack_Size+0x1404614>
    28b0:	e9090000 	stmdb	r9, {}	; <UNPREDICTABLE>
    28b4:	0009820e 	andeq	r8, r9, lr, lsl #4
    28b8:	5c230200 	sfmpl	f0, 4, [r3], #-0
    28bc:	000f8e08 	andeq	r8, pc, r8, lsl #28
    28c0:	09ea0900 	stmibeq	sl!, {r8, fp}^
    28c4:	000000b9 	strheq	r0, [r0], -r9
    28c8:	00642302 	rsbeq	r2, r4, r2, lsl #6
    28cc:	00b9011e 	adcseq	r0, r9, lr, lsl r1
    28d0:	0d510000 	ldcleq	0, cr0, [r1, #-0]
    28d4:	511f0000 	tstpl	pc, r0
    28d8:	1f00000d 	svcne	0x0000000d
    28dc:	0000098e 	andeq	r0, r0, lr, lsl #19
    28e0:	000ed11f 	andeq	sp, lr, pc, lsl r1
    28e4:	00b91f00 	adcseq	r1, r9, r0, lsl #30
    28e8:	1b000000 	blne	28f0 <_Min_Stack_Size+0x24f0>
    28ec:	000d5c04 	andeq	r5, sp, r4, lsl #24
    28f0:	0d510400 	cfldrdeq	mvd0, [r1, #-0]
    28f4:	4a200000 	bmi	8028fc <_Min_Stack_Size+0x8024fc>
    28f8:	2800000f 	stmdacs	r0, {r0, r1, r2, r3}
    28fc:	02650904 	rsbeq	r0, r5, #4, 18	; 0x10000
    2900:	000ed108 	andeq	sp, lr, r8, lsl #2
    2904:	0bfc1400 	bleq	fff0790c <BootRAM+0xee780ad>
    2908:	67090000 	strvs	r0, [r9, -r0]
    290c:	00b90702 	adcseq	r0, r9, r2, lsl #14
    2910:	23020000 	movwcs	r0, #8192	; 0x2000
    2914:	0cac1400 	cfstrseq	mvf1, [ip]
    2918:	6c090000 	stcvs	0, cr0, [r9], {-0}
    291c:	0fc60b02 	svceq	0x00c60b02
    2920:	23020000 	movwcs	r0, #8192	; 0x2000
    2924:	0b331404 	bleq	cc793c <_Min_Stack_Size+0xcc753c>
    2928:	6c090000 	stcvs	0, cr0, [r9], {-0}
    292c:	0fc61402 	svceq	0x00c61402
    2930:	23020000 	movwcs	r0, #8192	; 0x2000
    2934:	0fc31408 	svceq	0x00c31408
    2938:	6c090000 	stcvs	0, cr0, [r9], {-0}
    293c:	0fc61e02 	svceq	0x00c61e02
    2940:	23020000 	movwcs	r0, #8192	; 0x2000
    2944:	0c2d140c 	cfstrseq	mvf1, [sp], #-48	; 0xffffffd0
    2948:	6e090000 	cdpvs	0, 0, cr0, cr9, cr0, {0}
    294c:	00b90802 	adcseq	r0, r9, r2, lsl #16
    2950:	23020000 	movwcs	r0, #8192	; 0x2000
    2954:	0c0f1410 	cfstrseq	mvf1, [pc], {16}
    2958:	6f090000 	svcvs	0x00090000
    295c:	11ff0802 	mvnsne	r0, r2, lsl #16
    2960:	23020000 	movwcs	r0, #8192	; 0x2000
    2964:	0af61414 	beq	ffd879bc <BootRAM+0xecf815d>
    2968:	72090000 	andvc	r0, r9, #0
    296c:	00b90702 	adcseq	r0, r9, r2, lsl #14
    2970:	23020000 	movwcs	r0, #8192	; 0x2000
    2974:	0f3a1430 	svceq	0x003a1430
    2978:	73090000 	movwvc	r0, #36864	; 0x9000
    297c:	12151602 	andsne	r1, r5, #2097152	; 0x200000
    2980:	23020000 	movwcs	r0, #8192	; 0x2000
    2984:	0ca11434 	cfstrseq	mvf1, [r1], #208	; 0xd0
    2988:	75090000 	strvc	r0, [r9, #-0]
    298c:	00b90702 	adcseq	r0, r9, r2, lsl #14
    2990:	23020000 	movwcs	r0, #8192	; 0x2000
    2994:	0cfc1438 	cfldrdeq	mvd1, [ip], #224	; 0xe0
    2998:	77090000 	strvc	r0, [r9, -r0]
    299c:	12270a02 	eorne	r0, r7, #8192	; 0x2000
    29a0:	23020000 	movwcs	r0, #8192	; 0x2000
    29a4:	0b6f143c 	bleq	1bc7a9c <_Min_Stack_Size+0x1bc769c>
    29a8:	7a090000 	bvc	2429b0 <_Min_Stack_Size+0x2425b0>
    29ac:	0a1a1302 	beq	6875bc <_Min_Stack_Size+0x6871bc>
    29b0:	23020000 	movwcs	r0, #8192	; 0x2000
    29b4:	0bc11440 	bleq	ff047abc <BootRAM+0xdfb825d>
    29b8:	7b090000 	blvc	2429c0 <_Min_Stack_Size+0x2425c0>
    29bc:	00b90702 	adcseq	r0, r9, r2, lsl #14
    29c0:	23020000 	movwcs	r0, #8192	; 0x2000
    29c4:	0c501444 	cfldrdeq	mvd1, [r0], {68}	; 0x44
    29c8:	7c090000 	stcvc	0, cr0, [r9], {-0}
    29cc:	0a1a1302 	beq	6875dc <_Min_Stack_Size+0x6871dc>
    29d0:	23020000 	movwcs	r0, #8192	; 0x2000
    29d4:	0ccf1448 	cfstrdeq	mvd1, [pc], {72}	; 0x48
    29d8:	7d090000 	stcvc	0, cr0, [r9, #-0]
    29dc:	122d1402 	eorne	r1, sp, #33554432	; 0x2000000
    29e0:	23020000 	movwcs	r0, #8192	; 0x2000
    29e4:	0e25144c 	cdpeq	4, 2, cr1, cr5, cr12, {2}
    29e8:	80090000 	andhi	r0, r9, r0
    29ec:	00b90702 	adcseq	r0, r9, r2, lsl #14
    29f0:	23020000 	movwcs	r0, #8192	; 0x2000
    29f4:	0e841450 	mcreq	4, 4, r1, cr4, cr0, {2}
    29f8:	81090000 	mrshi	r0, (UNDEF: 9)
    29fc:	0ed10902 	vfnmseq.f16	s1, s2, s4	; <UNPREDICTABLE>
    2a00:	23020000 	movwcs	r0, #8192	; 0x2000
    2a04:	0b2e1454 	bleq	b87b5c <_Min_Stack_Size+0xb8775c>
    2a08:	a4090000 	strge	r0, [r9], #-0
    2a0c:	11da0702 	bicsne	r0, sl, r2, lsl #14
    2a10:	23020000 	movwcs	r0, #8192	; 0x2000
    2a14:	0d6d1458 	cfstrdeq	mvd1, [sp, #-352]!	; 0xfffffea0
    2a18:	a8090000 	stmdage	r9, {}	; <UNPREDICTABLE>
    2a1c:	0b6f1302 	bleq	1bc762c <_Min_Stack_Size+0x1bc722c>
    2a20:	23030000 	movwcs	r0, #12288	; 0x3000
    2a24:	af1402c8 	svcge	0x001402c8
    2a28:	0900000f 	stmdbeq	r0, {r0, r1, r2, r3}
    2a2c:	231202a9 	tstcs	r2, #-1879048182	; 0x9000000a
    2a30:	0300000b 	movweq	r0, #11
    2a34:	1402cc23 	strne	ip, [r2], #-3107	; 0xfffff3dd
    2a38:	00000c6c 	andeq	r0, r0, ip, ror #24
    2a3c:	0c02ad09 	stceq	13, cr10, [r2], {9}
    2a40:	0000123f 	andeq	r1, r0, pc, lsr r2
    2a44:	05dc2303 	ldrbeq	r2, [ip, #771]	; 0x303
    2a48:	000f1714 	andeq	r1, pc, r4, lsl r7	; <UNPREDICTABLE>
    2a4c:	02b20900 	adcseq	r0, r2, #0, 18
    2a50:	000f8110 	andeq	r8, pc, r0, lsl r1	; <UNPREDICTABLE>
    2a54:	e0230300 	eor	r0, r3, r0, lsl #6
    2a58:	0d991405 	cfldrseq	mvf1, [r9, #20]
    2a5c:	b4090000 	strlt	r0, [r9], #-0
    2a60:	124b0a02 	subne	r0, fp, #8192	; 0x2000
    2a64:	23030000 	movwcs	r0, #12288	; 0x3000
    2a68:	1b0005ec 	blne	4220 <_Min_Stack_Size+0x3e20>
    2a6c:	000ed704 	andeq	sp, lr, r4, lsl #14
    2a70:	08010200 	stmdaeq	r1, {r9}
    2a74:	00000286 	andeq	r0, r0, r6, lsl #5
    2a78:	000ed704 	andeq	sp, lr, r4, lsl #14
    2a7c:	32041b00 	andcc	r1, r4, #0, 22
    2a80:	1e00000d 	cdpne	0, 0, cr0, cr0, cr13, {0}
    2a84:	0000b901 	andeq	fp, r0, r1, lsl #18
    2a88:	000f0800 	andeq	r0, pc, r0, lsl #16
    2a8c:	0d511f00 	ldcleq	15, cr1, [r1, #-0]
    2a90:	8e1f0000 	cdphi	0, 1, cr0, cr15, cr0, {0}
    2a94:	1f000009 	svcne	0x00000009
    2a98:	00000f08 	andeq	r0, r0, r8, lsl #30
    2a9c:	0000b91f 	andeq	fp, r0, pc, lsl r9
    2aa0:	041b0000 	ldreq	r0, [fp], #-0
    2aa4:	00000ede 	ldrdeq	r0, [r0], -lr
    2aa8:	0ee9041b 	mcreq	4, 7, r0, cr9, cr11, {0}
    2aac:	011e0000 	tsteq	lr, r0
    2ab0:	0000091c 	andeq	r0, r0, ip, lsl r9
    2ab4:	00000f33 	andeq	r0, r0, r3, lsr pc
    2ab8:	000d511f 	andeq	r5, sp, pc, lsl r1
    2abc:	098e1f00 	stmibeq	lr, {r8, r9, sl, fp, ip}
    2ac0:	1c1f0000 	ldcne	0, cr0, [pc], {-0}
    2ac4:	1f000009 	svcne	0x00000009
    2ac8:	000000b9 	strheq	r0, [r0], -r9
    2acc:	14041b00 	strne	r1, [r4], #-2816	; 0xfffff500
    2ad0:	1e00000f 	cdpne	0, 0, cr0, cr0, cr15, {0}
    2ad4:	0000b901 	andeq	fp, r0, r1, lsl #18
    2ad8:	000f4e00 	andeq	r4, pc, r0, lsl #28
    2adc:	0d511f00 	ldcleq	15, cr1, [r1, #-0]
    2ae0:	8e1f0000 	cdphi	0, 1, cr0, cr15, cr0, {0}
    2ae4:	00000009 	andeq	r0, r0, r9
    2ae8:	0f39041b 	svceq	0x0039041b
    2aec:	7b0e0000 	blvc	382af4 <_Min_Stack_Size+0x3826f4>
    2af0:	64000000 	strvs	r0, [r0], #-0
    2af4:	0f00000f 	svceq	0x0000000f
    2af8:	00000025 	andeq	r0, r0, r5, lsr #32
    2afc:	7b0e0002 	blvc	382b0c <_Min_Stack_Size+0x38270c>
    2b00:	74000000 	strvc	r0, [r0], #-0
    2b04:	0f00000f 	svceq	0x0000000f
    2b08:	00000025 	andeq	r0, r0, r5, lsr #32
    2b0c:	77160000 	ldrvc	r0, [r6, -r0]
    2b10:	0900000b 	stmdbeq	r0, {r0, r1, r3}
    2b14:	bf1a0124 	svclt	0x001a0124
    2b18:	2100000b 	tstcs	r0, fp
    2b1c:	00000f11 	andeq	r0, r0, r1, lsl pc
    2b20:	0128090c 			; <UNDEFINED> instruction: 0x0128090c
    2b24:	000fc008 	andeq	ip, pc, r8
    2b28:	0fa91400 	svceq	0x00a91400
    2b2c:	2a090000 	bcs	242b34 <_Min_Stack_Size+0x242734>
    2b30:	0fc01101 	svceq	0x00c01101
    2b34:	23020000 	movwcs	r0, #8192	; 0x2000
    2b38:	0e711400 	cdpeq	4, 7, cr1, cr1, cr0, {0}
    2b3c:	2b090000 	blcs	242b44 <_Min_Stack_Size+0x242744>
    2b40:	00b90701 	adcseq	r0, r9, r1, lsl #14
    2b44:	23020000 	movwcs	r0, #8192	; 0x2000
    2b48:	0c941404 	cfldrseq	mvf1, [r4], {4}
    2b4c:	2c090000 	stccs	0, cr0, [r9], {-0}
    2b50:	0fc60b01 	svceq	0x00c60b01
    2b54:	23020000 	movwcs	r0, #8192	; 0x2000
    2b58:	041b0008 	ldreq	r0, [fp], #-8
    2b5c:	00000f81 	andeq	r0, r0, r1, lsl #31
    2b60:	0f74041b 	svceq	0x0074041b
    2b64:	b9210000 	stmdblt	r1!, {}	; <UNPREDICTABLE>
    2b68:	0e00000b 	cdpeq	0, 0, cr0, cr0, cr11, {0}
    2b6c:	08014409 	stmdaeq	r1, {r0, r3, sl, lr}
    2b70:	0000100b 	andeq	r1, r0, fp
    2b74:	000f9e14 	andeq	r9, pc, r4, lsl lr	; <UNPREDICTABLE>
    2b78:	01450900 	cmpeq	r5, r0, lsl #18
    2b7c:	00100b12 	andseq	r0, r0, r2, lsl fp
    2b80:	00230200 	eoreq	r0, r3, r0, lsl #4
    2b84:	000cd914 	andeq	sp, ip, r4, lsl r9
    2b88:	01460900 	cmpeq	r6, r0, lsl #18
    2b8c:	00100b12 	andseq	r0, r0, r2, lsl fp
    2b90:	06230200 	strteq	r0, [r3], -r0, lsl #4
    2b94:	000b8d14 	andeq	r8, fp, r4, lsl sp
    2b98:	01470900 	cmpeq	r7, r0, lsl #18
    2b9c:	00009312 	andeq	r9, r0, r2, lsl r3
    2ba0:	0c230200 	sfmeq	f0, 4, [r3], #-0
    2ba4:	00930e00 	addseq	r0, r3, r0, lsl #28
    2ba8:	101b0000 	andsne	r0, fp, r0
    2bac:	250f0000 	strcs	r0, [pc, #-0]	; 2bb4 <_Min_Stack_Size+0x27b4>
    2bb0:	02000000 	andeq	r0, r0, #0
    2bb4:	09d01300 	ldmibeq	r0, {r8, r9, ip}^
    2bb8:	5f070285 	svcpl	0x00070285
    2bbc:	14000011 	strne	r0, [r0], #-17	; 0xffffffef
    2bc0:	00000f79 	andeq	r0, r0, r9, ror pc
    2bc4:	18028709 	stmdane	r2, {r0, r3, r8, r9, sl, pc}
    2bc8:	00000025 	andeq	r0, r0, r5, lsr #32
    2bcc:	14002302 	strne	r2, [r0], #-770	; 0xfffffcfe
    2bd0:	00000f1f 	andeq	r0, r0, pc, lsl pc
    2bd4:	12028809 	andne	r8, r2, #589824	; 0x90000
    2bd8:	00000ed1 	ldrdeq	r0, [r0], -r1
    2bdc:	14042302 	strne	r2, [r4], #-770	; 0xfffffcfe
    2be0:	00000be0 	andeq	r0, r0, r0, ror #23
    2be4:	10028909 	andne	r8, r2, r9, lsl #18
    2be8:	0000115f 	andeq	r1, r0, pc, asr r1
    2bec:	14082302 	strne	r2, [r8], #-770	; 0xfffffcfe
    2bf0:	00000df5 	strdeq	r0, [r0], -r5
    2bf4:	17028a09 	strne	r8, [r2, -r9, lsl #20]
    2bf8:	00000a30 	andeq	r0, r0, r0, lsr sl
    2bfc:	14242302 	strtne	r2, [r4], #-770	; 0xfffffcfe
    2c00:	00000cb3 			; <UNDEFINED> instruction: 0x00000cb3
    2c04:	0f028b09 	svceq	0x00028b09
    2c08:	000000b9 	strheq	r0, [r0], -r9
    2c0c:	14482302 	strbne	r2, [r8], #-770	; 0xfffffcfe
    2c10:	00000fa4 	andeq	r0, r0, r4, lsr #31
    2c14:	2c028c09 	stccs	12, cr8, [r2], {9}
    2c18:	000000b2 	strheq	r0, [r0], -r2
    2c1c:	14502302 	ldrbne	r2, [r0], #-770	; 0xfffffcfe
    2c20:	00000a77 	andeq	r0, r0, r7, ror sl
    2c24:	1a028d09 	bne	a6050 <_Min_Stack_Size+0xa5c50>
    2c28:	00000fcc 	andeq	r0, r0, ip, asr #31
    2c2c:	14582302 	ldrbne	r2, [r8], #-770	; 0xfffffcfe
    2c30:	00000c55 	andeq	r0, r0, r5, asr ip
    2c34:	16028e09 	strne	r8, [r2], -r9, lsl #28
    2c38:	00000982 	andeq	r0, r0, r2, lsl #19
    2c3c:	14682302 	strbtne	r2, [r8], #-770	; 0xfffffcfe
    2c40:	00000f2c 	andeq	r0, r0, ip, lsr #30
    2c44:	16028f09 	strne	r8, [r2], -r9, lsl #30
    2c48:	00000982 	andeq	r0, r0, r2, lsl #19
    2c4c:	14702302 	ldrbtne	r2, [r0], #-770	; 0xfffffcfe
    2c50:	00000a69 	andeq	r0, r0, r9, ror #20
    2c54:	16029009 	strne	r9, [r2], -r9
    2c58:	00000982 	andeq	r0, r0, r2, lsl #19
    2c5c:	14782302 	ldrbtne	r2, [r8], #-770	; 0xfffffcfe
    2c60:	00000e35 	andeq	r0, r0, r5, lsr lr
    2c64:	10029109 	andne	r9, r2, r9, lsl #2
    2c68:	0000116f 	andeq	r1, r0, pc, ror #2
    2c6c:	01802303 	orreq	r2, r0, r3, lsl #6
    2c70:	000a7c14 	andeq	r7, sl, r4, lsl ip
    2c74:	02920900 	addseq	r0, r2, #0, 18
    2c78:	00117f10 	andseq	r7, r1, r0, lsl pc
    2c7c:	88230300 	stmdahi	r3!, {r8, r9}
    2c80:	0e961401 	cdpeq	4, 9, cr1, cr6, cr1, {0}
    2c84:	93090000 	movwls	r0, #36864	; 0x9000
    2c88:	00b90f02 	adcseq	r0, r9, r2, lsl #30
    2c8c:	23030000 	movwcs	r0, #12288	; 0x3000
    2c90:	0f1401a0 	svceq	0x001401a0
    2c94:	0900000b 	stmdbeq	r0, {r0, r1, r3}
    2c98:	82160294 	andshi	r0, r6, #148, 4	; 0x40000009
    2c9c:	03000009 	movweq	r0, #9
    2ca0:	1401a423 	strne	sl, [r1], #-1059	; 0xfffffbdd
    2ca4:	00000c76 	andeq	r0, r0, r6, ror ip
    2ca8:	16029509 	strne	r9, [r2], -r9, lsl #10
    2cac:	00000982 	andeq	r0, r0, r2, lsl #19
    2cb0:	01ac2303 			; <UNDEFINED> instruction: 0x01ac2303
    2cb4:	000c3214 	andeq	r3, ip, r4, lsl r2
    2cb8:	02960900 	addseq	r0, r6, #0, 18
    2cbc:	00098216 	andeq	r8, r9, r6, lsl r2
    2cc0:	b4230300 	strtlt	r0, [r3], #-768	; 0xfffffd00
    2cc4:	0ce71401 	cfstrdeq	mvd1, [r7], #4
    2cc8:	97090000 	strls	r0, [r9, -r0]
    2ccc:	09821602 	stmibeq	r2, {r1, r9, sl, ip}
    2cd0:	23030000 	movwcs	r0, #12288	; 0x3000
    2cd4:	1c1401bc 	ldfnes	f0, [r4], {188}	; 0xbc
    2cd8:	0900000d 	stmdbeq	r0, {r0, r2, r3}
    2cdc:	82160298 	andshi	r0, r6, #152, 4	; 0x80000009
    2ce0:	03000009 	movweq	r0, #9
    2ce4:	1401c423 	strne	ip, [r1], #-1059	; 0xfffffbdd
    2ce8:	00000bfa 	strdeq	r0, [r0], -sl
    2cec:	08029909 	stmdaeq	r2, {r0, r3, r8, fp, ip, pc}
    2cf0:	000000b9 	strheq	r0, [r0], -r9
    2cf4:	01cc2303 	biceq	r2, ip, r3, lsl #6
    2cf8:	0ed70e00 	cdpeq	14, 13, cr0, cr7, cr0, {0}
    2cfc:	116f0000 	cmnne	pc, r0
    2d00:	250f0000 	strcs	r0, [pc, #-0]	; 2d08 <_Min_Stack_Size+0x2908>
    2d04:	19000000 	stmdbne	r0, {}	; <UNPREDICTABLE>
    2d08:	0ed70e00 	cdpeq	14, 13, cr0, cr7, cr0, {0}
    2d0c:	117f0000 	cmnne	pc, r0
    2d10:	250f0000 	strcs	r0, [pc, #-0]	; 2d18 <_Min_Stack_Size+0x2918>
    2d14:	07000000 	streq	r0, [r0, -r0]
    2d18:	0ed70e00 	cdpeq	14, 13, cr0, cr7, cr0, {0}
    2d1c:	118f0000 	orrne	r0, pc, r0
    2d20:	250f0000 	strcs	r0, [pc, #-0]	; 2d28 <_Min_Stack_Size+0x2928>
    2d24:	17000000 	strne	r0, [r0, -r0]
    2d28:	09f01300 	ldmibeq	r0!, {r8, r9, ip}^
    2d2c:	ba07029e 	blt	1c37ac <_Min_Stack_Size+0x1c33ac>
    2d30:	14000011 	strne	r0, [r0], #-17	; 0xffffffef
    2d34:	00000cc2 	andeq	r0, r0, r2, asr #25
    2d38:	1b02a109 	blne	ab164 <_Min_Stack_Size+0xaad64>
    2d3c:	000011ba 			; <UNDEFINED> instruction: 0x000011ba
    2d40:	14002302 	strne	r2, [r0], #-770	; 0xfffffcfe
    2d44:	00000a9f 	muleq	r0, pc, sl	; <UNPREDICTABLE>
    2d48:	1802a209 	stmdane	r2, {r0, r3, r9, sp, pc}
    2d4c:	000011ca 	andeq	r1, r0, sl, asr #3
    2d50:	00782302 	rsbseq	r2, r8, r2, lsl #6
    2d54:	000bb90e 	andeq	fp, fp, lr, lsl #18
    2d58:	0011ca00 	andseq	ip, r1, r0, lsl #20
    2d5c:	00250f00 	eoreq	r0, r5, r0, lsl #30
    2d60:	001d0000 	andseq	r0, sp, r0
    2d64:	0000250e 	andeq	r2, r0, lr, lsl #10
    2d68:	0011da00 	andseq	sp, r1, r0, lsl #20
    2d6c:	00250f00 	eoreq	r0, r5, r0, lsl #30
    2d70:	001d0000 	andseq	r0, sp, r0
    2d74:	8309f022 	movwhi	pc, #36898	; 0x9022	; <UNPREDICTABLE>
    2d78:	11ff0302 	mvnsne	r0, r2, lsl #6
    2d7c:	4a230000 	bmi	8c2d84 <_Min_Stack_Size+0x8c2984>
    2d80:	0900000f 	stmdbeq	r0, {r0, r1, r2, r3}
    2d84:	1b0b029a 	blne	2c37f4 <_Min_Stack_Size+0x2c33f4>
    2d88:	23000010 	movwcs	r0, #16
    2d8c:	00000e1d 	andeq	r0, r0, sp, lsl lr
    2d90:	0b02a309 	bleq	ab9bc <_Min_Stack_Size+0xab5bc>
    2d94:	0000118f 	andeq	r1, r0, pc, lsl #3
    2d98:	0ed70e00 	cdpeq	14, 13, cr0, cr7, cr0, {0}
    2d9c:	120f0000 	andne	r0, pc, #0
    2da0:	250f0000 	strcs	r0, [pc, #-0]	; 2da8 <_Min_Stack_Size+0x29a8>
    2da4:	18000000 	stmdane	r0, {}	; <UNPREDICTABLE>
    2da8:	0fb82400 	svceq	0x00b82400
    2dac:	1b010000 	blne	42db4 <_Min_Stack_Size+0x429b4>
    2db0:	00120f04 	andseq	r0, r2, r4, lsl #30
    2db4:	27012500 	strcs	r2, [r1, -r0, lsl #10]
    2db8:	1f000012 	svcne	0x00000012
    2dbc:	00000d51 	andeq	r0, r0, r1, asr sp
    2dc0:	1b041b00 	blne	1099c8 <_Min_Stack_Size+0x1095c8>
    2dc4:	1b000012 	blne	2e14 <_Min_Stack_Size+0x2a14>
    2dc8:	000a1a04 	andeq	r1, sl, r4, lsl #20
    2dcc:	3f012500 	svccc	0x00012500
    2dd0:	1f000012 	svcne	0x00000012
    2dd4:	000000b9 	strheq	r0, [r0], -r9
    2dd8:	45041b00 	strmi	r1, [r4, #-2816]	; 0xfffff500
    2ddc:	1b000012 	blne	2e2c <_Min_Stack_Size+0x2a2c>
    2de0:	00123304 	andseq	r3, r2, r4, lsl #6
    2de4:	0f740e00 	svceq	0x00740e00
    2de8:	125b0000 	subsne	r0, fp, #0
    2dec:	250f0000 	strcs	r0, [pc, #-0]	; 2df4 <_Min_Stack_Size+0x29f4>
    2df0:	02000000 	andeq	r0, r0, #0
    2df4:	0db81100 	ldfeqs	f1, [r8]
    2df8:	33090000 	movwcc	r0, #36864	; 0x9000
    2dfc:	0d511703 	ldcleq	7, cr1, [r1, #-12]
    2e00:	01010000 	mrseq	r0, (UNDEF: 1)
    2e04:	000db111 	andeq	fp, sp, r1, lsl r1
    2e08:	03340900 	teqeq	r4, #0, 18
    2e0c:	000d571d 	andeq	r5, sp, sp, lsl r7
    2e10:	0e010100 	adfeqs	f0, f1, f0
    2e14:	00000076 	andeq	r0, r0, r6, ror r0
    2e18:	00001289 	andeq	r1, r0, r9, lsl #5
    2e1c:	0000250f 	andeq	r2, r0, pc, lsl #10
    2e20:	04001100 	streq	r1, [r0], #-256	; 0xffffff00
    2e24:	00001279 	andeq	r1, r0, r9, ror r2
    2e28:	000ea326 	andeq	sl, lr, r6, lsr #6
    2e2c:	16130100 	ldrne	r0, [r3], -r0, lsl #2
    2e30:	00001289 	andeq	r1, r0, r9, lsl #5
    2e34:	0dde0305 	ldcleq	3, cr0, [lr, #20]
    2e38:	760e0800 	strvc	r0, [lr], -r0, lsl #16
    2e3c:	b0000000 	andlt	r0, r0, r0
    2e40:	0f000012 	svceq	0x00000012
    2e44:	00000025 	andeq	r0, r0, r5, lsr #32
    2e48:	a0040009 	andge	r0, r4, r9
    2e4c:	26000012 			; <UNDEFINED> instruction: 0x26000012
    2e50:	00000e53 	andeq	r0, r0, r3, asr lr
    2e54:	b0162601 	andslt	r2, r6, r1, lsl #12
    2e58:	05000012 	streq	r0, [r0, #-18]	; 0xffffffee
    2e5c:	000eb003 	andeq	fp, lr, r3
    2e60:	00760e08 	rsbseq	r0, r6, r8, lsl #28
    2e64:	12d70000 	sbcsne	r0, r7, #0
    2e68:	250f0000 	strcs	r0, [pc, #-0]	; 2e70 <_Min_Stack_Size+0x2a70>
    2e6c:	bf000000 	svclt	0x00000000
    2e70:	12c70400 	sbcne	r0, r7, #0, 8
    2e74:	cb260000 	blgt	982e7c <_Min_Stack_Size+0x982a7c>
    2e78:	0100000b 	tsteq	r0, fp
    2e7c:	12d71636 	sbcsne	r1, r7, #56623104	; 0x3600000
    2e80:	03050000 	movweq	r0, #20480	; 0x5000
    2e84:	08000df0 	stmdaeq	r0, {r4, r5, r6, r7, r8, sl, fp}
    2e88:	000e0421 	andeq	r0, lr, r1, lsr #8
    2e8c:	1a010400 	bne	43e94 <_Min_Stack_Size+0x43a94>
    2e90:	132d0101 			; <UNDEFINED> instruction: 0x132d0101
    2e94:	86140000 	ldrhi	r0, [r4], -r0
    2e98:	0100000f 	tsteq	r0, pc
    2e9c:	6501011a 	strvs	r0, [r1, #-282]	; 0xfffffee6
    2ea0:	02000000 	andeq	r0, r0, #0
    2ea4:	df140023 	svcle	0x00140023
    2ea8:	0100000e 	tsteq	r0, lr
    2eac:	6501011a 	strvs	r0, [r1, #-282]	; 0xfffffee6
    2eb0:	02000000 	andeq	r0, r0, #0
    2eb4:	91140123 	tstls	r4, r3, lsr #2
    2eb8:	0100000d 	tsteq	r0, sp
    2ebc:	3201011a 	andcc	r0, r1, #-2147483642	; 0x80000006
    2ec0:	02000013 	andeq	r0, r0, #19
    2ec4:	04000223 	streq	r0, [r0], #-547	; 0xfffffddd
    2ec8:	000012ee 	andeq	r1, r0, lr, ror #5
    2ecc:	0000820e 	andeq	r8, r0, lr, lsl #4
    2ed0:	00134200 	andseq	r4, r3, r0, lsl #4
    2ed4:	00250f00 	eoreq	r0, r5, r0, lsl #30
    2ed8:	00000000 	andeq	r0, r0, r0
    2edc:	000e0427 	andeq	r0, lr, r7, lsr #8
    2ee0:	011a0100 	tsteq	sl, r0, lsl #2
    2ee4:	00132d01 	andseq	r2, r3, r1, lsl #26
    2ee8:	ba030500 	blt	c42f0 <_Min_Stack_Size+0xc3ef0>
    2eec:	2108000e 	tstcs	r8, lr
    2ef0:	00000eef 	andeq	r0, r0, pc, ror #29
    2ef4:	011b0116 	tsteq	fp, r6, lsl r1
    2ef8:	00139401 	andseq	r9, r3, r1, lsl #8
    2efc:	0f861400 	svceq	0x00861400
    2f00:	1b010000 	blne	42f08 <_Min_Stack_Size+0x42b08>
    2f04:	00650101 	rsbeq	r0, r5, r1, lsl #2
    2f08:	23020000 	movwcs	r0, #8192	; 0x2000
    2f0c:	0edf1400 	cdpeq	4, 13, cr1, cr15, cr0, {0}
    2f10:	1b010000 	blne	42f18 <_Min_Stack_Size+0x42b18>
    2f14:	00650101 	rsbeq	r0, r5, r1, lsl #2
    2f18:	23020000 	movwcs	r0, #8192	; 0x2000
    2f1c:	0d911401 	cfldrseq	mvf1, [r1, #4]
    2f20:	1b010000 	blne	42f28 <_Min_Stack_Size+0x42b28>
    2f24:	13990101 	orrsne	r0, r9, #1073741824	; 0x40000000
    2f28:	23020000 	movwcs	r0, #8192	; 0x2000
    2f2c:	55040002 	strpl	r0, [r4, #-2]
    2f30:	0e000013 	mcreq	0, 0, r0, cr0, cr3, {0}
    2f34:	00000082 	andeq	r0, r0, r2, lsl #1
    2f38:	000013a9 	andeq	r1, r0, r9, lsr #7
    2f3c:	0000250f 	andeq	r2, r0, pc, lsl #10
    2f40:	27000900 	strcs	r0, [r0, -r0, lsl #18]
    2f44:	00000eef 	andeq	r0, r0, pc, ror #29
    2f48:	01011b01 	tsteq	r1, r1, lsl #22
    2f4c:	00001394 	muleq	r0, r4, r3
    2f50:	0ebe0305 	cdpeq	3, 11, cr0, cr14, cr5, {0}
    2f54:	51210800 			; <UNDEFINED> instruction: 0x51210800
    2f58:	1400000f 	strne	r0, [r0], #-15
    2f5c:	01011c01 	tsteq	r1, r1, lsl #24
    2f60:	000013fb 	strdeq	r1, [r0], -fp
    2f64:	000f8614 	andeq	r8, pc, r4, lsl r6	; <UNPREDICTABLE>
    2f68:	011c0100 	tsteq	ip, r0, lsl #2
    2f6c:	00006501 	andeq	r6, r0, r1, lsl #10
    2f70:	00230200 	eoreq	r0, r3, r0, lsl #4
    2f74:	000edf14 	andeq	sp, lr, r4, lsl pc
    2f78:	011c0100 	tsteq	ip, r0, lsl #2
    2f7c:	00006501 	andeq	r6, r0, r1, lsl #10
    2f80:	01230200 			; <UNDEFINED> instruction: 0x01230200
    2f84:	000d9114 	andeq	r9, sp, r4, lsl r1
    2f88:	011c0100 	tsteq	ip, r0, lsl #2
    2f8c:	00140001 	andseq	r0, r4, r1
    2f90:	02230200 	eoreq	r0, r3, #0, 4
    2f94:	13bc0400 			; <UNDEFINED> instruction: 0x13bc0400
    2f98:	820e0000 	andhi	r0, lr, #0
    2f9c:	10000000 	andne	r0, r0, r0
    2fa0:	0f000014 	svceq	0x00000014
    2fa4:	00000025 	andeq	r0, r0, r5, lsr #32
    2fa8:	51270008 			; <UNDEFINED> instruction: 0x51270008
    2fac:	0100000f 	tsteq	r0, pc
    2fb0:	fb01011c 	blx	4342a <_Min_Stack_Size+0x4302a>
    2fb4:	05000013 	streq	r0, [r0, #-19]	; 0xffffffed
    2fb8:	000ed403 	andeq	sp, lr, r3, lsl #8
    2fbc:	0dda2108 	ldfeqe	f2, [sl, #32]
    2fc0:	01040000 	mrseq	r0, (UNDEF: 4)
    2fc4:	6201011d 	andvs	r0, r1, #1073741831	; 0x40000007
    2fc8:	14000014 	strne	r0, [r0], #-20	; 0xffffffec
    2fcc:	00000f86 	andeq	r0, r0, r6, lsl #31
    2fd0:	01011d01 	tsteq	r1, r1, lsl #26
    2fd4:	00000065 	andeq	r0, r0, r5, rrx
    2fd8:	14002302 	strne	r2, [r0], #-770	; 0xfffffcfe
    2fdc:	00000edf 	ldrdeq	r0, [r0], -pc	; <UNPREDICTABLE>
    2fe0:	01011d01 	tsteq	r1, r1, lsl #26
    2fe4:	00000065 	andeq	r0, r0, r5, rrx
    2fe8:	14012302 	strne	r2, [r1], #-770	; 0xfffffcfe
    2fec:	00000d91 	muleq	r0, r1, sp
    2ff0:	01011d01 	tsteq	r1, r1, lsl #26
    2ff4:	00001332 	andeq	r1, r0, r2, lsr r3
    2ff8:	00022302 	andeq	r2, r2, r2, lsl #6
    2ffc:	00142304 	andseq	r2, r4, r4, lsl #6
    3000:	0dda2700 	ldcleq	7, cr2, [sl]
    3004:	1d010000 	stcne	0, cr0, [r1, #-0]
    3008:	14620101 	strbtne	r0, [r2], #-257	; 0xfffffeff
    300c:	03050000 	movweq	r0, #20480	; 0x5000
    3010:	08000ee8 	stmdaeq	r0, {r3, r5, r6, r7, r9, sl, fp}
    3014:	0000650e 	andeq	r6, r0, lr, lsl #10
    3018:	00148a00 	andseq	r8, r4, r0, lsl #20
    301c:	00250f00 	eoreq	r0, r5, r0, lsl #30
    3020:	00020000 	andeq	r0, r2, r0
    3024:	000d7a28 	andeq	r7, sp, r8, lsr #20
    3028:	01450100 	mrseq	r0, (UNDEF: 85)
    302c:	00147a09 	andseq	r7, r4, r9, lsl #20
    3030:	03050100 	movweq	r0, #20736	; 0x5100
    3034:	20000018 	andcs	r0, r0, r8, lsl r0
    3038:	0004f428 	andeq	pc, r4, r8, lsr #8
    303c:	016c0100 	cmneq	ip, r0, lsl #2
    3040:	00008e13 	andeq	r8, r0, r3, lsl lr
    3044:	03050100 	movweq	r0, #20736	; 0x5100
    3048:	2000001c 	andcs	r0, r0, ip, lsl r0
    304c:	00f00129 	rscseq	r0, r0, r9, lsr #2
    3050:	98010000 	stmdals	r1, {}	; <UNPREDICTABLE>
    3054:	0bb80601 	bleq	fee04860 <BootRAM+0xdd75001>
    3058:	0bd80800 	bleq	ff605060 <BootRAM+0xe575801>
    305c:	7d020800 	stcvc	8, cr0, [r2, #-0]
    3060:	012a0100 			; <UNDEFINED> instruction: 0x012a0100
    3064:	000006b4 			; <UNDEFINED> instruction: 0x000006b4
    3068:	06018a01 	streq	r8, [r1], -r1, lsl #20
    306c:	08000b5c 	stmdaeq	r0, {r2, r3, r4, r6, r8, r9, fp}
    3070:	08000bb8 	stmdaeq	r0, {r3, r4, r5, r7, r8, r9, fp}
    3074:	00000e90 	muleq	r0, r0, lr
    3078:	00155301 	andseq	r5, r5, r1, lsl #6
    307c:	19f82b00 	ldmibne	r8!, {r8, r9, fp, sp}^
    3080:	0b9e0000 	bleq	fe783088 <BootRAM+0xd6f3829>
    3084:	98010800 	stmdals	r1, {fp}
    3088:	01000001 	tsteq	r0, r1
    308c:	07030194 			; <UNDEFINED> instruction: 0x07030194
    3090:	2c000015 	stccs	0, cr0, [r0], {21}
    3094:	00001a07 	andeq	r1, r0, r7, lsl #20
    3098:	00000eb2 			; <UNDEFINED> instruction: 0x00000eb2
    309c:	00000eb0 			; <UNDEFINED> instruction: 0x00000eb0
    30a0:	0b6a2d00 	bleq	1a8e4a8 <_Min_Stack_Size+0x1a8e0a8>
    30a4:	1a150800 	bne	5450ac <_Min_Stack_Size+0x544cac>
    30a8:	152e0000 	strne	r0, [lr, #-0]!
    30ac:	012e0000 			; <UNDEFINED> instruction: 0x012e0000
    30b0:	2e310150 	mrccs	1, 1, r0, cr1, cr0, {2}
    30b4:	31015101 	tstcc	r1, r1, lsl #2
    30b8:	0252012e 	subseq	r0, r2, #-2147483637	; 0x8000000b
    30bc:	012e4008 			; <UNDEFINED> instruction: 0x012e4008
    30c0:	85030553 	strhi	r0, [r3, #-1363]	; 0xfffffaad
    30c4:	00080009 	andeq	r0, r8, r9
    30c8:	000b762f 	andeq	r7, fp, pc, lsr #12
    30cc:	001a1508 	andseq	r1, sl, r8, lsl #10
    30d0:	50012e00 	andpl	r2, r1, r0, lsl #28
    30d4:	2e820902 	vdivcs.f16	s0, s4, s4	; <UNPREDICTABLE>
    30d8:	31015101 	tstcc	r1, r1, lsl #2
    30dc:	0252012e 	subseq	r0, r2, #-2147483637	; 0x8000000b
    30e0:	012e4008 			; <UNDEFINED> instruction: 0x012e4008
    30e4:	a5030553 	strge	r0, [r3, #-1363]	; 0xfffffaad
    30e8:	0008000a 	andeq	r0, r8, sl
    30ec:	32012900 	andcc	r2, r1, #0, 18
    30f0:	0100000d 	tsteq	r0, sp
    30f4:	28060180 	stmdacs	r6, {r7, r8}
    30f8:	5c08000b 	stcpl	0, cr0, [r8], {11}
    30fc:	0208000b 	andeq	r0, r8, #11
    3100:	3001007d 	andcc	r0, r1, sp, ror r0
    3104:	000ece01 	andeq	ip, lr, r1, lsl #28
    3108:	016d0100 	cmneq	sp, r0, lsl #2
    310c:	0aa40106 	beq	fe90352c <BootRAM+0xd873ccd>
    3110:	0b280800 	bleq	a05118 <_Min_Stack_Size+0xa04d18>
    3114:	0ec60800 	cdpeq	8, 12, cr0, cr6, cr0, {0}
    3118:	72010000 	andvc	r0, r1, #0
    311c:	31000016 	tstcc	r0, r6, lsl r0
    3120:	000008cc 	andeq	r0, r0, ip, asr #17
    3124:	1f016d01 	svcne	0x00016d01
    3128:	00000065 	andeq	r0, r0, r5, rrx
    312c:	00000f10 	andeq	r0, r0, r0, lsl pc
    3130:	00000f0c 	andeq	r0, r0, ip, lsl #30
    3134:	66756232 			; <UNDEFINED> instruction: 0x66756232
    3138:	016e0100 	cmneq	lr, r0, lsl #2
    313c:	0016720b 	andseq	r7, r6, fp, lsl #4
    3140:	e0910300 	adds	r0, r1, r0, lsl #6
    3144:	0a62337e 	beq	188ff44 <_Min_Stack_Size+0x188fb44>
    3148:	6f010000 	svcvs	0x00010000
    314c:	00650b01 	rsbeq	r0, r5, r1, lsl #22
    3150:	0f370000 	svceq	0x00370000
    3154:	0f310000 	svceq	0x00310000
    3158:	63320000 	teqvs	r2, #0
    315c:	0100746e 	tsteq	r0, lr, ror #8
    3160:	4b120175 	blmi	48373c <_Min_Stack_Size+0x48333c>
    3164:	05000000 	streq	r0, [r0, #-0]
    3168:	00002003 	andeq	r2, r0, r3
    316c:	01483420 	cmpeq	r8, r0, lsr #8
    3170:	160c0000 	strne	r0, [ip], -r0
    3174:	69350000 	ldmdbvs	r5!, {}	; <UNPREDICTABLE>
    3178:	01760100 	cmneq	r6, r0, lsl #2
    317c:	0000650f 	andeq	r6, r0, pc, lsl #10
    3180:	000f6400 	andeq	r6, pc, r0, lsl #8
    3184:	000f6000 	andeq	r6, pc, r0
    3188:	0b042f00 	bleq	10ed90 <_Min_Stack_Size+0x10e990>
    318c:	17570800 	ldrbne	r0, [r7, -r0, lsl #16]
    3190:	012e0000 			; <UNDEFINED> instruction: 0x012e0000
    3194:	00780e50 	rsbseq	r0, r8, r0, asr lr
    3198:	f71e0076 			; <UNDEFINED> instruction: 0xf71e0076
    319c:	f7007925 			; <UNDEFINED> instruction: 0xf7007925
    31a0:	00f71b25 	rscseq	r1, r7, r5, lsr #22
    31a4:	80360000 	eorshi	r0, r6, r0
    31a8:	d4000019 	strle	r0, [r0], #-25	; 0xffffffe7
    31ac:	0008000a 	andeq	r0, r8, sl
    31b0:	00000180 	andeq	r0, r0, r0, lsl #3
    31b4:	03017b01 	movweq	r7, #6913	; 0x1b01
    31b8:	00198e2c 	andseq	r8, r9, ip, lsr #28
    31bc:	000f8600 	andeq	r8, pc, r0, lsl #12
    31c0:	000f8400 	andeq	r8, pc, r0, lsl #8
    31c4:	19a62c00 	stmibne	r6!, {sl, fp, sp}
    31c8:	0f9c0000 	svceq	0x009c0000
    31cc:	0f9a0000 	svceq	0x009a0000
    31d0:	9a2c0000 	bls	b031d8 <_Min_Stack_Size+0xb02dd8>
    31d4:	b5000019 	strlt	r0, [r0, #-25]	; 0xffffffe7
    31d8:	b300000f 	movwlt	r0, #15
    31dc:	3700000f 	strcc	r0, [r0, -pc]
    31e0:	00000180 	andeq	r0, r0, r0, lsl #3
    31e4:	0019b238 	andseq	fp, r9, r8, lsr r2
    31e8:	000fca00 	andeq	ip, pc, r0, lsl #20
    31ec:	000fc800 	andeq	ip, pc, r0, lsl #16
    31f0:	0ae82f00 	beq	ffa0edf8 <BootRAM+0xe97f599>
    31f4:	1a230800 	bne	8c51fc <_Min_Stack_Size+0x8c4dfc>
    31f8:	012e0000 			; <UNDEFINED> instruction: 0x012e0000
    31fc:	007d0251 	rsbseq	r0, sp, r1, asr r2
    3200:	0452012e 	ldrbeq	r0, [r2], #-302	; 0xfffffed2
    3204:	24310074 	ldrtcs	r0, [r1], #-116	; 0xffffff8c
    3208:	00000000 	andeq	r0, r0, r0
    320c:	0000330e 	andeq	r3, r0, lr, lsl #6
    3210:	00168200 	andseq	r8, r6, r0, lsl #4
    3214:	00250f00 	eoreq	r0, r5, r0, lsl #30
    3218:	003f0000 	eorseq	r0, pc, r0
    321c:	0aa80130 	beq	fea036e4 <BootRAM+0xd973e85>
    3220:	61010000 	mrsvs	r0, (UNDEF: 1)
    3224:	84010601 	strhi	r0, [r1], #-1537	; 0xfffff9ff
    3228:	d4080009 	strle	r0, [r8], #-9
    322c:	e6080009 	str	r0, [r8], -r9
    3230:	0100000f 	tsteq	r0, pc
    3234:	00001747 	andeq	r1, r0, r7, asr #14
    3238:	0008cc31 	andeq	ip, r8, r1, lsr ip
    323c:	01610100 	cmneq	r1, r0, lsl #2
    3240:	00006520 	andeq	r6, r0, r0, lsr #10
    3244:	00103000 	andseq	r3, r0, r0
    3248:	00102c00 	andseq	r2, r0, r0, lsl #24
    324c:	6e633500 	cdpvs	5, 6, cr3, cr3, cr0, {0}
    3250:	62010074 	andvs	r0, r1, #116	; 0x74
    3254:	00b90701 	adcseq	r0, r9, r1, lsl #14
    3258:	10550000 	subsne	r0, r5, r0
    325c:	10510000 	subsne	r0, r1, r0
    3260:	62320000 	eorsvs	r0, r2, #0
    3264:	01006675 	tsteq	r0, r5, ror r6
    3268:	470b0163 	strmi	r0, [fp, -r3, ror #2]
    326c:	03000017 	movweq	r0, #23
    3270:	347fb091 	ldrbtcc	fp, [pc], #-145	; 3278 <_Min_Stack_Size+0x2e78>
    3274:	00000120 	andeq	r0, r0, r0, lsr #2
    3278:	000016f6 	strdeq	r1, [r0], -r6
    327c:	01006935 	tsteq	r0, r5, lsr r9
    3280:	b90b0167 	stmdblt	fp, {r0, r1, r2, r5, r6, r8}
    3284:	79000000 	stmdbvc	r0, {}	; <UNPREDICTABLE>
    3288:	73000010 	movwvc	r0, #16
    328c:	00000010 	andeq	r0, r0, r0, lsl r0
    3290:	00194936 	andseq	r4, r9, r6, lsr r9
    3294:	00098a00 	andeq	r8, r9, r0, lsl #20
    3298:	01080008 	tsteq	r8, r8
    329c:	64010000 	strvs	r0, [r1], #-0
    32a0:	5b2c0901 	blpl	b056ac <_Min_Stack_Size+0xb052ac>
    32a4:	a6000019 			; <UNDEFINED> instruction: 0xa6000019
    32a8:	a4000010 	strge	r0, [r0], #-16
    32ac:	2c000010 	stccs	0, cr0, [r0], {16}
    32b0:	00001967 	andeq	r1, r0, r7, ror #18
    32b4:	000010bc 	strheq	r1, [r0], -ip
    32b8:	000010ba 	strheq	r1, [r0], -sl
    32bc:	00010837 	andeq	r0, r1, r7, lsr r8
    32c0:	19733800 	ldmdbne	r3!, {fp, ip, sp}^
    32c4:	10d10000 	sbcsne	r0, r1, r0
    32c8:	10cf0000 	sbcne	r0, pc, r0
    32cc:	9c2f0000 	stcls	0, cr0, [pc], #-0	; 32d4 <_Min_Stack_Size+0x2ed4>
    32d0:	31080009 	tstcc	r8, r9
    32d4:	2e00001a 	mcrcs	0, 0, r0, cr0, cr10, {0}
    32d8:	7d025101 	stfvcs	f5, [r2, #-4]
    32dc:	00000000 	andeq	r0, r0, r0
    32e0:	00330e00 	eorseq	r0, r3, r0, lsl #28
    32e4:	17570000 	ldrbne	r0, [r7, -r0]
    32e8:	250f0000 	strcs	r0, [pc, #-0]	; 32f0 <_Min_Stack_Size+0x2ef0>
    32ec:	1f000000 	svcne	0x00000000
    32f0:	57013900 	strpl	r3, [r1, -r0, lsl #18]
    32f4:	0100000d 	tsteq	r0, sp
    32f8:	01090156 	tsteq	r9, r6, asr r1
    32fc:	00000033 	andeq	r0, r0, r3, lsr r0
    3300:	08000a80 	stmdaeq	r0, {r7, r9, fp}
    3304:	08000aa4 	stmdaeq	r0, {r2, r5, r7, r9, fp}
    3308:	000010ed 	andeq	r1, r0, sp, ror #1
    330c:	0017bc01 	andseq	fp, r7, r1, lsl #24
    3310:	00783a00 	rsbseq	r3, r8, r0, lsl #20
    3314:	16015601 	strne	r5, [r1], -r1, lsl #12
    3318:	00000065 	andeq	r0, r0, r5, rrx
    331c:	0000112a 	andeq	r1, r0, sl, lsr #2
    3320:	00001126 	andeq	r1, r0, r6, lsr #2
    3324:	72726132 	rsbsvc	r6, r2, #-2147483636	; 0x8000000c
    3328:	01570100 	cmpeq	r7, r0, lsl #2
    332c:	0017cc11 	andseq	ip, r7, r1, lsl ip
    3330:	f8910300 			; <UNDEFINED> instruction: 0xf8910300
    3334:	0a942f7b 	beq	fe50f128 <BootRAM+0xd47f8c9>
    3338:	1a3f0800 	bne	fc5340 <_Min_Stack_Size+0xfc4f40>
    333c:	012e0000 			; <UNDEFINED> instruction: 0x012e0000
    3340:	007d0250 	rsbseq	r0, sp, r0, asr r2
    3344:	0551012e 	ldrbeq	r0, [r1, #-302]	; 0xfffffed2
    3348:	000eec03 	andeq	lr, lr, r3, lsl #24
    334c:	52012e08 	andpl	r2, r1, #8, 28	; 0x80
    3350:	02000a03 	andeq	r0, r0, #12288	; 0x3000
    3354:	3f0e0000 	svccc	0x000e0000
    3358:	cc000000 	stcgt	0, cr0, [r0], {-0}
    335c:	0f000017 	svceq	0x00000017
    3360:	00000025 	andeq	r0, r0, r5, lsr #32
    3364:	bc0400ff 	stclt	0, cr0, [r4], {255}	; 0xff
    3368:	39000017 	stmdbcc	r0, {r0, r1, r2, r4}
    336c:	0008dc01 	andeq	sp, r8, r1, lsl #24
    3370:	014b0100 	mrseq	r0, (UNDEF: 91)
    3374:	0ed70106 	cdpeq	1, 13, cr0, cr7, cr6, {0}
    3378:	0a540000 	beq	1503380 <_Min_Stack_Size+0x1502f80>
    337c:	0a800800 	beq	fe005384 <BootRAM+0xcf75b25>
    3380:	114b0800 	cmpne	fp, r0, lsl #16
    3384:	88010000 	stmdahi	r1, {}	; <UNPREDICTABLE>
    3388:	3a000018 	bcc	33f0 <_Min_Stack_Size+0x2ff0>
    338c:	00716572 	rsbseq	r6, r1, r2, ror r5
    3390:	27014b01 	strcs	r4, [r1, -r1, lsl #22]
    3394:	00001888 	andeq	r1, r0, r8, lsl #17
    3398:	00001171 	andeq	r1, r0, r1, ror r1
    339c:	0000116b 	andeq	r1, r0, fp, ror #2
    33a0:	000dd331 	andeq	sp, sp, r1, lsr r3
    33a4:	014b0100 	mrseq	r0, (UNDEF: 91)
    33a8:	00008235 	andeq	r8, r0, r5, lsr r2
    33ac:	0011a300 	andseq	sl, r1, r0, lsl #6
    33b0:	00119d00 	andseq	r9, r1, r0, lsl #26
    33b4:	07c63100 	strbeq	r3, [r6, r0, lsl #2]
    33b8:	4b010000 	blmi	433c0 <_Min_Stack_Size+0x42fc0>
    33bc:	00824601 	addeq	r4, r2, r1, lsl #12
    33c0:	11d50000 	bicsne	r0, r5, r0
    33c4:	11cf0000 	bicne	r0, pc, r0
    33c8:	c53b0000 	ldrgt	r0, [fp, #-0]!
    33cc:	6a000019 	bvs	3438 <_Min_Stack_Size+0x3038>
    33d0:	0108000a 	tsteq	r8, sl
    33d4:	08000a6a 	stmdaeq	r0, {r1, r3, r5, r6, r9, fp}
    33d8:	08000a74 	stmdaeq	r0, {r2, r4, r5, r6, r9, fp}
    33dc:	07014f01 	streq	r4, [r1, -r1, lsl #30]
    33e0:	0019eb2c 	andseq	lr, r9, ip, lsr #22
    33e4:	00120300 	andseq	r0, r2, r0, lsl #6
    33e8:	00120100 	andseq	r0, r2, r0, lsl #2
    33ec:	19df2c00 	ldmibne	pc, {sl, fp, sp}^	; <UNPREDICTABLE>
    33f0:	12030000 	andne	r0, r3, #0
    33f4:	12010000 	andne	r0, r1, #0
    33f8:	d32c0000 			; <UNDEFINED> instruction: 0xd32c0000
    33fc:	03000019 	movweq	r0, #25
    3400:	01000012 	tsteq	r0, r2, lsl r0
    3404:	2f000012 	svccs	0x00000012
    3408:	08000a74 	stmdaeq	r0, {r2, r4, r5, r6, r9, fp}
    340c:	00001a23 	andeq	r1, r0, r3, lsr #20
    3410:	0150012e 	cmpeq	r0, lr, lsr #2
    3414:	51012e30 	tstpl	r1, r0, lsr lr
    3418:	012e3001 			; <UNDEFINED> instruction: 0x012e3001
    341c:	00300152 	eorseq	r0, r0, r2, asr r1
    3420:	041b0000 	ldreq	r0, [fp], #-0
    3424:	0000011a 	andeq	r0, r0, sl, lsl r1
    3428:	0794013c 			; <UNDEFINED> instruction: 0x0794013c
    342c:	47010000 	strmi	r0, [r1, -r0]
    3430:	d7010601 	strle	r0, [r1, -r1, lsl #12]
    3434:	5000000e 	andpl	r0, r0, lr
    3438:	5408000a 	strpl	r0, [r8], #-10
    343c:	0208000a 	andeq	r0, r8, #10
    3440:	e101007d 	hlt	0x100d
    3444:	3a000018 	bcc	34ac <_Min_Stack_Size+0x30ac>
    3448:	00716572 	rsbseq	r6, r1, r2, ror r5
    344c:	26014701 	strcs	r4, [r1], -r1, lsl #14
    3450:	00001888 	andeq	r1, r0, r8, lsl #17
    3454:	0000121b 	andeq	r1, r0, fp, lsl r2
    3458:	00001217 	andeq	r1, r0, r7, lsl r2
    345c:	000da53d 	andeq	sl, sp, sp, lsr r5
    3460:	01470100 	mrseq	r0, (UNDEF: 87)
    3464:	0018e132 	andseq	lr, r8, r2, lsr r1
    3468:	3d510100 	ldfcce	f0, [r1, #-0]
    346c:	000007c9 	andeq	r0, r0, r9, asr #15
    3470:	42014701 	andmi	r4, r1, #262144	; 0x40000
    3474:	000018e7 	andeq	r1, r0, r7, ror #17
    3478:	1b005201 	blne	17c84 <_Min_Stack_Size+0x17884>
    347c:	00098e04 	andeq	r8, r9, r4, lsl #28
    3480:	82041b00 	andhi	r1, r4, #0, 22
    3484:	3e000000 	cdpcc	0, 0, cr0, cr0, cr0, {0}
    3488:	0005a401 	andeq	sl, r5, r1, lsl #8
    348c:	011f0100 	tsteq	pc, r0, lsl #2
    3490:	09d40106 	ldmibeq	r4, {r1, r2, r8}^
    3494:	0a500800 	beq	140549c <_Min_Stack_Size+0x140509c>
    3498:	7d020800 	stcvc	8, cr0, [r2, #-0]
    349c:	193c0100 	ldmdbne	ip!, {r8}
    34a0:	b6310000 	ldrtlt	r0, [r1], -r0
    34a4:	01000005 	tsteq	r0, r5
    34a8:	8227011f 	eorhi	r0, r7, #-1073741817	; 0xc0000007
    34ac:	44000000 	strmi	r0, [r0], #-0
    34b0:	3c000012 	stccc	0, cr0, [r0], {18}
    34b4:	3d000012 	stccc	0, cr0, [r0, #-72]	; 0xffffffb8
    34b8:	00000da5 	andeq	r0, r0, r5, lsr #27
    34bc:	3b011f01 	blcc	4b0c8 <_Min_Stack_Size+0x4acc8>
    34c0:	0000193c 	andeq	r1, r0, ip, lsr r9
    34c4:	c93d5101 	ldmdbgt	sp!, {r0, r8, ip, lr}
    34c8:	01000007 	tsteq	r0, r7
    34cc:	e74b011f 	smlald	r0, fp, pc, r1	; <UNPREDICTABLE>
    34d0:	01000018 	tsteq	r0, r8, lsl r0
    34d4:	041b0052 	ldreq	r0, [fp], #-82	; 0xffffffae
    34d8:	00001942 	andeq	r1, r0, r2, asr #18
    34dc:	1948041b 	stmdbne	r8, {r0, r1, r3, r4, sl}^
    34e0:	403f0000 	eorsmi	r0, pc, r0
    34e4:	00000a4f 	andeq	r0, r0, pc, asr #20
    34e8:	0113b702 	tsteq	r3, r2, lsl #14
    34ec:	000000b9 	strheq	r0, [r0], -r9
    34f0:	00198003 	andseq	r8, r9, r3
    34f4:	08cc4100 	stmiaeq	ip, {r8, lr}^
    34f8:	b7020000 	strlt	r0, [r2, -r0]
    34fc:	0000652e 	andeq	r6, r0, lr, lsr #10
    3500:	75624200 	strbvc	r4, [r2, #-512]!	; 0xfffffe00
    3504:	b7020066 	strlt	r0, [r2, -r6, rrx]
    3508:	0018e73f 	andseq	lr, r8, pc, lsr r7
    350c:	64694300 	strbtvs	r4, [r9], #-768	; 0xfffffd00
    3510:	b8020078 	stmdalt	r2, {r3, r4, r5, r6}
    3514:	0000650b 	andeq	r6, r0, fp, lsl #10
    3518:	ba440000 	blt	1103520 <_Min_Stack_Size+0x1103120>
    351c:	0200000a 	andeq	r0, r0, #10
    3520:	030114ae 	movweq	r1, #5294	; 0x14ae
    3524:	000019bf 			; <UNDEFINED> instruction: 0x000019bf
    3528:	0008cc41 	andeq	ip, r8, r1, asr #24
    352c:	30ae0200 	adccc	r0, lr, r0, lsl #4
    3530:	00000065 	andeq	r0, r0, r5, rrx
    3534:	66756242 	ldrbtvs	r6, [r5], -r2, asr #4
    3538:	46ae0200 	strtmi	r0, [lr], r0, lsl #4
    353c:	000019bf 			; <UNDEFINED> instruction: 0x000019bf
    3540:	0007c941 	andeq	ip, r7, r1, asr #18
    3544:	54ae0200 	strtpl	r0, [lr], #512	; 0x200
    3548:	00000082 	andeq	r0, r0, r2, lsl #1
    354c:	78646943 	stmdavc	r4!, {r0, r1, r6, r8, fp, sp, lr}^
    3550:	0baf0200 	bleq	febc3d58 <BootRAM+0xdb344f9>
    3554:	00000065 	andeq	r0, r0, r5, rrx
    3558:	76041b00 	strvc	r1, [r4], -r0, lsl #22
    355c:	44000000 	strmi	r0, [r0], #-0
    3560:	0000053d 	andeq	r0, r0, sp, lsr r5
    3564:	0114ab02 	tsteq	r4, r2, lsl #22
    3568:	0019f803 	andseq	pc, r9, r3, lsl #16
    356c:	08cc4100 	stmiaeq	ip, {r8, lr}^
    3570:	ab020000 	blge	83578 <_Min_Stack_Size+0x83178>
    3574:	00006529 	andeq	r6, r0, r9, lsr #10
    3578:	75624200 	strbvc	r4, [r2, #-512]!	; 0xfffffe00
    357c:	ab020066 	blge	8371c <_Min_Stack_Size+0x8331c>
    3580:	0019bf3f 	andseq	fp, r9, pc, lsr pc
    3584:	07c94100 	strbeq	r4, [r9, r0, lsl #2]
    3588:	ab020000 	blge	83590 <_Min_Stack_Size+0x83190>
    358c:	0000824d 	andeq	r8, r0, sp, asr #4
    3590:	67450000 	strbvs	r0, [r5, -r0]
    3594:	03000005 	movweq	r0, #5
    3598:	011605de 			; <UNDEFINED> instruction: 0x011605de
    359c:	001a1503 	andseq	r1, sl, r3, lsl #10
    35a0:	06d54600 	ldrbeq	r4, [r5], r0, lsl #12
    35a4:	de030000 	cdple	0, 0, cr0, cr3, cr0, {0}
    35a8:	029d2f05 	addseq	r2, sp, #5, 30
    35ac:	47000000 	strmi	r0, [r0, -r0]
    35b0:	09600101 	stmdbeq	r0!, {r0, r8}^
    35b4:	09600000 	stmdbeq	r0!, {}^	; <UNPREDICTABLE>
    35b8:	26020000 	strcs	r0, [r2], -r0
    35bc:	01014706 	tsteq	r1, r6, lsl #14
    35c0:	0000053c 	andeq	r0, r0, ip, lsr r5
    35c4:	0000053c 	andeq	r0, r0, ip, lsr r5
    35c8:	4706aa02 	strmi	sl, [r6, -r2, lsl #20]
    35cc:	068a0101 	streq	r0, [sl], r1, lsl #2
    35d0:	068a0000 	streq	r0, [sl], r0
    35d4:	b3020000 	movwlt	r0, #8192	; 0x2000
    35d8:	01014805 	tsteq	r1, r5, lsl #16
    35dc:	00000b27 	andeq	r0, r0, r7, lsr #22
    35e0:	00000b1d 	andeq	r0, r0, sp, lsl fp
    35e4:	1600000b 	strne	r0, [r0], -fp
    35e8:	04000001 	streq	r0, [r0], #-1
    35ec:	000b5900 	andeq	r5, fp, r0, lsl #18
    35f0:	70010400 	andvc	r0, r1, r0, lsl #8
    35f4:	0c000010 	stceq	0, cr0, [r0], {16}
    35f8:	00001122 	andeq	r1, r0, r2, lsr #2
    35fc:	00000ffe 	strdeq	r0, [r0], -lr
    3600:	08000bd8 	stmdaeq	r0, {r3, r4, r6, r7, r8, r9, fp}
    3604:	00000048 	andeq	r0, r0, r8, asr #32
    3608:	00000fb9 			; <UNDEFINED> instruction: 0x00000fb9
    360c:	7f060102 	svcvc	0x00060102
    3610:	02000002 	andeq	r0, r0, #2
    3614:	027d0801 	rsbseq	r0, sp, #65536	; 0x10000
    3618:	02020000 	andeq	r0, r2, #0
    361c:	00029805 	andeq	r9, r2, r5, lsl #16
    3620:	07020200 	streq	r0, [r2, -r0, lsl #4]
    3624:	0000017e 	andeq	r0, r0, lr, ror r1
    3628:	82050402 	andhi	r0, r5, #33554432	; 0x2000000
    362c:	02000000 	andeq	r0, r0, #0
    3630:	004d0704 	subeq	r0, sp, r4, lsl #14
    3634:	08020000 	stmdaeq	r2, {}	; <UNPREDICTABLE>
    3638:	00007d05 	andeq	r7, r0, r5, lsl #26
    363c:	07080200 	streq	r0, [r8, -r0, lsl #4]
    3640:	00000048 	andeq	r0, r0, r8, asr #32
    3644:	69050403 	stmdbvs	r5, {r0, r1, sl}
    3648:	0200746e 	andeq	r7, r0, #1845493760	; 0x6e000000
    364c:	00520704 	subseq	r0, r2, r4, lsl #14
    3650:	e5040000 	str	r0, [r4, #-0]
    3654:	0200000f 	andeq	r0, r0, #15
    3658:	006417d8 	ldrdeq	r1, [r4], #-120	; 0xffffff88	; <UNPREDICTABLE>
    365c:	08020000 	stmdaeq	r2, {}	; <UNPREDICTABLE>
    3660:	000d4b04 	andeq	r4, sp, r4, lsl #22
    3664:	08010200 	stmdaeq	r1, {r9}
    3668:	00000286 	andeq	r0, r0, r6, lsl #5
    366c:	00009005 	andeq	r9, r0, r5
    3670:	00009000 	andeq	r9, r0, r0
    3674:	07000600 	streq	r0, [r0, -r0, lsl #12]
    3678:	00009604 	andeq	r9, r0, r4, lsl #12
    367c:	5a090800 	bpl	245684 <_Min_Stack_Size+0x245284>
    3680:	01000010 	tsteq	r0, r0, lsl r0
    3684:	00850f13 	addeq	r0, r5, r3, lsl pc
    3688:	fd090000 	stc2	0, cr0, [r9, #-0]
    368c:	01000010 	tsteq	r0, r0, lsl r0
    3690:	00850f14 	addeq	r0, r5, r4, lsl pc
    3694:	d2090000 	andle	r0, r9, #0
    3698:	0100000f 	tsteq	r0, pc
    369c:	00850f15 	addeq	r0, r5, r5, lsl pc
    36a0:	11090000 	mrsne	r0, (UNDEF: 9)
    36a4:	01000011 	tsteq	r0, r1, lsl r0
    36a8:	00850f16 	addeq	r0, r5, r6, lsl pc
    36ac:	ec0a0000 	stc	0, cr0, [sl], {-0}
    36b0:	0100000f 	tsteq	r0, pc
    36b4:	0bd8011e 	bleq	ff603b34 <BootRAM+0xe5742d5>
    36b8:	00480800 	subeq	r0, r8, r0, lsl #16
    36bc:	9c010000 	stcls	0, cr0, [r1], {-0}
    36c0:	0000010d 	andeq	r0, r0, sp, lsl #2
    36c4:	0004f40b 	andeq	pc, r4, fp, lsl #8
    36c8:	0a200100 	beq	803ad0 <_Min_Stack_Size+0x8036d0>
    36cc:	0000006b 	andeq	r0, r0, fp, rrx
    36d0:	00001286 	andeq	r1, r0, r6, lsl #5
    36d4:	0000127e 	andeq	r1, r0, lr, ror r2
    36d8:	0100690c 	tsteq	r0, ip, lsl #18
    36dc:	006b0a21 	rsbeq	r0, fp, r1, lsr #20
    36e0:	12d20000 	sbcsne	r0, r2, #0
    36e4:	12c20000 	sbcne	r0, r2, #0
    36e8:	fa0d0000 	blx	3436f0 <_Min_Stack_Size+0x3432f0>
    36ec:	0d08000b 	stceq	0, cr0, [r8, #-44]	; 0xffffffd4
    36f0:	00000001 	andeq	r0, r0, r1
    36f4:	0008500e 	andeq	r5, r8, lr
    36f8:	00085000 	andeq	r5, r8, r0
    36fc:	0d190100 	ldfeqs	f0, [r9, #-0]
    3700:	00002200 	andeq	r2, r0, r0, lsl #4
    3704:	25000200 	strcs	r0, [r0, #-512]	; 0xfffffe00
    3708:	0400000c 	streq	r0, [r0], #-12
    370c:	0010cd01 	andseq	ip, r0, r1, lsl #26
    3710:	000c2000 	andeq	r2, ip, r0
    3714:	000d0c08 	andeq	r0, sp, r8, lsl #24
    3718:	00115208 	andseq	r5, r1, r8, lsl #4
    371c:	00119500 	andseq	r9, r1, r0, lsl #10
    3720:	0011f800 	andseq	pc, r1, r0, lsl #16
    3724:	Address 0x0000000000003724 is out of bounds.


Disassembly of section .debug_abbrev:

00000000 <.debug_abbrev>:
   0:	25011101 	strcs	r1, [r1, #-257]	; 0xfffffeff
   4:	030b130e 	movweq	r1, #45838	; 0xb30e
   8:	550e1b0e 	strpl	r1, [lr, #-2830]	; 0xfffff4f2
   c:	52011106 	andpl	r1, r1, #-2147483647	; 0x80000001
  10:	00061001 	andeq	r1, r6, r1
  14:	00240200 	eoreq	r0, r4, r0, lsl #4
  18:	0b3e0b0b 	bleq	f82c4c <_Min_Stack_Size+0xf8284c>
  1c:	00000e03 	andeq	r0, r0, r3, lsl #28
  20:	03001603 	movweq	r1, #1539	; 0x603
  24:	3b0b3a0e 	blcc	2ce864 <_Min_Stack_Size+0x2ce464>
  28:	490b390b 	stmdbmi	fp, {r0, r1, r3, r8, fp, ip, sp}
  2c:	04000013 	streq	r0, [r0], #-19	; 0xffffffed
  30:	13490035 	movtne	r0, #36917	; 0x9035
  34:	24050000 	strcs	r0, [r5], #-0
  38:	3e0b0b00 	vmlacc.f64	d0, d11, d0
  3c:	0008030b 	andeq	r0, r8, fp, lsl #6
  40:	00340600 	eorseq	r0, r4, r0, lsl #12
  44:	0b3a0e03 	bleq	e83858 <_Min_Stack_Size+0xe83458>
  48:	0b39053b 	bleq	e4153c <_Min_Stack_Size+0xe4113c>
  4c:	0c3f1349 	ldceq	3, cr1, [pc], #-292	; ffffff30 <BootRAM+0xef706d1>
  50:	00000c3c 	andeq	r0, r0, ip, lsr ip
  54:	03003407 	movweq	r3, #1031	; 0x407
  58:	3b0b3a0e 	blcc	2ce898 <_Min_Stack_Size+0x2ce498>
  5c:	490b390b 	stmdbmi	fp, {r0, r1, r3, r8, fp, ip, sp}
  60:	3c0c3f13 	stccc	15, cr3, [ip], {19}
  64:	0800000c 	stmdaeq	r0, {r2, r3}
  68:	0b0b0113 	bleq	2c04bc <_Min_Stack_Size+0x2c00bc>
  6c:	053b0b3a 	ldreq	r0, [fp, #-2874]!	; 0xfffff4c6
  70:	13010b39 	movwne	r0, #6969	; 0x1b39
  74:	0d090000 	stceq	0, cr0, [r9, #-0]
  78:	3a080300 	bcc	200c80 <_Min_Stack_Size+0x200880>
  7c:	39053b0b 	stmdbcc	r5, {r0, r1, r3, r8, r9, fp, ip, sp}
  80:	3813490b 	ldmdacc	r3, {r0, r1, r3, r8, fp, lr}
  84:	0a00000a 	beq	b4 <_Min_Heap_Size+0xb4>
  88:	0e03000d 	cdpeq	0, 0, cr0, cr3, cr13, {0}
  8c:	053b0b3a 	ldreq	r0, [fp, #-2874]!	; 0xfffff4c6
  90:	13490b39 	movtne	r0, #39737	; 0x9b39
  94:	00000a38 	andeq	r0, r0, r8, lsr sl
  98:	4901010b 	stmdbmi	r1, {r0, r1, r3, r8}
  9c:	00130113 	andseq	r0, r3, r3, lsl r1
  a0:	00210c00 	eoreq	r0, r1, r0, lsl #24
  a4:	0b2f1349 	bleq	bc4dd0 <_Min_Stack_Size+0xbc49d0>
  a8:	160d0000 	strne	r0, [sp], -r0
  ac:	3a0e0300 	bcc	380cb4 <_Min_Stack_Size+0x3808b4>
  b0:	39053b0b 	stmdbcc	r5, {r0, r1, r3, r8, r9, fp, ip, sp}
  b4:	0013490b 	andseq	r4, r3, fp, lsl #18
  b8:	012e0e00 			; <UNDEFINED> instruction: 0x012e0e00
  bc:	0e030c3f 	mcreq	12, 0, r0, cr3, cr15, {1}
  c0:	0b3b0b3a 	bleq	ec2db0 <_Min_Stack_Size+0xec29b0>
  c4:	0c270b39 			; <UNDEFINED> instruction: 0x0c270b39
  c8:	01111349 	tsteq	r1, r9, asr #6
  cc:	06400112 			; <UNDEFINED> instruction: 0x06400112
  d0:	010c4297 			; <UNDEFINED> instruction: 0x010c4297
  d4:	0f000013 	svceq	0x00000013
  d8:	0111010b 	tsteq	r1, fp, lsl #2
  dc:	13010112 	movwne	r0, #4370	; 0x1112
  e0:	34100000 	ldrcc	r0, [r0], #-0
  e4:	3a0e0300 	bcc	380cec <_Min_Stack_Size+0x3808ec>
  e8:	390b3b0b 	stmdbcc	fp, {r0, r1, r3, r8, r9, fp, ip, sp}
  ec:	0213490b 	andseq	r4, r3, #180224	; 0x2c000
  f0:	0642b706 	strbeq	fp, [r2], -r6, lsl #14
  f4:	1d110000 	ldcne	0, cr0, [r1, #-0]
  f8:	52133100 	andspl	r3, r3, #0, 2
  fc:	0b42b801 	bleq	10ae108 <_Min_Stack_Size+0x10add08>
 100:	01120111 	tsteq	r2, r1, lsl r1
 104:	0b590b58 	bleq	1642e6c <_Min_Stack_Size+0x1642a6c>
 108:	00000b57 	andeq	r0, r0, r7, asr fp
 10c:	01828912 	orreq	r8, r2, r2, lsl r9
 110:	31011101 	tstcc	r1, r1, lsl #2
 114:	00130113 	andseq	r0, r3, r3, lsl r1
 118:	828a1300 	addhi	r1, sl, #0, 6
 11c:	0a020001 	beq	80128 <_Min_Stack_Size+0x7fd28>
 120:	000a4291 	muleq	sl, r1, r2
 124:	82891400 	addhi	r1, r9, #0, 8
 128:	01110001 	tsteq	r1, r1
 12c:	00001331 	andeq	r1, r0, r1, lsr r3
 130:	01828915 	orreq	r8, r2, r5, lsl r9
 134:	31011101 	tstcc	r1, r1, lsl #2
 138:	16000013 			; <UNDEFINED> instruction: 0x16000013
 13c:	0c3f012e 	ldfeqs	f0, [pc], #-184	; 8c <_Min_Heap_Size+0x8c>
 140:	0b3a0e03 	bleq	e83954 <_Min_Stack_Size+0xe83554>
 144:	0b390b3b 	bleq	e42e38 <_Min_Stack_Size+0xe42a38>
 148:	01110c27 	tsteq	r1, r7, lsr #24
 14c:	0a400112 	beq	100059c <_Min_Stack_Size+0x100019c>
 150:	010c4297 			; <UNDEFINED> instruction: 0x010c4297
 154:	17000013 	smladne	r0, r3, r0, r0
 158:	0e030005 	cdpeq	0, 0, cr0, cr3, cr5, {0}
 15c:	0b3b0b3a 	bleq	ec2e4c <_Min_Stack_Size+0xec2a4c>
 160:	13490b39 	movtne	r0, #39737	; 0x9b39
 164:	42b70602 	adcsmi	r0, r7, #2097152	; 0x200000
 168:	18000006 	stmdane	r0, {r1, r2}
 16c:	0c3f002e 	ldceq	0, cr0, [pc], #-184	; bc <_Min_Heap_Size+0xbc>
 170:	0b3a0e03 	bleq	e83984 <_Min_Stack_Size+0xe83584>
 174:	0b390b3b 	bleq	e42e68 <_Min_Stack_Size+0xe42a68>
 178:	01110c27 	tsteq	r1, r7, lsr #24
 17c:	0a400112 	beq	10005cc <_Min_Stack_Size+0x10001cc>
 180:	000c4297 	muleq	ip, r7, r2
 184:	002e1900 	eoreq	r1, lr, r0, lsl #18
 188:	0e030c3f 	mcreq	12, 0, r0, cr3, cr15, {1}
 18c:	0b3b0b3a 	bleq	ec2e7c <_Min_Stack_Size+0xec2a7c>
 190:	0c270b39 			; <UNDEFINED> instruction: 0x0c270b39
 194:	2e1a0000 	cdpcs	0, 1, cr0, cr10, cr0, {0}
 198:	030c3f01 	movweq	r3, #52993	; 0xcf01
 19c:	3b0b3a0e 	blcc	2ce9dc <_Min_Stack_Size+0x2ce5dc>
 1a0:	110b390b 	tstne	fp, fp, lsl #18
 1a4:	40011201 	andmi	r1, r1, r1, lsl #4
 1a8:	0c42970a 	mcrreq	7, 0, r9, r2, cr10
 1ac:	00001301 	andeq	r1, r0, r1, lsl #6
 1b0:	0300341b 	movweq	r3, #1051	; 0x41b
 1b4:	3b0b3a08 	blcc	2ce9dc <_Min_Stack_Size+0x2ce5dc>
 1b8:	490b390b 	stmdbmi	fp, {r0, r1, r3, r8, fp, ip, sp}
 1bc:	b7060213 	smladlt	r6, r3, r2, r0
 1c0:	00000642 	andeq	r0, r0, r2, asr #12
 1c4:	3f012e1c 	svccc	0x00012e1c
 1c8:	3a0e030c 	bcc	380e00 <_Min_Stack_Size+0x380a00>
 1cc:	390b3b0b 	stmdbcc	fp, {r0, r1, r3, r8, r9, fp, ip, sp}
 1d0:	490c270b 	stmdbmi	ip, {r0, r1, r3, r8, r9, sl, sp}
 1d4:	12011113 	andne	r1, r1, #-1073741820	; 0xc0000004
 1d8:	970a4001 	strls	r4, [sl, -r1]
 1dc:	13010c42 	movwne	r0, #7234	; 0x1c42
 1e0:	051d0000 	ldreq	r0, [sp, #-0]
 1e4:	3a0e0300 	bcc	380dec <_Min_Stack_Size+0x3809ec>
 1e8:	390b3b0b 	stmdbcc	fp, {r0, r1, r3, r8, r9, fp, ip, sp}
 1ec:	0213490b 	andseq	r4, r3, #180224	; 0x2c000
 1f0:	1e00000a 	cdpne	0, 0, cr0, cr0, cr10, {0}
 1f4:	0e03002e 	cdpeq	0, 0, cr0, cr3, cr14, {1}
 1f8:	053b0b3a 	ldreq	r0, [fp, #-2874]!	; 0xfffff4c6
 1fc:	0b200b39 	bleq	802ee8 <_Min_Stack_Size+0x802ae8>
 200:	2e1f0000 	cdpcs	0, 1, cr0, cr15, cr0, {0}
 204:	3c0c3f00 	stccc	15, cr3, [ip], {-0}
 208:	0e40870c 	cdpeq	7, 4, cr8, cr0, cr12, {0}
 20c:	0b3a0e03 	bleq	e83a20 <_Min_Stack_Size+0xe83620>
 210:	0b390b3b 	bleq	e42f04 <_Min_Stack_Size+0xe42b04>
 214:	01000000 	mrseq	r0, (UNDEF: 0)
 218:	0e250111 	mcreq	1, 1, r0, cr5, cr1, {0}
 21c:	0e030b13 	vmoveq.32	d3[0], r0
 220:	01110e1b 	tsteq	r1, fp, lsl lr
 224:	06100112 			; <UNDEFINED> instruction: 0x06100112
 228:	24020000 	strcs	r0, [r2], #-0
 22c:	3e0b0b00 	vmlacc.f64	d0, d11, d0
 230:	000e030b 	andeq	r0, lr, fp, lsl #6
 234:	00160300 	andseq	r0, r6, r0, lsl #6
 238:	0b3a0e03 	bleq	e83a4c <_Min_Stack_Size+0xe8364c>
 23c:	0b390b3b 	bleq	e42f30 <_Min_Stack_Size+0xe42b30>
 240:	00001349 	andeq	r1, r0, r9, asr #6
 244:	49003504 	stmdbmi	r0, {r2, r8, sl, ip, sp}
 248:	05000013 	streq	r0, [r0, #-19]	; 0xffffffed
 24c:	13490026 	movtne	r0, #36902	; 0x9026
 250:	24060000 	strcs	r0, [r6], #-0
 254:	3e0b0b00 	vmlacc.f64	d0, d11, d0
 258:	0008030b 	andeq	r0, r8, fp, lsl #6
 25c:	000f0700 	andeq	r0, pc, r0, lsl #14
 260:	13490b0b 	movtne	r0, #39691	; 0x9b0b
 264:	15080000 	strne	r0, [r8, #-0]
 268:	010c2701 	tsteq	ip, r1, lsl #14
 26c:	09000013 	stmdbeq	r0, {r0, r1, r4}
 270:	13490005 	movtne	r0, #36869	; 0x9005
 274:	130a0000 	movwne	r0, #40960	; 0xa000
 278:	3a0b0b01 	bcc	2c2e84 <_Min_Stack_Size+0x2c2a84>
 27c:	390b3b0b 	stmdbcc	fp, {r0, r1, r3, r8, r9, fp, ip, sp}
 280:	0013010b 	andseq	r0, r3, fp, lsl #2
 284:	000d0b00 	andeq	r0, sp, r0, lsl #22
 288:	0b3a0e03 	bleq	e83a9c <_Min_Stack_Size+0xe8369c>
 28c:	0b390b3b 	bleq	e42f80 <_Min_Stack_Size+0xe42b80>
 290:	0a381349 	beq	e04fbc <_Min_Stack_Size+0xe04bbc>
 294:	040c0000 	streq	r0, [ip], #-0
 298:	0b0b3e01 	bleq	2cfaa4 <_Min_Stack_Size+0x2cf6a4>
 29c:	3a13490b 	bcc	4d26d0 <_Min_Stack_Size+0x4d22d0>
 2a0:	390b3b0b 	stmdbcc	fp, {r0, r1, r3, r8, r9, fp, ip, sp}
 2a4:	0013010b 	andseq	r0, r3, fp, lsl #2
 2a8:	00280d00 	eoreq	r0, r8, r0, lsl #26
 2ac:	0d1c0e03 	ldceq	14, cr0, [ip, #-12]
 2b0:	280e0000 	stmdacs	lr, {}	; <UNPREDICTABLE>
 2b4:	1c0e0300 	stcne	3, cr0, [lr], {-0}
 2b8:	0f00000b 	svceq	0x0000000b
 2bc:	050b0113 	streq	r0, [fp, #-275]	; 0xfffffeed
 2c0:	0b3b0b3a 	bleq	ec2fb0 <_Min_Stack_Size+0xec2bb0>
 2c4:	13010b39 	movwne	r0, #6969	; 0x1b39
 2c8:	0d100000 	ldceq	0, cr0, [r0, #-0]
 2cc:	3a080300 	bcc	200ed4 <_Min_Stack_Size+0x200ad4>
 2d0:	390b3b0b 	stmdbcc	fp, {r0, r1, r3, r8, r9, fp, ip, sp}
 2d4:	3813490b 	ldmdacc	r3, {r0, r1, r3, r8, fp, lr}
 2d8:	1100000a 	tstne	r0, sl
 2dc:	13490101 	movtne	r0, #37121	; 0x9101
 2e0:	00001301 	andeq	r1, r0, r1, lsl #6
 2e4:	49002112 	stmdbmi	r0, {r1, r4, r8, sp}
 2e8:	000b2f13 	andeq	r2, fp, r3, lsl pc
 2ec:	00211300 	eoreq	r1, r1, r0, lsl #6
 2f0:	052f1349 	streq	r1, [pc, #-841]!	; ffffffaf <BootRAM+0xef70750>
 2f4:	34140000 	ldrcc	r0, [r4], #-0
 2f8:	3a0e0300 	bcc	380f00 <_Min_Stack_Size+0x380b00>
 2fc:	39053b0b 	stmdbcc	r5, {r0, r1, r3, r8, r9, fp, ip, sp}
 300:	3f13490b 	svccc	0x0013490b
 304:	000c3c0c 	andeq	r3, ip, ip, lsl #24
 308:	00341500 	eorseq	r1, r4, r0, lsl #10
 30c:	0b3a0e03 	bleq	e83b20 <_Min_Stack_Size+0xe83720>
 310:	0b390b3b 	bleq	e43004 <_Min_Stack_Size+0xe42c04>
 314:	0c3f1349 	ldceq	3, cr1, [pc], #-292	; 1f8 <_Min_Heap_Size+0x1f8>
 318:	00000c3c 	andeq	r0, r0, ip, lsr ip
 31c:	0b011316 	bleq	44f7c <_Min_Stack_Size+0x44b7c>
 320:	3b0b3a0b 	blcc	2ceb54 <_Min_Stack_Size+0x2ce754>
 324:	010b3905 	tsteq	fp, r5, lsl #18
 328:	17000013 	smladne	r0, r3, r0, r0
 32c:	0e03000d 	cdpeq	0, 0, cr0, cr3, cr13, {0}
 330:	053b0b3a 	ldreq	r0, [fp, #-2874]!	; 0xfffff4c6
 334:	13490b39 	movtne	r0, #39737	; 0x9b39
 338:	00000a38 	andeq	r0, r0, r8, lsr sl
 33c:	03000d18 	movweq	r0, #3352	; 0xd18
 340:	3b0b3a08 	blcc	2ceb68 <_Min_Stack_Size+0x2ce768>
 344:	490b3905 	stmdbmi	fp, {r0, r2, r8, fp, ip, sp}
 348:	000a3813 	andeq	r3, sl, r3, lsl r8
 34c:	00161900 	andseq	r1, r6, r0, lsl #18
 350:	0b3a0e03 	bleq	e83b64 <_Min_Stack_Size+0xe83764>
 354:	0b39053b 	bleq	e41848 <_Min_Stack_Size+0xe41448>
 358:	00001349 	andeq	r1, r0, r9, asr #6
 35c:	03000d1a 	movweq	r0, #3354	; 0xd1a
 360:	3b0b3a0e 	blcc	2ceba0 <_Min_Stack_Size+0x2ce7a0>
 364:	490b390b 	stmdbmi	fp, {r0, r1, r3, r8, fp, ip, sp}
 368:	0d0b0b13 	vstreq	d0, [fp, #-76]	; 0xffffffb4
 36c:	380b0c0b 	stmdacc	fp, {r0, r1, r3, sl, fp}
 370:	1b00000a 	blne	3a0 <_Min_Heap_Size+0x3a0>
 374:	0b0b0117 	bleq	2c07d8 <_Min_Stack_Size+0x2c03d8>
 378:	0b3b0b3a 	bleq	ec3068 <_Min_Stack_Size+0xec2c68>
 37c:	13010b39 	movwne	r0, #6969	; 0x1b39
 380:	0d1c0000 	ldceq	0, cr0, [ip, #-0]
 384:	3a0e0300 	bcc	380f8c <_Min_Stack_Size+0x380b8c>
 388:	390b3b0b 	stmdbcc	fp, {r0, r1, r3, r8, r9, fp, ip, sp}
 38c:	0013490b 	andseq	r4, r3, fp, lsl #18
 390:	000d1d00 	andeq	r1, sp, r0, lsl #26
 394:	00001349 	andeq	r1, r0, r9, asr #6
 398:	49000d1e 	stmdbmi	r0, {r1, r2, r3, r4, r8, sl, fp}
 39c:	000a3813 	andeq	r3, sl, r3, lsl r8
 3a0:	00341f00 	eorseq	r1, r4, r0, lsl #30
 3a4:	0b3a0e03 	bleq	e83bb8 <_Min_Stack_Size+0xe837b8>
 3a8:	0b390b3b 	bleq	e4309c <_Min_Stack_Size+0xe42c9c>
 3ac:	0c3f1349 	ldceq	3, cr1, [pc], #-292	; 290 <_Min_Heap_Size+0x290>
 3b0:	00000a02 	andeq	r0, r0, r2, lsl #20
 3b4:	03003420 	movweq	r3, #1056	; 0x420
 3b8:	3b0b3a0e 	blcc	2cebf8 <_Min_Stack_Size+0x2ce7f8>
 3bc:	490b390b 	stmdbmi	fp, {r0, r1, r3, r8, fp, ip, sp}
 3c0:	000a0213 	andeq	r0, sl, r3, lsl r2
 3c4:	000d2100 	andeq	r2, sp, r0, lsl #2
 3c8:	0b3a0e03 	bleq	e83bdc <_Min_Stack_Size+0xe837dc>
 3cc:	0b39053b 	bleq	e418c0 <_Min_Stack_Size+0xe414c0>
 3d0:	0b0b1349 	bleq	2c50fc <_Min_Stack_Size+0x2c4cfc>
 3d4:	0b0c0b0d 	bleq	303010 <_Min_Stack_Size+0x302c10>
 3d8:	00000a38 	andeq	r0, r0, r8, lsr sl
 3dc:	0b011722 	bleq	4606c <_Min_Stack_Size+0x45c6c>
 3e0:	3b0b3a0b 	blcc	2cec14 <_Min_Stack_Size+0x2ce814>
 3e4:	010b3905 	tsteq	fp, r5, lsl #18
 3e8:	23000013 	movwcs	r0, #19
 3ec:	0e03000d 	cdpeq	0, 0, cr0, cr3, cr13, {0}
 3f0:	053b0b3a 	ldreq	r0, [fp, #-2874]!	; 0xfffff4c6
 3f4:	13490b39 	movtne	r0, #39737	; 0x9b39
 3f8:	2e240000 	cdpcs	0, 2, cr0, cr4, cr0, {0}
 3fc:	030c3f01 	movweq	r3, #52993	; 0xcf01
 400:	3b0b3a0e 	blcc	2cec40 <_Min_Stack_Size+0x2ce840>
 404:	270b3905 	strcs	r3, [fp, -r5, lsl #18]
 408:	1113490c 	tstne	r3, ip, lsl #18
 40c:	40011201 	andmi	r1, r1, r1, lsl #4
 410:	0c429706 	mcrreq	7, 0, r9, r2, cr6
 414:	00001301 	andeq	r1, r0, r1, lsl #6
 418:	03000525 	movweq	r0, #1317	; 0x525
 41c:	3b0b3a08 	blcc	2cec44 <_Min_Stack_Size+0x2ce844>
 420:	490b3905 	stmdbmi	fp, {r0, r2, r8, fp, ip, sp}
 424:	b7060213 	smladlt	r6, r3, r2, r0
 428:	00000642 	andeq	r0, r0, r2, asr #12
 42c:	03003426 	movweq	r3, #1062	; 0x426
 430:	3b0b3a0e 	blcc	2cec70 <_Min_Stack_Size+0x2ce870>
 434:	490b3905 	stmdbmi	fp, {r0, r2, r8, fp, ip, sp}
 438:	b7060213 	smladlt	r6, r3, r2, r0
 43c:	00000642 	andeq	r0, r0, r2, asr #12
 440:	03003427 	movweq	r3, #1063	; 0x427
 444:	3b0b3a08 	blcc	2cec6c <_Min_Stack_Size+0x2ce86c>
 448:	490b3905 	stmdbmi	fp, {r0, r2, r8, fp, ip, sp}
 44c:	b7060213 	smladlt	r6, r3, r2, r0
 450:	00000642 	andeq	r0, r0, r2, asr #12
 454:	55010b28 	strpl	r0, [r1, #-2856]	; 0xfffff4d8
 458:	29000006 	stmdbcs	r0, {r1, r2}
 45c:	0c3f012e 	ldfeqs	f0, [pc], #-184	; 3ac <_Min_Heap_Size+0x3ac>
 460:	0b3a0e03 	bleq	e83c74 <_Min_Stack_Size+0xe83874>
 464:	0b39053b 	bleq	e41958 <_Min_Stack_Size+0xe41558>
 468:	01110c27 	tsteq	r1, r7, lsr #24
 46c:	06400112 			; <UNDEFINED> instruction: 0x06400112
 470:	010c4297 			; <UNDEFINED> instruction: 0x010c4297
 474:	2a000013 	bcs	4c8 <_Min_Stack_Size+0xc8>
 478:	08030005 	stmdaeq	r3, {r0, r2}
 47c:	053b0b3a 	ldreq	r0, [fp, #-2874]!	; 0xfffff4c6
 480:	13490b39 	movtne	r0, #39737	; 0x9b39
 484:	00000a02 	andeq	r0, r0, r2, lsl #20
 488:	0300052b 	movweq	r0, #1323	; 0x52b
 48c:	3b0b3a0e 	blcc	2ceccc <_Min_Stack_Size+0x2ce8cc>
 490:	490b3905 	stmdbmi	fp, {r0, r2, r8, fp, ip, sp}
 494:	000a0213 	andeq	r0, sl, r3, lsl r2
 498:	012e2c00 			; <UNDEFINED> instruction: 0x012e2c00
 49c:	0e030c3f 	mcreq	12, 0, r0, cr3, cr15, {1}
 4a0:	053b0b3a 	ldreq	r0, [fp, #-2874]!	; 0xfffff4c6
 4a4:	01110b39 	tsteq	r1, r9, lsr fp
 4a8:	06400112 			; <UNDEFINED> instruction: 0x06400112
 4ac:	010c4297 			; <UNDEFINED> instruction: 0x010c4297
 4b0:	2d000013 	stccs	0, cr0, [r0, #-76]	; 0xffffffb4
 4b4:	0655010b 	ldrbeq	r0, [r5], -fp, lsl #2
 4b8:	00001301 	andeq	r1, r0, r1, lsl #6
 4bc:	11010b2e 	tstne	r1, lr, lsr #22
 4c0:	01011201 	tsteq	r1, r1, lsl #4
 4c4:	2f000013 	svccs	0x00000013
 4c8:	01018289 	smlabbeq	r1, r9, r2, r8
 4cc:	13010111 	movwne	r0, #4369	; 0x1111
 4d0:	8a300000 	bhi	c004d8 <_Min_Stack_Size+0xc000d8>
 4d4:	02000182 	andeq	r0, r0, #-2147483616	; 0x80000020
 4d8:	0a42910a 	beq	10a4908 <_Min_Stack_Size+0x10a4508>
 4dc:	89310000 	ldmdbhi	r1!, {}	; <UNPREDICTABLE>
 4e0:	11010182 	smlabbne	r1, r2, r1, r0
 4e4:	32000001 	andcc	r0, r0, #1
 4e8:	00018289 	andeq	r8, r1, r9, lsl #5
 4ec:	13310111 	teqne	r1, #1073741828	; 0x40000004
 4f0:	89330000 	ldmdbhi	r3!, {}	; <UNPREDICTABLE>
 4f4:	11010182 	smlabbne	r1, r2, r1, r0
 4f8:	01133101 	tsteq	r3, r1, lsl #2
 4fc:	34000013 	strcc	r0, [r0], #-19	; 0xffffffed
 500:	0c3f012e 	ldfeqs	f0, [pc], #-184	; 450 <_Min_Stack_Size+0x50>
 504:	0b3a0e03 	bleq	e83d18 <_Min_Stack_Size+0xe83918>
 508:	0b390b3b 	bleq	e431fc <_Min_Stack_Size+0xe42dfc>
 50c:	01110c27 	tsteq	r1, r7, lsr #24
 510:	06400112 			; <UNDEFINED> instruction: 0x06400112
 514:	010c4297 			; <UNDEFINED> instruction: 0x010c4297
 518:	35000013 	strcc	r0, [r0, #-19]	; 0xffffffed
 51c:	0e030005 	cdpeq	0, 0, cr0, cr3, cr5, {0}
 520:	0b3b0b3a 	bleq	ec3210 <_Min_Stack_Size+0xec2e10>
 524:	13490b39 	movtne	r0, #39737	; 0x9b39
 528:	42b70602 	adcsmi	r0, r7, #2097152	; 0x200000
 52c:	36000006 	strcc	r0, [r0], -r6
 530:	0e030005 	cdpeq	0, 0, cr0, cr3, cr5, {0}
 534:	0b3b0b3a 	bleq	ec3224 <_Min_Stack_Size+0xec2e24>
 538:	13490b39 	movtne	r0, #39737	; 0x9b39
 53c:	00000a02 	andeq	r0, r0, r2, lsl #20
 540:	03003437 	movweq	r3, #1079	; 0x437
 544:	3b0b3a0e 	blcc	2ced84 <_Min_Stack_Size+0x2ce984>
 548:	490b390b 	stmdbmi	fp, {r0, r1, r3, r8, fp, ip, sp}
 54c:	b7060213 	smladlt	r6, r3, r2, r0
 550:	00000642 	andeq	r0, r0, r2, asr #12
 554:	03003438 	movweq	r3, #1080	; 0x438
 558:	3b0b3a08 	blcc	2ced80 <_Min_Stack_Size+0x2ce980>
 55c:	490b390b 	stmdbmi	fp, {r0, r1, r3, r8, fp, ip, sp}
 560:	b7060213 	smladlt	r6, r3, r2, r0
 564:	00000642 	andeq	r0, r0, r2, asr #12
 568:	03012e39 	movweq	r2, #7737	; 0x1e39
 56c:	3b0b3a0e 	blcc	2cedac <_Min_Stack_Size+0x2ce9ac>
 570:	270b390b 	strcs	r3, [fp, -fp, lsl #18]
 574:	1201110c 	andne	r1, r1, #12, 2
 578:	97064001 	strls	r4, [r6, -r1]
 57c:	13010c42 	movwne	r0, #7234	; 0x1c42
 580:	893a0000 	ldmdbhi	sl!, {}	; <UNPREDICTABLE>
 584:	11010182 	smlabbne	r1, r2, r1, r0
 588:	00133101 	andseq	r3, r3, r1, lsl #2
 58c:	011d3b00 	tsteq	sp, r0, lsl #22
 590:	01521331 	cmpeq	r2, r1, lsr r3
 594:	110b42b8 			; <UNDEFINED> instruction: 0x110b42b8
 598:	58011201 	stmdapl	r1, {r0, r9, ip}
 59c:	570b590b 	strpl	r5, [fp, -fp, lsl #18]
 5a0:	0013010b 	andseq	r0, r3, fp, lsl #2
 5a4:	00053c00 	andeq	r3, r5, r0, lsl #24
 5a8:	06021331 			; <UNDEFINED> instruction: 0x06021331
 5ac:	000642b7 			; <UNDEFINED> instruction: 0x000642b7
 5b0:	011d3d00 	tsteq	sp, r0, lsl #26
 5b4:	01521331 	cmpeq	r2, r1, lsr r3
 5b8:	550b42b8 	strpl	r4, [fp, #-696]	; 0xfffffd48
 5bc:	590b5806 	stmdbpl	fp, {r1, r2, fp, ip, lr}
 5c0:	010b570b 	tsteq	fp, fp, lsl #14
 5c4:	3e000013 	mcrcc	0, 0, r0, cr0, cr3, {0}
 5c8:	0b0b000f 	bleq	2c060c <_Min_Stack_Size+0x2c020c>
 5cc:	263f0000 	ldrtcs	r0, [pc], -r0
 5d0:	40000000 	andmi	r0, r0, r0
 5d4:	0e03012e 	adfeqsp	f0, f3, #0.5
 5d8:	0b3b0b3a 	bleq	ec32c8 <_Min_Stack_Size+0xec2ec8>
 5dc:	0c270b39 			; <UNDEFINED> instruction: 0x0c270b39
 5e0:	13010b20 	movwne	r0, #6944	; 0x1b20
 5e4:	05410000 	strbeq	r0, [r1, #-0]
 5e8:	3a080300 	bcc	2011f0 <_Min_Stack_Size+0x200df0>
 5ec:	390b3b0b 	stmdbcc	fp, {r0, r1, r3, r8, r9, fp, ip, sp}
 5f0:	0013490b 	andseq	r4, r3, fp, lsl #18
 5f4:	00054200 	andeq	r4, r5, r0, lsl #4
 5f8:	0b3a0e03 	bleq	e83e0c <_Min_Stack_Size+0xe83a0c>
 5fc:	0b390b3b 	bleq	e432f0 <_Min_Stack_Size+0xe42ef0>
 600:	00001349 	andeq	r1, r0, r9, asr #6
 604:	31011d43 	tstcc	r1, r3, asr #26
 608:	b8015213 	stmdalt	r1, {r0, r1, r4, r9, ip, lr}
 60c:	06550b42 	ldrbeq	r0, [r5], -r2, asr #22
 610:	0b590b58 	bleq	1643378 <_Min_Stack_Size+0x1642f78>
 614:	00000b57 	andeq	r0, r0, r7, asr fp
 618:	3f012e44 	svccc	0x00012e44
 61c:	3a0e030c 	bcc	381254 <_Min_Stack_Size+0x380e54>
 620:	390b3b0b 	stmdbcc	fp, {r0, r1, r3, r8, r9, fp, ip, sp}
 624:	1201110b 	andne	r1, r1, #-1073741822	; 0xc0000002
 628:	970a4001 	strls	r4, [sl, -r1]
 62c:	13010c42 	movwne	r0, #7234	; 0x1c42
 630:	1d450000 	stclne	0, cr0, [r5, #-0]
 634:	52133101 	andspl	r3, r3, #1073741824	; 0x40000000
 638:	0b42b801 	bleq	10ae644 <_Min_Stack_Size+0x10ae244>
 63c:	01120111 	tsteq	r2, r1, lsl r1
 640:	0b590b58 	bleq	16433a8 <_Min_Stack_Size+0x1642fa8>
 644:	00000b57 	andeq	r0, r0, r7, asr fp
 648:	3f012e46 	svccc	0x00012e46
 64c:	3a0e030c 	bcc	381284 <_Min_Stack_Size+0x380e84>
 650:	390b3b0b 	stmdbcc	fp, {r0, r1, r3, r8, r9, fp, ip, sp}
 654:	490c270b 	stmdbmi	ip, {r0, r1, r3, r8, r9, sl, sp}
 658:	12011113 	andne	r1, r1, #-1073741820	; 0xc0000004
 65c:	970a4001 	strls	r4, [sl, -r1]
 660:	13010c42 	movwne	r0, #7234	; 0x1c42
 664:	05470000 	strbeq	r0, [r7, #-0]
 668:	3a080300 	bcc	201270 <_Min_Stack_Size+0x200e70>
 66c:	390b3b0b 	stmdbcc	fp, {r0, r1, r3, r8, r9, fp, ip, sp}
 670:	0213490b 	andseq	r4, r3, #180224	; 0x2c000
 674:	0642b706 	strbeq	fp, [r2], -r6, lsl #14
 678:	2e480000 	cdpcs	0, 4, cr0, cr8, cr0, {0}
 67c:	030c3f00 	movweq	r3, #52992	; 0xcf00
 680:	3b0b3a0e 	blcc	2ceec0 <_Min_Stack_Size+0x2ceac0>
 684:	000b390b 	andeq	r3, fp, fp, lsl #18
 688:	002e4900 	eoreq	r4, lr, r0, lsl #18
 68c:	0e030c3f 	mcreq	12, 0, r0, cr3, cr15, {1}
 690:	0b3b0b3a 	bleq	ec3380 <_Min_Stack_Size+0xec2f80>
 694:	0b200b39 	bleq	803380 <_Min_Stack_Size+0x802f80>
 698:	2e4a0000 	cdpcs	0, 4, cr0, cr10, cr0, {0}
 69c:	3a0e0301 	bcc	3812a8 <_Min_Stack_Size+0x380ea8>
 6a0:	390b3b0b 	stmdbcc	fp, {r0, r1, r3, r8, r9, fp, ip, sp}
 6a4:	490c270b 	stmdbmi	ip, {r0, r1, r3, r8, r9, sl, sp}
 6a8:	010b2013 	tsteq	fp, r3, lsl r0
 6ac:	4b000013 	blmi	700 <_Min_Stack_Size+0x300>
 6b0:	0e03012e 	adfeqsp	f0, f3, #0.5
 6b4:	053b0b3a 	ldreq	r0, [fp, #-2874]!	; 0xfffff4c6
 6b8:	0c270b39 			; <UNDEFINED> instruction: 0x0c270b39
 6bc:	13010b20 	movwne	r0, #6944	; 0x1b20
 6c0:	054c0000 	strbeq	r0, [ip, #-0]
 6c4:	3a0e0300 	bcc	3812cc <_Min_Stack_Size+0x380ecc>
 6c8:	39053b0b 	stmdbcc	r5, {r0, r1, r3, r8, r9, fp, ip, sp}
 6cc:	0013490b 	andseq	r4, r3, fp, lsl #18
 6d0:	002e4d00 	eoreq	r4, lr, r0, lsl #26
 6d4:	01111331 	tsteq	r1, r1, lsr r3
 6d8:	0a400112 	beq	1000b28 <_Min_Stack_Size+0x1000728>
 6dc:	000c4297 	muleq	ip, r7, r2
 6e0:	002e4e00 	eoreq	r4, lr, r0, lsl #28
 6e4:	0c3c0c3f 	ldceq	12, cr0, [ip], #-252	; 0xffffff04
 6e8:	030e4087 	movweq	r4, #57479	; 0xe087
 6ec:	3b0b3a0e 	blcc	2cef2c <_Min_Stack_Size+0x2ceb2c>
 6f0:	000b390b 	andeq	r3, fp, fp, lsl #18
 6f4:	11010000 	mrsne	r0, (UNDEF: 1)
 6f8:	130e2501 	movwne	r2, #58625	; 0xe501
 6fc:	1b0e030b 	blne	381330 <_Min_Stack_Size+0x380f30>
 700:	1201110e 	andne	r1, r1, #-2147483645	; 0x80000003
 704:	00061001 	andeq	r1, r6, r1
 708:	00240200 	eoreq	r0, r4, r0, lsl #4
 70c:	0b3e0b0b 	bleq	f83340 <_Min_Stack_Size+0xf82f40>
 710:	00000e03 	andeq	r0, r0, r3, lsl #28
 714:	03001603 	movweq	r1, #1539	; 0x603
 718:	3b0b3a0e 	blcc	2cef58 <_Min_Stack_Size+0x2ceb58>
 71c:	490b390b 	stmdbmi	fp, {r0, r1, r3, r8, fp, ip, sp}
 720:	04000013 	streq	r0, [r0], #-19	; 0xffffffed
 724:	13490026 	movtne	r0, #36902	; 0x9026
 728:	35050000 	strcc	r0, [r5, #-0]
 72c:	00134900 	andseq	r4, r3, r0, lsl #18
 730:	00240600 	eoreq	r0, r4, r0, lsl #12
 734:	0b3e0b0b 	bleq	f83368 <_Min_Stack_Size+0xf82f68>
 738:	00000803 	andeq	r0, r0, r3, lsl #16
 73c:	0b011307 	bleq	45360 <_Min_Stack_Size+0x44f60>
 740:	3b0b3a0b 	blcc	2cef74 <_Min_Stack_Size+0x2ceb74>
 744:	010b390b 	tsteq	fp, fp, lsl #18
 748:	08000013 	stmdaeq	r0, {r0, r1, r4}
 74c:	0e03000d 	cdpeq	0, 0, cr0, cr3, cr13, {0}
 750:	0b3b0b3a 	bleq	ec3440 <_Min_Stack_Size+0xec3040>
 754:	13490b39 	movtne	r0, #39737	; 0x9b39
 758:	00000a38 	andeq	r0, r0, r8, lsr sl
 75c:	3e010409 	cdpcc	4, 0, cr0, cr1, cr9, {0}
 760:	490b0b0b 	stmdbmi	fp, {r0, r1, r3, r8, r9, fp}
 764:	3b0b3a13 	blcc	2cefb8 <_Min_Stack_Size+0x2cebb8>
 768:	010b390b 	tsteq	fp, fp, lsl #18
 76c:	0a000013 	beq	7c0 <_Min_Stack_Size+0x3c0>
 770:	0e030028 	cdpeq	0, 0, cr0, cr3, cr8, {1}
 774:	00000d1c 	andeq	r0, r0, ip, lsl sp
 778:	0300280b 	movweq	r2, #2059	; 0x80b
 77c:	000b1c0e 	andeq	r1, fp, lr, lsl #24
 780:	01130c00 	tsteq	r3, r0, lsl #24
 784:	0b3a050b 	bleq	e81bb8 <_Min_Stack_Size+0xe817b8>
 788:	0b390b3b 	bleq	e4347c <_Min_Stack_Size+0xe4307c>
 78c:	00001301 	andeq	r1, r0, r1, lsl #6
 790:	03000d0d 	movweq	r0, #3341	; 0xd0d
 794:	3b0b3a08 	blcc	2cefbc <_Min_Stack_Size+0x2cebbc>
 798:	490b390b 	stmdbmi	fp, {r0, r1, r3, r8, fp, ip, sp}
 79c:	000a3813 	andeq	r3, sl, r3, lsl r8
 7a0:	01010e00 	tsteq	r1, r0, lsl #28
 7a4:	13011349 	movwne	r1, #4937	; 0x1349
 7a8:	210f0000 	mrscs	r0, CPSR
 7ac:	2f134900 	svccs	0x00134900
 7b0:	1000000b 	andne	r0, r0, fp
 7b4:	13490021 	movtne	r0, #36897	; 0x9021
 7b8:	0000052f 	andeq	r0, r0, pc, lsr #10
 7bc:	03003411 	movweq	r3, #1041	; 0x411
 7c0:	3b0b3a0e 	blcc	2cf000 <_Min_Stack_Size+0x2cec00>
 7c4:	490b3905 	stmdbmi	fp, {r0, r2, r8, fp, ip, sp}
 7c8:	3c0c3f13 	stccc	15, cr3, [ip], {19}
 7cc:	1200000c 	andne	r0, r0, #12
 7d0:	0e030034 	mcreq	0, 0, r0, cr3, cr4, {1}
 7d4:	0b3b0b3a 	bleq	ec34c4 <_Min_Stack_Size+0xec30c4>
 7d8:	13490b39 	movtne	r0, #39737	; 0x9b39
 7dc:	0c3c0c3f 	ldceq	12, cr0, [ip], #-252	; 0xffffff04
 7e0:	13130000 	tstne	r3, #0
 7e4:	3a0b0b01 	bcc	2c33f0 <_Min_Stack_Size+0x2c2ff0>
 7e8:	39053b0b 	stmdbcc	r5, {r0, r1, r3, r8, r9, fp, ip, sp}
 7ec:	0013010b 	andseq	r0, r3, fp, lsl #2
 7f0:	000d1400 	andeq	r1, sp, r0, lsl #8
 7f4:	0b3a0e03 	bleq	e84008 <_Min_Stack_Size+0xe83c08>
 7f8:	0b39053b 	bleq	e41cec <_Min_Stack_Size+0xe418ec>
 7fc:	0a381349 	beq	e05528 <_Min_Stack_Size+0xe05128>
 800:	0d150000 	ldceq	0, cr0, [r5, #-0]
 804:	3a080300 	bcc	20140c <_Min_Stack_Size+0x20100c>
 808:	39053b0b 	stmdbcc	r5, {r0, r1, r3, r8, r9, fp, ip, sp}
 80c:	3813490b 	ldmdacc	r3, {r0, r1, r3, r8, fp, lr}
 810:	1600000a 	strne	r0, [r0], -sl
 814:	0e030016 	mcreq	0, 0, r0, cr3, cr6, {0}
 818:	053b0b3a 	ldreq	r0, [fp, #-2874]!	; 0xfffff4c6
 81c:	13490b39 	movtne	r0, #39737	; 0x9b39
 820:	17170000 	ldrne	r0, [r7, -r0]
 824:	3a0b0b01 	bcc	2c3430 <_Min_Stack_Size+0x2c3030>
 828:	390b3b0b 	stmdbcc	fp, {r0, r1, r3, r8, r9, fp, ip, sp}
 82c:	0013010b 	andseq	r0, r3, fp, lsl #2
 830:	000d1800 	andeq	r1, sp, r0, lsl #16
 834:	0b3a0e03 	bleq	e84048 <_Min_Stack_Size+0xe83c48>
 838:	0b390b3b 	bleq	e4352c <_Min_Stack_Size+0xe4312c>
 83c:	00001349 	andeq	r1, r0, r9, asr #6
 840:	0b000f19 	bleq	44ac <_Min_Stack_Size+0x40ac>
 844:	1a00000b 	bne	878 <_Min_Stack_Size+0x478>
 848:	0e030113 	mcreq	1, 0, r0, cr3, cr3, {0}
 84c:	0b3a0b0b 	bleq	e83480 <_Min_Stack_Size+0xe83080>
 850:	0b390b3b 	bleq	e43544 <_Min_Stack_Size+0xe43144>
 854:	00001301 	andeq	r1, r0, r1, lsl #6
 858:	0b000f1b 	bleq	44cc <_Min_Stack_Size+0x40cc>
 85c:	0013490b 	andseq	r4, r3, fp, lsl #18
 860:	01131c00 	tsteq	r3, r0, lsl #24
 864:	050b0e03 	streq	r0, [fp, #-3587]	; 0xfffff1fd
 868:	0b3b0b3a 	bleq	ec3558 <_Min_Stack_Size+0xec3158>
 86c:	13010b39 	movwne	r0, #6969	; 0x1b39
 870:	151d0000 	ldrne	r0, [sp, #-0]
 874:	000c2700 	andeq	r2, ip, r0, lsl #14
 878:	01151e00 	tsteq	r5, r0, lsl #28
 87c:	13490c27 	movtne	r0, #39975	; 0x9c27
 880:	00001301 	andeq	r1, r0, r1, lsl #6
 884:	4900051f 	stmdbmi	r0, {r0, r1, r2, r3, r4, r8, sl}
 888:	20000013 	andcs	r0, r0, r3, lsl r0
 88c:	0e030113 	mcreq	1, 0, r0, cr3, cr3, {0}
 890:	0b3a050b 	bleq	e81cc4 <_Min_Stack_Size+0xe818c4>
 894:	0b39053b 	bleq	e41d88 <_Min_Stack_Size+0xe41988>
 898:	00001301 	andeq	r1, r0, r1, lsl #6
 89c:	03011321 	movweq	r1, #4897	; 0x1321
 8a0:	3a0b0b0e 	bcc	2c34e0 <_Min_Stack_Size+0x2c30e0>
 8a4:	39053b0b 	stmdbcc	r5, {r0, r1, r3, r8, r9, fp, ip, sp}
 8a8:	0013010b 	andseq	r0, r3, fp, lsl #2
 8ac:	01172200 	tsteq	r7, r0, lsl #4
 8b0:	0b3a0b0b 	bleq	e834e4 <_Min_Stack_Size+0xe830e4>
 8b4:	0b39053b 	bleq	e41da8 <_Min_Stack_Size+0xe419a8>
 8b8:	00001301 	andeq	r1, r0, r1, lsl #6
 8bc:	03000d23 	movweq	r0, #3363	; 0xd23
 8c0:	3b0b3a0e 	blcc	2cf100 <_Min_Stack_Size+0x2ced00>
 8c4:	490b3905 	stmdbmi	fp, {r0, r2, r8, fp, ip, sp}
 8c8:	24000013 	strcs	r0, [r0], #-19	; 0xffffffed
 8cc:	0e030013 	mcreq	0, 0, r0, cr3, cr3, {0}
 8d0:	00000c3c 	andeq	r0, r0, ip, lsr ip
 8d4:	27011525 	strcs	r1, [r1, -r5, lsr #10]
 8d8:	0013010c 	andseq	r0, r3, ip, lsl #2
 8dc:	00342600 	eorseq	r2, r4, r0, lsl #12
 8e0:	0b3a0e03 	bleq	e840f4 <_Min_Stack_Size+0xe83cf4>
 8e4:	0b390b3b 	bleq	e435d8 <_Min_Stack_Size+0xe431d8>
 8e8:	0a021349 	beq	85614 <_Min_Stack_Size+0x85214>
 8ec:	34270000 	strtcc	r0, [r7], #-0
 8f0:	3a0e0300 	bcc	3814f8 <_Min_Stack_Size+0x3810f8>
 8f4:	39053b0b 	stmdbcc	r5, {r0, r1, r3, r8, r9, fp, ip, sp}
 8f8:	0213490b 	andseq	r4, r3, #180224	; 0x2c000
 8fc:	2800000a 	stmdacs	r0, {r1, r3}
 900:	0e030034 	mcreq	0, 0, r0, cr3, cr4, {1}
 904:	053b0b3a 	ldreq	r0, [fp, #-2874]!	; 0xfffff4c6
 908:	13490b39 	movtne	r0, #39737	; 0x9b39
 90c:	0a020c3f 	beq	83a10 <_Min_Stack_Size+0x83610>
 910:	2e290000 	cdpcs	0, 2, cr0, cr9, cr0, {0}
 914:	030c3f00 	movweq	r3, #52992	; 0xcf00
 918:	3b0b3a0e 	blcc	2cf158 <_Min_Stack_Size+0x2ced58>
 91c:	110b3905 	tstne	fp, r5, lsl #18
 920:	40011201 	andmi	r1, r1, r1, lsl #4
 924:	0c42970a 	mcrreq	7, 0, r9, r2, cr10
 928:	2e2a0000 	cdpcs	0, 2, cr0, cr10, cr0, {0}
 92c:	030c3f01 	movweq	r3, #52993	; 0xcf01
 930:	3b0b3a0e 	blcc	2cf170 <_Min_Stack_Size+0x2ced70>
 934:	110b3905 	tstne	fp, r5, lsl #18
 938:	40011201 	andmi	r1, r1, r1, lsl #4
 93c:	0c429706 	mcrreq	7, 0, r9, r2, cr6
 940:	00001301 	andeq	r1, r0, r1, lsl #6
 944:	31011d2b 	tstcc	r1, fp, lsr #26
 948:	b8015213 	stmdalt	r1, {r0, r1, r4, r9, ip, lr}
 94c:	06550b42 	ldrbeq	r0, [r5], -r2, asr #22
 950:	05590b58 	ldrbeq	r0, [r9, #-2904]	; 0xfffff4a8
 954:	13010b57 	movwne	r0, #6999	; 0x1b57
 958:	052c0000 	streq	r0, [ip, #-0]!
 95c:	02133100 	andseq	r3, r3, #0, 2
 960:	0642b706 	strbeq	fp, [r2], -r6, lsl #14
 964:	892d0000 	pushhi	{}	; <UNPREDICTABLE>
 968:	11010182 	smlabbne	r1, r2, r1, r0
 96c:	01133101 	tsteq	r3, r1, lsl #2
 970:	2e000013 	mcrcs	0, 0, r0, cr0, cr3, {0}
 974:	0001828a 	andeq	r8, r1, sl, lsl #5
 978:	42910a02 	addsmi	r0, r1, #8192	; 0x2000
 97c:	2f00000a 	svccs	0x0000000a
 980:	01018289 	smlabbeq	r1, r9, r2, r8
 984:	13310111 	teqne	r1, #1073741828	; 0x40000004
 988:	2e300000 	cdpcs	0, 3, cr0, cr0, cr0, {0}
 98c:	030c3f01 	movweq	r3, #52993	; 0xcf01
 990:	3b0b3a0e 	blcc	2cf1d0 <_Min_Stack_Size+0x2cedd0>
 994:	270b3905 	strcs	r3, [fp, -r5, lsl #18]
 998:	1201110c 	andne	r1, r1, #12, 2
 99c:	97064001 	strls	r4, [r6, -r1]
 9a0:	13010c42 	movwne	r0, #7234	; 0x1c42
 9a4:	05310000 	ldreq	r0, [r1, #-0]!
 9a8:	3a0e0300 	bcc	3815b0 <_Min_Stack_Size+0x3811b0>
 9ac:	39053b0b 	stmdbcc	r5, {r0, r1, r3, r8, r9, fp, ip, sp}
 9b0:	0213490b 	andseq	r4, r3, #180224	; 0x2c000
 9b4:	0642b706 	strbeq	fp, [r2], -r6, lsl #14
 9b8:	34320000 	ldrtcc	r0, [r2], #-0
 9bc:	3a080300 	bcc	2015c4 <_Min_Stack_Size+0x2011c4>
 9c0:	39053b0b 	stmdbcc	r5, {r0, r1, r3, r8, r9, fp, ip, sp}
 9c4:	0213490b 	andseq	r4, r3, #180224	; 0x2c000
 9c8:	3300000a 	movwcc	r0, #10
 9cc:	0e030034 	mcreq	0, 0, r0, cr3, cr4, {1}
 9d0:	053b0b3a 	ldreq	r0, [fp, #-2874]!	; 0xfffff4c6
 9d4:	13490b39 	movtne	r0, #39737	; 0x9b39
 9d8:	42b70602 	adcsmi	r0, r7, #2097152	; 0x200000
 9dc:	34000006 	strcc	r0, [r0], #-6
 9e0:	0655010b 	ldrbeq	r0, [r5], -fp, lsl #2
 9e4:	00001301 	andeq	r1, r0, r1, lsl #6
 9e8:	03003435 	movweq	r3, #1077	; 0x435
 9ec:	3b0b3a08 	blcc	2cf214 <_Min_Stack_Size+0x2cee14>
 9f0:	490b3905 	stmdbmi	fp, {r0, r2, r8, fp, ip, sp}
 9f4:	b7060213 	smladlt	r6, r3, r2, r0
 9f8:	00000642 	andeq	r0, r0, r2, asr #12
 9fc:	31011d36 	tstcc	r1, r6, lsr sp
 a00:	b8015213 	stmdalt	r1, {r0, r1, r4, r9, ip, lr}
 a04:	06550b42 	ldrbeq	r0, [r5], -r2, asr #22
 a08:	05590b58 	ldrbeq	r0, [r9, #-2904]	; 0xfffff4a8
 a0c:	00000b57 	andeq	r0, r0, r7, asr fp
 a10:	55010b37 	strpl	r0, [r1, #-2871]	; 0xfffff4c9
 a14:	38000006 	stmdacc	r0, {r1, r2}
 a18:	13310034 	teqne	r1, #52	; 0x34
 a1c:	42b70602 	adcsmi	r0, r7, #2097152	; 0x200000
 a20:	39000006 	stmdbcc	r0, {r1, r2}
 a24:	0c3f012e 	ldfeqs	f0, [pc], #-184	; 974 <_Min_Stack_Size+0x574>
 a28:	0b3a0e03 	bleq	e8423c <_Min_Stack_Size+0xe83e3c>
 a2c:	0b39053b 	bleq	e41f20 <_Min_Stack_Size+0xe41b20>
 a30:	13490c27 	movtne	r0, #39975	; 0x9c27
 a34:	01120111 	tsteq	r2, r1, lsl r1
 a38:	42970640 	addsmi	r0, r7, #64, 12	; 0x4000000
 a3c:	0013010c 	andseq	r0, r3, ip, lsl #2
 a40:	00053a00 	andeq	r3, r5, r0, lsl #20
 a44:	0b3a0803 	bleq	e82a58 <_Min_Stack_Size+0xe82658>
 a48:	0b39053b 	bleq	e41f3c <_Min_Stack_Size+0xe41b3c>
 a4c:	06021349 	streq	r1, [r2], -r9, asr #6
 a50:	000642b7 			; <UNDEFINED> instruction: 0x000642b7
 a54:	011d3b00 	tsteq	sp, r0, lsl #22
 a58:	01521331 	cmpeq	r2, r1, lsr r3
 a5c:	110b42b8 			; <UNDEFINED> instruction: 0x110b42b8
 a60:	58011201 	stmdapl	r1, {r0, r9, ip}
 a64:	5705590b 	strpl	r5, [r5, -fp, lsl #18]
 a68:	3c00000b 	stccc	0, cr0, [r0], {11}
 a6c:	0c3f012e 	ldfeqs	f0, [pc], #-184	; 9bc <_Min_Stack_Size+0x5bc>
 a70:	0b3a0e03 	bleq	e84284 <_Min_Stack_Size+0xe83e84>
 a74:	0b39053b 	bleq	e41f68 <_Min_Stack_Size+0xe41b68>
 a78:	13490c27 	movtne	r0, #39975	; 0x9c27
 a7c:	01120111 	tsteq	r2, r1, lsl r1
 a80:	42970a40 	addsmi	r0, r7, #64, 20	; 0x40000
 a84:	0013010c 	andseq	r0, r3, ip, lsl #2
 a88:	00053d00 	andeq	r3, r5, r0, lsl #26
 a8c:	0b3a0e03 	bleq	e842a0 <_Min_Stack_Size+0xe83ea0>
 a90:	0b39053b 	bleq	e41f84 <_Min_Stack_Size+0xe41b84>
 a94:	0a021349 	beq	857c0 <_Min_Stack_Size+0x853c0>
 a98:	2e3e0000 	cdpcs	0, 3, cr0, cr14, cr0, {0}
 a9c:	030c3f01 	movweq	r3, #52993	; 0xcf01
 aa0:	3b0b3a0e 	blcc	2cf2e0 <_Min_Stack_Size+0x2ceee0>
 aa4:	270b3905 	strcs	r3, [fp, -r5, lsl #18]
 aa8:	1201110c 	andne	r1, r1, #12, 2
 aac:	970a4001 	strls	r4, [sl, -r1]
 ab0:	13010c42 	movwne	r0, #7234	; 0x1c42
 ab4:	263f0000 	ldrtcs	r0, [pc], -r0
 ab8:	40000000 	andmi	r0, r0, r0
 abc:	0e03012e 	adfeqsp	f0, f3, #0.5
 ac0:	0b3b0b3a 	bleq	ec37b0 <_Min_Stack_Size+0xec33b0>
 ac4:	0c270b39 			; <UNDEFINED> instruction: 0x0c270b39
 ac8:	0b201349 	bleq	8057f4 <_Min_Stack_Size+0x8053f4>
 acc:	00001301 	andeq	r1, r0, r1, lsl #6
 ad0:	03000541 	movweq	r0, #1345	; 0x541
 ad4:	3b0b3a0e 	blcc	2cf314 <_Min_Stack_Size+0x2cef14>
 ad8:	490b390b 	stmdbmi	fp, {r0, r1, r3, r8, fp, ip, sp}
 adc:	42000013 	andmi	r0, r0, #19
 ae0:	08030005 	stmdaeq	r3, {r0, r2}
 ae4:	0b3b0b3a 	bleq	ec37d4 <_Min_Stack_Size+0xec33d4>
 ae8:	13490b39 	movtne	r0, #39737	; 0x9b39
 aec:	34430000 	strbcc	r0, [r3], #-0
 af0:	3a080300 	bcc	2016f8 <_Min_Stack_Size+0x2012f8>
 af4:	390b3b0b 	stmdbcc	fp, {r0, r1, r3, r8, r9, fp, ip, sp}
 af8:	0013490b 	andseq	r4, r3, fp, lsl #18
 afc:	012e4400 			; <UNDEFINED> instruction: 0x012e4400
 b00:	0b3a0e03 	bleq	e84314 <_Min_Stack_Size+0xe83f14>
 b04:	0b390b3b 	bleq	e437f8 <_Min_Stack_Size+0xe433f8>
 b08:	0b200c27 	bleq	803bac <_Min_Stack_Size+0x8037ac>
 b0c:	00001301 	andeq	r1, r0, r1, lsl #6
 b10:	03012e45 	movweq	r2, #7749	; 0x1e45
 b14:	3b0b3a0e 	blcc	2cf354 <_Min_Stack_Size+0x2cef54>
 b18:	270b3905 	strcs	r3, [fp, -r5, lsl #18]
 b1c:	010b200c 	tsteq	fp, ip
 b20:	46000013 			; <UNDEFINED> instruction: 0x46000013
 b24:	0e030005 	cdpeq	0, 0, cr0, cr3, cr5, {0}
 b28:	053b0b3a 	ldreq	r0, [fp, #-2874]!	; 0xfffff4c6
 b2c:	13490b39 	movtne	r0, #39737	; 0x9b39
 b30:	2e470000 	cdpcs	0, 4, cr0, cr7, cr0, {0}
 b34:	3c0c3f00 	stccc	15, cr3, [ip], {-0}
 b38:	0e40870c 	cdpeq	7, 4, cr8, cr0, cr12, {0}
 b3c:	0b3a0e03 	bleq	e84350 <_Min_Stack_Size+0xe83f50>
 b40:	0b390b3b 	bleq	e43834 <_Min_Stack_Size+0xe43434>
 b44:	2e480000 	cdpcs	0, 4, cr0, cr8, cr0, {0}
 b48:	3c0c3f00 	stccc	15, cr3, [ip], {-0}
 b4c:	0e40870c 	cdpeq	7, 4, cr8, cr0, cr12, {0}
 b50:	0b3a0e03 	bleq	e84364 <_Min_Stack_Size+0xe83f64>
 b54:	00000b3b 	andeq	r0, r0, fp, lsr fp
 b58:	01110100 	tsteq	r1, r0, lsl #2
 b5c:	0b130e25 	bleq	4c43f8 <_Min_Stack_Size+0x4c3ff8>
 b60:	0e1b0e03 	cdpeq	14, 1, cr0, cr11, cr3, {0}
 b64:	06120111 			; <UNDEFINED> instruction: 0x06120111
 b68:	00001710 	andeq	r1, r0, r0, lsl r7
 b6c:	0b002402 	bleq	9b7c <_Min_Stack_Size+0x977c>
 b70:	030b3e0b 	movweq	r3, #48651	; 0xbe0b
 b74:	0300000e 	movweq	r0, #14
 b78:	0b0b0024 	bleq	2c0c10 <_Min_Stack_Size+0x2c0810>
 b7c:	08030b3e 	stmdaeq	r3, {r1, r2, r3, r4, r5, r8, r9, fp}
 b80:	16040000 	strne	r0, [r4], -r0
 b84:	3a0e0300 	bcc	38178c <_Min_Stack_Size+0x38138c>
 b88:	390b3b0b 	stmdbcc	fp, {r0, r1, r3, r8, r9, fp, ip, sp}
 b8c:	0013490b 	andseq	r4, r3, fp, lsl #18
 b90:	01010500 	tsteq	r1, r0, lsl #10
 b94:	13011349 	movwne	r1, #4937	; 0x1349
 b98:	21060000 	mrscs	r0, (UNDEF: 6)
 b9c:	07000000 	streq	r0, [r0, -r0]
 ba0:	0b0b000f 	bleq	2c0be4 <_Min_Stack_Size+0x2c07e4>
 ba4:	00001349 	andeq	r1, r0, r9, asr #6
 ba8:	27001508 	strcs	r1, [r0, -r8, lsl #10]
 bac:	09000019 	stmdbeq	r0, {r0, r3, r4}
 bb0:	0e030034 	mcreq	0, 0, r0, cr3, cr4, {1}
 bb4:	0b3b0b3a 	bleq	ec38a4 <_Min_Stack_Size+0xec34a4>
 bb8:	13490b39 	movtne	r0, #39737	; 0x9b39
 bbc:	193c193f 	ldmdbne	ip!, {r0, r1, r2, r3, r4, r5, r8, fp, ip}
 bc0:	2e0a0000 	cdpcs	0, 0, cr0, cr10, cr0, {0}
 bc4:	03193f01 	tsteq	r9, #1, 30
 bc8:	3b0b3a0e 	blcc	2cf408 <_Min_Stack_Size+0x2cf008>
 bcc:	270b390b 	strcs	r3, [fp, -fp, lsl #18]
 bd0:	12011119 	andne	r1, r1, #1073741830	; 0x40000006
 bd4:	96184006 	ldrls	r4, [r8], -r6
 bd8:	13011942 	movwne	r1, #6466	; 0x1942
 bdc:	340b0000 	strcc	r0, [fp], #-0
 be0:	3a0e0300 	bcc	3817e8 <_Min_Stack_Size+0x3813e8>
 be4:	390b3b0b 	stmdbcc	fp, {r0, r1, r3, r8, r9, fp, ip, sp}
 be8:	0213490b 	andseq	r4, r3, #180224	; 0x2c000
 bec:	1742b717 	smlaldne	fp, r2, r7, r7
 bf0:	340c0000 	strcc	r0, [ip], #-0
 bf4:	3a080300 	bcc	2017fc <_Min_Stack_Size+0x2013fc>
 bf8:	390b3b0b 	stmdbcc	fp, {r0, r1, r3, r8, r9, fp, ip, sp}
 bfc:	0213490b 	andseq	r4, r3, #180224	; 0x2c000
 c00:	1742b717 	smlaldne	fp, r2, r7, r7
 c04:	890d0000 	stmdbhi	sp, {}	; <UNPREDICTABLE>
 c08:	11000182 	smlabbne	r0, r2, r1, r0
 c0c:	00133101 	andseq	r3, r3, r1, lsl #2
 c10:	002e0e00 	eoreq	r0, lr, r0, lsl #28
 c14:	193c193f 	ldmdbne	ip!, {r0, r1, r2, r3, r4, r5, r8, fp, ip}
 c18:	0e030e6e 	cdpeq	14, 0, cr0, cr3, cr14, {3}
 c1c:	0b3b0b3a 	bleq	ec390c <_Min_Stack_Size+0xec350c>
 c20:	00000b39 	andeq	r0, r0, r9, lsr fp
 c24:	00110100 	andseq	r0, r1, r0, lsl #2
 c28:	01110610 	tsteq	r1, r0, lsl r6
 c2c:	0e030112 	mcreq	1, 0, r0, cr3, cr2, {0}
 c30:	0e250e1b 	mcreq	14, 1, r0, cr5, cr11, {0}
 c34:	00000513 	andeq	r0, r0, r3, lsl r5
	...

Disassembly of section .debug_loc:

00000000 <.debug_loc>:
       0:	08000d58 	stmdaeq	r0, {r3, r4, r6, r8, sl, fp}
       4:	08000d5a 	stmdaeq	r0, {r1, r3, r4, r6, r8, sl, fp}
       8:	007d0002 	rsbseq	r0, sp, r2
       c:	08000d5a 	stmdaeq	r0, {r1, r3, r4, r6, r8, sl, fp}
      10:	08000ddc 	stmdaeq	r0, {r2, r3, r4, r6, r7, r8, sl, fp}
      14:	087d0002 	ldmdaeq	sp!, {r1}^
	...
      20:	00010100 	andeq	r0, r1, r0, lsl #2
      24:	00000000 	andeq	r0, r0, r0
      28:	08000d6e 	stmdaeq	r0, {r1, r2, r3, r5, r6, r8, sl, fp}
      2c:	08000d7a 	stmdaeq	r0, {r1, r3, r4, r5, r6, r8, sl, fp}
      30:	7a520001 	bvc	148003c <_Min_Stack_Size+0x147fc3c>
      34:	7e08000d 	cdpvc	0, 0, cr0, cr8, cr13, {0}
      38:	0808000d 	stmdaeq	r8, {r0, r2, r3}
      3c:	11007200 	mrsne	r7, R8_usr
      40:	1a4fffff 	bne	1400044 <_Min_Stack_Size+0x13ffc44>
      44:	000d7e9f 	muleq	sp, pc, lr	; <UNPREDICTABLE>
      48:	000d8208 	andeq	r8, sp, r8, lsl #4
      4c:	52000108 	andpl	r0, r0, #8, 2
      50:	08000d82 	stmdaeq	r0, {r1, r7, r8, sl, fp}
      54:	08000d8c 	stmdaeq	r0, {r2, r3, r7, r8, sl, fp}
      58:	08730002 	ldmdaeq	r3!, {r1}^
	...
      64:	00010100 	andeq	r0, r1, r0, lsl #2
      68:	00000000 	andeq	r0, r0, r0
      6c:	08000d82 	stmdaeq	r0, {r1, r7, r8, sl, fp}
      70:	08000d8e 	stmdaeq	r0, {r1, r2, r3, r7, r8, sl, fp}
      74:	8e520001 	cdphi	0, 5, cr0, cr2, cr1, {0}
      78:	9208000d 	andls	r0, r8, #13
      7c:	0808000d 	stmdaeq	r8, {r0, r2, r3}
      80:	11007200 	mrsne	r7, R8_usr
      84:	1a73ffff 	bne	1d00088 <_Min_Stack_Size+0x1cffc88>
      88:	000d929f 	muleq	sp, pc, r2	; <UNPREDICTABLE>
      8c:	000d9608 	andeq	r9, sp, r8, lsl #12
      90:	52000108 	andpl	r0, r0, #8, 2
      94:	08000d96 	stmdaeq	r0, {r1, r2, r4, r7, r8, sl, fp}
      98:	08000d9e 	stmdaeq	r0, {r1, r2, r3, r4, r7, r8, sl, fp}
      9c:	08730002 	ldmdaeq	r3!, {r1}^
	...
      a8:	00010100 	andeq	r0, r1, r0, lsl #2
      ac:	0d980000 	ldceq	0, cr0, [r8]
      b0:	0da00800 	stceq	8, cr0, [r0]
      b4:	00010800 	andeq	r0, r1, r0, lsl #16
      b8:	000da051 	andeq	sl, sp, r1, asr r0
      bc:	000da408 	andeq	sl, sp, r8, lsl #8
      c0:	71000a08 	tstvc	r0, r8, lsl #20
      c4:	ffff1100 			; <UNDEFINED> instruction: 0xffff1100
      c8:	1a7f9fff 	bne	1fe80cc <_Min_Stack_Size+0x1fe7ccc>
      cc:	000da49f 	muleq	sp, pc, r4	; <UNPREDICTABLE>
      d0:	000db908 	andeq	fp, sp, r8, lsl #18
      d4:	51000108 	tstpl	r0, r8, lsl #2
	...
      e0:	00010100 	andeq	r0, r1, r0, lsl #2
      e4:	0da80000 	stceq	0, cr0, [r8]
      e8:	0db00800 	ldceq	8, cr0, [r0]
      ec:	00010800 	andeq	r0, r1, r0, lsl #16
      f0:	000db052 	andeq	fp, sp, r2, asr r0
      f4:	000db408 	andeq	fp, sp, r8, lsl #8
      f8:	72000708 	andvc	r0, r0, #8, 14	; 0x200000
      fc:	f3ff0b00 	vtbl.8	d16, {d15-d18}, d0
     100:	0db49f1a 	ldceq	15, cr9, [r4, #104]!	; 0x68
     104:	0db90800 	ldceq	8, cr0, [r9]
     108:	00010800 	andeq	r0, r1, r0, lsl #16
     10c:	00000052 	andeq	r0, r0, r2, asr r0
     110:	00000000 	andeq	r0, r0, r0
     114:	02020000 	andeq	r0, r2, #0
     118:	58000000 	stmdapl	r0, {}	; <UNPREDICTABLE>
     11c:	58080003 	stmdapl	r8, {r0, r1}
     120:	01080003 	tsteq	r8, r3
     124:	03585000 	cmpeq	r8, #0
     128:	035c0800 	cmpeq	ip, #0, 16
     12c:	00010800 	andeq	r0, r1, r0, lsl #16
     130:	00035c50 	andeq	r5, r3, r0, asr ip
     134:	00036408 	andeq	r6, r3, r8, lsl #8
     138:	70000308 	andvc	r0, r0, r8, lsl #6
     13c:	00009f01 	andeq	r9, r0, r1, lsl #30
     140:	00000000 	andeq	r0, r0, r0
     144:	00010000 	andeq	r0, r1, r0
     148:	00000000 	andeq	r0, r0, r0
     14c:	03160000 	tsteq	r6, #0
     150:	031a0800 	tsteq	sl, #0, 16
     154:	00020800 	andeq	r0, r2, r0, lsl #16
     158:	031a9f30 	tsteq	sl, #48, 30	; 0xc0
     15c:	03220800 			; <UNDEFINED> instruction: 0x03220800
     160:	00070800 	andeq	r0, r7, r0, lsl #16
     164:	720fff0a 	andvc	pc, pc, #10, 30	; 0x28
     168:	229f1c00 	addscs	r1, pc, #0, 24
     16c:	24080003 	strcs	r0, [r8], #-3
     170:	07080003 	streq	r0, [r8, -r3]
     174:	10000a00 	andne	r0, r0, r0, lsl #20
     178:	9f1c0072 	svcls	0x001c0072
     17c:	0800032c 	stmdaeq	r0, {r2, r3, r5, r8, r9}
     180:	08000354 	stmdaeq	r0, {r2, r4, r6, r8, r9}
     184:	ff0a0004 			; <UNDEFINED> instruction: 0xff0a0004
     188:	00009f1f 	andeq	r9, r0, pc, lsl pc
	...
     194:	03100000 	tsteq	r0, #0
     198:	031a0800 	tsteq	sl, #0, 16
     19c:	00010800 	andeq	r0, r1, r0, lsl #16
     1a0:	00031a52 	andeq	r1, r3, r2, asr sl
     1a4:	00033408 	andeq	r3, r3, r8, lsl #8
     1a8:	73000208 	movwvc	r0, #520	; 0x208
     1ac:	00000008 	andeq	r0, r0, r8
	...
     1bc:	0001e800 	andeq	lr, r1, r0, lsl #16
     1c0:	00020a08 	andeq	r0, r2, r8, lsl #20
     1c4:	50000108 	andpl	r0, r0, r8, lsl #2
     1c8:	0800020a 	stmdaeq	r0, {r1, r3, r9}
     1cc:	0800028e 	stmdaeq	r0, {r1, r2, r3, r7, r9}
     1d0:	01f30004 	mvnseq	r0, r4
     1d4:	028e9f50 	addeq	r9, lr, #80, 30	; 0x140
     1d8:	02ea0800 	rsceq	r0, sl, #0, 16
     1dc:	00010800 	andeq	r0, r1, r0, lsl #16
     1e0:	0002ea50 	andeq	lr, r2, r0, asr sl
     1e4:	00030c08 	andeq	r0, r3, r8, lsl #24
     1e8:	f3000408 	vshl.u8	d0, d8, d0
     1ec:	009f5001 	addseq	r5, pc, r1
     1f0:	00000000 	andeq	r0, r0, r0
     1f4:	01000000 	mrseq	r0, (UNDEF: 0)
     1f8:	00000000 	andeq	r0, r0, r0
     1fc:	01000000 	mrseq	r0, (UNDEF: 0)
     200:	00000000 	andeq	r0, r0, r0
     204:	01010000 	mrseq	r0, (UNDEF: 1)
     208:	00000000 	andeq	r0, r0, r0
     20c:	01010000 	mrseq	r0, (UNDEF: 1)
     210:	00000000 	andeq	r0, r0, r0
     214:	00000100 	andeq	r0, r0, r0, lsl #2
     218:	f2000000 	vhadd.s8	d0, d0, d0
     21c:	f6080001 			; <UNDEFINED> instruction: 0xf6080001
     220:	02080001 	andeq	r0, r8, #1
     224:	f69f3000 			; <UNDEFINED> instruction: 0xf69f3000
     228:	fe080001 	cdp2	0, 0, cr0, cr8, cr1, {0}
     22c:	07080001 	streq	r0, [r8, -r1]
     230:	0fff0a00 	svceq	0x00ff0a00
     234:	9f1c0072 	svcls	0x001c0072
     238:	080001fe 	stmdaeq	r0, {r1, r2, r3, r4, r5, r6, r7, r8}
     23c:	08000200 	stmdaeq	r0, {r9}
     240:	000a0007 	andeq	r0, sl, r7
     244:	1c007210 	sfmne	f7, 4, [r0], {16}
     248:	00020c9f 	muleq	r2, pc, ip	; <UNPREDICTABLE>
     24c:	00020e08 	andeq	r0, r2, r8, lsl #28
     250:	0a000708 	beq	1e78 <_Min_Stack_Size+0x1a78>
     254:	00730fff 	ldrshteq	r0, [r3], #-255	; 0xffffff01
     258:	02449f1c 	subeq	r9, r4, #28, 30	; 0x70
     25c:	024a0800 	subeq	r0, sl, #0, 16
     260:	00020800 	andeq	r0, r2, r0, lsl #16
     264:	024a9f30 	subeq	r9, sl, #48, 30	; 0xc0
     268:	02500800 	subseq	r0, r0, #0, 16
     26c:	00070800 	andeq	r0, r7, r0, lsl #16
     270:	730fff0a 	movwvc	pc, #65290	; 0xff0a	; <UNPREDICTABLE>
     274:	509f1c00 	addspl	r1, pc, r0, lsl #24
     278:	52080002 	andpl	r0, r8, #2
     27c:	07080002 	streq	r0, [r8, -r2]
     280:	10000a00 	andne	r0, r0, r0, lsl #20
     284:	9f1c0073 	svcls	0x001c0073
     288:	08000264 	stmdaeq	r0, {r2, r5, r6, r9}
     28c:	08000276 	stmdaeq	r0, {r1, r2, r4, r5, r6, r9}
     290:	ff0a0004 			; <UNDEFINED> instruction: 0xff0a0004
     294:	02769f1f 	rsbseq	r9, r6, #31, 30	; 0x7c
     298:	027a0800 	rsbseq	r0, sl, #0, 16
     29c:	00020800 	andeq	r0, r2, r0, lsl #16
     2a0:	027a9f30 	rsbseq	r9, sl, #48, 30	; 0xc0
     2a4:	02840800 	addeq	r0, r4, #0, 16
     2a8:	00070800 	andeq	r0, r7, r0, lsl #16
     2ac:	730fff0a 	movwvc	pc, #65290	; 0xff0a	; <UNPREDICTABLE>
     2b0:	849f1c00 	ldrhi	r1, [pc], #3072	; 2b8 <_Min_Heap_Size+0x2b8>
     2b4:	86080002 	strhi	r0, [r8], -r2
     2b8:	07080002 	streq	r0, [r8, -r2]
     2bc:	10000a00 	andne	r0, r0, r0, lsl #20
     2c0:	9f1c0073 	svcls	0x001c0073
     2c4:	0800028e 	stmdaeq	r0, {r1, r2, r3, r7, r9}
     2c8:	080002c8 	stmdaeq	r0, {r3, r6, r7, r9}
     2cc:	ff0a0004 			; <UNDEFINED> instruction: 0xff0a0004
     2d0:	02c89f1f 	sbceq	r9, r8, #31, 30	; 0x7c
     2d4:	02ce0800 	sbceq	r0, lr, #0, 16
     2d8:	00020800 	andeq	r0, r2, r0, lsl #16
     2dc:	02ce9f30 	sbceq	r9, lr, #48, 30	; 0xc0
     2e0:	02d40800 	sbcseq	r0, r4, #0, 16
     2e4:	00070800 	andeq	r0, r7, r0, lsl #16
     2e8:	730fff0a 	movwvc	pc, #65290	; 0xff0a	; <UNPREDICTABLE>
     2ec:	d49f1c00 	ldrle	r1, [pc], #3072	; 2f4 <_Min_Heap_Size+0x2f4>
     2f0:	d6080002 	strle	r0, [r8], -r2
     2f4:	07080002 	streq	r0, [r8, -r2]
     2f8:	10000a00 	andne	r0, r0, r0, lsl #20
     2fc:	9f1c0073 	svcls	0x001c0073
     300:	080002e6 	stmdaeq	r0, {r1, r2, r5, r6, r7, r9}
     304:	080002ea 	stmdaeq	r0, {r1, r3, r5, r6, r7, r9}
     308:	9f300002 	svcls	0x00300002
     30c:	080002ea 	stmdaeq	r0, {r1, r3, r5, r6, r7, r9}
     310:	080002f0 	stmdaeq	r0, {r4, r5, r6, r7, r9}
     314:	ff0a0007 			; <UNDEFINED> instruction: 0xff0a0007
     318:	1c00730f 	stcne	3, cr7, [r0], {15}
     31c:	0002f09f 	muleq	r2, pc, r0	; <UNPREDICTABLE>
     320:	0002f208 	andeq	pc, r2, r8, lsl #4
     324:	0a000708 	beq	1f4c <_Min_Stack_Size+0x1b4c>
     328:	00731000 	rsbseq	r1, r3, r0
     32c:	00009f1c 	andeq	r9, r0, ip, lsl pc
	...
     338:	01000000 	mrseq	r0, (UNDEF: 0)
     33c:	00020201 	andeq	r0, r2, r1, lsl #4
     340:	03010100 	movweq	r0, #4352	; 0x1100
     344:	00000003 	andeq	r0, r0, r3
     348:	00010100 	andeq	r0, r1, r0, lsl #2
     34c:	00000000 	andeq	r0, r0, r0
     350:	00010100 	andeq	r0, r1, r0, lsl #2
     354:	00000000 	andeq	r0, r0, r0
     358:	01ec0000 	mvneq	r0, r0
     35c:	01f60800 	mvnseq	r0, r0, lsl #16
     360:	00010800 	andeq	r0, r1, r0, lsl #16
     364:	0001f652 	andeq	pc, r1, r2, asr r6	; <UNPREDICTABLE>
     368:	00020c08 	andeq	r0, r2, r8, lsl #24
     36c:	73000208 	movwvc	r0, #520	; 0x208
     370:	00022c08 	andeq	r2, r2, r8, lsl #24
     374:	00023208 	andeq	r3, r2, r8, lsl #4
     378:	53000108 	movwpl	r0, #264	; 0x108
     37c:	08000232 	stmdaeq	r0, {r1, r4, r5, r9}
     380:	08000232 	stmdaeq	r0, {r1, r4, r5, r9}
     384:	00730007 	rsbseq	r0, r3, r7
     388:	21243c40 			; <UNDEFINED> instruction: 0x21243c40
     38c:	0002329f 	muleq	r2, pc, r2	; <UNPREDICTABLE>
     390:	00023608 	andeq	r3, r2, r8, lsl #12
     394:	73000708 	movwvc	r0, #1800	; 0x708
     398:	24404100 	strbcs	r4, [r0], #-256	; 0xffffff00
     39c:	02369f21 	eorseq	r9, r6, #33, 30	; 0x84
     3a0:	02360800 	eorseq	r0, r6, #0, 16
     3a4:	00010800 	andeq	r0, r1, r0, lsl #16
     3a8:	00023653 	andeq	r3, r2, r3, asr r6
     3ac:	00023608 	andeq	r3, r2, r8, lsl #12
     3b0:	73000708 	movwvc	r0, #1800	; 0x708
     3b4:	ff0f0b00 			; <UNDEFINED> instruction: 0xff0f0b00
     3b8:	02369f1a 	eorseq	r9, r6, #26, 30	; 0x68
     3bc:	023a0800 	eorseq	r0, sl, #0, 16
     3c0:	00070800 	andeq	r0, r7, r0, lsl #16
     3c4:	0f0b0073 	svceq	0x000b0073
     3c8:	3a9f1ac7 	bcc	fe7c6eec <BootRAM+0xd73768d>
     3cc:	4a080002 	bmi	2003dc <_Min_Stack_Size+0x1fffdc>
     3d0:	01080002 	tsteq	r8, r2
     3d4:	025e5100 	subseq	r5, lr, #0, 2
     3d8:	025e0800 	subseq	r0, lr, #0, 16
     3dc:	00010800 	andeq	r0, r1, r0, lsl #16
     3e0:	00025e53 	andeq	r5, r2, r3, asr lr
     3e4:	00026208 	andeq	r6, r2, r8, lsl #4
     3e8:	73000708 	movwvc	r0, #1800	; 0x708
     3ec:	243f4000 	ldrtcs	r4, [pc], #-0	; 3f4 <_Min_Heap_Size+0x3f4>
     3f0:	02629f21 	rsbeq	r9, r2, #33, 30	; 0x84
     3f4:	02640800 	rsbeq	r0, r4, #0, 16
     3f8:	00010800 	andeq	r0, r1, r0, lsl #16
     3fc:	00026453 	andeq	r6, r2, r3, asr r4
     400:	00026c08 	andeq	r6, r2, r8, lsl #24
     404:	71000208 	tstvc	r0, r8, lsl #4
     408:	00026e08 	andeq	r6, r2, r8, lsl #28
     40c:	00026e08 	andeq	r6, r2, r8, lsl #28
     410:	53000108 	movwpl	r0, #264	; 0x108
     414:	0800026e 	stmdaeq	r0, {r1, r2, r3, r5, r6, r9}
     418:	08000274 	stmdaeq	r0, {r2, r4, r5, r6, r9}
     41c:	00730006 	rsbseq	r0, r3, r6
     420:	9f1afc09 	svcls	0x001afc09
     424:	08000274 	stmdaeq	r0, {r2, r4, r5, r6, r9}
     428:	0800027a 	stmdaeq	r0, {r1, r3, r4, r5, r6, r9}
     42c:	7a530001 	bvc	14c0438 <_Min_Stack_Size+0x14c0038>
     430:	8e080002 	cdphi	0, 0, cr0, cr8, cr2, {0}
     434:	02080002 	andeq	r0, r8, #2
     438:	8e087100 	adfhie	f7, f0, f0
     43c:	96080002 	strls	r0, [r8], -r2
     440:	02080002 	andeq	r0, r8, #2
     444:	00087300 	andeq	r7, r8, r0, lsl #6
     448:	00000000 	andeq	r0, r0, r0
     44c:	ac000000 	stcge	0, cr0, [r0], {-0}
     450:	ae000004 	cdpge	0, 0, cr0, cr0, cr4, {0}
     454:	02000004 	andeq	r0, r0, #4
     458:	ae007d00 	cdpge	13, 0, cr7, cr0, cr0, {0}
     45c:	06000004 	streq	r0, [r0], -r4
     460:	02000005 	andeq	r0, r0, #5
     464:	000c7d00 	andeq	r7, ip, r0, lsl #26
	...
     470:	ac000000 	stcge	0, cr0, [r0], {-0}
     474:	bc000004 	stclt	0, cr0, [r0], {4}
     478:	01000004 	tsteq	r0, r4
     47c:	04bc5000 	ldrteq	r5, [ip], #0
     480:	05060000 	streq	r0, [r6, #-0]
     484:	00040000 	andeq	r0, r4, r0
     488:	9f5001f3 	svcls	0x005001f3
	...
     498:	04ac0000 	strteq	r0, [ip], #0
     49c:	04d40000 	ldrbeq	r0, [r4], #0
     4a0:	00010000 	andeq	r0, r1, r0
     4a4:	0004d451 	andeq	sp, r4, r1, asr r4
     4a8:	0004d800 	andeq	sp, r4, r0, lsl #16
     4ac:	71000300 	mrsvc	r0, LR_irq
     4b0:	04d89f02 	ldrbeq	r9, [r8], #3842	; 0xf02
     4b4:	05060000 	streq	r0, [r6, #-0]
     4b8:	00040000 	andeq	r0, r4, r0
     4bc:	9f5101f3 	svcls	0x005101f3
	...
     4cc:	000004b8 			; <UNDEFINED> instruction: 0x000004b8
     4d0:	000004c4 	andeq	r0, r0, r4, asr #9
     4d4:	c4520001 	ldrbgt	r0, [r2], #-1
     4d8:	e6000004 	str	r0, [r0], -r4
     4dc:	0b000004 	bleq	4f4 <_Min_Stack_Size+0xf4>
     4e0:	33007300 	movwcc	r7, #768	; 0x300
     4e4:	c0802324 	addgt	r2, r0, r4, lsr #6
     4e8:	9f048081 	svcls	0x00048081
	...
     4f4:	04c00000 	strbeq	r0, [r0], #0
     4f8:	05060000 	streq	r0, [r6, #-0]
     4fc:	00010000 	andeq	r0, r1, r0
     500:	00000050 	andeq	r0, r0, r0, asr r0
     504:	00000000 	andeq	r0, r0, r0
     508:	00000100 	andeq	r0, r0, r0, lsl #2
     50c:	c2010000 	andgt	r0, r1, #0
     510:	d2000004 	andle	r0, r0, #4
     514:	05000004 	streq	r0, [r0, #-4]
     518:	31017000 	mrscc	r7, (UNDEF: 1)
     51c:	04d29f26 	ldrbeq	r9, [r2], #3878	; 0xf26
     520:	04d80000 	ldrbeq	r0, [r8], #0
     524:	00010000 	andeq	r0, r1, r0
     528:	0004d854 	andeq	sp, r4, r4, asr r8
     52c:	00050400 	andeq	r0, r5, r0, lsl #8
     530:	70000500 	andvc	r0, r0, r0, lsl #10
     534:	9f263101 	svcls	0x00263101
	...
     544:	04d00000 	ldrbeq	r0, [r0], #0
     548:	04dc0000 	ldrbeq	r0, [ip], #0
     54c:	00010000 	andeq	r0, r1, r0
     550:	0004dc52 	andeq	sp, r4, r2, asr ip
     554:	0004e200 	andeq	lr, r4, r0, lsl #4
     558:	72000300 	andvc	r0, r0, #0, 6
     55c:	04e29f7c 	strbteq	r9, [r2], #3964	; 0xf7c
     560:	04f20000 	ldrbteq	r0, [r2], #0
     564:	00010000 	andeq	r0, r1, r0
     568:	00000052 	andeq	r0, r0, r2, asr r0
     56c:	00000000 	andeq	r0, r0, r0
     570:	d0000200 	andle	r0, r0, r0, lsl #4
     574:	d8000004 	stmdale	r0, {r2}
     578:	02000004 	andeq	r0, r0, #4
     57c:	009f3000 	addseq	r3, pc, r0
     580:	00000000 	andeq	r0, r0, r0
     584:	fc000000 	stc2	0, cr0, [r0], {-0}
     588:	fe000003 	cdp2	0, 0, cr0, cr0, cr3, {0}
     58c:	02000003 	andeq	r0, r0, #3
     590:	fe007d00 	vdot.bf16	d7, d0, d0[0]
     594:	50000003 	andpl	r0, r0, r3
     598:	02000004 	andeq	r0, r0, #4
     59c:	00147d00 	andseq	r7, r4, r0, lsl #26
	...
     5ac:	0003fc00 	andeq	pc, r3, r0, lsl #24
     5b0:	00042200 	andeq	r2, r4, r0, lsl #4
     5b4:	50000100 	andpl	r0, r0, r0, lsl #2
     5b8:	00000422 	andeq	r0, r0, r2, lsr #8
     5bc:	00000444 	andeq	r0, r0, r4, asr #8
     5c0:	01f30004 	mvnseq	r0, r4
     5c4:	04449f50 	strbeq	r9, [r4], #-3920	; 0xfffff0b0
     5c8:	04500000 	ldrbeq	r0, [r0], #-0
     5cc:	00010000 	andeq	r0, r1, r0
     5d0:	00000050 	andeq	r0, r0, r0, asr r0
     5d4:	00000000 	andeq	r0, r0, r0
     5d8:	0a000000 	beq	5e0 <_Min_Stack_Size+0x1e0>
     5dc:	50000004 	andpl	r0, r0, r4
     5e0:	01000004 	tsteq	r0, r4
     5e4:	00005400 	andeq	r5, r0, r0, lsl #8
	...
     5f0:	00000418 	andeq	r0, r0, r8, lsl r4
     5f4:	00000450 	andeq	r0, r0, r0, asr r4
     5f8:	00560001 	subseq	r0, r6, r1
     5fc:	00000000 	andeq	r0, r0, r0
     600:	01000000 	mrseq	r0, (UNDEF: 0)
     604:	00041800 	andeq	r1, r4, r0, lsl #16
     608:	00045000 	andeq	r5, r4, r0
     60c:	51000100 	mrspl	r0, (UNDEF: 16)
	...
     618:	00020200 	andeq	r0, r2, r0, lsl #4
     61c:	041a0000 	ldreq	r0, [sl], #-0
     620:	041a0000 	ldreq	r0, [sl], #-0
     624:	00010000 	andeq	r0, r1, r0
     628:	00041a53 	andeq	r1, r4, r3, asr sl
     62c:	00043000 	andeq	r3, r4, r0
     630:	75000800 	strvc	r0, [r0, #-2048]	; 0xfffff800
     634:	73243200 			; <UNDEFINED> instruction: 0x73243200
     638:	449f2200 	ldrmi	r2, [pc], #512	; 640 <_Min_Stack_Size+0x240>
     63c:	4c000004 	stcmi	0, cr0, [r0], {4}
     640:	08000004 	stmdaeq	r0, {r2}
     644:	32007500 	andcc	r7, r0, #0, 10
     648:	22007324 	andcs	r7, r0, #36, 6	; 0x90000000
     64c:	0000009f 	muleq	r0, pc, r0	; <UNPREDICTABLE>
     650:	00000000 	andeq	r0, r0, r0
     654:	00000200 	andeq	r0, r0, r0, lsl #4
     658:	00041a00 	andeq	r1, r4, r0, lsl #20
     65c:	00044c00 	andeq	r4, r4, r0, lsl #24
     660:	55000100 	strpl	r0, [r0, #-256]	; 0xffffff00
     664:	0000044c 	andeq	r0, r0, ip, asr #8
     668:	0000044e 	andeq	r0, r0, lr, asr #8
     66c:	01750003 	cmneq	r5, r3
     670:	0000009f 	muleq	r0, pc, r0	; <UNPREDICTABLE>
     674:	00000000 	andeq	r0, r0, r0
     678:	0002d400 	andeq	sp, r2, r0, lsl #8
     67c:	0002d600 	andeq	sp, r2, r0, lsl #12
     680:	7d000200 	sfmvc	f0, 4, [r0, #-0]
     684:	0002d600 	andeq	sp, r2, r0, lsl #12
     688:	0003fc00 	andeq	pc, r3, r0, lsl #24
     68c:	7d000200 	sfmvc	f0, 4, [r0, #-0]
     690:	00000010 	andeq	r0, r0, r0, lsl r0
     694:	00000000 	andeq	r0, r0, r0
     698:	00000200 	andeq	r0, r0, r0, lsl #4
     69c:	0002fc00 	andeq	pc, r2, r0, lsl #24
     6a0:	00030000 	andeq	r0, r3, r0
     6a4:	30000200 	andcc	r0, r0, r0, lsl #4
     6a8:	0003009f 	muleq	r3, pc, r0	; <UNPREDICTABLE>
     6ac:	00030200 	andeq	r0, r3, r0, lsl #4
     6b0:	38000500 	stmdacc	r0, {r8, sl}
     6b4:	9f1c0074 	svcls	0x001c0074
	...
     6c0:	034c0000 	movteq	r0, #49152	; 0xc000
     6c4:	03980000 	orrseq	r0, r8, #0
     6c8:	00010000 	andeq	r0, r1, r0
     6cc:	00000055 	andeq	r0, r0, r5, asr r0
     6d0:	00000000 	andeq	r0, r0, r0
     6d4:	00018800 	andeq	r8, r1, r0, lsl #16
     6d8:	00018a00 	andeq	r8, r1, r0, lsl #20
     6dc:	7d000200 	sfmvc	f0, 4, [r0, #-0]
     6e0:	00018a00 	andeq	r8, r1, r0, lsl #20
     6e4:	0002d400 	andeq	sp, r2, r0, lsl #8
     6e8:	7d000200 	sfmvc	f0, 4, [r0, #-0]
     6ec:	00000014 	andeq	r0, r0, r4, lsl r0
	...
     6f8:	00018800 	andeq	r8, r1, r0, lsl #16
     6fc:	00019200 	andeq	r9, r1, r0, lsl #4
     700:	50000100 	andpl	r0, r0, r0, lsl #2
     704:	00000192 	muleq	r0, r2, r1
     708:	000002d4 	ldrdeq	r0, [r0], -r4
     70c:	00560001 	subseq	r0, r6, r1
	...
     724:	88000000 	stmdahi	r0, {}	; <UNPREDICTABLE>
     728:	de000001 	cdple	0, 0, cr0, cr0, cr1, {0}
     72c:	01000001 	tsteq	r0, r1
     730:	01de5100 	bicseq	r5, lr, r0, lsl #2
     734:	01e40000 	mvneq	r0, r0
     738:	00040000 	andeq	r0, r4, r0
     73c:	9f5101f3 	svcls	0x005101f3
     740:	000001e4 	andeq	r0, r0, r4, ror #3
     744:	000001e8 	andeq	r0, r0, r8, ror #3
     748:	e8510001 	ldmda	r1, {r0}^
     74c:	48000001 	stmdami	r0, {r0}
     750:	04000002 	streq	r0, [r0], #-2
     754:	5101f300 	mrspl	pc, SP_irq	; <UNPREDICTABLE>
     758:	0002489f 	muleq	r2, pc, r8	; <UNPREDICTABLE>
     75c:	00024c00 	andeq	r4, r2, r0, lsl #24
     760:	51000100 	mrspl	r0, (UNDEF: 16)
     764:	0000024c 	andeq	r0, r0, ip, asr #4
     768:	0000024e 	andeq	r0, r0, lr, asr #4
     76c:	01f30004 	mvnseq	r0, r4
     770:	024e9f51 	subeq	r9, lr, #324	; 0x144
     774:	02520000 	subseq	r0, r2, #0
     778:	00010000 	andeq	r0, r1, r0
     77c:	00025251 	andeq	r5, r2, r1, asr r2
     780:	0002d400 	andeq	sp, r2, r0, lsl #8
     784:	f3000400 	vshl.u8	d0, d0, d0
     788:	009f5101 	addseq	r5, pc, r1, lsl #2
	...
     798:	00018800 	andeq	r8, r1, r0, lsl #16
     79c:	00023a00 	andeq	r3, r2, r0, lsl #20
     7a0:	52000100 	andpl	r0, r0, #0, 2
     7a4:	0000023a 	andeq	r0, r0, sl, lsr r2
     7a8:	00000248 	andeq	r0, r0, r8, asr #4
     7ac:	01f30004 	mvnseq	r0, r4
     7b0:	02489f52 	subeq	r9, r8, #328	; 0x148
     7b4:	02d40000 	sbcseq	r0, r4, #0
     7b8:	00010000 	andeq	r0, r1, r0
     7bc:	00000052 	andeq	r0, r0, r2, asr r0
     7c0:	00000000 	andeq	r0, r0, r0
     7c4:	00000200 	andeq	r0, r0, r0, lsl #4
     7c8:	00000000 	andeq	r0, r0, r0
     7cc:	00018800 	andeq	r8, r1, r0, lsl #16
     7d0:	00020600 	andeq	r0, r2, r0, lsl #12
     7d4:	70000600 	andvc	r0, r0, r0, lsl #12
     7d8:	1a800900 	bne	fe002be0 <BootRAM+0xcf73381>
     7dc:	0002069f 	muleq	r2, pc, r6	; <UNPREDICTABLE>
     7e0:	00024800 	andeq	r4, r2, r0, lsl #16
     7e4:	f3000700 	vabd.u8	d0, d0, d0
     7e8:	80095001 	andhi	r5, r9, r1
     7ec:	02489f1a 	subeq	r9, r8, #26, 30	; 0x68
     7f0:	02540000 	subseq	r0, r4, #0
     7f4:	00060000 	andeq	r0, r6, r0
     7f8:	80090070 	andhi	r0, r9, r0, ror r0
     7fc:	02549f1a 	subseq	r9, r4, #26, 30	; 0x68
     800:	02d40000 	sbcseq	r0, r4, #0
     804:	00070000 	andeq	r0, r7, r0
     808:	095001f3 	ldmdbeq	r0, {r0, r1, r4, r5, r6, r7, r8}^
     80c:	009f1a80 	addseq	r1, pc, r0, lsl #21
	...
     818:	02020101 	andeq	r0, r2, #1073741824	; 0x40000000
	...
     828:	c8000000 	stmdagt	r0, {}	; <UNPREDICTABLE>
     82c:	c8000001 	stmdagt	r0, {r0}
     830:	01000001 	tsteq	r0, r1
     834:	01c85400 	biceq	r5, r8, r0, lsl #8
     838:	01c80000 	biceq	r0, r8, r0
     83c:	000b0000 	andeq	r0, fp, r0
     840:	0f0a0074 	svceq	0x000a0074
     844:	800b1a0f 	andhi	r1, fp, pc, lsl #20
     848:	c89f2180 	ldmgt	pc, {r7, r8, sp}	; <UNPREDICTABLE>
     84c:	cc000001 	stcgt	0, cr0, [r0], {1}
     850:	11000001 	tstne	r0, r1
     854:	0a007400 	beq	1d85c <_Min_Stack_Size+0x1d45c>
     858:	761a0f00 	ldrvc	r0, [sl], -r0, lsl #30
     85c:	1aff0800 	bne	fffc2864 <BootRAM+0xef33005>
     860:	80800b21 	addhi	r0, r0, r1, lsr #22
     864:	01d09f21 	bicseq	r9, r0, r1, lsr #30
     868:	01e20000 	mvneq	r0, r0
     86c:	00070000 	andeq	r0, r7, r0
     870:	800b0074 	andhi	r0, fp, r4, ror r0
     874:	e29f2180 	adds	r2, pc, #128, 2
     878:	e4000001 	str	r0, [r0], #-1
     87c:	01000001 	tsteq	r0, r1
     880:	01e45100 	mvneq	r5, r0, lsl #2
     884:	01e80000 	mvneq	r0, r0
     888:	00070000 	andeq	r0, r7, r0
     88c:	800b0074 	andhi	r0, fp, r4, ror r0
     890:	e89f2180 	ldm	pc, {r7, r8, sp}	; <UNPREDICTABLE>
     894:	f4000001 	vst4.8	{d0-d3}, [r0], r1
     898:	01000001 	tsteq	r0, r1
     89c:	01f45100 	mvnseq	r5, r0, lsl #2
     8a0:	020a0000 	andeq	r0, sl, #0
     8a4:	00020000 	andeq	r0, r2, r0
     8a8:	02480075 	subeq	r0, r8, #117	; 0x75
     8ac:	02540000 	subseq	r0, r4, #0
     8b0:	00070000 	andeq	r0, r7, r0
     8b4:	800b0074 	andhi	r0, fp, r4, ror r0
     8b8:	549f2180 	ldrpl	r2, [pc], #384	; 8c0 <_Min_Stack_Size+0x4c0>
     8bc:	56000002 	strpl	r0, [r0], -r2
     8c0:	02000002 	andeq	r0, r0, #2
     8c4:	00007500 	andeq	r7, r0, r0, lsl #10
     8c8:	00000000 	andeq	r0, r0, r0
     8cc:	7c000000 	stcvc	0, cr0, [r0], {-0}
     8d0:	7e000000 	cdpvc	0, 0, cr0, cr0, cr0, {0}
     8d4:	02000000 	andeq	r0, r0, #0
     8d8:	7e007d00 	cdpvc	13, 0, cr7, cr0, cr0, {0}
     8dc:	88000000 	stmdahi	r0, {}	; <UNPREDICTABLE>
     8e0:	02000001 	andeq	r0, r0, #1
     8e4:	00147d00 	andseq	r7, r4, r0, lsl #26
	...
     8f0:	7c000000 	stcvc	0, cr0, [r0], {-0}
     8f4:	82000000 	andhi	r0, r0, #0
     8f8:	01000000 	mrseq	r0, (UNDEF: 0)
     8fc:	00825000 	addeq	r5, r2, r0
     900:	01880000 	orreq	r0, r8, r0
     904:	00010000 	andeq	r0, r1, r0
     908:	00000057 	andeq	r0, r0, r7, asr r0
	...
     918:	00007c00 	andeq	r7, r0, r0, lsl #24
     91c:	00010200 	andeq	r0, r1, r0, lsl #4
     920:	51000100 	mrspl	r0, (UNDEF: 16)
     924:	00000102 	andeq	r0, r0, r2, lsl #2
     928:	00000128 	andeq	r0, r0, r8, lsr #2
     92c:	01f30004 	mvnseq	r0, r4
     930:	01289f51 			; <UNDEFINED> instruction: 0x01289f51
     934:	01380000 	teqeq	r8, r0
     938:	00010000 	andeq	r0, r1, r0
     93c:	00013851 	andeq	r3, r1, r1, asr r8
     940:	00018800 	andeq	r8, r1, r0, lsl #16
     944:	f3000400 	vshl.u8	d0, d0, d0
     948:	009f5101 	addseq	r5, pc, r1, lsl #2
	...
     958:	00007c00 	andeq	r7, r0, r0, lsl #24
     95c:	00012200 	andeq	r2, r1, r0, lsl #4
     960:	52000100 	andpl	r0, r0, #0, 2
     964:	00000122 	andeq	r0, r0, r2, lsr #2
     968:	00000124 	andeq	r0, r0, r4, lsr #2
     96c:	01f30004 	mvnseq	r0, r4
     970:	01289f52 			; <UNDEFINED> instruction: 0x01289f52
     974:	01880000 	orreq	r0, r8, r0
     978:	00010000 	andeq	r0, r1, r0
     97c:	00000052 	andeq	r0, r0, r2, asr r0
	...
     98c:	7c000000 	stcvc	0, cr0, [r0], {-0}
     990:	0a000000 	beq	998 <_Min_Stack_Size+0x598>
     994:	01000001 	tsteq	r0, r1
     998:	010a5300 	mrseq	r5, (UNDEF: 58)
     99c:	01200000 			; <UNDEFINED> instruction: 0x01200000
     9a0:	00070000 	andeq	r0, r7, r0
     9a4:	24320077 	ldrtcs	r0, [r2], #-119	; 0xffffff89
     9a8:	20220074 	eorcs	r0, r2, r4, ror r0
     9ac:	28000001 	stmdacs	r0, {r0}
     9b0:	04000001 	streq	r0, [r0], #-1
     9b4:	5301f300 	movwpl	pc, #4864	; 0x1300	; <UNPREDICTABLE>
     9b8:	0001289f 	muleq	r1, pc, r8	; <UNPREDICTABLE>
     9bc:	00016800 	andeq	r6, r1, r0, lsl #16
     9c0:	53000100 	movwpl	r0, #256	; 0x100
     9c4:	00000168 	andeq	r0, r0, r8, ror #2
     9c8:	00000188 	andeq	r0, r0, r8, lsl #3
     9cc:	00770007 	rsbseq	r0, r7, r7
     9d0:	00712432 	rsbseq	r2, r1, r2, lsr r4
     9d4:	00000022 	andeq	r0, r0, r2, lsr #32
     9d8:	00000000 	andeq	r0, r0, r0
     9dc:	00000200 	andeq	r0, r0, r0, lsl #4
     9e0:	00000000 	andeq	r0, r0, r0
     9e4:	7c000000 	stcvc	0, cr0, [r0], {-0}
     9e8:	98000000 	stmdals	r0, {}	; <UNPREDICTABLE>
     9ec:	06000000 	streq	r0, [r0], -r0
     9f0:	09007000 	stmdbeq	r0, {ip, sp, lr}
     9f4:	989f1a80 	ldmls	pc, {r7, r9, fp, ip}	; <UNPREDICTABLE>
     9f8:	c6000000 	strgt	r0, [r0], -r0
     9fc:	06000000 	streq	r0, [r0], -r0
     a00:	09007c00 	stmdbeq	r0, {sl, fp, ip, sp, lr}
     a04:	c69f1a80 	ldrgt	r1, [pc], r0, lsl #21
     a08:	dc000000 	stcle	0, cr0, [r0], {-0}
     a0c:	06000000 	streq	r0, [r0], -r0
     a10:	09007000 	stmdbeq	r0, {ip, sp, lr}
     a14:	dc9f1a80 	vldmiale	pc, {s2-s129}
     a18:	20000000 	andcs	r0, r0, r0
     a1c:	06000001 	streq	r0, [r0], -r1
     a20:	09007c00 	stmdbeq	r0, {sl, fp, ip, sp, lr}
     a24:	209f1a80 	addscs	r1, pc, r0, lsl #21
     a28:	88000001 	stmdahi	r0, {r0}
     a2c:	07000001 	streq	r0, [r0, -r1]
     a30:	5001f300 	andpl	pc, r1, r0, lsl #6
     a34:	9f1a8009 	svcls	0x001a8009
	...
     a40:	02010100 	andeq	r0, r1, #0, 2
     a44:	00000002 	andeq	r0, r0, r2
     a48:	00000000 	andeq	r0, r0, r0
     a4c:	00ac0000 	adceq	r0, ip, r0
     a50:	00ac0000 	adceq	r0, ip, r0
     a54:	00010000 	andeq	r0, r1, r0
     a58:	0000ac54 	andeq	sl, r0, r4, asr ip
     a5c:	0000ac00 	andeq	sl, r0, r0, lsl #24
     a60:	74000b00 	strvc	r0, [r0], #-2816	; 0xfffff500
     a64:	0f0f0a00 	svceq	0x000f0a00
     a68:	80800b1a 	addhi	r0, r0, sl, lsl fp
     a6c:	00ac9f21 	adceq	r9, ip, r1, lsr #30
     a70:	00b20000 	adcseq	r0, r2, r0
     a74:	00110000 	andseq	r0, r1, r0
     a78:	000a0074 	andeq	r0, sl, r4, ror r0
     a7c:	00771a0f 	rsbseq	r1, r7, pc, lsl #20
     a80:	211aff08 	tstcs	sl, r8, lsl #30	; <UNPREDICTABLE>
     a84:	2180800b 	orrcs	r8, r0, fp
     a88:	0000b69f 	muleq	r0, pc, r6	; <UNPREDICTABLE>
     a8c:	0000c400 	andeq	ip, r0, r0, lsl #8
     a90:	74000700 	strvc	r0, [r0], #-1792	; 0xfffff900
     a94:	80800b00 	addhi	r0, r0, r0, lsl #22
     a98:	00dc9f21 	sbcseq	r9, ip, r1, lsr #30
     a9c:	00e00000 	rsceq	r0, r0, r0
     aa0:	00070000 	andeq	r0, r7, r0
     aa4:	800b0074 	andhi	r0, fp, r4, ror r0
     aa8:	289f2180 	ldmcs	pc, {r7, r8, sp}	; <UNPREDICTABLE>
     aac:	2c000001 	stccs	0, cr0, [r0], {1}
     ab0:	07000001 	streq	r0, [r0, -r1]
     ab4:	0b007400 	bleq	1dabc <_Min_Stack_Size+0x1d6bc>
     ab8:	9f218080 	svcls	0x00218080
     abc:	0000012e 	andeq	r0, r0, lr, lsr #2
     ac0:	00000132 	andeq	r0, r0, r2, lsr r1
     ac4:	00740007 	rsbseq	r0, r4, r7
     ac8:	2180800b 	orrcs	r8, r0, fp
     acc:	0000009f 	muleq	r0, pc, r0	; <UNPREDICTABLE>
     ad0:	00000000 	andeq	r0, r0, r0
     ad4:	00050600 	andeq	r0, r5, r0, lsl #12
     ad8:	00050800 	andeq	r0, r5, r0, lsl #16
     adc:	7d000200 	sfmvc	f0, 4, [r0, #-0]
     ae0:	00050800 	andeq	r0, r5, r0, lsl #16
     ae4:	00059400 	andeq	r9, r5, r0, lsl #8
     ae8:	7d000200 	sfmvc	f0, 4, [r0, #-0]
     aec:	00059418 	andeq	r9, r5, r8, lsl r4
     af0:	00059600 	andeq	r9, r5, r0, lsl #12
     af4:	7d000200 	sfmvc	f0, 4, [r0, #-0]
     af8:	00059610 	andeq	r9, r5, r0, lsl r6
     afc:	00062000 	andeq	r2, r6, r0
     b00:	7d000200 	sfmvc	f0, 4, [r0, #-0]
     b04:	00000018 	andeq	r0, r0, r8, lsl r0
	...
     b14:	00050600 	andeq	r0, r5, r0, lsl #12
     b18:	00052c00 	andeq	r2, r5, r0, lsl #24
     b1c:	50000100 	andpl	r0, r0, r0, lsl #2
     b20:	0000052c 	andeq	r0, r0, ip, lsr #10
     b24:	00000556 	andeq	r0, r0, r6, asr r5
     b28:	01f30004 	mvnseq	r0, r4
     b2c:	05569f50 	ldrbeq	r9, [r6, #-3920]	; 0xfffff0b0
     b30:	05600000 	strbeq	r0, [r0, #-0]!
     b34:	00010000 	andeq	r0, r1, r0
     b38:	00056050 	andeq	r6, r5, r0, asr r0
     b3c:	00062000 	andeq	r2, r6, r0
     b40:	f3000400 	vshl.u8	d0, d0, d0
     b44:	009f5001 	addseq	r5, pc, r1
     b48:	00000000 	andeq	r0, r0, r0
     b4c:	01000000 	mrseq	r0, (UNDEF: 0)
     b50:	00000000 	andeq	r0, r0, r0
     b54:	32000003 	andcc	r0, r0, #3
     b58:	50000005 	andpl	r0, r0, r5
     b5c:	01000005 	tsteq	r0, r5
     b60:	05605500 	strbeq	r5, [r0, #-1280]!	; 0xfffffb00
     b64:	05920000 	ldreq	r0, [r2]
     b68:	00010000 	andeq	r0, r1, r0
     b6c:	00059655 	andeq	r9, r5, r5, asr r6
     b70:	0005c200 	andeq	ip, r5, r0, lsl #4
     b74:	55000100 	strpl	r0, [r0, #-256]	; 0xffffff00
     b78:	000005ca 	andeq	r0, r0, sl, asr #11
     b7c:	000005fa 	strdeq	r0, [r0], -sl
     b80:	00550001 	subseq	r0, r5, r1
     b84:	00000000 	andeq	r0, r0, r0
     b88:	01000000 	mrseq	r0, (UNDEF: 0)
     b8c:	00051800 	andeq	r1, r5, r0, lsl #16
     b90:	00052200 	andeq	r2, r5, r0, lsl #4
     b94:	73000b00 	movwvc	r0, #2816	; 0xb00
     b98:	08000a00 	stmdaeq	r0, {r9, fp}
     b9c:	3024401a 	eorcc	r4, r4, sl, lsl r0
     ba0:	00009f2e 	andeq	r9, r0, lr, lsr #30
	...
     bb0:	03000000 	movweq	r0, #0
     bb4:	05380000 	ldreq	r0, [r8, #-0]!
     bb8:	05500000 	ldrbeq	r0, [r0, #-0]
     bbc:	00010000 	andeq	r0, r1, r0
     bc0:	00056053 	andeq	r6, r5, r3, asr r0
     bc4:	00057300 	andeq	r7, r5, r0, lsl #6
     bc8:	53000100 	movwpl	r0, #256	; 0x100
     bcc:	00000596 	muleq	r0, r6, r5
     bd0:	000005a0 	andeq	r0, r0, r0, lsr #11
     bd4:	a0530001 	subsge	r0, r3, r1
     bd8:	b3000005 	movwlt	r0, #5
     bdc:	0b000005 	bleq	bf8 <_Min_Stack_Size+0x7f8>
     be0:	000c0300 	andeq	r0, ip, r0, lsl #6
     be4:	01942000 	orrseq	r2, r4, r0
     be8:	9f1a7f08 	svcls	0x001a7f08
     bec:	000005b6 			; <UNDEFINED> instruction: 0x000005b6
     bf0:	000005c2 	andeq	r0, r0, r2, asr #11
     bf4:	ca530001 	bgt	14c0c00 <_Min_Stack_Size+0x14c0800>
     bf8:	dd000005 	stcle	0, cr0, [r0, #-20]	; 0xffffffec
     bfc:	01000005 	tsteq	r0, r5
     c00:	00005300 	andeq	r5, r0, r0, lsl #6
     c04:	00000000 	andeq	r0, r0, r0
     c08:	00010000 	andeq	r0, r1, r0
     c0c:	0000054c 	andeq	r0, r0, ip, asr #10
     c10:	00000550 	andeq	r0, r0, r0, asr r5
     c14:	9f320002 	svcls	0x00320002
	...
     c20:	054c0001 	strbeq	r0, [ip, #-1]
     c24:	05500000 	ldrbeq	r0, [r0, #-0]
     c28:	00060000 	andeq	r0, r6, r0
     c2c:	000ddc03 	andeq	sp, sp, r3, lsl #24
     c30:	00009f08 	andeq	r9, r0, r8, lsl #30
     c34:	00000000 	andeq	r0, r0, r0
     c38:	00010000 	andeq	r0, r1, r0
     c3c:	0000054c 	andeq	r0, r0, ip, asr #10
     c40:	00000550 	andeq	r0, r0, r0, asr r5
     c44:	9f300002 	svcls	0x00300002
	...
     c50:	05840001 	streq	r0, [r4, #1]
     c54:	05910000 	ldreq	r0, [r1]
     c58:	00020000 	andeq	r0, r2, r0
     c5c:	00006a91 	muleq	r0, r1, sl
     c60:	00000000 	andeq	r0, r0, r0
     c64:	00010000 	andeq	r0, r1, r0
     c68:	00000584 	andeq	r0, r0, r4, lsl #11
     c6c:	00000591 	muleq	r0, r1, r5
     c70:	6c910002 	ldcvs	0, cr0, [r1], {2}
	...
     c7c:	05960001 	ldreq	r0, [r6, #1]
     c80:	059e0000 	ldreq	r0, [lr]
     c84:	00020000 	andeq	r0, r2, r0
     c88:	00009f31 	andeq	r9, r0, r1, lsr pc
     c8c:	00000000 	andeq	r0, r0, r0
     c90:	00010000 	andeq	r0, r1, r0
     c94:	00000596 	muleq	r0, r6, r5
     c98:	0000059e 	muleq	r0, lr, r5
     c9c:	16030006 	strne	r0, [r3], -r6
     ca0:	9f200000 	svcls	0x00200000
	...
     cac:	05960001 	ldreq	r0, [r6, #1]
     cb0:	059e0000 	ldreq	r0, [lr]
     cb4:	00020000 	andeq	r0, r2, r0
     cb8:	00009f30 	andeq	r9, r0, r0, lsr pc
     cbc:	00000000 	andeq	r0, r0, r0
     cc0:	00020000 	andeq	r0, r2, r0
     cc4:	00000526 	andeq	r0, r0, r6, lsr #10
     cc8:	00000530 	andeq	r0, r0, r0, lsr r5
     ccc:	9f300002 	svcls	0x00300002
	...
     cd8:	05260002 	streq	r0, [r6, #-2]!
     cdc:	05300000 	ldreq	r0, [r0, #-0]!
     ce0:	00060000 	andeq	r0, r6, r0
     ce4:	00000c03 	andeq	r0, r0, r3, lsl #24
     ce8:	00009f20 	andeq	r9, r0, r0, lsr #30
     cec:	00000000 	andeq	r0, r0, r0
     cf0:	00050000 	andeq	r0, r5, r0
     cf4:	000005c2 	andeq	r0, r0, r2, asr #11
     cf8:	000005ca 	andeq	r0, r0, sl, asr #11
     cfc:	9f300002 	svcls	0x00300002
	...
     d08:	05c20301 	strbeq	r0, [r2, #769]	; 0x301
     d0c:	05c20000 	strbeq	r0, [r2]
     d10:	00020000 	andeq	r0, r2, r0
     d14:	00009f30 	andeq	r9, r0, r0, lsr pc
     d18:	00000000 	andeq	r0, r0, r0
     d1c:	00010000 	andeq	r0, r1, r0
     d20:	000005d2 	ldrdeq	r0, [r0], -r2
     d24:	000005d4 	ldrdeq	r0, [r0], -r4
     d28:	9f300002 	svcls	0x00300002
	...
     d34:	00000450 	andeq	r0, r0, r0, asr r4
     d38:	00000452 	andeq	r0, r0, r2, asr r4
     d3c:	007d0002 	rsbseq	r0, sp, r2
     d40:	00000452 	andeq	r0, r0, r2, asr r4
     d44:	000004ac 	andeq	r0, r0, ip, lsr #9
     d48:	187d0002 	ldmdane	sp!, {r1}^
	...
     d58:	00000450 	andeq	r0, r0, r0, asr r4
     d5c:	00000488 	andeq	r0, r0, r8, lsl #9
     d60:	88500001 	ldmdahi	r0, {r0}^
     d64:	ac000004 	stcge	0, cr0, [r0], {4}
     d68:	04000004 	streq	r0, [r0], #-4
     d6c:	5001f300 	andpl	pc, r1, r0, lsl #6
     d70:	0000009f 	muleq	r0, pc, r0	; <UNPREDICTABLE>
	...
     d7c:	00047c00 	andeq	r7, r4, r0, lsl #24
     d80:	00048600 	andeq	r8, r4, r0, lsl #12
     d84:	57000100 	strpl	r0, [r0, -r0, lsl #2]
     d88:	00000486 	andeq	r0, r0, r6, lsl #9
     d8c:	000004a0 	andeq	r0, r0, r0, lsr #9
     d90:	00560001 	subseq	r0, r6, r1
     d94:	00000000 	andeq	r0, r0, r0
     d98:	02000000 	andeq	r0, r0, #0
     d9c:	00048600 	andeq	r8, r4, r0, lsl #12
     da0:	00048e00 	andeq	r8, r4, r0, lsl #28
     da4:	56000100 	strpl	r0, [r0], -r0, lsl #2
	...
     db0:	04860002 	streq	r0, [r6], #2
     db4:	048e0000 	streq	r0, [lr], #0
     db8:	00010000 	andeq	r0, r1, r0
     dbc:	00000051 	andeq	r0, r0, r1, asr r0
     dc0:	00000000 	andeq	r0, r0, r0
     dc4:	86000200 	strhi	r0, [r0], -r0, lsl #4
     dc8:	8e000004 	cdphi	0, 0, cr0, cr0, cr4, {0}
     dcc:	02000004 	andeq	r0, r0, #4
     dd0:	009f3000 	addseq	r3, pc, r0
     dd4:	00000000 	andeq	r0, r0, r0
     dd8:	02000000 	andeq	r0, r0, #0
     ddc:	00000000 	andeq	r0, r0, r0
     de0:	32000000 	andcc	r0, r0, #0
     de4:	34000000 	strcc	r0, [r0], #-0
     de8:	02000000 	andeq	r0, r0, #0
     dec:	349f3000 	ldrcc	r3, [pc], #0	; df4 <_Min_Stack_Size+0x9f4>
     df0:	36000000 	strcc	r0, [r0], -r0
     df4:	09000000 	stmdbeq	r0, {}	; <UNPREDICTABLE>
     df8:	86a00c00 	strthi	r0, [r0], r0, lsl #24
     dfc:	00720001 	rsbseq	r0, r2, r1
     e00:	00369f1c 	eorseq	r9, r6, ip, lsl pc
     e04:	00380000 	eorseq	r0, r8, r0
     e08:	00090000 	andeq	r0, r9, r0
     e0c:	0186a10c 	orreq	sl, r6, ip, lsl #2
     e10:	1c007200 	sfmne	f7, 4, [r0], {-0}
     e14:	0000389f 	muleq	r0, pc, r8	; <UNPREDICTABLE>
     e18:	00004e00 	andeq	r4, r0, r0, lsl #28
     e1c:	0c000900 			; <UNDEFINED> instruction: 0x0c000900
     e20:	000186a0 	andeq	r8, r1, r0, lsr #13
     e24:	9f1c0072 	svcls	0x001c0072
	...
     e30:	00520001 	subseq	r0, r2, r1
     e34:	005a0000 	subseq	r0, sl, r0
     e38:	00020000 	andeq	r0, r2, r0
     e3c:	00009f44 	andeq	r9, r0, r4, asr #30
	...
     e48:	000a0000 	andeq	r0, sl, r0
     e4c:	000c0000 	andeq	r0, ip, r0
     e50:	00010000 	andeq	r0, r1, r0
     e54:	00000c50 	andeq	r0, r0, r0, asr ip
     e58:	00000e00 	andeq	r0, r0, r0, lsl #28
     e5c:	f3000400 	vshl.u8	d0, d0, d0
     e60:	009f5001 	addseq	r5, pc, r1
	...
     e6c:	06000000 	streq	r0, [r0], -r0
     e70:	08000000 	stmdaeq	r0, {}	; <UNPREDICTABLE>
     e74:	01000000 	mrseq	r0, (UNDEF: 0)
     e78:	00085000 	andeq	r5, r8, r0
     e7c:	000a0000 	andeq	r0, sl, r0
     e80:	00040000 	andeq	r0, r4, r0
     e84:	9f5001f3 	svcls	0x005001f3
	...
     e90:	000001d8 	ldrdeq	r0, [r0], -r8
     e94:	000001dc 	ldrdeq	r0, [r0], -ip
     e98:	007d0002 	rsbseq	r0, sp, r2
     e9c:	000001dc 	ldrdeq	r0, [r0], -ip
     ea0:	00000234 	andeq	r0, r0, r4, lsr r2
     ea4:	087d0002 	ldmdaeq	sp!, {r1}^
	...
     eb0:	021a0001 	andseq	r0, sl, #1
     eb4:	021c0000 	andseq	r0, ip, #0
     eb8:	00020000 	andeq	r0, r2, r0
     ebc:	00009f4e 	andeq	r9, r0, lr, asr #30
     ec0:	00000000 	andeq	r0, r0, r0
     ec4:	01200000 			; <UNDEFINED> instruction: 0x01200000
     ec8:	01240000 			; <UNDEFINED> instruction: 0x01240000
     ecc:	00020000 	andeq	r0, r2, r0
     ed0:	0124007d 			; <UNDEFINED> instruction: 0x0124007d
     ed4:	01400000 	mrseq	r0, (UNDEF: 64)
     ed8:	00020000 	andeq	r0, r2, r0
     edc:	01401c7d 	hvceq	461	; 0x1cd
     ee0:	016e0000 	cmneq	lr, r0
     ee4:	00030000 	andeq	r0, r3, r0
     ee8:	6e01a07d 	mcrvs	0, 0, sl, cr1, cr13, {3}
     eec:	72000001 	andvc	r0, r0, #1
     ef0:	02000001 	andeq	r0, r0, #1
     ef4:	721c7d00 	andsvc	r7, ip, #0, 26
     ef8:	a4000001 	strge	r0, [r0], #-1
     efc:	03000001 	movweq	r0, #1
     f00:	01a07d00 	lsleq	r7, r0, #26
	...
     f0c:	00030300 	andeq	r0, r3, r0, lsl #6
     f10:	00000120 	andeq	r0, r0, r0, lsr #2
     f14:	00000142 	andeq	r0, r0, r2, asr #2
     f18:	42500001 	subsmi	r0, r0, #1
     f1c:	a4000001 	strge	r0, [r0], #-1
     f20:	04000001 	streq	r0, [r0], #-1
     f24:	5001f300 	andpl	pc, r1, r0, lsl #6
     f28:	0000009f 	muleq	r0, pc, r0	; <UNPREDICTABLE>
	...
     f34:	2c000000 	stccs	0, cr0, [r0], {-0}
     f38:	38000001 	stmdacc	r0, {r0}
     f3c:	01000001 	tsteq	r0, r1
     f40:	01425400 	cmpeq	r2, r0, lsl #8
     f44:	01500000 	cmpeq	r0, r0
     f48:	00010000 	andeq	r0, r1, r0
     f4c:	00017254 	andeq	r7, r1, r4, asr r2
     f50:	0001a400 	andeq	sl, r1, r0, lsl #8
     f54:	54000100 	strpl	r0, [r0], #-256	; 0xffffff00
	...
     f60:	00030303 	andeq	r0, r3, r3, lsl #6
     f64:	00000142 	andeq	r0, r0, r2, asr #2
     f68:	00000192 	muleq	r0, r2, r1
     f6c:	92570001 	subsls	r0, r7, #1
     f70:	96000001 	strls	r0, [r0], -r1
     f74:	03000001 	movweq	r0, #1
     f78:	9f017700 	svcls	0x00017700
	...
     f84:	01500001 	cmpeq	r0, r1
     f88:	01640000 	cmneq	r4, r0
     f8c:	00020000 	andeq	r0, r2, r0
     f90:	00009f32 	andeq	r9, r0, r2, lsr pc
	...
     f9c:	00000150 	andeq	r0, r0, r0, asr r1
     fa0:	00000164 	andeq	r0, r0, r4, ror #2
     fa4:	00740005 	rsbseq	r0, r4, r5
     fa8:	009f2431 	addseq	r2, pc, r1, lsr r4	; <UNPREDICTABLE>
	...
     fb4:	00015000 	andeq	r5, r1, r0
     fb8:	00016400 	andeq	r6, r1, r0, lsl #8
     fbc:	5d000100 	stfpls	f0, [r0, #-0]
	...
     fc8:	01520000 	cmpeq	r2, r0
     fcc:	01580000 	cmpeq	r8, r0
     fd0:	000a0000 	andeq	r0, sl, r0
     fd4:	40080070 	andmi	r0, r8, r0, ror r0
     fd8:	3024401a 	eorcc	r4, r4, sl, lsl r0
     fdc:	00009f29 	andeq	r9, r0, r9, lsr #30
	...
     fe8:	00020000 	andeq	r0, r2, r0
     fec:	00020000 	andeq	r0, r2, r0
     ff0:	0002007d 	andeq	r0, r2, sp, ror r0
     ff4:	00060000 	andeq	r0, r6, r0
     ff8:	00020000 	andeq	r0, r2, r0
     ffc:	00060c7d 	andeq	r0, r6, sp, ror ip
    1000:	00360000 	eorseq	r0, r6, r0
    1004:	00030000 	andeq	r0, r3, r0
    1008:	3600d07d 			; <UNDEFINED> instruction: 0x3600d07d
    100c:	38000000 	stmdacc	r0, {}	; <UNPREDICTABLE>
    1010:	02000000 	andeq	r0, r0, #0
    1014:	380c7d00 	stmdacc	ip, {r8, sl, fp, ip, sp, lr}
    1018:	50000000 	andpl	r0, r0, r0
    101c:	03000000 	movweq	r0, #0
    1020:	00d07d00 	sbcseq	r7, r0, r0, lsl #26
	...
    1034:	00000008 	andeq	r0, r0, r8
    1038:	08500001 	ldmdaeq	r0, {r0}^
    103c:	50000000 	andpl	r0, r0, r0
    1040:	04000000 	streq	r0, [r0], #-0
    1044:	5001f300 	andpl	pc, r1, r0, lsl #6
    1048:	0000009f 	muleq	r0, pc, r0	; <UNPREDICTABLE>
	...
    1054:	00001800 	andeq	r1, r0, r0, lsl #16
    1058:	00002e00 	andeq	r2, r0, r0, lsl #28
    105c:	50000100 	andpl	r0, r0, r0, lsl #2
    1060:	00000030 	andeq	r0, r0, r0, lsr r0
    1064:	00000050 	andeq	r0, r0, r0, asr r0
    1068:	00500001 	subseq	r0, r0, r1
    106c:	00000000 	andeq	r0, r0, r0
    1070:	04000000 	streq	r0, [r0], #-0
    1074:	02020000 	andeq	r0, r2, #0
    1078:	00003000 	andeq	r3, r0, r0
    107c:	00003e00 	andeq	r3, r0, r0, lsl #28
    1080:	53000100 	movwpl	r0, #256	; 0x100
    1084:	0000003e 	andeq	r0, r0, lr, lsr r0
    1088:	00000040 	andeq	r0, r0, r0, asr #32
    108c:	7f730003 	svcvc	0x00730003
    1090:	0000409f 	muleq	r0, pc, r0	; <UNPREDICTABLE>
    1094:	00005000 	andeq	r5, r0, r0
    1098:	53000100 	movwpl	r0, #256	; 0x100
	...
    10a4:	00060001 	andeq	r0, r6, r1
    10a8:	00180000 	andseq	r0, r8, r0
    10ac:	00020000 	andeq	r0, r2, r0
    10b0:	00009f31 	andeq	r9, r0, r1, lsr pc
	...
    10bc:	00000006 	andeq	r0, r0, r6
    10c0:	00000018 	andeq	r0, r0, r8, lsl r0
    10c4:	005d0001 	subseq	r0, sp, r1
	...
    10d0:	00000800 	andeq	r0, r0, r0, lsl #16
    10d4:	00000e00 	andeq	r0, r0, r0, lsl #28
    10d8:	70000a00 	andvc	r0, r0, r0, lsl #20
    10dc:	1a400800 	bne	10030e4 <_Min_Stack_Size+0x1002ce4>
    10e0:	29302440 	ldmdbcs	r0!, {r6, sl, sp}
    10e4:	0000009f 	muleq	r0, pc, r0	; <UNPREDICTABLE>
    10e8:	00000000 	andeq	r0, r0, r0
    10ec:	0000fc00 	andeq	pc, r0, r0, lsl #24
    10f0:	0000fe00 	andeq	pc, r0, r0, lsl #28
    10f4:	7d000200 	sfmvc	f0, 4, [r0, #-0]
    10f8:	0000fe00 	andeq	pc, r0, r0, lsl #28
    10fc:	00010400 	andeq	r0, r1, r0, lsl #8
    1100:	7d000200 	sfmvc	f0, 4, [r0, #-0]
    1104:	00010408 	andeq	r0, r1, r8, lsl #8
    1108:	00011800 	andeq	r1, r1, r0, lsl #16
    110c:	7d000300 	stcvc	3, cr0, [r0, #-0]
    1110:	01180488 	tsteq	r8, r8, lsl #9
    1114:	01200000 			; <UNDEFINED> instruction: 0x01200000
    1118:	00020000 	andeq	r0, r2, r0
    111c:	0000087d 	andeq	r0, r0, sp, ror r8
	...
    1128:	00fc0000 	rscseq	r0, ip, r0
    112c:	010c0000 	mrseq	r0, (UNDEF: 12)
    1130:	00010000 	andeq	r0, r1, r0
    1134:	00010c50 	andeq	r0, r1, r0, asr ip
    1138:	00012000 	andeq	r2, r1, r0
    113c:	f3000400 	vshl.u8	d0, d0, d0
    1140:	009f5001 	addseq	r5, pc, r1
    1144:	00000000 	andeq	r0, r0, r0
    1148:	d0000000 	andle	r0, r0, r0
    114c:	d2000000 	andle	r0, r0, #0
    1150:	02000000 	andeq	r0, r0, #0
    1154:	d2007d00 	andle	r7, r0, #0, 26
    1158:	fc000000 	stc2	0, cr0, [r0], {-0}
    115c:	02000000 	andeq	r0, r0, #0
    1160:	00087d00 	andeq	r7, r8, r0, lsl #26
	...
    1170:	0000d000 	andeq	sp, r0, r0
    1174:	0000ec00 	andeq	lr, r0, r0, lsl #24
    1178:	50000100 	andpl	r0, r0, r0, lsl #2
    117c:	000000ec 	andeq	r0, r0, ip, ror #1
    1180:	000000f4 	strdeq	r0, [r0], -r4
    1184:	01f30004 	mvnseq	r0, r4
    1188:	00f49f50 	rscseq	r9, r4, r0, asr pc
    118c:	00fc0000 	rscseq	r0, ip, r0
    1190:	00010000 	andeq	r0, r1, r0
    1194:	00000050 	andeq	r0, r0, r0, asr r0
	...
    11a0:	d0000000 	andle	r0, r0, r0
    11a4:	e0000000 	and	r0, r0, r0
    11a8:	01000000 	mrseq	r0, (UNDEF: 0)
    11ac:	00e05100 	rsceq	r5, r0, r0, lsl #2
    11b0:	00f40000 	rscseq	r0, r4, r0
    11b4:	00040000 	andeq	r0, r4, r0
    11b8:	9f5101f3 	svcls	0x005101f3
    11bc:	000000f4 	strdeq	r0, [r0], -r4
    11c0:	000000fc 	strdeq	r0, [r0], -ip
    11c4:	00510001 	subseq	r0, r1, r1
	...
    11d4:	0000d000 	andeq	sp, r0, r0
    11d8:	0000e400 	andeq	lr, r0, r0, lsl #8
    11dc:	52000100 	andpl	r0, r0, #0, 2
    11e0:	000000e4 	andeq	r0, r0, r4, ror #1
    11e4:	000000f4 	strdeq	r0, [r0], -r4
    11e8:	01f30004 	mvnseq	r0, r4
    11ec:	00f49f52 	rscseq	r9, r4, r2, asr pc
    11f0:	00fc0000 	rscseq	r0, ip, r0
    11f4:	00010000 	andeq	r0, r1, r0
    11f8:	00000052 	andeq	r0, r0, r2, asr r0
    11fc:	00000000 	andeq	r0, r0, r0
    1200:	e6000100 	str	r0, [r0], -r0, lsl #2
    1204:	f0000000 			; <UNDEFINED> instruction: 0xf0000000
    1208:	02000000 	andeq	r0, r0, #0
    120c:	009f3000 	addseq	r3, pc, r0
	...
    1218:	cc000000 	stcgt	0, cr0, [r0], {-0}
    121c:	ce000000 	cdpgt	0, 0, cr0, cr0, cr0, {0}
    1220:	01000000 	mrseq	r0, (UNDEF: 0)
    1224:	00ce5000 	sbceq	r5, lr, r0
    1228:	00d00000 	sbcseq	r0, r0, r0
    122c:	00040000 	andeq	r0, r4, r0
    1230:	9f5001f3 	svcls	0x005001f3
	...
    1244:	00000050 	andeq	r0, r0, r0, asr r0
    1248:	00000078 	andeq	r0, r0, r8, ror r0
    124c:	78500001 	ldmdavc	r0, {r0}^
    1250:	7c000000 	stcvc	0, cr0, [r0], {-0}
    1254:	04000000 	streq	r0, [r0], #-0
    1258:	5001f300 	andpl	pc, r1, r0, lsl #6
    125c:	00007c9f 	muleq	r0, pc, ip	; <UNPREDICTABLE>
    1260:	00008e00 	andeq	r8, r0, r0, lsl #28
    1264:	50000100 	andpl	r0, r0, r0, lsl #2
    1268:	0000008e 	andeq	r0, r0, lr, lsl #1
    126c:	000000cc 	andeq	r0, r0, ip, asr #1
    1270:	01f30004 	mvnseq	r0, r4
    1274:	00009f50 	andeq	r9, r0, r0, asr pc
	...
    1284:	00080000 	andeq	r0, r8, r0
    1288:	000a0000 	andeq	r0, sl, r0
    128c:	00050000 	andeq	r0, r5, r0
    1290:	26320076 			; <UNDEFINED> instruction: 0x26320076
    1294:	00000a9f 	muleq	r0, pc, sl	; <UNPREDICTABLE>
    1298:	00001c00 	andeq	r1, r0, r0, lsl #24
    129c:	56000100 	strpl	r0, [r0], -r0, lsl #2
    12a0:	00000024 	andeq	r0, r0, r4, lsr #32
    12a4:	00000026 	andeq	r0, r0, r6, lsr #32
    12a8:	00760005 	rsbseq	r0, r6, r5
    12ac:	269f2632 			; <UNDEFINED> instruction: 0x269f2632
    12b0:	38000000 	stmdacc	r0, {}	; <UNPREDICTABLE>
    12b4:	01000000 	mrseq	r0, (UNDEF: 0)
    12b8:	00005600 	andeq	r5, r0, r0, lsl #12
    12bc:	00000000 	andeq	r0, r0, r0
    12c0:	00010000 	andeq	r0, r1, r0
    12c4:	00000000 	andeq	r0, r0, r0
    12c8:	00010000 	andeq	r0, r1, r0
    12cc:	00000000 	andeq	r0, r0, r0
    12d0:	00080000 	andeq	r0, r8, r0
    12d4:	000e0000 	andeq	r0, lr, r0
    12d8:	00020000 	andeq	r0, r2, r0
    12dc:	000e9f30 	andeq	r9, lr, r0, lsr pc
    12e0:	00100000 	andseq	r0, r0, r0
    12e4:	00010000 	andeq	r0, r1, r0
    12e8:	00001054 	andeq	r1, r0, r4, asr r0
    12ec:	00001600 	andeq	r1, r0, r0, lsl #12
    12f0:	74000300 	strvc	r0, [r0], #-768	; 0xfffffd00
    12f4:	00169f7f 	andseq	r9, r6, pc, ror pc
    12f8:	001a0000 	andseq	r0, sl, r0
    12fc:	00010000 	andeq	r0, r1, r0
    1300:	00002454 	andeq	r2, r0, r4, asr r4
    1304:	00002a00 	andeq	r2, r0, r0, lsl #20
    1308:	30000200 	andcc	r0, r0, r0, lsl #4
    130c:	00002a9f 	muleq	r0, pc, sl	; <UNPREDICTABLE>
    1310:	00002c00 	andeq	r2, r0, r0, lsl #24
    1314:	54000100 	strpl	r0, [r0], #-256	; 0xffffff00
    1318:	0000002c 	andeq	r0, r0, ip, lsr #32
    131c:	00000032 	andeq	r0, r0, r2, lsr r0
    1320:	7f740003 	svcvc	0x00740003
    1324:	0000329f 	muleq	r0, pc, r2	; <UNPREDICTABLE>
    1328:	00003600 	andeq	r3, r0, r0, lsl #12
    132c:	54000100 	strpl	r0, [r0], #-256	; 0xffffff00
	...

Disassembly of section .debug_aranges:

00000000 <.debug_aranges>:
   0:	00000024 	andeq	r0, r0, r4, lsr #32
   4:	00000002 	andeq	r0, r0, r2
   8:	00040000 	andeq	r0, r4, r0
   c:	00000000 	andeq	r0, r0, r0
  10:	08000150 	stmdaeq	r0, {r4, r6, r8}
  14:	00000214 	andeq	r0, r0, r4, lsl r2
  18:	08000d58 	stmdaeq	r0, {r3, r4, r6, r8, sl, fp}
  1c:	00000084 	andeq	r0, r0, r4, lsl #1
	...
  28:	0000001c 	andeq	r0, r0, ip, lsl r0
  2c:	092c0002 	stmdbeq	ip!, {r1}
  30:	00040000 	andeq	r0, r4, r0
  34:	00000000 	andeq	r0, r0, r0
  38:	08000364 	stmdaeq	r0, {r2, r5, r6, r8, r9}
  3c:	00000620 	andeq	r0, r0, r0, lsr #12
	...
  48:	0000001c 	andeq	r0, r0, ip, lsl r0
  4c:	1b9a0002 	blne	fe68005c <BootRAM+0xd5f07fd>
  50:	00040000 	andeq	r0, r4, r0
  54:	00000000 	andeq	r0, r0, r0
  58:	08000984 	stmdaeq	r0, {r2, r7, r8, fp}
  5c:	00000254 	andeq	r0, r0, r4, asr r2
	...
  68:	0000001c 	andeq	r0, r0, ip, lsl r0
  6c:	35e70002 	strbcc	r0, [r7, #2]!
  70:	00040000 	andeq	r0, r4, r0
  74:	00000000 	andeq	r0, r0, r0
  78:	08000bd8 	stmdaeq	r0, {r3, r4, r6, r7, r8, r9, fp}
  7c:	00000048 	andeq	r0, r0, r8, asr #32
	...
  88:	0000001c 	andeq	r0, r0, ip, lsl r0
  8c:	37010002 	strcc	r0, [r1, -r2]
  90:	00040000 	andeq	r0, r4, r0
  94:	00000000 	andeq	r0, r0, r0
  98:	08000c20 	stmdaeq	r0, {r5, sl, fp}
  9c:	000000ec 	andeq	r0, r0, ip, ror #1
	...

Disassembly of section .debug_ranges:

00000000 <.debug_ranges>:
   0:	08000150 	stmdaeq	r0, {r4, r6, r8}
   4:	08000364 	stmdaeq	r0, {r2, r5, r6, r8, r9}
   8:	08000d58 	stmdaeq	r0, {r3, r4, r6, r8, sl, fp}
   c:	08000ddc 	stmdaeq	r0, {r2, r3, r4, r6, r7, r8, sl, fp}
	...
  18:	00000032 	andeq	r0, r0, r2, lsr r0
  1c:	00000032 	andeq	r0, r0, r2, lsr r0
  20:	00000034 	andeq	r0, r0, r4, lsr r0
  24:	0000003a 	andeq	r0, r0, sl, lsr r0
	...
  30:	000002f6 	strdeq	r0, [r0], -r6
  34:	000002f8 	strdeq	r0, [r0], -r8
  38:	000002fc 	strdeq	r0, [r0], -ip
  3c:	000002fc 	strdeq	r0, [r0], -ip
  40:	00000300 	andeq	r0, r0, r0, lsl #6
  44:	00000310 	andeq	r0, r0, r0, lsl r3
	...
  50:	000003fe 	strdeq	r0, [r0], -lr
  54:	00000400 	andeq	r0, r0, r0, lsl #8
  58:	0000041a 	andeq	r0, r0, sl, lsl r4
  5c:	00000420 	andeq	r0, r0, r0, lsr #8
  60:	00000444 	andeq	r0, r0, r4, asr #8
  64:	00000450 	andeq	r0, r0, r0, asr r4
	...
  70:	0000047c 	andeq	r0, r0, ip, ror r4
  74:	00000486 	andeq	r0, r0, r6, lsl #9
  78:	00000486 	andeq	r0, r0, r6, lsl #9
  7c:	0000048e 	andeq	r0, r0, lr, lsl #9
	...
  88:	000004d0 	ldrdeq	r0, [r0], -r0	; <UNPREDICTABLE>
  8c:	000004d0 	ldrdeq	r0, [r0], -r0	; <UNPREDICTABLE>
  90:	000004d8 	ldrdeq	r0, [r0], -r8
  94:	000004e4 	andeq	r0, r0, r4, ror #9
	...
  a0:	00000526 	andeq	r0, r0, r6, lsr #10
  a4:	00000526 	andeq	r0, r0, r6, lsr #10
  a8:	00000528 	andeq	r0, r0, r8, lsr #10
  ac:	00000530 	andeq	r0, r0, r0, lsr r5
	...
  b8:	0000053c 	andeq	r0, r0, ip, lsr r5
  bc:	00000550 	andeq	r0, r0, r0, asr r5
  c0:	00000560 	andeq	r0, r0, r0, ror #10
  c4:	00000592 	muleq	r0, r2, r5
  c8:	00000596 	muleq	r0, r6, r5
  cc:	000005b6 			; <UNDEFINED> instruction: 0x000005b6
	...
  d8:	0000057a 	andeq	r0, r0, sl, ror r5
  dc:	0000057c 	andeq	r0, r0, ip, ror r5
  e0:	00000584 	andeq	r0, r0, r4, lsl #11
  e4:	00000592 	muleq	r0, r2, r5
	...
  f0:	00000550 	andeq	r0, r0, r0, asr r5
  f4:	00000556 	andeq	r0, r0, r6, asr r5
  f8:	000005c2 	andeq	r0, r0, r2, asr #11
  fc:	000005ca 	andeq	r0, r0, sl, asr #11
	...
 108:	00000002 	andeq	r0, r0, r2
 10c:	00000004 	andeq	r0, r0, r4
 110:	00000006 	andeq	r0, r0, r6
 114:	00000018 	andeq	r0, r0, r8, lsl r0
	...
 120:	0000001e 	andeq	r0, r0, lr, lsl r0
 124:	00000022 	andeq	r0, r0, r2, lsr #32
 128:	00000024 	andeq	r0, r0, r4, lsr #32
 12c:	0000002a 	andeq	r0, r0, sl, lsr #32
 130:	00000030 	andeq	r0, r0, r0, lsr r0
 134:	00000034 	andeq	r0, r0, r4, lsr r0
 138:	00000038 	andeq	r0, r0, r8, lsr r0
 13c:	00000050 	andeq	r0, r0, r0, asr r0
	...
 148:	00000124 	andeq	r0, r0, r4, lsr #2
 14c:	00000126 	andeq	r0, r0, r6, lsr #2
 150:	00000128 	andeq	r0, r0, r8, lsr #2
 154:	0000012a 	andeq	r0, r0, sl, lsr #2
 158:	0000012e 	andeq	r0, r0, lr, lsr #2
 15c:	00000132 	andeq	r0, r0, r2, lsr r1
 160:	00000138 	andeq	r0, r0, r8, lsr r1
 164:	0000013e 	andeq	r0, r0, lr, lsr r1
 168:	00000142 	andeq	r0, r0, r2, asr #2
 16c:	0000014c 	andeq	r0, r0, ip, asr #2
 170:	00000172 	andeq	r0, r0, r2, ror r1
 174:	000001a4 	andeq	r0, r0, r4, lsr #3
	...
 180:	0000014c 	andeq	r0, r0, ip, asr #2
 184:	0000014e 	andeq	r0, r0, lr, asr #2
 188:	00000150 	andeq	r0, r0, r0, asr r1
 18c:	00000164 	andeq	r0, r0, r4, ror #2
	...
 198:	000001f4 	strdeq	r0, [r0], -r4
 19c:	000001f8 	strdeq	r0, [r0], -r8
 1a0:	000001fa 	strdeq	r0, [r0], -sl
 1a4:	000001fc 	strdeq	r0, [r0], -ip
 1a8:	0000021a 	andeq	r0, r0, sl, lsl r2
 1ac:	0000021c 	andeq	r0, r0, ip, lsl r2
	...

Disassembly of section .debug_line:

00000000 <.debug_line>:
       0:	0000042f 	andeq	r0, r0, pc, lsr #8
       4:	00af0003 	adceq	r0, pc, r3
       8:	01020000 	mrseq	r0, (UNDEF: 2)
       c:	000d0efb 	strdeq	r0, [sp], -fp
      10:	01010101 	tsteq	r1, r1, lsl #2
      14:	01000000 	mrseq	r0, (UNDEF: 0)
      18:	73010000 	movwvc	r0, #4096	; 0x1000
      1c:	6c006372 	stcvs	3, cr6, [r0], {114}	; 0x72
      20:	692f6269 	stmdbvs	pc!, {r0, r3, r5, r6, r9, sp, lr}	; <UNPREDICTABLE>
      24:	756c636e 	strbvc	r6, [ip, #-878]!	; 0xfffffc92
      28:	2f006564 	svccs	0x00006564
      2c:	2f727375 	svccs	0x00727375
      30:	2f62696c 	svccs	0x0062696c
      34:	2f636367 	svccs	0x00636367
      38:	2d6d7261 	sfmcs	f7, 2, [sp, #-388]!	; 0xfffffe7c
      3c:	656e6f6e 	strbvs	r6, [lr, #-3950]!	; 0xfffff092
      40:	6261652d 	rsbvs	r6, r1, #188743680	; 0xb400000
      44:	2e382f69 	cdpcs	15, 3, cr2, cr8, cr9, {3}
      48:	2f312e33 	svccs	0x00312e33
      4c:	6c636e69 	stclvs	14, cr6, [r3], #-420	; 0xfffffe5c
      50:	00656475 	rsbeq	r6, r5, r5, ror r4
      54:	6f6c6300 	svcvs	0x006c6300
      58:	682e6b63 	stmdavs	lr!, {r0, r1, r5, r6, r8, r9, fp, sp, lr}
      5c:	00000100 	andeq	r0, r0, r0, lsl #2
      60:	6e69616d 	powvsez	f6, f1, #5.0
      64:	0100632e 	tsteq	r0, lr, lsr #6
      68:	6f630000 	svcvs	0x00630000
      6c:	635f6572 	cmpvs	pc, #478150656	; 0x1c800000
      70:	682e336d 	stmdavs	lr!, {r0, r2, r3, r5, r6, r8, r9, ip, sp}
      74:	00000200 	andeq	r0, r0, r0, lsl #4
      78:	69647473 	stmdbvs	r4!, {r0, r1, r4, r5, r6, sl, ip, sp, lr}^
      7c:	682e746e 	stmdavs	lr!, {r1, r2, r3, r5, r6, sl, ip, sp, lr}
      80:	00000300 	andeq	r0, r0, r0, lsl #6
      84:	74737973 	ldrbtvc	r7, [r3], #-2419	; 0xfffff68d
      88:	735f6d65 	cmpvc	pc, #6464	; 0x1940
      8c:	32336d74 	eorscc	r6, r3, #116, 26	; 0x1d00
      90:	7878316c 	ldmdavc	r8!, {r2, r3, r5, r6, r8, ip, sp}^
      94:	0200682e 	andeq	r6, r0, #3014656	; 0x2e0000
      98:	74730000 	ldrbtvc	r0, [r3], #-0
      9c:	6c32336d 	ldcvs	3, cr3, [r2], #-436	; 0xfffffe4c
      a0:	78313531 	ldmdavc	r1!, {r0, r4, r5, r8, sl, ip, sp}
      a4:	00682e63 	rsbeq	r2, r8, r3, ror #28
      a8:	75000002 	strvc	r0, [r0, #-2]
      ac:	6c5f6273 	lfmvs	f6, 2, [pc], {115}	; 0x73
      b0:	682e6269 	stmdavs	lr!, {r0, r3, r5, r6, r9, sp, lr}
      b4:	00000100 	andeq	r0, r0, r0, lsl #2
      b8:	001c0500 	andseq	r0, ip, r0, lsl #10
      bc:	01500205 	cmpeq	r0, r5, lsl #4
      c0:	1b030800 	blne	c20c8 <_Min_Stack_Size+0xc1cc8>
      c4:	13030501 	movwne	r0, #13569	; 0x3501
      c8:	01061005 	tsteq	r6, r5
      cc:	05210b05 	streq	r0, [r1, #-2821]!	; 0xfffff4fb
      d0:	03051f10 	movweq	r1, #24336	; 0x5f10
      d4:	0b054b06 	bleq	152cf4 <_Min_Stack_Size+0x1528f4>
      d8:	03050106 	movweq	r0, #20742	; 0x5106
      dc:	14144c06 	ldrne	r4, [r4], #-3078	; 0xfffff3fa
      e0:	01060c05 	tsteq	r6, r5, lsl #24
      e4:	4b060305 	blmi	180d00 <_Min_Stack_Size+0x180900>
      e8:	01060c05 	tsteq	r6, r5, lsl #24
      ec:	4d060305 	stcmi	3, cr0, [r6, #-20]	; 0xffffffec
      f0:	01060c05 	tsteq	r6, r5, lsl #24
      f4:	4a061e05 	bmi	187910 <_Min_Stack_Size+0x187510>
      f8:	02004205 	andeq	r4, r0, #1342177280	; 0x50000000
      fc:	05010204 	streq	r0, [r1, #-516]	; 0xfffffdfc
     100:	04020029 	streq	r0, [r2], #-41	; 0xffffffd7
     104:	05010602 	streq	r0, [r1, #-1538]	; 0xfffff9fe
     108:	04020023 	streq	r0, [r2], #-35	; 0xffffffdd
     10c:	03052002 	movweq	r2, #20482	; 0x5002
     110:	0c053306 	stceq	3, cr3, [r5], {6}
     114:	03050106 	movweq	r0, #20742	; 0x5106
     118:	0c054c06 	stceq	12, cr4, [r5], {6}
     11c:	03050106 	movweq	r0, #20742	; 0x5106
     120:	0c054e06 	stceq	14, cr4, [r5], {6}
     124:	03050106 	movweq	r0, #20742	; 0x5106
     128:	0c054c06 	stceq	12, cr4, [r5], {6}
     12c:	03050106 	movweq	r0, #20742	; 0x5106
     130:	0c053d06 	stceq	13, cr3, [r5], {6}
     134:	03050106 	movweq	r0, #20742	; 0x5106
     138:	0c052f06 	stceq	15, cr2, [r5], {6}
     13c:	03050106 	movweq	r0, #20742	; 0x5106
     140:	26054b06 	strcs	r4, [r5], -r6, lsl #22
     144:	01040200 	mrseq	r0, R12_usr
     148:	000e0501 	andeq	r0, lr, r1, lsl #10
     14c:	06010402 	streq	r0, [r1], -r2, lsl #8
     150:	00080501 	andeq	r0, r8, r1, lsl #10
     154:	20010402 	andcs	r0, r1, r2, lsl #8
     158:	30060305 	andcc	r0, r6, r5, lsl #6
     15c:	01060d05 	tsteq	r6, r5, lsl #26
     160:	4c060305 	stcmi	3, cr0, [r6], {5}
     164:	01060d05 	tsteq	r6, r5, lsl #26
     168:	4b060305 	blmi	180d84 <_Min_Stack_Size+0x180984>
     16c:	01060d05 	tsteq	r6, r5, lsl #26
     170:	03060305 	movweq	r0, #25349	; 0x6305
     174:	0c054a0b 			; <UNDEFINED> instruction: 0x0c054a0b
     178:	03050106 	movweq	r0, #20742	; 0x5106
     17c:	0c054b06 			; <UNDEFINED> instruction: 0x0c054b06
     180:	01050106 	tsteq	r5, r6, lsl #2
     184:	061f052f 	ldreq	r0, [pc], -pc, lsr #10
     188:	13030592 	movwne	r0, #13714	; 0x3592
     18c:	07051513 	smladeq	r5, r3, r5, r1
     190:	03050106 	movweq	r0, #20742	; 0x5106
     194:	07052f06 	streq	r2, [r5, -r6, lsl #30]
     198:	03050106 	movweq	r0, #20742	; 0x5106
     19c:	05132f06 	ldreq	r2, [r3, #-3846]	; 0xfffff0fa
     1a0:	0501060d 	streq	r0, [r1, #-1549]	; 0xfffff9f3
     1a4:	05210603 	streq	r0, [r1, #-1539]!	; 0xfffff9fd
     1a8:	0511060d 	ldreq	r0, [r1, #-1549]	; 0xfffff9f3
     1ac:	05300605 	ldreq	r0, [r0, #-1541]!	; 0xfffff9fb
     1b0:	0501060c 	streq	r0, [r1, #-1548]	; 0xfffff9f4
     1b4:	203c2007 	eorscs	r2, ip, r7
     1b8:	02000305 	andeq	r0, r0, #335544320	; 0x14000000
     1bc:	051f0204 	ldreq	r0, [pc, #-516]	; ffffffc0 <BootRAM+0xef70761>
     1c0:	202e3119 	eorcs	r3, lr, r9, lsl r1
     1c4:	03060305 	movweq	r0, #25349	; 0x6305
     1c8:	0e05201d 	mcreq	0, 0, r2, cr5, cr13, {0}
     1cc:	03050106 	movweq	r0, #20742	; 0x5106
     1d0:	0e055906 	vmlaeq.f16	s10, s10, s12	; <UNPREDICTABLE>
     1d4:	03050106 	movweq	r0, #20742	; 0x5106
     1d8:	0e054b06 	vmlaeq.f64	d4, d5, d6
     1dc:	03050106 	movweq	r0, #20742	; 0x5106
     1e0:	07054d06 	streq	r4, [r5, -r6, lsl #26]
     1e4:	03050106 	movweq	r0, #20742	; 0x5106
     1e8:	07052f06 	streq	r2, [r5, -r6, lsl #30]
     1ec:	03050106 	movweq	r0, #20742	; 0x5106
     1f0:	05053006 	streq	r3, [r5, #-6]
     1f4:	21060106 	tstcs	r6, r6, lsl #2
     1f8:	09051313 	stmdbeq	r5, {r0, r1, r4, r8, r9, ip}
     1fc:	03050106 	movweq	r0, #20742	; 0x5106
     200:	14133406 	ldrne	r3, [r3], #-1030	; 0xfffffbfa
     204:	07051413 	smladeq	r5, r3, r4, r1
     208:	03050106 	movweq	r0, #20742	; 0x5106
     20c:	05142f06 	ldreq	r2, [r4, #-3846]	; 0xfffff0fa
     210:	0501060d 	streq	r0, [r1, #-1549]	; 0xfffff9f3
     214:	05220603 	streq	r0, [r2, #-1539]!	; 0xfffff9fd
     218:	0501060b 	streq	r0, [r1, #-1547]	; 0xfffff9f5
     21c:	054b0603 	strbeq	r0, [fp, #-1539]	; 0xfffff9fd
     220:	3011060b 	andscc	r0, r1, fp, lsl #12
     224:	20060505 	andcs	r0, r6, r5, lsl #10
     228:	01060b05 	tsteq	r6, r5, lsl #22
     22c:	2e200705 	cdpcs	7, 2, cr0, cr0, cr5, {0}
     230:	00030520 	andeq	r0, r3, r0, lsr #10
     234:	1f020402 	svcne	0x00020402
     238:	05311905 	ldreq	r1, [r1, #-2309]!	; 0xfffff6fb
     23c:	6d030605 	stcvs	6, cr0, [r3, #-20]	; 0xffffffec
     240:	0905133c 	stmdbeq	r5, {r2, r3, r4, r5, r8, r9, ip}
     244:	052e0106 	streq	r0, [lr, #-262]!	; 0xfffffefa
     248:	1b030603 	blne	c1a5c <_Min_Stack_Size+0xc165c>
     24c:	19051420 	stmdbne	r5, {r5, sl, ip}
     250:	01051006 	tsteq	r5, r6
     254:	06030540 	streq	r0, [r3], -r0, asr #10
     258:	14207303 	strtne	r7, [r0], #-771	; 0xfffffcfd
     25c:	01060705 	tsteq	r6, r5, lsl #14
     260:	21060305 	tstcs	r6, r5, lsl #6
     264:	060c0513 			; <UNDEFINED> instruction: 0x060c0513
     268:	1d070515 	cfstr32ne	mvfx0, [r7, #-84]	; 0xffffffac
     26c:	2f060305 	svccs	0x00060305
     270:	01060d05 	tsteq	r6, r5, lsl #26
     274:	21060305 	tstcs	r6, r5, lsl #6
     278:	11060d05 	tstne	r6, r5, lsl #26
     27c:	30060505 	andcc	r0, r6, r5, lsl #10
     280:	01060c05 	tsteq	r6, r5, lsl #24
     284:	05201305 	streq	r1, [r0, #-773]!	; 0xfffffcfb
     288:	202e2e07 	eorcs	r2, lr, r7, lsl #28
     28c:	02000305 	andeq	r0, r0, #335544320	; 0x14000000
     290:	061f0204 	ldreq	r0, [pc], -r4, lsl #4
     294:	3c7fbd03 	ldclcc	13, cr11, [pc], #-12	; 290 <_Min_Heap_Size+0x290>
     298:	060b0515 			; <UNDEFINED> instruction: 0x060b0515
     29c:	06030501 	streq	r0, [r3], -r1, lsl #10
     2a0:	060b054b 	streq	r0, [fp], -fp, asr #10
     2a4:	06030501 	streq	r0, [r3], -r1, lsl #10
     2a8:	060b054b 	streq	r0, [fp], -fp, asr #10
     2ac:	06030501 	streq	r0, [r3], -r1, lsl #10
     2b0:	060b054b 	streq	r0, [fp], -fp, asr #10
     2b4:	06030501 	streq	r0, [r3], -r1, lsl #10
     2b8:	060b054b 	streq	r0, [fp], -fp, asr #10
     2bc:	06030501 	streq	r0, [r3], -r1, lsl #10
     2c0:	060b054b 	streq	r0, [fp], -fp, asr #10
     2c4:	06030501 	streq	r0, [r3], -r1, lsl #10
     2c8:	0605054d 	streq	r0, [r5], -sp, asr #10
     2cc:	05210601 	streq	r0, [r1, #-1537]!	; 0xfffff9ff
     2d0:	0501060d 	streq	r0, [r1, #-1549]	; 0xfffff9f3
     2d4:	054b0605 	strbeq	r0, [fp, #-1541]	; 0xfffff9fb
     2d8:	3011060d 	andscc	r0, r1, sp, lsl #12
     2dc:	20060705 	andcs	r0, r6, r5, lsl #14
     2e0:	01060d05 	tsteq	r6, r5, lsl #26
     2e4:	2e200905 	vmulcs.f16	s0, s0, s10	; <UNPREDICTABLE>
     2e8:	00050520 	andeq	r0, r5, r0, lsr #10
     2ec:	1f020402 	svcne	0x00020402
     2f0:	0d053606 	stceq	6, cr3, [r5, #-24]	; 0xffffffe8
     2f4:	05050106 	streq	r0, [r5, #-262]	; 0xfffffefa
     2f8:	0d055906 	vstreq.16	s10, [r5, #-12]	; <UNPREDICTABLE>
     2fc:	07051106 	streq	r1, [r5, -r6, lsl #2]
     300:	0d053006 	stceq	0, cr3, [r5, #-24]	; 0xffffffe8
     304:	09050106 	stmdbeq	r5, {r1, r2, r8}
     308:	05202e20 	streq	r2, [r0, #-3616]!	; 0xfffff1e0
     30c:	04020005 	streq	r0, [r2], #-5
     310:	1b051f02 	blne	147f20 <_Min_Stack_Size+0x147b20>
     314:	06100531 			; <UNDEFINED> instruction: 0x06100531
     318:	059e3303 	ldreq	r3, [lr, #771]	; 0x303
     31c:	15131303 	ldrne	r1, [r3, #-771]	; 0xfffffcfd
     320:	01060705 	tsteq	r6, r5, lsl #14
     324:	2f060305 	svccs	0x00060305
     328:	01060705 	tsteq	r6, r5, lsl #14
     32c:	2f060305 	svccs	0x00060305
     330:	060d0513 			; <UNDEFINED> instruction: 0x060d0513
     334:	06030501 	streq	r0, [r3], -r1, lsl #10
     338:	060d0521 	streq	r0, [sp], -r1, lsr #10
     33c:	06050511 			; <UNDEFINED> instruction: 0x06050511
     340:	060c0530 			; <UNDEFINED> instruction: 0x060c0530
     344:	20070501 	andcs	r0, r7, r1, lsl #10
     348:	0305203c 	movweq	r2, #20540	; 0x503c
     34c:	02040200 	andeq	r0, r4, #0, 4
     350:	053f061f 	ldreq	r0, [pc, #-1567]!	; fffffd39 <BootRAM+0xef704da>
     354:	03050119 	movweq	r0, #20761	; 0x5119
     358:	060b0515 			; <UNDEFINED> instruction: 0x060b0515
     35c:	06030501 	streq	r0, [r3], -r1, lsl #10
     360:	060b054b 	streq	r0, [fp], -fp, asr #10
     364:	06030501 	streq	r0, [r3], -r1, lsl #10
     368:	060b054b 	streq	r0, [fp], -fp, asr #10
     36c:	06030501 	streq	r0, [r3], -r1, lsl #10
     370:	060b054b 	streq	r0, [fp], -fp, asr #10
     374:	4b010501 	blmi	41780 <_Min_Stack_Size+0x41380>
     378:	2c050204 	sfmcs	f0, 4, [r5], {4}
     37c:	7ed10306 	cdpvc	3, 13, cr0, cr1, cr6, {0}
     380:	012d0558 			; <UNDEFINED> instruction: 0x012d0558
     384:	01060105 	tsteq	r6, r5, lsl #2
     388:	22061a05 	andcs	r1, r6, #20480	; 0x5000
     38c:	05130305 	ldreq	r0, [r3, #-773]	; 0xfffffcfb
     390:	04020008 	streq	r0, [r2], #-8
     394:	00010601 	andeq	r0, r1, r1, lsl #12
     398:	2e010402 	cdpcs	4, 0, cr0, cr1, cr2, {0}
     39c:	05210105 	streq	r0, [r1, #-261]!	; 0xfffffefb
     3a0:	04020010 	streq	r0, [r2], #-16
     3a4:	021f0602 	andseq	r0, pc, #2097152	; 0x200000
     3a8:	01010002 	tsteq	r1, r2
     3ac:	0f050204 	svceq	0x00050204
     3b0:	58020500 	stmdapl	r2, {r8, sl}
     3b4:	0308000d 	movweq	r0, #32781	; 0x800d
     3b8:	0305010d 	movweq	r0, #20749	; 0x510d
     3bc:	060f0513 			; <UNDEFINED> instruction: 0x060f0513
     3c0:	21030511 	tstcs	r3, r1, lsl r5
     3c4:	0f053d06 	svceq	0x00053d06
     3c8:	03050106 	movweq	r0, #20742	; 0x5106
     3cc:	2e015906 	vmlacs.f16	s10, s2, s12	; <UNPREDICTABLE>
     3d0:	20202e2e 	eorcs	r2, r0, lr, lsr #28
     3d4:	01202e01 			; <UNDEFINED> instruction: 0x01202e01
     3d8:	01011605 	tsteq	r1, r5, lsl #12
     3dc:	202e2e20 	eorcs	r2, lr, r0, lsr #28
     3e0:	202e0120 	eorcs	r0, lr, r0, lsr #2
     3e4:	13030501 	movwne	r0, #13569	; 0x3501
     3e8:	06200601 	strteq	r0, [r0], -r1, lsl #12
     3ec:	20012e20 	andcs	r2, r1, r0, lsr #28
     3f0:	202e0120 	eorcs	r0, lr, r0, lsr #2
     3f4:	01160501 	tsteq	r6, r1, lsl #10
     3f8:	012e2001 			; <UNDEFINED> instruction: 0x012e2001
     3fc:	2e012020 	cdpcs	0, 0, cr2, cr1, cr0, {1}
     400:	03050120 	movweq	r0, #20768	; 0x5120
     404:	03042f14 	movweq	r2, #20244	; 0x4f14
     408:	9f031605 	svcls	0x00031605
     40c:	35050109 	strcc	r0, [r5, #-265]	; 0xfffffef7
     410:	05020401 	streq	r0, [r2, #-1025]	; 0xfffffbff
     414:	e4030605 	str	r0, [r3], #-1541	; 0xfffff9fb
     418:	03052076 	movweq	r2, #20598	; 0x5076
     41c:	01040200 	mrseq	r0, R12_usr
     420:	05051e06 	streq	r1, [r5, #-3590]	; 0xfffff1fa
     424:	01040200 	mrseq	r0, R12_usr
     428:	04020013 	streq	r0, [r2], #-19	; 0xffffffed
     42c:	0d022f01 	stceq	15, cr2, [r2, #-4]
     430:	71010100 	mrsvc	r0, (UNDEF: 17)
     434:	03000007 	movweq	r0, #7
     438:	0000a700 	andeq	sl, r0, r0, lsl #14
     43c:	fb010200 	blx	40c46 <_Min_Stack_Size+0x40846>
     440:	01000d0e 	tsteq	r0, lr, lsl #26
     444:	00010101 	andeq	r0, r1, r1, lsl #2
     448:	00010000 	andeq	r0, r1, r0
     44c:	72730100 	rsbsvc	r0, r3, #0, 2
     450:	696c0063 	stmdbvs	ip!, {r0, r1, r5, r6}^
     454:	6e692f62 	cdpvs	15, 6, cr2, cr9, cr2, {3}
     458:	64756c63 	ldrbtvs	r6, [r5], #-3171	; 0xfffff39d
     45c:	752f0065 	strvc	r0, [pc, #-101]!	; 3ff <_Min_Heap_Size+0x3ff>
     460:	6c2f7273 	sfmvs	f7, 4, [pc], #-460	; 29c <_Min_Heap_Size+0x29c>
     464:	672f6269 	strvs	r6, [pc, -r9, ror #4]!
     468:	612f6363 			; <UNDEFINED> instruction: 0x612f6363
     46c:	6e2d6d72 	mcrvs	13, 1, r6, cr13, cr2, {3}
     470:	2d656e6f 	stclcs	14, cr6, [r5, #-444]!	; 0xfffffe44
     474:	69626165 	stmdbvs	r2!, {r0, r2, r5, r6, r8, sp, lr}^
     478:	332e382f 			; <UNDEFINED> instruction: 0x332e382f
     47c:	692f312e 	stmdbvs	pc!, {r1, r2, r3, r5, r8, ip, sp}	; <UNPREDICTABLE>
     480:	756c636e 	strbvc	r6, [ip, #-878]!	; 0xfffffc92
     484:	00006564 	andeq	r6, r0, r4, ror #10
     488:	5f627375 	svcpl	0x00627375
     48c:	2e62696c 	vnmulcs.f16	s13, s4, s25	; <UNPREDICTABLE>
     490:	00010063 	andeq	r0, r1, r3, rrx
     494:	726f6300 	rsbvc	r6, pc, #0, 6
     498:	6d635f65 	stclvs	15, cr5, [r3, #-404]!	; 0xfffffe6c
     49c:	00682e33 	rsbeq	r2, r8, r3, lsr lr
     4a0:	75000002 	strvc	r0, [r0, #-2]
     4a4:	6c5f6273 	lfmvs	f6, 2, [pc], {115}	; 0x73
     4a8:	682e6269 	stmdavs	lr!, {r0, r3, r5, r6, r9, sp, lr}
     4ac:	00000100 	andeq	r0, r0, r0, lsl #2
     4b0:	69647473 	stmdbvs	r4!, {r0, r1, r4, r5, r6, sl, ip, sp, lr}^
     4b4:	682e746e 	stmdavs	lr!, {r1, r2, r3, r5, r6, sl, ip, sp, lr}
     4b8:	00000300 	andeq	r0, r0, r0, lsl #6
     4bc:	336d7473 	cmncc	sp, #1929379840	; 0x73000000
     4c0:	35316c32 	ldrcc	r6, [r1, #-3122]!	; 0xfffff3ce
     4c4:	2e637831 	mcrcs	8, 3, r7, cr3, cr1, {1}
     4c8:	00020068 	andeq	r0, r2, r8, rrx
     4cc:	73797300 	cmnvc	r9, #0, 6
     4d0:	5f6d6574 	svcpl	0x006d6574
     4d4:	336d7473 	cmncc	sp, #1929379840	; 0x73000000
     4d8:	78316c32 	ldmdavc	r1!, {r1, r4, r5, sl, fp, sp, lr}
     4dc:	00682e78 	rsbeq	r2, r8, r8, ror lr
     4e0:	00000002 	andeq	r0, r0, r2
     4e4:	05002b05 	streq	r2, [r0, #-2821]	; 0xfffff4fb
     4e8:	00036402 	andeq	r6, r3, r2, lsl #8
     4ec:	01160308 	tsteq	r6, r8, lsl #6
     4f0:	05012c05 	streq	r2, [r1, #-3077]	; 0xfffff3fb
     4f4:	05010601 	streq	r0, [r1, #-1537]	; 0xfffff9ff
     4f8:	053f065c 	ldreq	r0, [pc, #-1628]!	; fffffea4 <BootRAM+0xef70645>
     4fc:	0105015d 	tsteq	r5, sp, asr r1
     500:	05200106 	streq	r0, [r0, #-262]!	; 0xfffffefa
     504:	05210663 	streq	r0, [r1, #-1635]!	; 0xfffff99d
     508:	01050164 	tsteq	r5, r4, ror #2
     50c:	05200106 	streq	r0, [r0, #-262]!	; 0xfffffefa
     510:	1c030611 	stcne	6, cr0, [r3], {17}
     514:	13030520 	movwne	r0, #13600	; 0x3520
     518:	01061005 	tsteq	r6, r5
     51c:	59060305 	stmdbpl	r6, {r0, r2, r8, r9}
     520:	01061005 	tsteq	r6, r5
     524:	4c060305 	stcmi	3, cr0, [r6], {5}
     528:	01060f05 	tsteq	r6, r5, lsl #30
     52c:	59060305 	stmdbpl	r6, {r0, r2, r8, r9}
     530:	01060f05 	tsteq	r6, r5, lsl #30
     534:	4b060305 	blmi	181150 <_Min_Stack_Size+0x180d50>
     538:	06010705 	streq	r0, [r1], -r5, lsl #14
     53c:	110f0501 	tstne	pc, r1, lsl #10
     540:	02002e05 	andeq	r2, r0, #5, 28	; 0x50
     544:	21060304 	tstcs	r6, r4, lsl #6
     548:	02000305 	andeq	r0, r0, #335544320	; 0x14000000
     54c:	20060304 	andcs	r0, r6, r4, lsl #6
     550:	03040200 	movweq	r0, #16896	; 0x4200
     554:	05210620 	streq	r0, [r1, #-1568]!	; 0xfffff9e0
     558:	0501060f 	streq	r0, [r1, #-1551]	; 0xfffff9f1
     55c:	052f0603 	streq	r0, [pc, #-1539]!	; ffffff61 <BootRAM+0xef70702>
     560:	0501060f 	streq	r0, [r1, #-1551]	; 0xfffff9f1
     564:	052f0603 	streq	r0, [pc, #-1539]!	; ffffff69 <BootRAM+0xef7070a>
     568:	0501060f 	streq	r0, [r1, #-1551]	; 0xfffff9f1
     56c:	052f0603 	streq	r0, [pc, #-1539]!	; ffffff71 <BootRAM+0xef70712>
     570:	0501060f 	streq	r0, [r1, #-1551]	; 0xfffff9f1
     574:	052f0603 	streq	r0, [pc, #-1539]!	; ffffff79 <BootRAM+0xef7071a>
     578:	2e01060f 	cfmadd32cs	mvax0, mvfx0, mvfx1, mvfx15
     57c:	2f060305 	svccs	0x00060305
     580:	16050204 	strne	r0, [r5], -r4, lsl #4
     584:	010b9b03 	tsteq	fp, r3, lsl #22
     588:	05140305 	ldreq	r0, [r4, #-773]	; 0xfffffcfb
     58c:	4a010627 	bmi	41e30 <_Min_Stack_Size+0x41a30>
     590:	03050104 	movweq	r0, #20740	; 0x5104
     594:	74e40306 	strbtvc	r0, [r4], #774	; 0x306
     598:	060f0501 	streq	r0, [pc], -r1, lsl #10
     59c:	59010501 	stmdbpl	r1, {r0, r8, sl}
     5a0:	03064f05 	movweq	r4, #28421	; 0x6f05
     5a4:	05ba00e6 	ldreq	r0, [sl, #230]!	; 0xe6
     5a8:	05131303 	ldreq	r1, [r3, #-771]	; 0xfffffcfd
     5ac:	0510064f 	ldreq	r0, [r0, #-1615]	; 0xfffff9b1
     5b0:	03052209 	movweq	r2, #21001	; 0x5209
     5b4:	05053006 	streq	r3, [r5, #-6]
     5b8:	59065806 	stmdbpl	r6, {r1, r2, fp, ip, lr}
     5bc:	05200601 	streq	r0, [r0, #-1537]!	; 0xfffff9ff
     5c0:	05950603 	ldreq	r0, [r5, #1539]	; 0x603
     5c4:	0501060c 	streq	r0, [r1, #-1548]	; 0xfffff9f4
     5c8:	13210603 			; <UNDEFINED> instruction: 0x13210603
     5cc:	3c130614 	ldccc	6, cr0, [r3], {20}
     5d0:	19052e06 	stmdbne	r5, {r1, r2, r9, sl, fp, sp}
     5d4:	061d0559 			; <UNDEFINED> instruction: 0x061d0559
     5d8:	05052e01 	streq	r2, [r5, #-3585]	; 0xfffff1ff
     5dc:	20770306 	rsbscs	r0, r7, r6, lsl #6
     5e0:	06070501 	streq	r0, [r7], -r1, lsl #10
     5e4:	331205b3 	tstcc	r2, #750780416	; 0x2cc00000
     5e8:	30060305 	andcc	r0, r6, r5, lsl #6
     5ec:	01061205 	tsteq	r6, r5, lsl #4
     5f0:	22060305 	andcs	r0, r6, #335544320	; 0x14000000
     5f4:	4a060505 	bmi	181a10 <_Min_Stack_Size+0x181610>
     5f8:	23056706 	movwcs	r6, #22278	; 0x5706
     5fc:	05050106 	streq	r0, [r5, #-262]	; 0xfffffefa
     600:	16052106 	strne	r2, [r5], -r6, lsl #2
     604:	07050106 	streq	r0, [r5, -r6, lsl #2]
     608:	2d160521 	cfldr32cs	mvfx0, [r6, #-132]	; 0xffffff7c
     60c:	2f060505 	svccs	0x00060505
     610:	2e060705 	cdpcs	7, 0, cr0, cr6, cr5, {0}
     614:	01580621 	cmpeq	r8, r1, lsr #12
     618:	0c05013e 	stfeqs	f0, [r5], {62}	; 0x3e
     61c:	2e0f0306 	cdpcs	3, 0, cr0, cr15, cr6, {0}
     620:	051e0505 	ldreq	r0, [lr, #-1285]	; 0xfffffafb
     624:	05220603 	streq	r0, [r2, #-1539]!	; 0xfffff9fd
     628:	0501060c 	streq	r0, [r1, #-1548]	; 0xfffff9f4
     62c:	19052101 	stmdbne	r5, {r0, r8, sp}
     630:	20650306 	rsbcs	r0, r5, r6, lsl #6
     634:	01061d05 	tsteq	r6, r5, lsl #26
     638:	060e052e 	streq	r0, [lr], -lr, lsr #10
     63c:	06120521 	ldreq	r0, [r2], -r1, lsr #10
     640:	05052e01 	streq	r2, [r5, #-3585]	; 0xfffff1ff
     644:	200d0306 	andcs	r0, sp, r6, lsl #6
     648:	01062305 	tsteq	r6, r5, lsl #6
     64c:	21060505 	tstcs	r6, r5, lsl #10
     650:	13062605 	movwne	r2, #26117	; 0x6605
     654:	061f0705 	ldreq	r0, [pc], -r5, lsl #14
     658:	06260521 	strteq	r0, [r6], -r1, lsr #10
     65c:	1d313915 			; <UNDEFINED> instruction: 0x1d313915
     660:	21060705 	tstcs	r6, r5, lsl #14
     664:	16062705 	strne	r2, [r6], -r5, lsl #14
     668:	052e3305 	streq	r3, [lr, #-773]!	; 0xfffffcfb
     66c:	07052a2e 	streq	r2, [r5, -lr, lsr #20]
     670:	13133006 	tstne	r3, #6
     674:	01063305 	tsteq	r6, r5, lsl #6
     678:	052e2705 	streq	r2, [lr, #-1797]!	; 0xfffff8fb
     67c:	27053017 	smladcs	r5, r7, r0, r3
     680:	0605051e 			; <UNDEFINED> instruction: 0x0605051e
     684:	06170530 			; <UNDEFINED> instruction: 0x06170530
     688:	06050501 	streq	r0, [r5], -r1, lsl #10
     68c:	2006012f 	andcs	r0, r6, pc, lsr #2
     690:	f7065605 			; <UNDEFINED> instruction: 0xf7065605
     694:	13130305 	tstne	r3, #335544320	; 0x14000000
     698:	10065605 	andne	r5, r6, r5, lsl #12
     69c:	05240305 	streq	r0, [r4, #-773]!	; 0xfffffcfb
     6a0:	03052c09 	movweq	r2, #23561	; 0x5c09
     6a4:	06013006 	streq	r3, [r1], -r6
     6a8:	2078036e 	rsbscs	r0, r8, lr, ror #6
     6ac:	a0019106 	andge	r9, r1, r6, lsl #2
     6b0:	01060c05 	tsteq	r6, r5, lsl #24
     6b4:	21060305 	tstcs	r6, r5, lsl #6
     6b8:	2e061413 	cfmvdlrcs	mvd6, r1
     6bc:	19052f06 	stmdbne	r5, {r1, r2, r8, r9, sl, fp, sp}
     6c0:	061d0559 			; <UNDEFINED> instruction: 0x061d0559
     6c4:	31120501 	tstcc	r2, r1, lsl #10
     6c8:	1b07052e 	blne	1c1b88 <_Min_Stack_Size+0x1c1788>
     6cc:	35060305 	strcc	r0, [r6, #-773]	; 0xfffffcfb
     6d0:	2e061205 	cdpcs	2, 0, cr1, cr6, cr5, {0}
     6d4:	22060305 	andcs	r0, r6, #335544320	; 0x14000000
     6d8:	05053c06 	streq	r3, [r5, #-3078]	; 0xfffff3fa
     6dc:	2106742e 	tstcs	r6, lr, lsr #8
     6e0:	01062305 	tsteq	r6, r5, lsl #6
     6e4:	21060505 	tstcs	r6, r5, lsl #10
     6e8:	01062305 	tsteq	r6, r5, lsl #6
     6ec:	21060505 	tstcs	r6, r5, lsl #10
     6f0:	06019f01 	streq	r9, [r1], -r1, lsl #30
     6f4:	05900d03 	ldreq	r0, [r0, #3331]	; 0xd03
     6f8:	05220603 	streq	r0, [r2, #-1539]!	; 0xfffff9fd
     6fc:	05010614 	streq	r0, [r1, #-1556]	; 0xfffff9ec
     700:	1405230c 	strne	r2, [r5], #-780	; 0xfffffcf4
     704:	0603052b 	streq	r0, [r3], -fp, lsr #10
     708:	0614052f 	ldreq	r0, [r4], -pc, lsr #10
     70c:	220c0501 	andcs	r0, ip, #4194304	; 0x400000
     710:	051e1405 	ldreq	r1, [lr, #-1029]	; 0xfffffbfb
     714:	05300603 	ldreq	r0, [r0, #-1539]!	; 0xfffff9fd
     718:	05130601 	ldreq	r0, [r3, #-1537]	; 0xfffff9ff
     71c:	64030619 	strvs	r0, [r3], #-1561	; 0xfffff9e7
     720:	061d0520 	ldreq	r0, [sp], -r0, lsr #10
     724:	0e052e01 	cdpeq	14, 0, cr2, cr5, cr1, {0}
     728:	12052106 	andne	r2, r5, #-2147483647	; 0x80000001
     72c:	052e0106 	streq	r0, [lr, #-262]!	; 0xfffffefa
     730:	0a030605 	beq	c1f4c <_Min_Stack_Size+0xc1b4c>
     734:	06230520 	strteq	r0, [r3], -r0, lsr #10
     738:	06050501 	streq	r0, [r5], -r1, lsl #10
     73c:	06070521 	streq	r0, [r7], -r1, lsr #10
     740:	1f230513 	svcne	0x00230513
     744:	21060505 	tstcs	r6, r5, lsl #10
     748:	13064705 	movwne	r4, #26373	; 0x6705
     74c:	061f0705 	ldreq	r0, [pc], -r5, lsl #14
     750:	06470521 	strbeq	r0, [r7], -r1, lsr #10
     754:	3c260501 	cfstr32cc	mvfx0, [r6], #-4
     758:	4b060705 	blmi	182374 <_Min_Stack_Size+0x181f74>
     75c:	01065005 	tsteq	r6, r5
     760:	05324905 	ldreq	r4, [r2, #-2309]!	; 0xfffff6fb
     764:	05056627 	streq	r6, [r5, #-1575]	; 0xfffff9d9
     768:	9f016806 	svcls	0x00016806
     76c:	99070501 	stmdbls	r7, {r0, r8, sl}
     770:	01064705 	tsteq	r6, r5, lsl #14
     774:	053c2605 	ldreq	r2, [ip, #-1541]!	; 0xfffff9fb
     778:	134b0607 	movtne	r0, #46599	; 0xb607
     77c:	01065505 	tsteq	r6, r5, lsl #10
     780:	03061905 	movweq	r1, #26885	; 0x6905
     784:	0305ac0c 	movweq	sl, #23564	; 0x5c0c
     788:	06190513 			; <UNDEFINED> instruction: 0x06190513
     78c:	21090511 	tstcs	r9, r1, lsl r5
     790:	063c0505 	ldrteq	r0, [ip], -r5, lsl #10
     794:	0f052f2f 	svceq	0x00052f2f
     798:	0e050106 	adfeqs	f0, f5, f6
     79c:	1f0f052f 	svcne	0x000f052f
     7a0:	2f060505 	svccs	0x00060505
     7a4:	01060e05 	tsteq	r6, r5, lsl #28
     7a8:	3d060505 	cfstr32cc	mvfx0, [r6, #-20]	; 0xffffffec
     7ac:	01061005 	tsteq	r6, r5
     7b0:	05222405 	streq	r2, [r2, #-1029]!	; 0xfffffbfb
     7b4:	05051e10 	streq	r1, [r5, #-3600]	; 0xfffff1f0
     7b8:	09052f06 	stmdbeq	r5, {r1, r2, r8, r9, sl, fp, sp}
     7bc:	05010601 	streq	r0, [r1, #-1537]	; 0xfffff9ff
     7c0:	07051110 	smladeq	r5, r0, r1, r1
     7c4:	03040200 	movweq	r0, #16896	; 0x4200
     7c8:	05053006 	streq	r3, [r5, #-6]
     7cc:	03040200 	movweq	r0, #16896	; 0x4200
     7d0:	24051f06 	strcs	r1, [r5], #-3846	; 0xfffff0fa
     7d4:	03040200 	movweq	r0, #16896	; 0x4200
     7d8:	0014052f 	andseq	r0, r4, pc, lsr #10
     7dc:	2e030402 	cdpcs	4, 0, cr0, cr3, cr2, {0}
     7e0:	02000505 	andeq	r0, r0, #20971520	; 0x1400000
     7e4:	062d0304 	strteq	r0, [sp], -r4, lsl #6
     7e8:	060f0524 	streq	r0, [pc], -r4, lsr #10
     7ec:	3d050501 	cfstr32cc	mvfx0, [r5, #-4]
     7f0:	051f0f05 	ldreq	r0, [pc, #-3845]	; fffff8f3 <BootRAM+0xef70094>
     7f4:	592f0605 	stmdbpl	pc!, {r0, r2, r9, sl}	; <UNPREDICTABLE>
     7f8:	060d0567 	streq	r0, [sp], -r7, ror #10
     7fc:	06050501 	streq	r0, [r5], -r1, lsl #10
     800:	3103052f 	tstcc	r3, pc, lsr #10
     804:	01060905 	tsteq	r6, r5, lsl #18
     808:	063c0505 	ldrteq	r0, [ip], -r5, lsl #10
     80c:	0618052f 	ldreq	r0, [r8], -pc, lsr #10
     810:	2e0d0501 	cfsh32cs	mvfx0, mvfx13, #1
     814:	2f060505 	svccs	0x00060505
     818:	01060805 	tsteq	r6, r5, lsl #16
     81c:	06660705 	strbteq	r0, [r6], -r5, lsl #14
     820:	0611052f 	ldreq	r0, [r1], -pc, lsr #10
     824:	20070501 	andcs	r0, r7, r1, lsl #10
     828:	05014b06 	streq	r4, [r1, #-2822]	; 0xfffff4fa
     82c:	08058405 	stmdaeq	r5, {r0, r2, sl, pc}
     830:	07050106 	streq	r0, [r5, -r6, lsl #2]
     834:	052f0620 	streq	r0, [pc, #-1568]!	; 21c <_Min_Heap_Size+0x21c>
     838:	05010610 	streq	r0, [r1, #-1552]	; 0xfffff9f0
     83c:	59062007 	stmdbpl	r6, {r0, r1, r2, sp}
     840:	05820601 	streq	r0, [r2, #1537]	; 0x601
     844:	05160603 	ldreq	r0, [r6, #-1539]	; 0xfffff9fd
     848:	05010609 	streq	r0, [r1, #-1545]	; 0xfffff9f7
     84c:	2f063c05 	svccs	0x00063c05
     850:	060f052f 	streq	r0, [pc], -pc, lsr #10
     854:	06050501 	streq	r0, [r5], -r1, lsl #10
     858:	060f0567 	streq	r0, [pc], -r7, ror #10
     85c:	06030501 	streq	r0, [r3], -r1, lsl #10
     860:	0609054d 	streq	r0, [r9], -sp, asr #10
     864:	3c050501 	cfstr32cc	mvfx0, [r5], {1}
     868:	0f052f06 	svceq	0x00052f06
     86c:	05050106 	streq	r0, [r5, #-262]	; 0xfffffefa
     870:	0f058306 	svceq	0x00058306
     874:	01050106 	tsteq	r5, r6, lsl #2
     878:	0643054c 	strbeq	r0, [r3], -ip, asr #10
     87c:	05f20f03 	ldrbeq	r0, [r2, #3843]!	; 0xf03
     880:	43051303 	movwmi	r1, #21251	; 0x5303
     884:	03051106 	movweq	r1, #20742	; 0x5106
     888:	1b330526 	blne	cc1d28 <_Min_Stack_Size+0xcc1928>
     88c:	05201005 	streq	r1, [r0, #-5]!
     890:	054b0603 	strbeq	r0, [fp, #-1539]	; 0xfffff9fd
     894:	0515063f 	ldreq	r0, [r5, #-1599]	; 0xfffff9c1
     898:	38051d17 	stmdacc	r5, {r0, r1, r2, r4, r8, sl, fp, ip}
     89c:	470c0523 	strmi	r0, [ip, -r3, lsr #10]
     8a0:	22060305 	andcs	r0, r6, #335544320	; 0x14000000
     8a4:	06380513 			; <UNDEFINED> instruction: 0x06380513
     8a8:	06030501 	streq	r0, [r3], -r1, lsl #10
     8ac:	01070521 	tsteq	r7, r1, lsr #10
     8b0:	02000305 	andeq	r0, r0, #335544320	; 0x14000000
     8b4:	01060104 	tsteq	r6, r4, lsl #2
     8b8:	14063f06 	strne	r3, [r6], #-3846	; 0xfffff0fa
     8bc:	3a100520 	bcc	401d44 <_Min_Stack_Size+0x401944>
     8c0:	22060305 	andcs	r0, r6, #335544320	; 0x14000000
     8c4:	053c0601 	ldreq	r0, [ip, #-1537]!	; 0xfffff9ff
     8c8:	05059101 	streq	r9, [r5, #-257]	; 0xfffffeff
     8cc:	03040200 	movweq	r0, #16896	; 0x4200
     8d0:	11051b06 	tstne	r5, r6, lsl #22
     8d4:	03040200 	movweq	r0, #16896	; 0x4200
     8d8:	02000106 	andeq	r0, r0, #-2147483647	; 0x80000001
     8dc:	004a0304 	subeq	r0, sl, r4, lsl #6
     8e0:	20030402 	andcs	r0, r3, r2, lsl #8
     8e4:	00062205 	andeq	r2, r6, r5, lsl #4
     8e8:	07b40205 	ldreq	r0, [r4, r5, lsl #4]!
     8ec:	86030800 	strhi	r0, [r3], -r0, lsl #16
     8f0:	0305017e 	movweq	r0, #20862	; 0x517e
     8f4:	06220513 			; <UNDEFINED> instruction: 0x06220513
     8f8:	210b0511 	tstcs	fp, r1, lsl r5
     8fc:	05202405 	streq	r2, [r0, #-1029]!	; 0xfffffbfb
     900:	2405200b 	strcs	r2, [r5], #-11
     904:	2005052e 	andcs	r0, r5, lr, lsr #10
     908:	10053d06 	andne	r3, r5, r6, lsl #26
     90c:	03050106 	movweq	r0, #20742	; 0x5106
     910:	08055b06 	stmdaeq	r5, {r1, r2, r8, r9, fp, ip, lr}
     914:	05050106 	streq	r0, [r5, #-262]	; 0xfffffefa
     918:	06030520 	streq	r0, [r3], -r0, lsr #10
     91c:	060e054b 	streq	r0, [lr], -fp, asr #10
     920:	20050501 	andcs	r0, r5, r1, lsl #10
     924:	21060305 	tstcs	r6, r5, lsl #6
     928:	01060c05 	tsteq	r6, r5, lsl #24
     92c:	21060305 	tstcs	r6, r5, lsl #6
     930:	03060304 	movweq	r0, #25348	; 0x6304
     934:	580100d9 	stmdapl	r1, {r0, r3, r4, r6, r7}
     938:	03060104 	movweq	r0, #24836	; 0x6104
     93c:	04017fa8 	streq	r7, [r1], #-4008	; 0xfffff058
     940:	03140503 	tsteq	r4, #12582912	; 0xc00000
     944:	050100d7 	streq	r0, [r1, #-215]	; 0xffffff29
     948:	20061303 	andcs	r1, r6, r3, lsl #6
     94c:	0601043c 			; <UNDEFINED> instruction: 0x0601043c
     950:	017faa03 	cmneq	pc, r3, lsl #20
     954:	15060505 	strne	r0, [r6, #-1285]	; 0xfffffafb
     958:	051d0d05 	ldreq	r0, [sp, #-3333]	; 0xfffff2fb
     95c:	143d0603 	ldrtne	r0, [sp], #-1539	; 0xfffff9fd
     960:	13060d05 	movwne	r0, #27909	; 0x6d05
     964:	052b0b05 	streq	r0, [fp, #-2821]!	; 0xfffff4fb
     968:	05310605 	ldreq	r0, [r1, #-1541]!	; 0xfffff9fb
     96c:	0501060d 	streq	r0, [r1, #-1549]	; 0xfffff9f3
     970:	2d052201 	sfmcs	f2, 4, [r5, #-4]
     974:	01f00306 	mvnseq	r0, r6, lsl #6
     978:	13030566 	movwne	r0, #13670	; 0x3566
     97c:	11062d05 	tstne	r6, r5, lsl #26
     980:	05213305 	streq	r3, [r1, #-773]!	; 0xfffffcfb
     984:	03052010 	movweq	r2, #20496	; 0x5010
     988:	2d054b06 	vstrcs	d4, [r5, #-24]	; 0xffffffe8
     98c:	11051006 	tstne	r5, r6
     990:	03052022 	movweq	r2, #20514	; 0x5022
     994:	05052f06 	streq	r2, [r5, #-3846]	; 0xfffff0fa
     998:	03050106 	movweq	r0, #20742	; 0x5106
     99c:	05132106 	ldreq	r2, [r3, #-262]	; 0xfffffefa
     9a0:	0501063e 	streq	r0, [r1, #-1598]	; 0xfffff9c2
     9a4:	37051f0f 	strcc	r1, [r5, -pc, lsl #30]
     9a8:	06030521 	streq	r0, [r3], -r1, lsr #10
     9ac:	01070559 	tsteq	r7, r9, asr r5
     9b0:	20100106 	andscs	r0, r0, r6, lsl #2
     9b4:	00050520 	andeq	r0, r5, r0, lsr #10
     9b8:	06030402 	streq	r0, [r3], -r2, lsl #8
     9bc:	000e0531 	andeq	r0, lr, r1, lsr r5
     9c0:	06030402 	streq	r0, [r3], -r2, lsl #8
     9c4:	00030501 	andeq	r0, r3, r1, lsl #10
     9c8:	2d030402 	cfstrscs	mvf0, [r3, #-8]
     9cc:	02000c05 	andeq	r0, r0, #1280	; 0x500
     9d0:	05210304 	streq	r0, [r1, #-772]!	; 0xfffffcfc
     9d4:	04020003 	streq	r0, [r2], #-3
     9d8:	23062d03 	movwcs	r2, #27907	; 0x6d03
     9dc:	66200601 	strtvs	r0, [r0], -r1, lsl #12
     9e0:	01059106 	tsteq	r5, r6, lsl #2
     9e4:	23051306 	movwcs	r1, #21254	; 0x5306
     9e8:	7e8f0306 	cdpvc	3, 8, cr0, cr15, cr6, {0}
     9ec:	13030520 	movwne	r0, #13600	; 0x3520
     9f0:	06230513 			; <UNDEFINED> instruction: 0x06230513
     9f4:	16052210 			; <UNDEFINED> instruction: 0x16052210
     9f8:	3b23053d 	blcc	8c1ef4 <_Min_Stack_Size+0x8c1af4>
     9fc:	2f060305 	svccs	0x00060305
     a00:	06050514 			; <UNDEFINED> instruction: 0x06050514
     a04:	053d0601 	ldreq	r0, [sp, #-1537]!	; 0xfffff9ff
     a08:	2e010607 	cfmadd32cs	mvax0, mvfx0, mvfx1, mvfx7
     a0c:	03042f06 	movweq	r2, #20230	; 0x4f06
     a10:	c7031305 	strgt	r1, [r3, -r5, lsl #6]
     a14:	03050100 	movweq	r0, #20736	; 0x5100
     a18:	05010413 	streq	r0, [r1, #-1043]	; 0xfffffbed
     a1c:	b9030611 	stmdblt	r3, {r0, r4, r9, sl}
     a20:	0304017f 	movweq	r0, #16767	; 0x417f
     a24:	c7030a05 	strgt	r0, [r3, -r5, lsl #20]
     a28:	2e2e2000 	cdpcs	0, 2, cr2, cr14, cr0, {0}
     a2c:	07050104 	streq	r0, [r5, -r4, lsl #2]
     a30:	7fb90306 	svcvc	0x00b90306
     a34:	06110501 	ldreq	r0, [r1], -r1, lsl #10
     a38:	06070501 	streq	r0, [r7], -r1, lsl #10
     a3c:	03030521 	movweq	r0, #13601	; 0x3521
     a40:	1d05010a 	stfnes	f0, [r5, #-40]	; 0xffffffd8
     a44:	0b050106 	bleq	140e64 <_Min_Stack_Size+0x140a64>
     a48:	06030520 	streq	r0, [r3], -r0, lsr #10
     a4c:	06050530 			; <UNDEFINED> instruction: 0x06050530
     a50:	05300601 	ldreq	r0, [r0, #-1537]!	; 0xfffff9ff
     a54:	05010607 	streq	r0, [r1, #-1543]	; 0xfffff9f9
     a58:	05210605 	streq	r0, [r1, #-1541]!	; 0xfffff9fb
     a5c:	06010607 	streq	r0, [r1], -r7, lsl #12
     a60:	061a0521 	ldreq	r0, [sl], -r1, lsr #10
     a64:	20070501 	andcs	r0, r7, r1, lsl #10
     a68:	03060b05 	movweq	r0, #27397	; 0x6b05
     a6c:	0304580a 	movweq	r5, #18442	; 0x480a
     a70:	22031405 	andcs	r1, r3, #83886080	; 0x5000000
     a74:	13030501 	movwne	r0, #13569	; 0x3501
     a78:	043c2e06 	ldrteq	r2, [ip], #-3590	; 0xfffff1fa
     a7c:	06070501 	streq	r0, [r7], -r1, lsl #10
     a80:	05014503 	streq	r4, [r1, #-1283]	; 0xfffffafd
     a84:	05010609 	streq	r0, [r1, #-1545]	; 0xfffff9f7
     a88:	1003060b 	andne	r0, r3, fp, lsl #12
     a8c:	06170558 			; <UNDEFINED> instruction: 0x06170558
     a90:	220b0501 	andcs	r0, fp, #4194304	; 0x400000
     a94:	051e1705 	ldreq	r1, [lr, #-1797]	; 0xfffff8fb
     a98:	0621060b 	strteq	r0, [r1], -fp, lsl #12
     a9c:	3b140513 	blcc	501ef0 <_Min_Stack_Size+0x501af0>
     aa0:	2f060b05 	svccs	0x00060b05
     aa4:	0305052f 	movweq	r0, #21807	; 0x552f
     aa8:	1405010f 	strne	r0, [r5], #-271	; 0xfffffef1
     aac:	07050106 	streq	r0, [r5, -r6, lsl #2]
     ab0:	03030520 	movweq	r0, #13600	; 0x3520
     ab4:	07052e4e 	streq	r2, [r5, -lr, asr #28]
     ab8:	05203203 	streq	r3, [r0, #-515]!	; 0xfffffdfd
     abc:	05200625 	streq	r0, [r0, #-1573]!	; 0xfffff9db
     ac0:	0501062a 	streq	r0, [r1, #-1578]	; 0xfffff9d6
     ac4:	053d0605 	ldreq	r0, [sp, #-1541]!	; 0xfffff9fb
     ac8:	014a0314 	cmpeq	sl, r4, lsl r3
     acc:	05130305 	ldreq	r0, [r3, #-773]	; 0xfffffcfb
     ad0:	0501060d 	streq	r0, [r1, #-1549]	; 0xfffff9f3
     ad4:	053d0603 	ldreq	r0, [sp, #-1539]!	; 0xfffff9fd
     ad8:	0501060b 	streq	r0, [r1, #-1547]	; 0xfffff9f5
     adc:	062f0603 	strteq	r0, [pc], -r3, lsl #12
     ae0:	0301052e 	movweq	r0, #5422	; 0x152e
     ae4:	050100c7 	streq	r0, [r1, #-199]	; 0xffffff39
     ae8:	6403060b 	strvs	r0, [r3], #-1547	; 0xfffff9f5
     aec:	0503042e 	streq	r0, [r3, #-1070]	; 0xfffffbd2
     af0:	011f0314 	tsteq	pc, r4, lsl r3	; <UNPREDICTABLE>
     af4:	06130305 	ldreq	r0, [r3], -r5, lsl #6
     af8:	0501044a 	streq	r0, [r1, #-1098]	; 0xfffffbb6
     afc:	64030605 	strvs	r0, [r3], #-1541	; 0xfffff9fb
     b00:	060b0501 	streq	r0, [fp], -r1, lsl #10
     b04:	05052001 	streq	r2, [r5, #-1]
     b08:	0e052106 	adfeqs	f2, f5, f6
     b0c:	05050106 	streq	r0, [r5, #-262]	; 0xfffffefa
     b10:	490e0521 	stmdbmi	lr, {r0, r5, r8, sl}
     b14:	2f060505 	svccs	0x00060505
     b18:	06202e06 	strteq	r2, [r0], -r6, lsl #28
     b1c:	06070517 			; <UNDEFINED> instruction: 0x06070517
     b20:	05210601 	streq	r0, [r1, #-1537]!	; 0xfffff9ff
     b24:	05010616 	streq	r0, [r1, #-1558]	; 0xfffff9ea
     b28:	2f062009 	svccs	0x00062009
     b2c:	01061205 	tsteq	r6, r5, lsl #4
     b30:	2f060905 	svccs	0x00060905
     b34:	14050304 	strne	r0, [r5], #-772	; 0xfffffcfc
     b38:	05011103 	streq	r1, [r1, #-259]	; 0xfffffefd
     b3c:	01061303 	tsteq	r6, r3, lsl #6
     b40:	2c050104 	stfcss	f0, [r5], {4}
     b44:	017a0306 	cmneq	sl, r6, lsl #6
     b48:	14050304 	strne	r0, [r5], #-772	; 0xfffffcfc
     b4c:	13030517 	movwne	r0, #13591	; 0x3517
     b50:	01044a06 	tsteq	r4, r6, lsl #20
     b54:	03060d05 	movweq	r0, #27909	; 0x6d05
     b58:	0f050170 	svceq	0x00050170
     b5c:	09050106 	stmdbeq	r5, {r1, r2, r8}
     b60:	17052f06 	strne	r2, [r5, -r6, lsl #30]
     b64:	09050106 	stmdbeq	r5, {r1, r2, r8}
     b68:	03042f06 	movweq	r2, #20230	; 0x4f06
     b6c:	0d031405 	cfstrseq	mvf1, [r3, #-20]	; 0xffffffec
     b70:	13030501 	movwne	r0, #13569	; 0x3501
     b74:	01042006 	tsteq	r4, r6
     b78:	03060505 	movweq	r0, #25861	; 0x6505
     b7c:	09050176 	stmdbeq	r5, {r1, r2, r4, r5, r6, r8}
     b80:	07050106 	streq	r0, [r5, -r6, lsl #2]
     b84:	01210658 			; <UNDEFINED> instruction: 0x01210658
     b88:	05ae0505 	streq	r0, [lr, #1285]!	; 0x505
     b8c:	0501060f 	streq	r0, [r1, #-1551]	; 0xfffff9f1
     b90:	0f052f07 	svceq	0x00052f07
     b94:	2107051f 	tstcs	r7, pc, lsl r5
     b98:	051f0f05 	ldreq	r0, [pc, #-3845]	; fffffc9b <BootRAM+0xef7043c>
     b9c:	05210605 	streq	r0, [r1, #-1541]!	; 0xfffff9fb
     ba0:	02010607 	andeq	r0, r1, #7340032	; 0x700000
     ba4:	0101000f 	tsteq	r1, pc
     ba8:	0000040d 	andeq	r0, r0, sp, lsl #8
     bac:	01020003 	tsteq	r2, r3
     bb0:	01020000 	mrseq	r0, (UNDEF: 2)
     bb4:	000d0efb 	strdeq	r0, [sp], -fp
     bb8:	01010101 	tsteq	r1, r1, lsl #2
     bbc:	01000000 	mrseq	r0, (UNDEF: 0)
     bc0:	73010000 	movwvc	r0, #4096	; 0x1000
     bc4:	6c006372 	stcvs	3, cr6, [r0], {114}	; 0x72
     bc8:	692f6269 	stmdbvs	pc!, {r0, r3, r5, r6, r9, sp, lr}	; <UNPREDICTABLE>
     bcc:	756c636e 	strbvc	r6, [ip, #-878]!	; 0xfffffc92
     bd0:	2f006564 	svccs	0x00006564
     bd4:	2f727375 	svccs	0x00727375
     bd8:	2f62696c 	svccs	0x0062696c
     bdc:	2f636367 	svccs	0x00636367
     be0:	2d6d7261 	sfmcs	f7, 2, [sp, #-388]!	; 0xfffffe7c
     be4:	656e6f6e 	strbvs	r6, [lr, #-3950]!	; 0xfffff092
     be8:	6261652d 	rsbvs	r6, r1, #188743680	; 0xb400000
     bec:	2e382f69 	cdpcs	15, 3, cr2, cr8, cr9, {3}
     bf0:	2f312e33 	svccs	0x00312e33
     bf4:	6c636e69 	stclvs	14, cr6, [r3], #-420	; 0xfffffe5c
     bf8:	00656475 	rsbeq	r6, r5, r5, ror r4
     bfc:	7273752f 	rsbsvc	r7, r3, #197132288	; 0xbc00000
     c00:	636e692f 	cmnvs	lr, #770048	; 0xbc000
     c04:	6564756c 	strbvs	r7, [r4, #-1388]!	; 0xfffffa94
     c08:	77656e2f 	strbvc	r6, [r5, -pc, lsr #28]!
     c0c:	2f62696c 	svccs	0x0062696c
     c10:	00737973 	rsbseq	r7, r3, r3, ror r9
     c14:	62737500 	rsbsvs	r7, r3, #0, 10
     c18:	616c635f 	cmnvs	ip, pc, asr r3
     c1c:	615f7373 	cmpvs	pc, r3, ror r3	; <UNPREDICTABLE>
     c20:	6f696475 	svcvs	0x00696475
     c24:	0100632e 	tsteq	r0, lr, lsr #6
     c28:	73750000 	cmnvc	r5, #0
     c2c:	696c5f62 	stmdbvs	ip!, {r1, r5, r6, r8, r9, sl, fp, ip, lr}^
     c30:	00682e62 	rsbeq	r2, r8, r2, ror #28
     c34:	63000001 	movwvs	r0, #1
     c38:	5f65726f 	svcpl	0x0065726f
     c3c:	2e336d63 	cdpcs	13, 3, cr6, cr3, cr3, {3}
     c40:	00020068 	andeq	r0, r2, r8, rrx
     c44:	64747300 	ldrbtvs	r7, [r4], #-768	; 0xfffffd00
     c48:	2e746e69 	cdpcs	14, 7, cr6, cr4, cr9, {3}
     c4c:	00030068 	andeq	r0, r3, r8, rrx
     c50:	6d747300 	ldclvs	3, cr7, [r4, #-0]
     c54:	316c3233 	cmncc	ip, r3, lsr r2
     c58:	63783135 	cmnvs	r8, #1073741837	; 0x4000000d
     c5c:	0200682e 	andeq	r6, r0, #3014656	; 0x2e0000
     c60:	79730000 	ldmdbvc	r3!, {}^	; <UNPREDICTABLE>
     c64:	6d657473 	cfstrdvs	mvd7, [r5, #-460]!	; 0xfffffe34
     c68:	6d74735f 	ldclvs	3, cr7, [r4, #-380]!	; 0xfffffe84
     c6c:	316c3233 	cmncc	ip, r3, lsr r2
     c70:	682e7878 	stmdavs	lr!, {r3, r4, r5, r6, fp, ip, sp, lr}
     c74:	00000200 	andeq	r0, r0, r0, lsl #4
     c78:	64647473 	strbtvs	r7, [r4], #-1139	; 0xfffffb8d
     c7c:	682e6665 	stmdavs	lr!, {r0, r2, r5, r6, r9, sl, sp, lr}
     c80:	00000300 	andeq	r0, r0, r0, lsl #6
     c84:	7079745f 	rsbsvc	r7, r9, pc, asr r4
     c88:	682e7365 	stmdavs	lr!, {r0, r2, r5, r6, r8, r9, ip, sp, lr}
     c8c:	00000400 	andeq	r0, r0, r0, lsl #8
     c90:	6e656572 	mcrvs	5, 3, r6, cr5, cr2, {3}
     c94:	00682e74 	rsbeq	r2, r8, r4, ror lr
     c98:	6c000004 	stcvs	0, cr0, [r0], {4}
     c9c:	2e6b636f 	cdpcs	3, 6, cr6, cr11, cr15, {3}
     ca0:	00040068 	andeq	r0, r4, r8, rrx
     ca4:	75623c00 	strbvc	r3, [r2, #-3072]!	; 0xfffff400
     ca8:	2d746c69 	ldclcs	12, cr6, [r4, #-420]!	; 0xfffffe5c
     cac:	003e6e69 	eorseq	r6, lr, r9, ror #28
     cb0:	00000000 	andeq	r0, r0, r0
     cb4:	05002605 	streq	r2, [r0, #-1541]	; 0xfffff9fb
     cb8:	00098402 	andeq	r8, r9, r2, lsl #8
     cbc:	02e00308 	rsceq	r0, r0, #8, 6	; 0x20000000
     cc0:	13030501 	movwne	r0, #13569	; 0x3501
     cc4:	26051313 			; <UNDEFINED> instruction: 0x26051313
     cc8:	02040f06 	andeq	r0, r4, #6, 30
     ccc:	d7031305 	strle	r1, [r3, -r5, lsl #6]
     cd0:	0104207e 	tsteq	r4, lr, ror r0
     cd4:	a9032605 	stmdbge	r3, {r0, r2, r9, sl, sp}
     cd8:	02042001 	andeq	r2, r4, #1
     cdc:	03061305 	movweq	r1, #25349	; 0x6305
     ce0:	05207ed6 	streq	r7, [r0, #-3798]!	; 0xfffff12a
     ce4:	13051303 	movwne	r1, #21251	; 0x5303
     ce8:	03050106 	movweq	r0, #20742	; 0x5106
     cec:	0a052106 	beq	14910c <_Min_Stack_Size+0x148d0c>
     cf0:	11050106 	tstne	r5, r6, lsl #2
     cf4:	0a052e1f 	beq	14c578 <_Min_Stack_Size+0x14c178>
     cf8:	01043c2f 	tsteq	r4, pc, lsr #24
     cfc:	03060305 	movweq	r0, #25349	; 0x6305
     d00:	060101ac 	streq	r0, [r1], -ip, lsr #3
     d04:	3e070513 	mcrcc	5, 0, r0, cr7, cr3, {0}
     d08:	052c0305 	streq	r0, [ip, #-773]!	; 0xfffffcfb
     d0c:	0b052217 	bleq	149570 <_Min_Stack_Size+0x149170>
     d10:	1e07052d 	cfsh32ne	mvfx0, mvfx7, #29
     d14:	0603052e 	streq	r0, [r3], -lr, lsr #10
     d18:	05130121 	ldreq	r0, [r3, #-289]	; 0xfffffedf
     d1c:	03050107 	movweq	r0, #20743	; 0x5107
     d20:	01040200 	mrseq	r0, R12_usr
     d24:	01050106 	tsteq	r5, r6, lsl #2
     d28:	06050531 			; <UNDEFINED> instruction: 0x06050531
     d2c:	0607052c 	streq	r0, [r7], -ip, lsr #10
     d30:	2d180501 	cfldr32cs	mvfx0, [r8, #-4]
     d34:	05210705 	streq	r0, [r1, #-1797]!	; 0xfffff8fb
     d38:	01200617 			; <UNDEFINED> instruction: 0x01200617
     d3c:	50050106 	andpl	r0, r5, r6, lsl #2
     d40:	7fb70306 	svcvc	0x00b70306
     d44:	13030582 	movwne	r0, #13698	; 0x3582
     d48:	14080705 	strne	r0, [r8], #-1797	; 0xfffff8fb
     d4c:	01060d05 	tsteq	r6, r5, lsl #26
     d50:	2f060705 	svccs	0x00060705
     d54:	01060d05 	tsteq	r6, r5, lsl #26
     d58:	1b032005 	blne	c8d74 <_Min_Stack_Size+0xc8974>
     d5c:	06070520 	streq	r0, [r7], -r0, lsr #10
     d60:	06010521 	streq	r0, [r1], -r1, lsr #10
     d64:	06070516 			; <UNDEFINED> instruction: 0x06070516
     d68:	05206303 	streq	r6, [r0, #-771]!	; 0xfffffcfd
     d6c:	0501060d 	streq	r0, [r1, #-1549]	; 0xfffff9f3
     d70:	052f0607 	streq	r0, [pc, #-1543]!	; 771 <_Min_Stack_Size+0x371>
     d74:	0501060d 	streq	r0, [r1, #-1549]	; 0xfffff9f3
     d78:	05310607 	ldreq	r0, [r1, #-1543]!	; 0xfffff9f9
     d7c:	0501060d 	streq	r0, [r1, #-1549]	; 0xfffff9f3
     d80:	052f0607 	streq	r0, [pc, #-1543]!	; 781 <_Min_Stack_Size+0x381>
     d84:	0501060d 	streq	r0, [r1, #-1549]	; 0xfffff9f3
     d88:	06310607 	ldrteq	r0, [r1], -r7, lsl #12
     d8c:	060b0520 	streq	r0, [fp], -r0, lsr #10
     d90:	06110568 	ldreq	r0, [r1], -r8, ror #10
     d94:	20090301 	andcs	r0, r9, r1, lsl #6
     d98:	21060b05 	tstcs	r6, r5, lsl #22
     d9c:	05160705 	ldreq	r0, [r6, #-1797]	; 0xfffff8fb
     da0:	05010620 	streq	r0, [r1, #-1568]	; 0xfffff9e0
     da4:	7503060b 	strvc	r0, [r3, #-1547]	; 0xfffff9f5
     da8:	0611053c 			; <UNDEFINED> instruction: 0x0611053c
     dac:	060b0501 	streq	r0, [fp], -r1, lsl #10
     db0:	06110531 			; <UNDEFINED> instruction: 0x06110531
     db4:	060b0501 	streq	r0, [fp], -r1, lsl #10
     db8:	06110531 			; <UNDEFINED> instruction: 0x06110531
     dbc:	06470501 	strbeq	r0, [r7], -r1, lsl #10
     dc0:	50020500 	andpl	r0, r2, r0, lsl #10
     dc4:	0308000a 	movweq	r0, #32778	; 0x800a
     dc8:	0305010e 	movweq	r0, #20750	; 0x510e
     dcc:	06010514 			; <UNDEFINED> instruction: 0x06010514
     dd0:	4e052013 	mcrmi	0, 0, r2, cr5, cr3, {0}
     dd4:	03052106 	movweq	r2, #20742	; 0x5106
     dd8:	064e0513 			; <UNDEFINED> instruction: 0x064e0513
     ddc:	21090511 	tstcs	r9, r1, lsl r5
     de0:	06200505 	strteq	r0, [r0], -r5, lsl #10
     de4:	0607052f 	streq	r0, [r7], -pc, lsr #10
     de8:	053d0601 	ldreq	r0, [sp, #-1537]!	; 0xfffff9ff
     dec:	0501061e 	streq	r0, [r1, #-1566]	; 0xfffff9e2
     df0:	1e052014 	mcrne	0, 0, r2, cr5, cr4, {0}
     df4:	07052020 	streq	r2, [r5, -r0, lsr #32]
     df8:	02042106 	andeq	r2, r4, #-2147483647	; 0x80000001
     dfc:	dc031405 	cfstrsle	mvf1, [r3], {5}
     e00:	0305017e 	movweq	r0, #20862	; 0x517e
     e04:	2e3c0613 	mrccs	6, 1, r0, cr12, cr3, {0}
     e08:	07050104 	streq	r0, [r5, -r4, lsl #2]
     e0c:	01a40306 			; <UNDEFINED> instruction: 0x01a40306
     e10:	06010501 	streq	r0, [r1], -r1, lsl #10
     e14:	2d0a0516 	cfstr32cs	mvfx0, [sl, #-88]	; 0xffffffa8
     e18:	00061805 	andeq	r1, r6, r5, lsl #16
     e1c:	0a800205 	beq	fe001638 <BootRAM+0xcf71dd9>
     e20:	05150800 	ldreq	r0, [r5, #-2048]	; 0xfffff800
     e24:	18051303 	stmdane	r5, {r0, r1, r8, r9, ip}
     e28:	11051106 	tstne	r5, r6, lsl #2
     e2c:	03054a4b 	movweq	r4, #23115	; 0x5a4b
     e30:	01053106 	tsteq	r5, r6, lsl #2
     e34:	25051306 	strcs	r1, [r5, #-774]	; 0xfffffcfa
     e38:	82120306 	andshi	r0, r2, #402653184	; 0x18000000
     e3c:	13130305 	tstne	r3, #335544320	; 0x14000000
     e40:	10062505 	andne	r2, r6, r5, lsl #10
     e44:	09030305 	stmdbeq	r3, {r0, r2, r8, r9}
     e48:	030b052e 	movweq	r0, #46382	; 0xb52e
     e4c:	03052079 	movweq	r2, #20601	; 0x5079
     e50:	030b0527 	movweq	r0, #46375	; 0xb527
     e54:	03052079 	movweq	r2, #20601	; 0x5079
     e58:	0c052206 	sfmeq	f2, 4, [r5], {6}
     e5c:	30050106 	andcc	r0, r5, r6, lsl #2
     e60:	03050526 	movweq	r0, #21798	; 0x5526
     e64:	36052e7a 			; <UNDEFINED> instruction: 0x36052e7a
     e68:	03250542 			; <UNDEFINED> instruction: 0x03250542
     e6c:	03053c76 	movweq	r3, #23670	; 0x5c76
     e70:	05133606 	ldreq	r3, [r3, #-1542]	; 0xfffff9fa
     e74:	03050107 	movweq	r0, #20743	; 0x5107
     e78:	01040200 	mrseq	r0, R12_usr
     e7c:	5d060106 	stfpls	f0, [r6, #-24]	; 0xffffffe8
     e80:	13050204 	movwne	r0, #20996	; 0x5204
     e84:	7eb40306 	cdpvc	3, 11, cr0, cr4, cr6, {0}
     e88:	05010401 	streq	r0, [r1, #-1025]	; 0xfffffbff
     e8c:	01cc0303 	biceq	r0, ip, r3, lsl #6
     e90:	05020420 	streq	r0, [r2, #-1056]	; 0xfffffbe0
     e94:	b3030614 	movwlt	r0, #13844	; 0x3614
     e98:	0305207e 	movweq	r2, #20606	; 0x507e
     e9c:	06130513 			; <UNDEFINED> instruction: 0x06130513
     ea0:	06030501 	streq	r0, [r3], -r1, lsl #10
     ea4:	06110521 	ldreq	r0, [r1], -r1, lsr #10
     ea8:	03052e1f 	movweq	r2, #24095	; 0x5e1f
     eac:	01044a2f 	tsteq	r4, pc, lsr #20
     eb0:	01cd0306 	biceq	r0, sp, r6, lsl #6
     eb4:	06090501 	streq	r0, [r9], -r1, lsl #10
     eb8:	4b010501 	blmi	422c4 <_Min_Stack_Size+0x41ec4>
     ebc:	03060505 	movweq	r0, #25861	; 0x6505
     ec0:	30053c79 	andcc	r3, r5, r9, ror ip
     ec4:	36050106 	strcc	r0, [r5], -r6, lsl #2
     ec8:	2e0e052e 	cfsh32cs	mvfx0, mvfx14, #30
     ecc:	053d0805 	ldreq	r0, [sp, #-2053]!	; 0xfffff7fb
     ed0:	1c052107 	stfnes	f2, [r5], {7}
     ed4:	480c052e 	stmdami	ip, {r1, r2, r3, r5, r8, sl}
     ed8:	2f060505 	svccs	0x00060505
     edc:	01180513 	tsteq	r8, r3, lsl r5
     ee0:	03050106 	movweq	r0, #20742	; 0x5106
     ee4:	0617052b 	ldreq	r0, [r7], -fp, lsr #10
     ee8:	05740a03 	ldrbeq	r0, [r4, #-2563]!	; 0xfffff5fd
     eec:	0c051303 	stceq	3, cr1, [r5], {3}
     ef0:	03050106 	movweq	r0, #20742	; 0x5106
     ef4:	09054c06 	stmdbeq	r5, {r1, r2, sl, fp, lr}
     ef8:	03050106 	movweq	r0, #20742	; 0x5106
     efc:	0c055906 			; <UNDEFINED> instruction: 0x0c055906
     f00:	05050106 	streq	r0, [r5, #-262]	; 0xfffffefa
     f04:	013d0620 	teqeq	sp, r0, lsr #12
     f08:	060b054b 	streq	r0, [fp], -fp, asr #10
     f0c:	30010501 	andcc	r0, r1, r1, lsl #10
     f10:	76061605 	strvc	r1, [r6], -r5, lsl #12
     f14:	05130305 	ldreq	r0, [r3, #-773]	; 0xfffffcfb
     f18:	051f0616 	ldreq	r0, [pc, #-1558]	; 90a <_Min_Stack_Size+0x50a>
     f1c:	59062103 	stmdbpl	r6, {r0, r1, r8, sp}
     f20:	06100569 	ldreq	r0, [r0], -r9, ror #10
     f24:	05030401 	streq	r0, [r3, #-1025]	; 0xfffffbff
     f28:	08d10327 	ldmeq	r1, {r0, r1, r2, r5, r8, r9}^
     f2c:	05010420 	streq	r0, [r1, #-1056]	; 0xfffffbe0
     f30:	77af0310 			; <UNDEFINED> instruction: 0x77af0310
     f34:	0503042e 	streq	r0, [r3, #-1070]	; 0xfffffbd2
     f38:	08d10327 	ldmeq	r1, {r0, r1, r2, r5, r8, r9}^
     f3c:	05010420 	streq	r0, [r1, #-1056]	; 0xfffffbe0
     f40:	77af0310 			; <UNDEFINED> instruction: 0x77af0310
     f44:	06030520 	streq	r0, [r3], -r0, lsr #10
     f48:	060d053d 			; <UNDEFINED> instruction: 0x060d053d
     f4c:	06030501 	streq	r0, [r3], -r1, lsl #10
     f50:	060d053d 			; <UNDEFINED> instruction: 0x060d053d
     f54:	06030501 	streq	r0, [r3], -r1, lsl #10
     f58:	060d053d 			; <UNDEFINED> instruction: 0x060d053d
     f5c:	06030501 	streq	r0, [r3], -r1, lsl #10
     f60:	060e054b 	streq	r0, [lr], -fp, asr #10
     f64:	06030501 	streq	r0, [r3], -r1, lsl #10
     f68:	0503042f 	streq	r0, [r3, #-1071]	; 0xfffffbd1
     f6c:	08ca0316 	stmiaeq	sl, {r1, r2, r4, r8, r9}^
     f70:	14030501 	strne	r0, [r3], #-1281	; 0xfffffaff
     f74:	01062705 	tsteq	r6, r5, lsl #14
     f78:	05010420 	streq	r0, [r1, #-1056]	; 0xfffffbe0
     f7c:	b5030603 	strlt	r0, [r3, #-1539]	; 0xfffff9fd
     f80:	0d050177 	stfeqs	f0, [r5, #-476]	; 0xfffffe24
     f84:	01050106 	tsteq	r5, r6, lsl #2
     f88:	06160521 	ldreq	r0, [r6], -r1, lsr #10
     f8c:	130305ae 	movwne	r0, #13742	; 0x35ae
     f90:	01060605 	tsteq	r6, r5, lsl #12
     f94:	052e0505 	streq	r0, [lr, #-1285]!	; 0xfffffafb
     f98:	04020014 	streq	r0, [r2], #-20	; 0xffffffec
     f9c:	002e0601 	eoreq	r0, lr, r1, lsl #12
     fa0:	01010402 	tsteq	r1, r2, lsl #8
     fa4:	02002305 	andeq	r2, r0, #335544320	; 0x14000000
     fa8:	004a0104 	subeq	r0, sl, r4, lsl #2
     fac:	01010402 	tsteq	r1, r2, lsl #8
     fb0:	3d060105 	stfccs	f0, [r6, #-20]	; 0xffffffec
     fb4:	01000502 	tsteq	r0, r2, lsl #10
     fb8:	00011001 	andeq	r1, r1, r1
     fbc:	7b000300 	blvc	1bc4 <_Min_Stack_Size+0x17c4>
     fc0:	02000000 	andeq	r0, r0, #0
     fc4:	0d0efb01 	vstreq	d15, [lr, #-4]
     fc8:	01010100 	mrseq	r0, (UNDEF: 17)
     fcc:	00000001 	andeq	r0, r0, r1
     fd0:	01000001 	tsteq	r0, r1
     fd4:	2e2f2e2e 	cdpcs	14, 2, cr2, cr15, cr14, {1}
     fd8:	2e2e2f2e 	cdpcs	15, 2, cr2, cr14, cr14, {1}
     fdc:	2f2e2e2f 	svccs	0x002e2e2f
     fe0:	2e2f2e2e 	cdpcs	14, 2, cr2, cr15, cr14, {1}
     fe4:	2e2e2f2e 	cdpcs	15, 2, cr2, cr14, cr14, {1}
     fe8:	2f2e2e2f 	svccs	0x002e2e2f
     fec:	6c77656e 	cfldr64vs	mvdx6, [r7], #-440	; 0xfffffe48
     ff0:	6c2f6269 	sfmvs	f6, 4, [pc], #-420	; e54 <_Min_Stack_Size+0xa54>
     ff4:	2f636269 	svccs	0x00636269
     ff8:	6373696d 	cmnvs	r3, #1785856	; 0x1b4000
     ffc:	73752f00 	cmnvc	r5, #0, 30
    1000:	696c2f72 	stmdbvs	ip!, {r1, r4, r5, r6, r8, r9, sl, fp, sp}^
    1004:	63672f62 	cmnvs	r7, #392	; 0x188
    1008:	72612f63 	rsbvc	r2, r1, #396	; 0x18c
    100c:	6f6e2d6d 	svcvs	0x006e2d6d
    1010:	652d656e 	strvs	r6, [sp, #-1390]!	; 0xfffffa92
    1014:	2f696261 	svccs	0x00696261
    1018:	2e332e38 	mrccs	14, 1, r2, cr3, cr8, {1}
    101c:	6e692f31 	mcrvs	15, 3, r2, cr9, cr1, {1}
    1020:	64756c63 	ldrbtvs	r6, [r5], #-3171	; 0xfffff39d
    1024:	69000065 	stmdbvs	r0, {r0, r2, r5, r6}
    1028:	2e74696e 	vsubcs.f16	s13, s8, s29	; <UNPREDICTABLE>
    102c:	00010063 	andeq	r0, r1, r3, rrx
    1030:	64747300 	ldrbtvs	r7, [r4], #-768	; 0xfffffd00
    1034:	2e666564 	cdpcs	5, 6, cr6, cr6, cr4, {3}
    1038:	00020068 	andeq	r0, r2, r8, rrx
    103c:	01050000 	mrseq	r0, (UNDEF: 5)
    1040:	d8020500 	stmdale	r2, {r8, sl}
    1044:	0308000b 	movweq	r0, #32779	; 0x800b
    1048:	0305011e 	movweq	r0, #20766	; 0x511e
    104c:	05141313 	ldreq	r1, [r4, #-787]	; 0xfffffced
    1050:	050e0601 	streq	r0, [lr, #-1537]	; 0xfffff9ff
    1054:	0305241f 	movweq	r2, #21535	; 0x541f
    1058:	01063d06 	tsteq	r6, r6, lsl #26
    105c:	200a0520 	andcs	r0, sl, r0, lsr #10
    1060:	02000505 	andeq	r0, r0, #20971520	; 0x1400000
    1064:	21060304 	tstcs	r6, r4, lsl #6
    1068:	02001b05 	andeq	r1, r0, #5120	; 0x1400
    106c:	11060304 	tstne	r6, r4, lsl #6
    1070:	02001a05 	andeq	r1, r0, #20480	; 0x5000
    1074:	05210304 	streq	r0, [r1, #-772]!	; 0xfffffcfc
    1078:	04020005 	streq	r0, [r2], #-5
    107c:	03052e03 	movweq	r2, #24067	; 0x5e03
    1080:	03040200 	movweq	r0, #16896	; 0x4200
    1084:	0532061f 	ldreq	r0, [r2, #-1567]!	; 0xfffff9e1
    1088:	2015061c 	andscs	r0, r5, ip, lsl r6
    108c:	061d0305 	ldreq	r0, [sp], -r5, lsl #6
    1090:	061c0531 			; <UNDEFINED> instruction: 0x061c0531
    1094:	06030501 	streq	r0, [r3], -r1, lsl #10
    1098:	20010621 	andcs	r0, r1, r1, lsr #12
    109c:	05200a05 	streq	r0, [r0, #-2565]!	; 0xfffff5fb
    10a0:	04020005 	streq	r0, [r2], #-5
    10a4:	05210603 	streq	r0, [r1, #-1539]!	; 0xfffff9fd
    10a8:	0402001b 	streq	r0, [r2], #-27	; 0xffffffe5
    10ac:	05110603 	ldreq	r0, [r1, #-1539]	; 0xfffff9fd
    10b0:	04020017 	streq	r0, [r2], #-23	; 0xffffffe9
    10b4:	05052103 	streq	r2, [r5, #-259]	; 0xfffffefd
    10b8:	03040200 	movweq	r0, #16896	; 0x4200
    10bc:	0003052e 	andeq	r0, r3, lr, lsr #10
    10c0:	1f030402 	svcne	0x00030402
    10c4:	20300105 	eorscs	r0, r0, r5, lsl #2
    10c8:	01000802 	tsteq	r0, r2, lsl #16
    10cc:	0000bd01 	andeq	fp, r0, r1, lsl #26
    10d0:	59000300 	stmdbpl	r0, {r8, r9}
    10d4:	02000000 	andeq	r0, r0, #0
    10d8:	0d0efb01 	vstreq	d15, [lr, #-4]
    10dc:	01010100 	mrseq	r0, (UNDEF: 17)
    10e0:	00000001 	andeq	r0, r0, r1
    10e4:	01000001 	tsteq	r0, r1
    10e8:	2e2f2e2e 	cdpcs	14, 2, cr2, cr15, cr14, {1}
    10ec:	2e2e2f2e 	cdpcs	15, 2, cr2, cr14, cr14, {1}
    10f0:	2f2e2e2f 	svccs	0x002e2e2f
    10f4:	2e2f2e2e 	cdpcs	14, 2, cr2, cr15, cr14, {1}
    10f8:	2e2e2f2e 	cdpcs	15, 2, cr2, cr14, cr14, {1}
    10fc:	2f2e2e2f 	svccs	0x002e2e2f
    1100:	6e2f2e2e 	cdpvs	14, 2, cr2, cr15, cr14, {1}
    1104:	696c7765 	stmdbvs	ip!, {r0, r2, r5, r6, r8, r9, sl, ip, sp, lr}^
    1108:	696c2f62 	stmdbvs	ip!, {r1, r5, r6, r8, r9, sl, fp, sp}^
    110c:	6d2f6362 	stcvs	3, cr6, [pc, #-392]!	; f8c <_Min_Stack_Size+0xb8c>
    1110:	69686361 	stmdbvs	r8!, {r0, r5, r6, r8, r9, sp, lr}^
    1114:	612f656e 			; <UNDEFINED> instruction: 0x612f656e
    1118:	00006d72 	andeq	r6, r0, r2, ror sp
    111c:	636d656d 	cmnvs	sp, #457179136	; 0x1b400000
    1120:	612d7970 			; <UNDEFINED> instruction: 0x612d7970
    1124:	37766d72 			; <UNDEFINED> instruction: 0x37766d72
    1128:	00532e6d 	subseq	r2, r3, sp, ror #28
    112c:	00000001 	andeq	r0, r0, r1
    1130:	20020500 	andcs	r0, r2, r0, lsl #10
    1134:	0308000c 	movweq	r0, #32780	; 0x800c
    1138:	240100df 	strcs	r0, [r1], #-223	; 0xffffff21
    113c:	21232f2f 			; <UNDEFINED> instruction: 0x21232f2f
    1140:	08200d03 	stmdaeq	r0!, {r0, r1, r8, sl, fp}
    1144:	212221e5 			; <UNDEFINED> instruction: 0x212221e5
    1148:	0d032123 	stfeqs	f2, [r3, #-140]	; 0xffffff74
    114c:	22218320 	eorcs	r8, r1, #32, 6	; 0x80000000
    1150:	25212321 	strcs	r2, [r1, #-801]!	; 0xfffffcdf
    1154:	23212f2f 			; <UNDEFINED> instruction: 0x23212f2f
    1158:	21212221 			; <UNDEFINED> instruction: 0x21212221
    115c:	2122302f 			; <UNDEFINED> instruction: 0x2122302f
    1160:	24200a03 	strtcs	r0, [r0], #-2563	; 0xfffff5fd
    1164:	212e0c03 			; <UNDEFINED> instruction: 0x212e0c03
    1168:	0f032123 	svceq	0x00032123
    116c:	2f222f20 	svccs	0x00222f20
    1170:	2f212122 	svccs	0x00212122
    1174:	2f2f2330 	svccs	0x002f2330
    1178:	2000c803 	andcs	ip, r0, r3, lsl #16
    117c:	2f212321 	svccs	0x00212321
    1180:	2121222f 			; <UNDEFINED> instruction: 0x2121222f
    1184:	23212121 			; <UNDEFINED> instruction: 0x23212121
    1188:	00010224 	andeq	r0, r1, r4, lsr #4
    118c:	Address 0x000000000000118c is out of bounds.


Disassembly of section .debug_str:

00000000 <.debug_str>:
       0:	494c4143 	stmdbmi	ip, {r0, r1, r6, r8, lr}^
       4:	50005242 	andpl	r5, r0, r2, asr #4
       8:	52445055 	subpl	r5, r4, #85	; 0x55
       c:	4b434c00 	blmi	10d3014 <_Min_Stack_Size+0x10d2c14>
      10:	72730052 	rsbsvc	r0, r3, #82	; 0x52
      14:	616d2f63 	cmnvs	sp, r3, ror #30
      18:	632e6e69 			; <UNDEFINED> instruction: 0x632e6e69
      1c:	44535400 	ldrbmi	r5, [r3], #-1024	; 0xfffffc00
      20:	4b420052 	blmi	1080170 <_Min_Stack_Size+0x107fd70>
      24:	52363250 	eorspl	r3, r6, #80, 4
      28:	59544f00 	ldmdbpl	r4, {r8, r9, sl, fp, lr}^
      2c:	00524550 	subseq	r4, r2, r0, asr r5
      30:	33504b42 	cmpcc	r0, #67584	; 0x10800
      34:	42005230 	andmi	r5, r0, #48, 4
      38:	5233504b 	eorspl	r5, r3, #75	; 0x4b
      3c:	45525000 	ldrbmi	r5, [r2, #-0]
      40:	4f4d0052 	svcmi	0x004d0052
      44:	00524544 	subseq	r4, r2, r4, asr #10
      48:	676e6f6c 	strbvs	r6, [lr, -ip, ror #30]!
      4c:	6e6f6c20 	cdpvs	12, 6, cr6, cr15, cr0, {1}
      50:	6e752067 	cdpvs	0, 7, cr2, cr5, cr7, {3}
      54:	6e676973 			; <UNDEFINED> instruction: 0x6e676973
      58:	69206465 	stmdbvs	r0!, {r0, r2, r5, r6, sl, sp, lr}
      5c:	5000746e 	andpl	r7, r0, lr, ror #8
      60:	454b4752 	strbmi	r4, [fp, #-1874]	; 0xfffff8ae
      64:	52005259 	andpl	r5, r0, #-1879048187	; 0x90000005
      68:	545f4354 	ldrbpl	r4, [pc], #-852	; 70 <_Min_Heap_Size+0x70>
      6c:	44657079 	strbtmi	r7, [r5], #-121	; 0xffffff87
      70:	55006665 	strpl	r6, [r0, #-1637]	; 0xfffff99b
      74:	735f4253 	cmpvc	pc, #805306373	; 0x30000005
      78:	70757465 	rsbsvc	r7, r5, r5, ror #8
      7c:	6e6f6c00 	cdpvs	12, 6, cr6, cr15, cr0, {0}
      80:	6f6c2067 	svcvs	0x006c2067
      84:	6920676e 	stmdbvs	r0!, {r1, r2, r3, r5, r6, r8, r9, sl, sp, lr}
      88:	4200746e 	andmi	r7, r0, #1845493760	; 0x6e000000
      8c:	00525253 	subseq	r5, r2, r3, asr r2
      90:	53414c46 	movtpl	r4, #7238	; 0x1c46
      94:	79545f48 	ldmdbvc	r4, {r3, r6, r8, r9, sl, fp, ip, lr}^
      98:	65446570 	strbvs	r6, [r4, #-1392]	; 0xfffffa90
      9c:	45500066 	ldrbmi	r0, [r0, #-102]	; 0xffffff9a
      a0:	63005243 	movwvs	r5, #579	; 0x243
      a4:	6b636f6c 	blvs	18dbe5c <_Min_Stack_Size+0x18dba5c>
      a8:	0053485f 	subseq	r4, r3, pc, asr r8
      ac:	32504b42 	subscc	r4, r0, #67584	; 0x10800
      b0:	54005237 	strpl	r5, [r0], #-567	; 0xfffffdc9
      b4:	52535353 	subspl	r5, r3, #1275068417	; 0x4c000001
      b8:	504b4200 	subpl	r4, fp, r0, lsl #4
      bc:	00523133 	subseq	r3, r2, r3, lsr r1
      c0:	32425041 	subcc	r5, r2, #65	; 0x41
      c4:	52545352 	subspl	r5, r4, #1207959553	; 0x48000001
      c8:	504b4200 	subpl	r4, fp, r0, lsl #4
      cc:	41005234 	tstmi	r0, r4, lsr r2
      d0:	424d524c 	submi	r5, sp, #76, 4	; 0xc0000004
      d4:	00525353 	subseq	r5, r2, r3, asr r3
      d8:	4c424841 	mcrrmi	8, 4, r4, r2, cr1
      dc:	524e4550 	subpl	r4, lr, #80, 10	; 0x14000000
      e0:	504b4200 	subpl	r4, fp, r0, lsl #4
      e4:	00523631 	subseq	r3, r2, r1, lsr r6
      e8:	4b54504f 	blmi	151422c <_Min_Stack_Size+0x1513e2c>
      ec:	00525945 	subseq	r5, r2, r5, asr #18
      f0:	5f627375 	svcpl	0x00627375
      f4:	73616c63 	cmnvc	r1, #25344	; 0x6300
      f8:	6f705f73 	svcvs	0x00705f73
      fc:	75006c6c 	strvc	r6, [r0, #-3180]	; 0xfffff394
     100:	31746e69 	cmncc	r4, r9, ror #28
     104:	00745f36 	rsbseq	r5, r4, r6, lsr pc
     108:	32504b42 	subscc	r4, r0, #67584	; 0x10800
     10c:	50005230 	andpl	r5, r0, r0, lsr r2
     110:	59454b44 	stmdbpl	r5, {r2, r6, r8, r9, fp, lr}^
     114:	534f0052 	movtpl	r0, #61522	; 0xf052
     118:	44454550 	strbmi	r4, [r5], #-1360	; 0xfffffab0
     11c:	6e690052 	mcrvs	0, 3, r0, cr9, cr2, {2}
     120:	32337469 	eorscc	r7, r3, #1761607680	; 0x69000000
     124:	504b4200 	subpl	r4, fp, r0, lsl #4
     128:	00523832 	subseq	r3, r2, r2, lsr r8
     12c:	706d6574 	rsbvc	r6, sp, r4, ror r5
     130:	524c4100 	subpl	r4, ip, #0, 2
     134:	5353414d 	cmppl	r3, #1073741843	; 0x40000013
     138:	79530052 	ldmdbvc	r3, {r1, r4, r6}^
     13c:	6d657473 	cfstrdvs	mvd7, [r5, #-460]!	; 0xfffffe34
     140:	65726f43 	ldrbvs	r6, [r2, #-3907]!	; 0xfffff0bd
     144:	636f6c43 	cmnvs	pc, #17152	; 0x4300
     148:	4b42006b 	blmi	10802fc <_Min_Stack_Size+0x107fefc>
     14c:	00523550 	subseq	r3, r2, r0, asr r5
     150:	31504b42 	cmpcc	r0, r2, asr #22
     154:	47005237 	smladxmi	r0, r7, r2, r5
     158:	5f4f4950 	svcpl	0x004f4950
     15c:	65707954 	ldrbvs	r7, [r0, #-2388]!	; 0xfffff6ac
     160:	00666544 	rsbeq	r6, r6, r4, asr #10
     164:	5f434352 	svcpl	0x00434352
     168:	65707954 	ldrbvs	r7, [r0, #-2388]!	; 0xfffff6ac
     16c:	00666544 	rsbeq	r6, r6, r4, asr #10
     170:	31504b42 	cmpcc	r0, r2, asr #22
     174:	42005235 	andmi	r5, r0, #1342177283	; 0x50000003
     178:	3132504b 	teqcc	r2, fp, asr #32
     17c:	68730052 	ldmdavs	r3!, {r1, r4, r6}^
     180:	2074726f 	rsbscs	r7, r4, pc, ror #4
     184:	69736e75 	ldmdbvs	r3!, {r0, r2, r4, r5, r6, r9, sl, fp, sp, lr}^
     188:	64656e67 	strbtvs	r6, [r5], #-3687	; 0xfffff199
     18c:	746e6920 	strbtvc	r6, [lr], #-2336	; 0xfffff6e0
     190:	656c7300 	strbvs	r7, [ip, #-768]!	; 0xfffffd00
     194:	41007065 	tstmi	r0, r5, rrx
     198:	4c314250 	lfmmi	f4, 4, [r1], #-320	; 0xfffffec0
     19c:	524e4550 	subpl	r4, lr, #80, 10	; 0x14000000
     1a0:	54535400 	ldrbpl	r5, [r3], #-1024	; 0xfffffc00
     1a4:	41540052 	cmpmi	r4, r2, asr r0
     1a8:	00524346 	subseq	r4, r2, r6, asr #6
     1ac:	31504b42 	cmpcc	r0, r2, asr #22
     1b0:	42005230 	andmi	r5, r0, #48, 4
     1b4:	3932504b 	ldmdbcc	r2!, {r0, r1, r3, r6, ip, lr}
     1b8:	50410052 	subpl	r0, r1, r2, asr r0
     1bc:	504c3242 	subpl	r3, ip, r2, asr #4
     1c0:	00524e45 	subseq	r4, r2, r5, asr #28
     1c4:	5f525750 	svcpl	0x00525750
     1c8:	65707954 	ldrbvs	r7, [r0, #-2388]!	; 0xfffff6ac
     1cc:	00666544 	rsbeq	r6, r6, r4, asr #10
     1d0:	36504b42 	ldrbcc	r4, [r0], -r2, asr #22
     1d4:	4b420052 	blmi	1080324 <_Min_Stack_Size+0x107ff24>
     1d8:	52383150 	eorspl	r3, r8, #80, 2
     1dc:	4c414300 	mcrrmi	3, 0, r4, r1, cr0
     1e0:	75710052 	ldrbvc	r0, [r1, #-82]!	; 0xffffffae
     1e4:	7a747261 	bvc	1d1cb70 <_Min_Stack_Size+0x1d1c770>
     1e8:	504b4200 	subpl	r4, fp, r0, lsl #4
     1ec:	00523232 	subseq	r3, r2, r2, lsr r2
     1f0:	52505257 	subspl	r5, r0, #1879048197	; 0x70000005
     1f4:	52570031 	subspl	r0, r7, #49	; 0x31
     1f8:	00325250 	eorseq	r5, r2, r0, asr r2
     1fc:	64656d2f 	strbtvs	r6, [r5], #-3375	; 0xfffff2d1
     200:	652f6169 	strvs	r6, [pc, #-361]!	; 9f <_Min_Heap_Size+0x9f>
     204:	642f7478 	strtvs	r7, [pc], #-1144	; 20c <_Min_Heap_Size+0x20c>
     208:	702f7665 	eorvc	r7, pc, r5, ror #12
     20c:	2f676f72 	svccs	0x00676f72
     210:	2f6d7261 	svccs	0x006d7261
     214:	2f627375 	svccs	0x00627375
     218:	75412e34 	strbvc	r2, [r1, #-3636]	; 0xfffff1cc
     21c:	5f6f6964 	svcpl	0x006f6964
     220:	4200314c 	andmi	r3, r0, #76, 2
     224:	3131504b 	teqcc	r1, fp, asr #32
     228:	48410052 	stmdami	r1, {r1, r4, r6}^
     22c:	54535242 	ldrbpl	r5, [r3], #-578	; 0xfffffdbe
     230:	69740052 	ldmdbvs	r4!, {r1, r4, r6}^
     234:	4100656d 	tstmi	r0, sp, ror #10
     238:	52314250 	eorspl	r4, r1, #80, 4
     23c:	00525453 	subseq	r5, r2, r3, asr r4
     240:	6e655f5f 	mcrvs	15, 3, r5, cr5, cr15, {2}
     244:	656c6261 	strbvs	r6, [ip, #-609]!	; 0xfffffd9f
     248:	7172695f 	cmnvc	r2, pc, asr r9
     24c:	524c4100 	subpl	r4, ip, #0, 2
     250:	0052414d 	subseq	r4, r2, sp, asr #2
     254:	37504b42 	ldrbcc	r4, [r0, -r2, asr #22]
     258:	4b420052 	blmi	10803a8 <_Min_Stack_Size+0x107ffa8>
     25c:	52393150 	eorspl	r3, r9, #80, 2
     260:	53455200 	movtpl	r5, #20992	; 0x5200
     264:	45565245 	ldrbmi	r5, [r6, #-581]	; 0xfffffdbb
     268:	53003744 	movwpl	r3, #1860	; 0x744
     26c:	65747379 	ldrbvs	r7, [r4, #-889]!	; 0xfffffc87
     270:	696e496d 	stmdbvs	lr!, {r0, r2, r3, r5, r6, r8, fp, lr}^
     274:	4b420074 	blmi	108044c <_Min_Stack_Size+0x108004c>
     278:	52333250 	eorspl	r3, r3, #80, 4
     27c:	736e7500 	cmnvc	lr, #0, 10
     280:	656e6769 	strbvs	r6, [lr, #-1897]!	; 0xfffff897
     284:	68632064 	stmdavs	r3!, {r2, r5, r6, sp}^
     288:	49007261 	stmdbmi	r0, {r0, r5, r6, r9, ip, sp, lr}
     28c:	525f4d54 	subspl	r4, pc, #84, 26	; 0x1500
     290:	66754278 			; <UNDEFINED> instruction: 0x66754278
     294:	00726566 	rsbseq	r6, r2, r6, ror #10
     298:	726f6873 	rsbvc	r6, pc, #7536640	; 0x730000
     29c:	6e692074 	mcrvs	0, 3, r2, cr9, cr4, {3}
     2a0:	4b420074 	blmi	1080478 <_Min_Stack_Size+0x1080078>
     2a4:	00523050 	subseq	r3, r2, r0, asr r0
     2a8:	45534552 	ldrbmi	r4, [r3, #-1362]	; 0xfffffaae
     2ac:	44455652 	strbmi	r5, [r5], #-1618	; 0xfffff9ae
     2b0:	504b4200 	subpl	r4, fp, r0, lsl #4
     2b4:	00523231 	subseq	r3, r2, r1, lsr r2
     2b8:	32425041 	subcc	r5, r2, #65	; 0x41
     2bc:	00524e45 	subseq	r4, r2, r5, asr #28
     2c0:	4d524c41 	ldclmi	12, cr4, [r2, #-260]	; 0xfffffefc
     2c4:	43005242 	movwmi	r5, #578	; 0x242
     2c8:	00524746 	subseq	r4, r2, r6, asr #14
     2cc:	38504b42 	ldmdacc	r0, {r1, r6, r8, r9, fp, lr}^
     2d0:	69750052 	ldmdbvs	r5!, {r1, r4, r6}^
     2d4:	3233746e 	eorscc	r7, r3, #1845493760	; 0x6e000000
     2d8:	5700745f 	smlsdpl	r0, pc, r4, r7	; <UNPREDICTABLE>
     2dc:	00525455 	subseq	r5, r2, r5, asr r4
     2e0:	32504b42 	subscc	r4, r0, #67584	; 0x10800
     2e4:	42005234 	andmi	r5, r0, #52, 4	; 0x40000003
     2e8:	5231504b 	eorspl	r5, r1, #75	; 0x4b
     2ec:	42504100 	subsmi	r4, r0, #0, 2
     2f0:	524e4531 	subpl	r4, lr, #205520896	; 0xc400000
     2f4:	504b4200 	subpl	r4, fp, r0, lsl #4
     2f8:	00523331 	subseq	r3, r2, r1, lsr r3
     2fc:	636f6c63 	cmnvs	pc, #25344	; 0x6300
     300:	534d5f6b 	movtpl	r5, #57195	; 0xdf6b
     304:	49485300 	stmdbmi	r8, {r8, r9, ip, lr}^
     308:	00525446 	subseq	r5, r2, r6, asr #8
     30c:	43534349 	cmpmi	r3, #603979777	; 0x24000001
     310:	4b420052 	blmi	1080460 <_Min_Stack_Size+0x1080060>
     314:	00523950 	subseq	r3, r2, r0, asr r9
     318:	746e6975 	strbtvc	r6, [lr], #-2421	; 0xfffff68b
     31c:	00745f38 	rsbseq	r5, r4, r8, lsr pc
     320:	454b4550 	strbmi	r4, [fp, #-1360]	; 0xfffffab0
     324:	42005259 	andmi	r5, r0, #-1879048187	; 0x90000005
     328:	3532504b 	ldrcc	r5, [r2, #-75]!	; 0xffffffb5
     32c:	4b420052 	blmi	108047c <_Min_Stack_Size+0x108007c>
     330:	00523250 	subseq	r3, r2, r0, asr r2
     334:	6e696572 	mcrvs	5, 3, r6, cr9, cr2, {3}
     338:	42007469 	andmi	r7, r0, #1761607680	; 0x69000000
     33c:	3431504b 	ldrtcc	r5, [r1], #-75	; 0xffffffb5
     340:	616d0052 	qdsubvs	r0, r2, sp
     344:	47006e69 	strmi	r6, [r0, -r9, ror #28]
     348:	4320554e 			; <UNDEFINED> instruction: 0x4320554e
     34c:	38203731 	stmdacc	r0!, {r0, r4, r5, r8, r9, sl, ip, sp}
     350:	312e332e 			; <UNDEFINED> instruction: 0x312e332e
     354:	31303220 	teqcc	r0, r0, lsr #4
     358:	30373039 	eorscc	r3, r7, r9, lsr r0
     35c:	72282033 	eorvc	r2, r8, #51	; 0x33
     360:	61656c65 	cmnvs	r5, r5, ror #24
     364:	20296573 	eorcs	r6, r9, r3, ror r5
     368:	6363675b 	cmnvs	r3, #23855104	; 0x16c0000
     36c:	622d382d 	eorvs	r3, sp, #2949120	; 0x2d0000
     370:	636e6172 	cmnvs	lr, #-2147483620	; 0x8000001c
     374:	65722068 	ldrbvs	r2, [r2, #-104]!	; 0xffffff98
     378:	69736976 	ldmdbvs	r3!, {r1, r2, r4, r5, r6, r8, fp, sp, lr}^
     37c:	32206e6f 	eorcc	r6, r0, #1776	; 0x6f0
     380:	32303337 	eorscc	r3, r0, #-603979776	; 0xdc000000
     384:	2d205d37 	stccs	13, cr5, [r0, #-220]!	; 0xffffff24
     388:	7568746d 	strbvc	r7, [r8, #-1133]!	; 0xfffffb93
     38c:	2d20626d 	sfmcs	f6, 4, [r0, #-436]!	; 0xfffffe4c
     390:	7570636d 	ldrbvc	r6, [r0, #-877]!	; 0xfffffc93
     394:	726f633d 	rsbvc	r6, pc, #-201326592	; 0xf4000000
     398:	2d786574 	cfldr64cs	mvdx6, [r8, #-464]!	; 0xfffffe30
     39c:	2d20336d 	stccs	3, cr3, [r0, #-436]!	; 0xfffffe4c
     3a0:	6f6c666d 	svcvs	0x006c666d
     3a4:	612d7461 			; <UNDEFINED> instruction: 0x612d7461
     3a8:	733d6962 	teqvc	sp, #1605632	; 0x188000
     3ac:	2074666f 	rsbscs	r6, r4, pc, ror #12
     3b0:	72616d2d 	rsbvc	r6, r1, #2880	; 0xb40
     3b4:	613d6863 	teqvs	sp, r3, ror #16
     3b8:	37766d72 			; <UNDEFINED> instruction: 0x37766d72
     3bc:	2d206d2d 	stccs	13, cr6, [r0, #-180]!	; 0xffffff4c
     3c0:	61776467 	cmnvs	r7, r7, ror #8
     3c4:	322d6672 	eorcc	r6, sp, #119537664	; 0x7200000
     3c8:	734f2d20 	movtvc	r2, #64800	; 0xfd20
     3cc:	6e662d20 	cdpvs	13, 6, cr2, cr6, cr0, {1}
     3d0:	75622d6f 	strbvc	r2, [r2, #-3439]!	; 0xfffff291
     3d4:	69746c69 	ldmdbvs	r4!, {r0, r3, r5, r6, sl, fp, sp, lr}^
     3d8:	4841006e 	stmdami	r1, {r1, r2, r3, r5, r6}^
     3dc:	524e4542 	subpl	r4, lr, #276824064	; 0x10800000
     3e0:	4d495400 	cfstrdmi	mvd5, [r9, #-0]
     3e4:	495f3131 	ldmdbmi	pc, {r0, r4, r5, r8, ip, sp}^	; <UNPREDICTABLE>
     3e8:	006e5152 	rsbeq	r5, lr, r2, asr r1
     3ec:	646e4977 	strbtvs	r4, [lr], #-2423	; 0xfffff689
     3f0:	53007865 	movwpl	r7, #2149	; 0x865
     3f4:	46435359 			; <UNDEFINED> instruction: 0x46435359
     3f8:	79545f47 	ldmdbvc	r4, {r0, r1, r2, r6, r8, r9, sl, fp, ip, lr}^
     3fc:	65446570 	strbvs	r6, [r4, #-1392]	; 0xfffffa90
     400:	75620066 	strbvc	r0, [r2, #-102]!	; 0xffffff9a
     404:	00363166 	eorseq	r3, r6, r6, ror #2
     408:	394d4954 	stmdbcc	sp, {r2, r4, r6, r8, fp, lr}^
     40c:	5152495f 	cmppl	r2, pc, asr r9
     410:	4d44006e 	stclmi	0, cr0, [r4, #-440]	; 0xfffffe48
     414:	435f3141 	cmpmi	pc, #1073741840	; 0x40000010
     418:	6e6e6168 	powvsez	f6, f6, #0.0
     41c:	5f376c65 	svcpl	0x00376c65
     420:	6e515249 	cdpvs	2, 5, cr5, cr1, cr9, {2}
     424:	43324900 	teqmi	r2, #0, 18
     428:	52455f32 	subpl	r5, r5, #50, 30	; 0xc8
     42c:	5152495f 	cmppl	r2, pc, asr r9
     430:	5653006e 	ldrbpl	r0, [r3], -lr, rrx
     434:	52495f43 	subpl	r5, r9, #268	; 0x10c
     438:	54006e51 	strpl	r6, [r0], #-3665	; 0xfffff1af
     43c:	5f344d49 	svcpl	0x00344d49
     440:	6e515249 	cdpvs	2, 5, cr5, cr1, cr9, {2}
     444:	414d4400 	cmpmi	sp, r0, lsl #8
     448:	68435f31 	stmdavs	r3, {r0, r4, r5, r8, r9, sl, fp, ip, lr}^
     44c:	656e6e61 	strbvs	r6, [lr, #-3681]!	; 0xfffff19f
     450:	495f326c 	ldmdbmi	pc, {r2, r3, r5, r6, r9, ip, sp}^	; <UNPREDICTABLE>
     454:	006e5152 	rsbeq	r5, lr, r2, asr r1
     458:	5f616d70 	svcpl	0x00616d70
     45c:	63736564 	cmnvs	r3, #100, 10	; 0x19000000
     460:	00745f72 	rsbseq	r5, r4, r2, ror pc
     464:	65526d62 	ldrbvs	r6, [r2, #-3426]	; 0xfffff29e
     468:	73657571 	cmnvc	r5, #473956352	; 0x1c400000
     46c:	70795474 	rsbsvc	r5, r9, r4, ror r4
     470:	65730065 	ldrbvs	r0, [r3, #-101]!	; 0xffffff9b
     474:	5f707574 	svcpl	0x00707574
     478:	6b636170 	blvs	18d8a40 <_Min_Stack_Size+0x18d8640>
     47c:	46007465 	strmi	r7, [r0], -r5, ror #8
     480:	4853414c 	ldmdami	r3, {r2, r3, r6, r8, lr}^
     484:	5152495f 	cmppl	r2, pc, asr r9
     488:	7962006e 	stmdbvc	r2!, {r1, r2, r3, r5, r6}^
     48c:	72736574 	rsbsvc	r6, r3, #116, 10	; 0x1d000000
     490:	00646165 	rsbeq	r6, r4, r5, ror #2
     494:	49545845 	ldmdbmi	r4, {r0, r2, r6, fp, ip, lr}^
     498:	52495f30 	subpl	r5, r9, #48, 30	; 0xc0
     49c:	45006e51 	strmi	r6, [r0, #-3665]	; 0xfffff1af
     4a0:	31495458 	cmpcc	r9, r8, asr r4
     4a4:	30315f35 	eorscc	r5, r1, r5, lsr pc
     4a8:	5152495f 	cmppl	r2, pc, asr r9
     4ac:	616c006e 	cmnvs	ip, lr, rrx
     4b0:	64617473 	strbtvs	r7, [r1], #-1139	; 0xfffffb8d
     4b4:	50007264 	andpl	r7, r0, r4, ror #4
     4b8:	53646e65 	cmnpl	r4, #1616	; 0x650
     4bc:	52495f56 	subpl	r5, r9, #344	; 0x158
     4c0:	4d006e51 	stcmi	14, cr6, [r0, #-324]	; 0xfffffebc
     4c4:	4d524d45 	ldclmi	13, cr4, [r2, #-276]	; 0xfffffeec
     4c8:	43520050 	cmpmi	r2, #80	; 0x50
     4cc:	52495f43 	subpl	r5, r9, #268	; 0x10c
     4d0:	77006e51 	smlsdvc	r0, r1, lr, r6
     4d4:	756c6156 	strbvc	r6, [ip, #-342]!	; 0xfffffeaa
     4d8:	654d0065 	strbvs	r0, [sp, #-101]	; 0xffffff9b
     4dc:	79726f6d 	ldmdbvc	r2!, {r0, r2, r3, r5, r6, r8, r9, sl, fp, sp, lr}^
     4e0:	616e614d 	cmnvs	lr, sp, asr #2
     4e4:	656d6567 	strbvs	r6, [sp, #-1383]!	; 0xfffffa99
     4e8:	495f746e 	ldmdbmi	pc, {r1, r2, r3, r5, r6, sl, ip, sp, lr}^	; <UNPREDICTABLE>
     4ec:	006e5152 	rsbeq	r5, lr, r2, asr r1
     4f0:	5f307065 	svcpl	0x00307065
     4f4:	6e756f63 	cdpvs	15, 7, cr6, cr5, cr3, {3}
     4f8:	53490074 	movtpl	r0, #36980	; 0x9074
     4fc:	54005254 	strpl	r5, [r0], #-596	; 0xfffffdac
     500:	45504d41 	ldrbmi	r4, [r0, #-3393]	; 0xfffff2bf
     504:	54535f52 	ldrbpl	r5, [r3], #-3922	; 0xfffff0ae
     508:	5f504d41 	svcpl	0x00504d41
     50c:	6e515249 	cdpvs	2, 5, cr5, cr1, cr9, {2}
     510:	45534900 	ldrbmi	r4, [r3, #-2304]	; 0xfffff700
     514:	4d440052 	stclmi	0, cr0, [r4, #-328]	; 0xfffffeb8
     518:	435f3241 	cmpmi	pc, #268435460	; 0x10000004
     51c:	6e6e6168 	powvsez	f6, f6, #0.0
     520:	5f346c65 	svcpl	0x00346c65
     524:	6e515249 	cdpvs	2, 5, cr5, cr1, cr9, {2}
     528:	45535200 	ldrbmi	r5, [r3, #-512]	; 0xfffffe00
     52c:	44455652 	strbmi	r5, [r5], #-1618	; 0xfffff9ae
     530:	50530031 	subspl	r0, r3, r1, lsr r0
     534:	495f3149 	ldmdbmi	pc, {r0, r3, r6, r8, ip, sp}^	; <UNPREDICTABLE>
     538:	006e5152 	rsbeq	r5, lr, r2, asr r1
     53c:	6273755f 	rsbsvs	r7, r3, #398458880	; 0x17c00000
     540:	5f70655f 	svcpl	0x0070655f
     544:	74697277 	strbtvc	r7, [r9], #-631	; 0xfffffd89
     548:	49540065 	ldmdbmi	r4, {r0, r2, r5, r6}^
     54c:	495f364d 	ldmdbmi	pc, {r0, r2, r3, r6, r9, sl, ip, sp}^	; <UNPREDICTABLE>
     550:	006e5152 	rsbeq	r5, lr, r2, asr r1
     554:	31414d44 	cmpcc	r1, r4, asr #26
     558:	6168435f 	cmnvs	r8, pc, asr r3
     55c:	6c656e6e 	stclvs	14, cr6, [r5], #-440	; 0xfffffe48
     560:	52495f34 	subpl	r5, r9, #52, 30	; 0xd0
     564:	4e006e51 	mcrmi	14, 0, r6, cr0, cr1, {2}
     568:	5f434956 	svcpl	0x00434956
     56c:	62616e45 	rsbvs	r6, r1, #1104	; 0x450
     570:	5249656c 	subpl	r6, r9, #108, 10	; 0x1b000000
     574:	4f430051 	svcmi	0x00430051
     578:	495f504d 	ldmdbmi	pc, {r0, r2, r3, r6, ip, lr}^	; <UNPREDICTABLE>
     57c:	006e5152 	rsbeq	r5, lr, r2, asr r1
     580:	5f425355 	svcpl	0x00425355
     584:	65707954 	ldrbvs	r7, [r0, #-2388]!	; 0xfffff6ac
     588:	00666544 	rsbeq	r6, r6, r4, asr #10
     58c:	44444144 	strbmi	r4, [r4], #-324	; 0xfffffebc
     590:	53550052 	cmppl	r5, #82	; 0x52
     594:	504c5f42 	subpl	r5, ip, r2, asr #30
     598:	5152495f 	cmppl	r2, pc, asr r9
     59c:	646e6148 	strbtvs	r6, [lr], #-328	; 0xfffffeb8
     5a0:	0072656c 	rsbseq	r6, r2, ip, ror #10
     5a4:	5f627375 	svcpl	0x00627375
     5a8:	73616c63 	cmnvc	r1, #25344	; 0x6300
     5ac:	65675f73 	strbvs	r5, [r7, #-3955]!	; 0xfffff08d
     5b0:	74735f74 	ldrbtvc	r5, [r3], #-3956	; 0xfffff08c
     5b4:	65645f64 	strbvs	r5, [r4, #-3940]!	; 0xfffff09c
     5b8:	00726373 	rsbseq	r6, r2, r3, ror r3
     5bc:	6e515249 	cdpvs	2, 5, cr5, cr1, cr9, {2}
     5c0:	7079545f 	rsbsvc	r5, r9, pc, asr r4
     5c4:	70650065 	rsbvc	r0, r5, r5, rrx
     5c8:	65735f30 	ldrbvs	r5, [r3, #-3888]!	; 0xfffff0d0
     5cc:	5500646e 	strpl	r6, [r0, #-1134]	; 0xfffffb92
     5d0:	54524153 	ldrbpl	r4, [r2], #-339	; 0xfffffead
     5d4:	52495f32 	subpl	r5, r9, #50, 30	; 0xc8
     5d8:	63006e51 	movwvs	r6, #3665	; 0xe51
     5dc:	69666e6f 	stmdbvs	r6!, {r0, r1, r2, r3, r5, r6, r9, sl, fp, sp, lr}^
     5e0:	61727567 	cmnvs	r2, r7, ror #10
     5e4:	6e6f6974 			; <UNDEFINED> instruction: 0x6e6f6974
     5e8:	30504500 	subscc	r4, r0, r0, lsl #10
     5ec:	54520052 	ldrbpl	r0, [r2], #-82	; 0xffffffae
     5f0:	4b575f43 	blmi	15d8304 <_Min_Stack_Size+0x15d7f04>
     5f4:	495f5055 	ldmdbmi	pc, {r0, r2, r4, r6, ip, lr}^	; <UNPREDICTABLE>
     5f8:	006e5152 	rsbeq	r5, lr, r2, asr r1
     5fc:	5f425355 	svcpl	0x00425355
     600:	72646441 	rsbvc	r6, r4, #1090519040	; 0x41000000
     604:	66706500 	ldrbtvs	r6, [r0], -r0, lsl #10
     608:	5f636e75 	svcpl	0x00636e75
     60c:	0074756f 	rsbseq	r7, r4, pc, ror #10
     610:	5f307065 	svcpl	0x00307065
     614:	00667562 	rsbeq	r7, r6, r2, ror #10
     618:	49545845 	ldmdbmi	r4, {r0, r2, r6, fp, ip, lr}^
     61c:	52495f32 	subpl	r5, r9, #50, 30	; 0xc8
     620:	41006e51 	tstmi	r0, r1, asr lr
     624:	5f314344 	svcpl	0x00314344
     628:	6e515249 	cdpvs	2, 5, cr5, cr1, cr9, {2}
     62c:	43324900 	teqmi	r2, #0, 18
     630:	56455f32 			; <UNDEFINED> instruction: 0x56455f32
     634:	5152495f 	cmppl	r2, pc, asr r9
     638:	5045006e 	subpl	r0, r5, lr, rrx
     63c:	53005231 	movwpl	r5, #561	; 0x231
     640:	5f334950 	svcpl	0x00334950
     644:	6e515249 	cdpvs	2, 5, cr5, cr1, cr9, {2}
     648:	62737500 	rsbsvs	r7, r3, #0, 10
     64c:	6470655f 	ldrbtvs	r6, [r0], #-1375	; 0xfffffaa1
     650:	5f617461 	svcpl	0x00617461
     654:	4f430074 	svcmi	0x00430074
     658:	415f504d 	cmpmi	pc, sp, asr #32
     65c:	495f5143 	ldmdbmi	pc, {r0, r1, r6, r8, ip, lr}^	; <UNPREDICTABLE>
     660:	006e5152 	rsbeq	r5, lr, r2, asr r1
     664:	31414d44 	cmpcc	r1, r4, asr #26
     668:	6168435f 	cmnvs	r8, pc, asr r3
     66c:	6c656e6e 	stclvs	14, cr6, [r5], #-440	; 0xfffffe48
     670:	52495f36 	subpl	r5, r9, #54, 30	; 0xd8
     674:	44006e51 	strmi	r6, [r0], #-3665	; 0xfffff1af
     678:	5f32414d 	svcpl	0x0032414d
     67c:	6e616843 	cdpvs	8, 6, cr6, cr1, cr3, {2}
     680:	316c656e 	cmncc	ip, lr, ror #10
     684:	5152495f 	cmppl	r2, pc, asr r9
     688:	755f006e 	ldrbvc	r0, [pc, #-110]	; 622 <_Min_Stack_Size+0x222>
     68c:	655f6273 	ldrbvs	r6, [pc, #-627]	; 421 <_Min_Stack_Size+0x21>
     690:	65725f70 	ldrbvs	r5, [r2, #-3952]!	; 0xfffff090
     694:	54006461 	strpl	r6, [r0], #-1121	; 0xfffffb9f
     698:	5f334d49 	svcpl	0x00334d49
     69c:	6e515249 	cdpvs	2, 5, cr5, cr1, cr9, {2}
     6a0:	414d4400 	cmpmi	sp, r0, lsl #8
     6a4:	68435f31 	stmdavs	r3, {r0, r4, r5, r8, r9, sl, fp, ip, lr}^
     6a8:	656e6e61 	strbvs	r6, [lr, #-3681]!	; 0xfffff19f
     6ac:	495f316c 	ldmdbmi	pc, {r2, r3, r5, r6, r8, ip, sp}^	; <UNPREDICTABLE>
     6b0:	006e5152 	rsbeq	r5, lr, r2, asr r1
     6b4:	5f627375 	svcpl	0x00627375
     6b8:	73616c63 	cmnvc	r1, #25344	; 0x6300
     6bc:	6e695f73 	mcrvs	15, 3, r5, cr9, cr3, {3}
     6c0:	45007469 	strmi	r7, [r0, #-1129]	; 0xfffffb97
     6c4:	43495458 	movtmi	r5, #37976	; 0x9458
     6c8:	50450052 	subpl	r0, r5, r2, asr r0
     6cc:	54005232 	strpl	r5, [r0], #-562	; 0xfffffdce
     6d0:	30314d49 	eorscc	r4, r1, r9, asr #26
     6d4:	5152495f 	cmppl	r2, pc, asr r9
     6d8:	5757006e 	ldrbpl	r0, [r7, -lr, rrx]
     6dc:	495f4744 	ldmdbmi	pc, {r2, r6, r8, r9, sl, lr}^	; <UNPREDICTABLE>
     6e0:	006e5152 	rsbeq	r5, lr, r2, asr r1
     6e4:	5f627375 	svcpl	0x00627375
     6e8:	73616c63 	cmnvc	r1, #25344	; 0x6300
     6ec:	69645f73 	stmdbvs	r4!, {r0, r1, r4, r5, r6, r8, r9, sl, fp, ip, lr}^
     6f0:	6e6f6373 	mcrvs	3, 3, r6, cr15, cr3, {3}
     6f4:	7463656e 	strbtvc	r6, [r3], #-1390	; 0xfffffa92
     6f8:	33504500 	cmpcc	r0, #0, 10
     6fc:	75420052 	strbvc	r0, [r2, #-82]	; 0xffffffae
     700:	75614673 	strbvc	r4, [r1, #-1651]!	; 0xfffff98d
     704:	495f746c 	ldmdbmi	pc, {r2, r3, r5, r6, sl, ip, sp, lr}^	; <UNPREDICTABLE>
     708:	006e5152 	rsbeq	r5, lr, r2, asr r1
     70c:	49545845 	ldmdbmi	r4, {r0, r2, r6, fp, ip, lr}^
     710:	52495f34 	subpl	r5, r9, #52, 30	; 0xd0
     714:	50006e51 	andpl	r6, r0, r1, asr lr
     718:	495f4456 	ldmdbmi	pc, {r1, r2, r4, r6, sl, lr}^	; <UNPREDICTABLE>
     71c:	006e5152 	rsbeq	r5, lr, r2, asr r1
     720:	75667065 	strbvc	r7, [r6, #-101]!	; 0xffffff9b
     724:	745f636e 	ldrbvc	r6, [pc], #-878	; 72c <_Min_Stack_Size+0x32c>
     728:	62737500 	rsbsvs	r7, r3, #0, 10
     72c:	5f78745f 	svcpl	0x0078745f
     730:	6e756f63 	cdpvs	15, 7, cr6, cr5, cr3, {3}
     734:	43490074 	movtmi	r0, #36980	; 0x9074
     738:	44005250 	strmi	r5, [r0], #-592	; 0xfffffdb0
     73c:	5f32414d 	svcpl	0x0032414d
     740:	6e616843 	cdpvs	8, 6, cr6, cr1, cr3, {2}
     744:	336c656e 	cmncc	ip, #461373440	; 0x1b800000
     748:	5152495f 	cmppl	r2, pc, asr r9
     74c:	4954006e 	ldmdbmi	r4, {r1, r2, r3, r5, r6}^
     750:	495f354d 	ldmdbmi	pc, {r0, r2, r3, r6, r8, sl, ip, sp}^	; <UNPREDICTABLE>
     754:	006e5152 	rsbeq	r5, lr, r2, asr r1
     758:	31414d44 	cmpcc	r1, r4, asr #26
     75c:	6168435f 	cmnvs	r8, pc, asr r3
     760:	6c656e6e 	stclvs	14, cr6, [r5], #-440	; 0xfffffe48
     764:	52495f33 	subpl	r5, r9, #51, 30	; 0xcc
     768:	73006e51 	movwvc	r6, #3665	; 0xe51
     76c:	752f6372 	strvc	r6, [pc, #-882]!	; 402 <_Min_Stack_Size+0x2>
     770:	6c5f6273 	lfmvs	f6, 2, [pc], {115}	; 0x73
     774:	632e6269 			; <UNDEFINED> instruction: 0x632e6269
     778:	43324900 	teqmi	r2, #0, 18
     77c:	56455f31 			; <UNDEFINED> instruction: 0x56455f31
     780:	5152495f 	cmppl	r2, pc, asr r9
     784:	7872006e 	ldmdavc	r2!, {r1, r2, r3, r5, r6}^
     788:	6d756e5f 	ldclvs	14, cr6, [r5, #-380]!	; 0xfffffe84
     78c:	6f6c625f 	svcvs	0x006c625f
     790:	00736b63 	rsbseq	r6, r3, r3, ror #22
     794:	5f627375 	svcpl	0x00627375
     798:	73616c63 	cmnvc	r1, #25344	; 0x6300
     79c:	70655f73 	rsbvc	r5, r5, r3, ror pc
     7a0:	6e695f30 	mcrvs	15, 3, r5, cr9, cr0, {1}
     7a4:	5f787400 	svcpl	0x00787400
     7a8:	636f6c62 	cmnvs	pc, #25088	; 0x6200
     7ac:	7a69736b 	bvc	1a5d560 <_Min_Stack_Size+0x1a5d160>
     7b0:	54530065 	ldrbpl	r0, [r3], #-101	; 0xffffff9b
     7b4:	52005249 	andpl	r5, r0, #-1879048188	; 0x90000004
     7b8:	415f4354 	cmpmi	pc, r4, asr r3	; <UNPREDICTABLE>
     7bc:	6d72616c 	ldfvse	f6, [r2, #-432]!	; 0xfffffe50
     7c0:	5152495f 	cmppl	r2, pc, asr r9
     7c4:	7872006e 	ldmdavc	r2!, {r1, r2, r3, r5, r6}^
     7c8:	7a69735f 	bvc	1a5d54c <_Min_Stack_Size+0x1a5d14c>
     7cc:	50450065 	subpl	r0, r5, r5, rrx
     7d0:	52005235 	andpl	r5, r0, #1342177283	; 0x50000003
     7d4:	52455345 	subpl	r5, r5, #335544321	; 0x14000001
     7d8:	30444556 	subcc	r4, r4, r6, asr r5
     7dc:	53455200 	movtpl	r5, #20992	; 0x5200
     7e0:	45565245 	ldrbmi	r5, [r6, #-581]	; 0xfffffdbb
     7e4:	52003144 	andpl	r3, r0, #68, 2
     7e8:	52455345 	subpl	r5, r5, #335544321	; 0x14000001
     7ec:	32444556 	subcc	r4, r4, #360710144	; 0x15800000
     7f0:	53455200 	movtpl	r5, #20992	; 0x5200
     7f4:	45565245 	ldrbmi	r5, [r6, #-581]	; 0xfffffdbb
     7f8:	52003344 	andpl	r3, r0, #68, 6	; 0x10000001
     7fc:	52455345 	subpl	r5, r5, #335544321	; 0x14000001
     800:	34444556 	strbcc	r4, [r4], #-1366	; 0xfffffaaa
     804:	53455200 	movtpl	r5, #20992	; 0x5200
     808:	45565245 	ldrbmi	r5, [r6, #-581]	; 0xfffffdbb
     80c:	52003544 	andpl	r3, r0, #68, 10	; 0x11000000
     810:	52455345 	subpl	r5, r5, #335544321	; 0x14000001
     814:	36444556 			; <UNDEFINED> instruction: 0x36444556
     818:	42535500 	subsmi	r5, r3, #0, 10
     81c:	5f53465f 	svcpl	0x0053465f
     820:	50554b57 	subspl	r4, r5, r7, asr fp
     824:	5152495f 	cmppl	r2, pc, asr r9
     828:	4552006e 	ldrbmi	r0, [r2, #-110]	; 0xffffff92
     82c:	56524553 			; <UNDEFINED> instruction: 0x56524553
     830:	00394445 	eorseq	r4, r9, r5, asr #8
     834:	45534552 	ldrbmi	r4, [r3, #-1362]	; 0xfffffaae
     838:	44455652 	strbmi	r5, [r5], #-1618	; 0xfffff9ae
     83c:	53550041 	cmppl	r5, #65	; 0x41
     840:	31545241 	cmpcc	r4, r1, asr #4
     844:	5152495f 	cmppl	r2, pc, asr r9
     848:	7375006e 	cmnvc	r5, #110	; 0x6e
     84c:	70655f62 	rsbvc	r5, r5, r2, ror #30
     850:	696e695f 	stmdbvs	lr!, {r0, r1, r2, r3, r4, r6, r8, fp, sp, lr}^
     854:	6f4e0074 	svcvs	0x004e0074
     858:	73614d6e 	cmnvc	r1, #7040	; 0x1b80
     85c:	6c62616b 	stfvse	f6, [r2], #-428	; 0xfffffe54
     860:	746e4965 	strbtvc	r4, [lr], #-2405	; 0xfffff69b
     864:	5152495f 	cmppl	r2, pc, asr r9
     868:	4c77006e 	ldclmi	0, cr0, [r7], #-440	; 0xfffffe48
     86c:	74676e65 	strbtvc	r6, [r7], #-3685	; 0xfffff19b
     870:	50450068 	subpl	r0, r5, r8, rrx
     874:	6c005236 	sfmvs	f5, 4, [r0], {54}	; 0x36
     878:	00746665 	rsbseq	r6, r4, r5, ror #12
     87c:	49545845 	ldmdbmi	r4, {r0, r2, r6, fp, ip, lr}^
     880:	52495f31 	subpl	r5, r9, #49, 30	; 0xc4
     884:	62006e51 	andvs	r6, r0, #1296	; 0x510
     888:	75716552 	ldrbvc	r6, [r1, #-1362]!	; 0xfffffaae
     88c:	00747365 	rsbseq	r7, r4, r5, ror #6
     890:	4349564e 	movtmi	r5, #38478	; 0x964e
     894:	7079545f 	rsbsvc	r5, r9, pc, asr r4
     898:	4e430065 	cdpmi	0, 4, cr0, cr3, cr5, {3}
     89c:	44005254 	strmi	r5, [r0], #-596	; 0xfffffdac
     8a0:	5f32414d 	svcpl	0x0032414d
     8a4:	6e616843 	cdpvs	8, 6, cr6, cr1, cr3, {2}
     8a8:	356c656e 	strbcc	r6, [ip, #-1390]!	; 0xfffffa92
     8ac:	5152495f 	cmppl	r2, pc, asr r9
     8b0:	3249006e 	subcc	r0, r9, #110	; 0x6e
     8b4:	455f3143 	ldrbmi	r3, [pc, #-323]	; 779 <_Min_Stack_Size+0x379>
     8b8:	52495f52 	subpl	r5, r9, #328	; 0x148
     8bc:	53006e51 	movwpl	r6, #3665	; 0xe51
     8c0:	69547379 	ldmdbvs	r4, {r0, r3, r4, r5, r6, r8, r9, ip, sp, lr}^
     8c4:	495f6b63 	ldmdbmi	pc, {r0, r1, r5, r6, r8, r9, fp, sp, lr}^	; <UNPREDICTABLE>
     8c8:	006e5152 	rsbeq	r5, lr, r2, asr r1
     8cc:	756e7065 	strbvc	r7, [lr, #-101]!	; 0xffffff9b
     8d0:	4954006d 	ldmdbmi	r4, {r0, r2, r3, r5, r6}^
     8d4:	495f324d 	ldmdbmi	pc, {r0, r2, r3, r6, r9, ip, sp}^	; <UNPREDICTABLE>
     8d8:	006e5152 	rsbeq	r5, lr, r2, asr r1
     8dc:	5f627375 	svcpl	0x00627375
     8e0:	73616c63 	cmnvc	r1, #25344	; 0x6300
     8e4:	70655f73 	rsbvc	r5, r5, r3, ror pc
     8e8:	756f5f30 	strbvc	r5, [pc, #-3888]!	; fffff9c0 <BootRAM+0xef70161>
     8ec:	50450074 	subpl	r0, r5, r4, ror r0
     8f0:	63005237 	movwvs	r5, #567	; 0x237
     8f4:	69666e6f 	stmdbvs	r6!, {r0, r1, r2, r3, r5, r6, r9, sl, fp, sp, lr}^
     8f8:	61705f67 	cmnvs	r0, r7, ror #30
     8fc:	745f6b63 	ldrbvc	r6, [pc], #-2915	; 904 <_Min_Stack_Size+0x504>
     900:	62737500 	rsbsvs	r7, r3, #0, 10
     904:	5f78725f 	svcpl	0x0078725f
     908:	72646461 	rsbvc	r6, r4, #1627389952	; 0x61000000
     90c:	5f787400 	svcpl	0x00787400
     910:	5f6d756e 	svcpl	0x006d756e
     914:	636f6c62 	cmnvs	pc, #25088	; 0x6200
     918:	5500736b 	strpl	r7, [r0, #-875]	; 0xfffffc95
     91c:	485f4253 	ldmdami	pc, {r0, r1, r4, r6, r9, lr}^	; <UNPREDICTABLE>
     920:	52495f50 	subpl	r5, r9, #80, 30	; 0x140
     924:	44006e51 	strmi	r6, [r0], #-3665	; 0xfffff1af
     928:	67756265 	ldrbvs	r6, [r5, -r5, ror #4]!
     92c:	696e6f4d 	stmdbvs	lr!, {r0, r2, r3, r6, r8, r9, sl, fp, sp, lr}^
     930:	5f726f74 	svcpl	0x00726f74
     934:	6e515249 	cdpvs	2, 5, cr5, cr1, cr9, {2}
     938:	61735500 	cmnvs	r3, r0, lsl #10
     93c:	61466567 	cmpvs	r6, r7, ror #10
     940:	5f746c75 	svcpl	0x00746c75
     944:	6e515249 	cdpvs	2, 5, cr5, cr1, cr9, {2}
     948:	5f787200 	svcpl	0x00787200
     94c:	636f6c62 	cmnvs	pc, #25088	; 0x6200
     950:	7a69736b 	bvc	1a5d704 <_Min_Stack_Size+0x1a5d304>
     954:	70650065 	rsbvc	r0, r5, r5, rrx
     958:	636e7566 	cmnvs	lr, #427819008	; 0x19800000
     95c:	006e695f 	rsbeq	r6, lr, pc, asr r9
     960:	5f627375 	svcpl	0x00627375
     964:	695f7065 	ldmdbvs	pc, {r0, r2, r5, r6, ip, sp, lr}^	; <UNPREDICTABLE>
     968:	5f74696e 	svcpl	0x0074696e
     96c:	62756f64 	rsbsvs	r6, r5, #100, 30	; 0x190
     970:	4500656c 	strmi	r6, [r0, #-1388]	; 0xfffffa94
     974:	39495458 	stmdbcc	r9, {r3, r4, r6, sl, ip, lr}^
     978:	495f355f 	ldmdbmi	pc, {r0, r1, r2, r3, r4, r6, r8, sl, ip, sp}^	; <UNPREDICTABLE>
     97c:	006e5152 	rsbeq	r5, lr, r2, asr r1
     980:	52345045 	eorspl	r5, r4, #69	; 0x45
     984:	45434900 	strbmi	r4, [r3, #-2304]	; 0xfffff700
     988:	50530052 	subspl	r0, r3, r2, asr r0
     98c:	495f3249 	ldmdbmi	pc, {r0, r3, r6, r9, ip, sp}^	; <UNPREDICTABLE>
     990:	006e5152 	rsbeq	r5, lr, r2, asr r1
     994:	52424149 	subpl	r4, r2, #1073741842	; 0x40000012
     998:	4d495400 	cfstrdmi	mvd5, [r9, #-0]
     99c:	52495f37 	subpl	r5, r9, #55, 30	; 0xdc
     9a0:	44006e51 	strmi	r6, [r0], #-3665	; 0xfffff1af
     9a4:	5f31414d 	svcpl	0x0031414d
     9a8:	6e616843 	cdpvs	8, 6, cr6, cr1, cr3, {2}
     9ac:	356c656e 	strbcc	r6, [ip, #-1390]!	; 0xfffffa92
     9b0:	5152495f 	cmppl	r2, pc, asr r9
     9b4:	5442006e 	strbpl	r0, [r2], #-110	; 0xffffff92
     9b8:	454c4241 	strbmi	r4, [ip, #-577]	; 0xfffffdbf
     9bc:	43414400 	movtmi	r4, #5120	; 0x1400
     9c0:	5152495f 	cmppl	r2, pc, asr r9
     9c4:	7065006e 	rsbvc	r0, r5, lr, rrx
     9c8:	7079745f 	rsbsvc	r7, r9, pc, asr r4
     9cc:	58450065 	stmdapl	r5, {r0, r2, r5, r6}^
     9d0:	5f334954 	svcpl	0x00334954
     9d4:	6e515249 	cdpvs	2, 5, cr5, cr1, cr9, {2}
     9d8:	72696400 	rsbvc	r6, r9, #0, 8
     9dc:	006e695f 	rsbeq	r6, lr, pc, asr r9
     9e0:	5f627375 	svcpl	0x00627375
     9e4:	615f7874 	cmpvs	pc, r4, ror r8	; <UNPREDICTABLE>
     9e8:	00726464 	rsbseq	r6, r2, r4, ror #8
     9ec:	52505349 	subspl	r5, r0, #603979777	; 0x24000001
     9f0:	62737500 	rsbsvs	r7, r3, #0, 10
     9f4:	5f78725f 	svcpl	0x0078725f
     9f8:	6e756f63 	cdpvs	15, 7, cr6, cr5, cr3, {3}
     9fc:	78720074 	ldmdavc	r2!, {r2, r4, r5, r6}^
     a00:	6e756f63 	cdpvs	15, 7, cr6, cr5, cr3, {3}
     a04:	4d440074 	stclmi	0, cr0, [r4, #-464]	; 0xfffffe30
     a08:	435f3241 	cmpmi	pc, #268435460	; 0x10000004
     a0c:	6e6e6168 	powvsez	f6, f6, #0.0
     a10:	5f326c65 	svcpl	0x00326c65
     a14:	6e515249 	cdpvs	2, 5, cr5, cr1, cr9, {2}
     a18:	41535500 	cmpmi	r3, r0, lsl #10
     a1c:	5f335452 	svcpl	0x00335452
     a20:	6e515249 	cdpvs	2, 5, cr5, cr1, cr9, {2}
     a24:	53455200 	movtpl	r5, #20992	; 0x5200
     a28:	45565245 	ldrbmi	r5, [r6, #-581]	; 0xfffffdbb
     a2c:	55003844 	strpl	r3, [r0, #-2116]	; 0xfffff7bc
     a30:	4c5f4253 	lfmmi	f4, 2, [pc], {83}	; 0x53
     a34:	52495f50 	subpl	r5, r9, #80, 30	; 0x140
     a38:	52006e51 	andpl	r6, r0, #1296	; 0x510
     a3c:	52455345 	subpl	r5, r5, #335544321	; 0x14000001
     a40:	42444556 	submi	r4, r4, #360710144	; 0x15800000
     a44:	53455200 	movtpl	r5, #20992	; 0x5200
     a48:	45565245 	ldrbmi	r5, [r6, #-581]	; 0xfffffdbb
     a4c:	75004344 	strvc	r4, [r0, #-836]	; 0xfffffcbc
     a50:	655f6273 	ldrbvs	r6, [pc, #-627]	; 7e5 <_Min_Stack_Size+0x3e5>
     a54:	65725f70 	ldrbvs	r5, [r2, #-3952]!	; 0xfffff090
     a58:	645f6461 	ldrbvs	r6, [pc], #-1121	; a60 <_Min_Stack_Size+0x660>
     a5c:	6c62756f 	cfstr64vs	mvdx7, [r2], #-444	; 0xfffffe44
     a60:	78740065 	ldmdavc	r4!, {r0, r2, r5, r6}^
     a64:	657a6973 	ldrbvs	r6, [sl, #-2419]!	; 0xfffff68d
     a68:	63775f00 	cmnvs	r7, #0, 30
     a6c:	626d6f74 	rsbvs	r6, sp, #116, 30	; 0x1d0
     a70:	6174735f 	cmnvs	r4, pc, asr r3
     a74:	5f006574 	svcpl	0x00006574
     a78:	00383472 	eorseq	r3, r8, r2, ror r4
     a7c:	6769735f 			; <UNDEFINED> instruction: 0x6769735f
     a80:	5f6c616e 	svcpl	0x006c616e
     a84:	00667562 	rsbeq	r7, r6, r2, ror #10
     a88:	66626c5f 			; <UNDEFINED> instruction: 0x66626c5f
     a8c:	657a6973 	ldrbvs	r6, [sl, #-2419]!	; 0xfffff68d
     a90:	6c665f00 	stclvs	15, cr5, [r6], #-0
     a94:	00736761 	rsbseq	r6, r3, r1, ror #14
     a98:	66666f5f 	uqsaxvs	r6, r6, pc	; <UNPREDICTABLE>
     a9c:	5f00745f 	svcpl	0x0000745f
     aa0:	6c616d6e 	stclvs	13, cr6, [r1], #-440	; 0xfffffe48
     aa4:	00636f6c 	rsbeq	r6, r3, ip, ror #30
     aa8:	61746164 	cmnvs	r4, r4, ror #2
     aac:	74756f5f 	ldrbtvc	r6, [r5], #-3935	; 0xfffff0a1
     ab0:	6c61635f 	stclvs	3, cr6, [r1], #-380	; 0xfffffe84
     ab4:	6361626c 	cmnvs	r1, #108, 4	; 0xc0000006
     ab8:	7375006b 	cmnvc	r5, #107	; 0x6b
     abc:	70655f62 	rsbvc	r5, r5, r2, ror #30
     ac0:	6972775f 	ldmdbvs	r2!, {r0, r1, r2, r3, r4, r6, r8, r9, sl, ip, sp, lr}^
     ac4:	645f6574 	ldrbvs	r6, [pc], #-1396	; acc <_Min_Stack_Size+0x6cc>
     ac8:	6c62756f 	cfstr64vs	mvdx7, [r2], #-444	; 0xfffffe44
     acc:	4c5f0065 	mrrcmi	0, 6, r0, pc, cr5	; <UNPREDICTABLE>
     ad0:	5f4b434f 	svcpl	0x004b434f
     ad4:	55434552 	strbpl	r4, [r3, #-1362]	; 0xfffffaae
     ad8:	56495352 			; <UNDEFINED> instruction: 0x56495352
     adc:	00545f45 	subseq	r5, r4, r5, asr #30
     ae0:	2f637273 	svccs	0x00637273
     ae4:	5f627375 	svcpl	0x00627375
     ae8:	73616c63 	cmnvc	r1, #25344	; 0x6300
     aec:	75615f73 	strbvc	r5, [r1, #-3955]!	; 0xfffff08d
     af0:	2e6f6964 	vnmulcs.f16	s13, s30, s9	; <UNPREDICTABLE>
     af4:	755f0063 	ldrbvc	r0, [pc, #-99]	; a99 <_Min_Stack_Size+0x699>
     af8:	6570736e 	ldrbvs	r7, [r0, #-878]!	; 0xfffffc92
     afc:	69666963 	stmdbvs	r6!, {r0, r1, r5, r6, r8, fp, sp, lr}^
     b00:	6c5f6465 	cfldrdvs	mvd6, [pc], {101}	; 0x65
     b04:	6c61636f 	stclvs	3, cr6, [r1], #-444	; 0xfffffe44
     b08:	6e695f65 	cdpvs	15, 6, cr5, cr9, cr5, {3}
     b0c:	5f006f66 	svcpl	0x00006f66
     b10:	6c72626d 	lfmvs	f6, 2, [r2], #-436	; 0xfffffe4c
     b14:	735f6e65 	cmpvc	pc, #1616	; 0x650
     b18:	65746174 	ldrbvs	r6, [r4, #-372]!	; 0xfffffe8c
     b1c:	625f5f00 	subsvs	r5, pc, #0, 30
     b20:	746c6975 	strbtvc	r6, [ip], #-2421	; 0xfffff68b
     b24:	6d5f6e69 	ldclvs	14, cr6, [pc, #-420]	; 988 <_Min_Stack_Size+0x588>
     b28:	70636d65 	rsbvc	r6, r3, r5, ror #26
     b2c:	6e5f0079 	mrcvs	0, 2, r0, cr15, cr9, {3}
     b30:	5f007765 	svcpl	0x00007765
     b34:	6f647473 	svcvs	0x00647473
     b38:	5f007475 	svcpl	0x00007475
     b3c:	736f7066 	cmnvc	pc, #102	; 0x66
     b40:	5f00745f 	svcpl	0x0000745f
     b44:	00736e66 	rsbseq	r6, r3, r6, ror #28
     b48:	6f6f635f 	svcvs	0x006f635f
     b4c:	0065696b 	rsbeq	r6, r5, fp, ror #18
     b50:	73626d5f 	cmnvc	r2, #6080	; 0x17c0
     b54:	65746174 	ldrbvs	r6, [r4, #-372]!	; 0xfffffe8c
     b58:	745f5f00 	ldrbvc	r5, [pc], #-3840	; b60 <_Min_Stack_Size+0x760>
     b5c:	64775f6d 	ldrbtvs	r5, [r7], #-3949	; 0xfffff093
     b60:	54007961 	strpl	r7, [r0], #-2401	; 0xfffff69f
     b64:	545f4d49 	ldrbpl	r4, [pc], #-3401	; b6c <_Min_Stack_Size+0x76c>
     b68:	44657079 	strbtmi	r7, [r5], #-121	; 0xffffff87
     b6c:	5f006665 	svcpl	0x00006665
     b70:	75736572 	ldrbvc	r6, [r3, #-1394]!	; 0xfffffa8e
     b74:	5f00746c 	svcpl	0x0000746c
     b78:	4c49465f 	mcrrmi	6, 5, r4, r9, cr15
     b7c:	43430045 	movtmi	r0, #12357	; 0x3045
     b80:	5f005245 	svcpl	0x00005245
     b84:	5f6d745f 	svcpl	0x006d745f
     b88:	72756f68 	rsbsvc	r6, r5, #104, 30	; 0x1a0
     b8c:	64615f00 	strbtvs	r5, [r1], #-3840	; 0xfffff100
     b90:	5f5f0064 	svcpl	0x005f0064
     b94:	6e756f63 	cdpvs	15, 7, cr6, cr5, cr3, {3}
     b98:	5f5f0074 	svcpl	0x005f0074
     b9c:	6d5f6d74 	ldclvs	13, cr6, [pc, #-464]	; 9d4 <_Min_Stack_Size+0x5d4>
     ba0:	43006e69 	movwmi	r6, #3689	; 0xe69
     ba4:	00315243 	eorseq	r5, r1, r3, asr #4
     ba8:	32524343 	subscc	r4, r2, #201326593	; 0xc000001
     bac:	4d434300 	stclmi	3, cr4, [r3, #-0]
     bb0:	43003152 	movwmi	r3, #338	; 0x152
     bb4:	32524d43 	subscc	r4, r2, #4288	; 0x10c0
     bb8:	61725f00 	cmnvs	r2, r0, lsl #30
     bbc:	3834646e 	ldmdacc	r4!, {r1, r2, r3, r5, r6, sl, sp, lr}
     bc0:	65725f00 	ldrbvs	r5, [r2, #-3840]!	; 0xfffff100
     bc4:	746c7573 	strbtvc	r7, [ip], #-1395	; 0xfffffa8d
     bc8:	55006b5f 	strpl	r6, [r0, #-2911]	; 0xfffff4a1
     bcc:	435f4253 	cmpmi	pc, #805306373	; 0x30000005
     bd0:	69666e6f 	stmdbvs	r6!, {r0, r1, r2, r3, r5, r6, r9, sl, fp, sp, lr}^
     bd4:	73654467 	cmnvc	r5, #1728053248	; 0x67000000
     bd8:	70697263 	rsbvc	r7, r9, r3, ror #4
     bdc:	00726f74 	rsbseq	r6, r2, r4, ror pc
     be0:	6373615f 	cmnvs	r3, #-1073741801	; 0xc0000017
     be4:	656d6974 	strbvs	r6, [sp, #-2420]!	; 0xfffff68c
     be8:	6675625f 			; <UNDEFINED> instruction: 0x6675625f
     bec:	735f5f00 	cmpvc	pc, #0, 30
     bf0:	454c4946 	strbmi	r4, [ip, #-2374]	; 0xfffff6ba
     bf4:	64775f00 	ldrbtvs	r5, [r7], #-3840	; 0xfffff100
     bf8:	685f0073 	ldmdavs	pc, {r0, r1, r4, r5, r6}^	; <UNPREDICTABLE>
     bfc:	7272655f 	rsbsvc	r6, r2, #398458880	; 0x17c00000
     c00:	5f006f6e 	svcpl	0x00006f6e
     c04:	6b656573 	blvs	195a1d8 <_Min_Stack_Size+0x1959dd8>
     c08:	62755f00 	rsbsvs	r5, r5, #0, 30
     c0c:	5f006675 	svcpl	0x00006675
     c10:	72656d65 	rsbvc	r6, r5, #6464	; 0x1940
     c14:	636e6567 	cmnvs	lr, #432013312	; 0x19c00000
     c18:	5f5f0079 	svcpl	0x005f0079
     c1c:	735f6d74 	cmpvc	pc, #116, 26	; 0x1d00
     c20:	5f006365 	svcpl	0x00006365
     c24:	5f6d745f 	svcpl	0x006d745f
     c28:	79616479 	stmdbvc	r1!, {r0, r3, r4, r5, r6, sl, sp, lr}^
     c2c:	6e695f00 	cdpvs	15, 6, cr5, cr9, cr0, {0}
     c30:	6d5f0063 	ldclvs	0, cr0, [pc, #-396]	; aac <_Min_Stack_Size+0x6ac>
     c34:	74727362 	ldrbtvc	r7, [r2], #-866	; 0xfffffc9e
     c38:	7363776f 	cmnvc	r3, #29097984	; 0x1bc0000
     c3c:	6174735f 	cmnvs	r4, pc, asr r3
     c40:	44006574 	strmi	r6, [r0], #-1396	; 0xfffffa8c
     c44:	00524549 	subseq	r4, r2, r9, asr #10
     c48:	61765f5f 	cmnvs	r6, pc, asr pc
     c4c:	0065756c 	rsbeq	r7, r5, ip, ror #10
     c50:	7335705f 	teqvc	r5, #95	; 0x5f
     c54:	626d5f00 	rsbvs	r5, sp, #0, 30
     c58:	5f6e656c 	svcpl	0x006e656c
     c5c:	74617473 	strbtvc	r7, [r1], #-1139	; 0xfffffb8d
     c60:	5f5f0065 	svcpl	0x005f0065
     c64:	6d5f6d74 	ldclvs	13, cr6, [pc, #-464]	; a9c <_Min_Stack_Size+0x69c>
     c68:	00796164 	rsbseq	r6, r9, r4, ror #2
     c6c:	6769735f 			; <UNDEFINED> instruction: 0x6769735f
     c70:	6e75665f 	mrcvs	6, 3, r6, cr5, cr15, {2}
     c74:	6d5f0063 	ldclvs	0, cr0, [pc, #-396]	; af0 <_Min_Stack_Size+0x6f0>
     c78:	6f747262 	svcvs	0x00747262
     c7c:	735f6377 	cmpvc	pc, #-603979775	; 0xdc000001
     c80:	65746174 	ldrbvs	r6, [r4, #-372]!	; 0xfffffe8c
     c84:	6c665f00 	stclvs	15, cr5, [r6], #-0
     c88:	5f6b636f 	svcpl	0x006b636f
     c8c:	5f5f0074 	svcpl	0x005f0074
     c90:	00686377 	rsbeq	r6, r8, r7, ror r3
     c94:	626f695f 	rsbvs	r6, pc, #1556480	; 0x17c000
     c98:	635f0073 	cmpvs	pc, #115	; 0x73
     c9c:	65736f6c 	ldrbvs	r6, [r3, #-3948]!	; 0xfffff094
     ca0:	735f5f00 	cmpvc	pc, #0, 30
     ca4:	69646964 	stmdbvs	r4!, {r2, r5, r6, r8, fp, sp, lr}^
     ca8:	0074696e 	rsbseq	r6, r4, lr, ror #18
     cac:	6474735f 	ldrbtvs	r7, [r4], #-863	; 0xfffffca1
     cb0:	5f006e69 	svcpl	0x00006e69
     cb4:	6d6d6167 	stfvse	f6, [sp, #-412]!	; 0xfffffe64
     cb8:	69735f61 	ldmdbvs	r3!, {r0, r5, r6, r8, r9, sl, fp, ip, lr}^
     cbc:	61676e67 	cmnvs	r7, r7, ror #28
     cc0:	6e5f006d 	cdpvs	0, 5, cr0, cr15, cr13, {3}
     cc4:	66747865 	ldrbtvs	r7, [r4], -r5, ror #16
     cc8:	61625f00 	cmnvs	r2, r0, lsl #30
     ccc:	5f006573 	svcpl	0x00006573
     cd0:	65657266 	strbvs	r7, [r5, #-614]!	; 0xfffffd9a
     cd4:	7473696c 	ldrbtvc	r6, [r3], #-2412	; 0xfffff694
     cd8:	756d5f00 	strbvc	r5, [sp, #-3840]!	; 0xfffff100
     cdc:	5f00746c 	svcpl	0x0000746c
     ce0:	6f4c555f 	svcvs	0x004c555f
     ce4:	5f00676e 	svcpl	0x0000676e
     ce8:	74726377 	ldrbtvc	r6, [r2], #-887	; 0xfffffc89
     cec:	5f626d6f 	svcpl	0x00626d6f
     cf0:	74617473 	strbtvc	r7, [r1], #-1139	; 0xfffffb8d
     cf4:	665f0065 	ldrbvs	r0, [pc], -r5, rrx
     cf8:	00656c69 	rsbeq	r6, r5, r9, ror #24
     cfc:	6c635f5f 	stclvs	15, cr5, [r3], #-380	; 0xfffffe84
     d00:	756e6165 	strbvc	r6, [lr, #-357]!	; 0xfffffe9b
     d04:	6d5f0070 	ldclvs	0, cr0, [pc, #-448]	; b4c <_Min_Stack_Size+0x74c>
     d08:	61747362 	cmnvs	r4, r2, ror #6
     d0c:	745f6574 	ldrbvc	r6, [pc], #-1396	; d14 <_Min_Stack_Size+0x914>
     d10:	745f5f00 	ldrbvc	r5, [pc], #-3840	; d18 <_Min_Stack_Size+0x918>
     d14:	73695f6d 	cmnvc	r9, #436	; 0x1b4
     d18:	00747364 	rsbseq	r7, r4, r4, ror #6
     d1c:	7363775f 	cmnvc	r3, #24903680	; 0x17c0000
     d20:	6d6f7472 	cfstrdvs	mvd7, [pc, #-456]!	; b60 <_Min_Stack_Size+0x760>
     d24:	735f7362 	cmpvc	pc, #-2013265919	; 0x88000001
     d28:	65746174 	ldrbvs	r6, [r4, #-372]!	; 0xfffffe8c
     d2c:	6e695f00 	cdpvs	15, 6, cr5, cr9, cr0, {0}
     d30:	49540064 	ldmdbmi	r4, {r2, r5, r6}^
     d34:	495f344d 	ldmdbmi	pc, {r0, r2, r3, r6, sl, ip, sp}^	; <UNPREDICTABLE>
     d38:	61485152 	cmpvs	r8, r2, asr r1
     d3c:	656c646e 	strbvs	r6, [ip, #-1134]!	; 0xfffffb92
     d40:	5f5f0072 	svcpl	0x005f0072
     d44:	6d5f6d74 	ldclvs	13, cr6, [pc, #-464]	; b7c <_Min_Stack_Size+0x77c>
     d48:	6c006e6f 	stcvs	14, cr6, [r0], {111}	; 0x6f
     d4c:	20676e6f 	rsbcs	r6, r7, pc, ror #28
     d50:	62756f64 	rsbsvs	r6, r5, #100, 30	; 0x190
     d54:	6400656c 	strvs	r6, [r0], #-1388	; 0xfffffa94
     d58:	006e6973 	rsbeq	r6, lr, r3, ror r9
     d5c:	62735f5f 	rsbsvs	r5, r3, #380	; 0x17c
     d60:	5f006675 	svcpl	0x00006675
     d64:	5f6d745f 	svcpl	0x006d745f
     d68:	72616579 	rsbvc	r6, r1, #507510784	; 0x1e400000
     d6c:	74615f00 	strbtvc	r5, [r1], #-3840	; 0xfffff100
     d70:	74697865 	strbtvc	r7, [r9], #-2149	; 0xfffff79b
     d74:	434d5300 	movtmi	r5, #54016	; 0xd300
     d78:	6e690052 	mcrvs	0, 3, r0, cr9, cr2, {2}
     d7c:	66726574 			; <UNDEFINED> instruction: 0x66726574
     d80:	00656361 	rsbeq	r6, r5, r1, ror #6
     d84:	6769425f 			; <UNDEFINED> instruction: 0x6769425f
     d88:	00746e69 	rsbseq	r6, r4, r9, ror #28
     d8c:	52414d44 	subpl	r4, r1, #68, 26	; 0x1100
     d90:	74536200 	ldrbvc	r6, [r3], #-512	; 0xfffffe00
     d94:	676e6972 			; <UNDEFINED> instruction: 0x676e6972
     d98:	735f5f00 	cmpvc	pc, #0, 30
     d9c:	735f0066 	cmpvc	pc, #102	; 0x66
     da0:	006e6769 	rsbeq	r6, lr, r9, ror #14
     da4:	7461645f 	strbtvc	r6, [r1], #-1119	; 0xfffffba1
     da8:	5f5f0061 	svcpl	0x005f0061
     dac:	62686377 	rsbvs	r6, r8, #-603979775	; 0xdc000001
     db0:	6c675f00 	stclvs	15, cr5, [r7], #-0
     db4:	6c61626f 	sfmvs	f6, 2, [r1], #-444	; 0xfffffe44
     db8:	706d695f 	rsbvc	r6, sp, pc, asr r9
     dbc:	5f657275 	svcpl	0x00657275
     dc0:	00727470 	rsbseq	r7, r2, r0, ror r4
     dc4:	5f6e6f5f 	svcpl	0x006e6f5f
     dc8:	74697865 	strbtvc	r7, [r9], #-2149	; 0xfffff79b
     dcc:	6772615f 			; <UNDEFINED> instruction: 0x6772615f
     dd0:	6f5f0073 	svcvs	0x005f0073
     dd4:	65736666 	ldrbvs	r6, [r3, #-1638]!	; 0xfffff99a
     dd8:	53550074 	cmppl	r5, #116	; 0x74
     ddc:	74535f42 	ldrbvc	r5, [r3], #-3906	; 0xfffff0be
     de0:	676e6972 			; <UNDEFINED> instruction: 0x676e6972
     de4:	69726553 	ldmdbvs	r2!, {r0, r1, r4, r6, r8, sl, sp, lr}^
     de8:	65446c61 	strbvs	r6, [r4, #-3169]	; 0xfffff39f
     dec:	69726373 	ldmdbvs	r2!, {r0, r1, r4, r5, r6, r8, r9, sp, lr}^
     df0:	726f7470 	rsbvc	r7, pc, #112, 8	; 0x70000000
     df4:	6f6c5f00 	svcvs	0x006c5f00
     df8:	746c6163 	strbtvc	r6, [ip], #-355	; 0xfffffe9d
     dfc:	5f656d69 	svcpl	0x00656d69
     e00:	00667562 	rsbeq	r7, r6, r2, ror #10
     e04:	5f425355 	svcpl	0x00425355
     e08:	69727453 	ldmdbvs	r2!, {r0, r1, r4, r6, sl, ip, sp, lr}^
     e0c:	614c676e 	cmpvs	ip, lr, ror #14
     e10:	6544676e 	strbvs	r6, [r4, #-1902]	; 0xfffff892
     e14:	69726373 	ldmdbvs	r2!, {r0, r1, r4, r5, r6, r8, r9, sp, lr}^
     e18:	726f7470 	rsbvc	r7, pc, #112, 8	; 0x70000000
     e1c:	6e755f00 	cdpvs	15, 7, cr5, cr5, cr0, {0}
     e20:	64657375 	strbtvs	r7, [r5], #-885	; 0xfffffc8b
     e24:	76635f00 	strbtvc	r5, [r3], -r0, lsl #30
     e28:	6e656c74 	mcrvs	12, 3, r6, cr5, cr4, {3}
     e2c:	616d5f00 	cmnvs	sp, r0, lsl #30
     e30:	73647778 	cmnvc	r4, #120, 14	; 0x1e00000
     e34:	366c5f00 	strbtcc	r5, [ip], -r0, lsl #30
     e38:	625f6134 	subsvs	r6, pc, #52, 2
     e3c:	5f006675 	svcpl	0x00006675
     e40:	736b6c62 	cmnvc	fp, #25088	; 0x6200
     e44:	00657a69 	rsbeq	r7, r5, r9, ror #20
     e48:	6d745f5f 	ldclvs	15, cr5, [r4, #-380]!	; 0xfffffe84
     e4c:	6f6c5f00 	svcvs	0x006c5f00
     e50:	55006b63 	strpl	r6, [r0, #-2915]	; 0xfffff49d
     e54:	445f4253 	ldrbmi	r4, [pc], #-595	; e5c <_Min_Stack_Size+0xa5c>
     e58:	63697665 	cmnvs	r9, #105906176	; 0x6500000
     e5c:	61755165 	cmnvs	r5, r5, ror #2
     e60:	6966696c 	stmdbvs	r6!, {r2, r3, r5, r6, r8, fp, sp, lr}^
     e64:	65447265 	strbvs	r7, [r4, #-613]	; 0xfffffd9b
     e68:	69726373 	ldmdbvs	r2!, {r0, r1, r4, r5, r6, r8, r9, sp, lr}^
     e6c:	726f7470 	rsbvc	r7, pc, #112, 8	; 0x70000000
     e70:	696e5f00 	stmdbvs	lr!, {r8, r9, sl, fp, ip, lr}^
     e74:	0073626f 	rsbseq	r6, r3, pc, ror #4
     e78:	6f73645f 	svcvs	0x0073645f
     e7c:	6e61685f 	mcrvs	8, 3, r6, cr1, cr15, {2}
     e80:	00656c64 	rsbeq	r6, r5, r4, ror #24
     e84:	7476635f 	ldrbtvc	r6, [r6], #-863	; 0xfffffca1
     e88:	00667562 	rsbeq	r7, r6, r2, ror #10
     e8c:	33524343 	cmpcc	r2, #201326593	; 0xc000001
     e90:	52434300 	subpl	r4, r3, #0, 6
     e94:	675f0034 	smmlarvs	pc, r4, r0, r0	; <UNPREDICTABLE>
     e98:	61647465 	cmnvs	r4, r5, ror #8
     e9c:	655f6574 	ldrbvs	r6, [pc, #-1396]	; 930 <_Min_Stack_Size+0x530>
     ea0:	55007272 	strpl	r7, [r0, #-626]	; 0xfffffd8e
     ea4:	445f4253 	ldrbmi	r4, [pc], #-595	; eac <_Min_Stack_Size+0xaac>
     ea8:	63697665 	cmnvs	r9, #105906176	; 0x6500000
     eac:	73654465 	cmnvc	r5, #1694498816	; 0x65000000
     eb0:	70697263 	rsbvc	r7, r9, r3, ror #4
     eb4:	00726f74 	rsbseq	r6, r2, r4, ror pc
     eb8:	45534552 	ldrbmi	r4, [r3, #-1362]	; 0xfffffaae
     ebc:	44455652 	strbmi	r5, [r5], #-1618	; 0xfffff9ae
     ec0:	52003231 	andpl	r3, r0, #268435459	; 0x10000003
     ec4:	52455345 	subpl	r5, r5, #335544321	; 0x14000001
     ec8:	31444556 	cmpcc	r4, r6, asr r5
     ecc:	61640037 	cmnvs	r4, r7, lsr r0
     ed0:	695f6174 	ldmdbvs	pc, {r2, r4, r5, r6, r8, sp, lr}^	; <UNPREDICTABLE>
     ed4:	61635f6e 	cmnvs	r3, lr, ror #30
     ed8:	61626c6c 	cmnvs	r2, ip, ror #24
     edc:	62006b63 	andvs	r6, r0, #101376	; 0x18c00
     ee0:	63736544 	cmnvs	r3, #68, 10	; 0x11000000
     ee4:	74706972 	ldrbtvc	r6, [r0], #-2418	; 0xfffff68e
     ee8:	7954726f 	ldmdbvc	r4, {r0, r1, r2, r3, r5, r6, r9, ip, sp, lr}^
     eec:	55006570 	strpl	r6, [r0, #-1392]	; 0xfffffa90
     ef0:	535f4253 	cmppl	pc, #805306373	; 0x30000005
     ef4:	6e697274 	mcrvs	2, 3, r7, cr9, cr4, {3}
     ef8:	6e614d67 	cdpvs	13, 6, cr4, cr1, cr7, {3}
     efc:	63616675 	cmnvs	r1, #122683392	; 0x7500000
     f00:	69727574 	ldmdbvs	r2!, {r2, r4, r5, r6, r8, sl, ip, sp, lr}^
     f04:	6544676e 	strbvs	r6, [r4, #-1902]	; 0xfffff892
     f08:	69726373 	ldmdbvs	r2!, {r0, r1, r4, r5, r6, r8, r9, sp, lr}^
     f0c:	726f7470 	rsbvc	r7, pc, #112, 8	; 0x70000000
     f10:	6c675f00 	stclvs	15, cr5, [r7], #-0
     f14:	5f006575 	svcpl	0x00006575
     f18:	6c67735f 	stclvs	3, cr7, [r7], #-380	; 0xfffffe84
     f1c:	5f006575 	svcpl	0x00006575
     f20:	74727473 	ldrbtvc	r7, [r2], #-1139	; 0xfffffb8d
     f24:	6c5f6b6f 	mrrcvs	11, 6, r6, pc, cr15	; <UNPREDICTABLE>
     f28:	00747361 	rsbseq	r7, r4, r1, ror #6
     f2c:	74626d5f 	strbtvc	r6, [r2], #-3423	; 0xfffff2a1
     f30:	5f63776f 	svcpl	0x0063776f
     f34:	74617473 	strbtvc	r7, [r1], #-1139	; 0xfffffb8d
     f38:	6c5f0065 	mrrcvs	0, 6, r0, pc, cr5	; <UNPREDICTABLE>
     f3c:	6c61636f 	stclvs	3, cr6, [r1], #-444	; 0xfffffe44
     f40:	665f0065 	ldrbvs	r0, [pc], -r5, rrx
     f44:	6772616e 	ldrbvs	r6, [r2, -lr, ror #2]!
     f48:	725f0073 	subsvc	r0, pc, #115	; 0x73
     f4c:	746e6565 	strbtvc	r6, [lr], #-1381	; 0xfffffa9b
     f50:	42535500 	subsmi	r5, r3, #0, 10
     f54:	7274535f 	rsbsvc	r5, r4, #2080374785	; 0x7c000001
     f58:	50676e69 	rsbpl	r6, r7, r9, ror #28
     f5c:	44646f72 	strbtmi	r6, [r4], #-3954	; 0xfffff08e
     f60:	72637365 	rsbvc	r7, r3, #-1811939327	; 0x94000001
     f64:	6f747069 	svcvs	0x00747069
     f68:	665f0072 			; <UNDEFINED> instruction: 0x665f0072
     f6c:	7079746e 	rsbsvc	r7, r9, lr, ror #8
     f70:	5f007365 	svcpl	0x00007365
     f74:	6675626e 	ldrbtvs	r6, [r5], -lr, ror #4
     f78:	6e755f00 	cdpvs	15, 7, cr5, cr5, cr0, {0}
     f7c:	64657375 	strbtvs	r7, [r5], #-885	; 0xfffffc8b
     f80:	6e61725f 	mcrvs	2, 3, r7, cr1, cr15, {2}
     f84:	4c620064 	stclmi	0, cr0, [r2], #-400	; 0xfffffe70
     f88:	74676e65 	strbtvc	r6, [r7], #-3685	; 0xfffff19b
     f8c:	665f0068 	ldrbvs	r0, [pc], -r8, rrx
     f90:	7367616c 	cmnvc	r7, #108, 2
     f94:	695f0032 	ldmdbvs	pc, {r1, r4, r5}^	; <UNPREDICTABLE>
     f98:	78635f73 	stmdavc	r3!, {r0, r1, r4, r5, r6, r8, r9, sl, fp, ip, lr}^
     f9c:	735f0061 	cmpvc	pc, #97	; 0x61
     fa0:	00646565 	rsbeq	r6, r4, r5, ror #10
     fa4:	6e61725f 	mcrvs	2, 3, r7, cr1, cr15, {2}
     fa8:	656e5f64 	strbvs	r5, [lr, #-3940]!	; 0xfffff09c
     fac:	5f007478 	svcpl	0x00007478
     fb0:	78657461 	stmdavc	r5!, {r0, r5, r6, sl, ip, sp, lr}^
     fb4:	00307469 	eorseq	r7, r0, r9, ror #8
     fb8:	6f6c5f5f 	svcvs	0x006c5f5f
     fbc:	656c6163 	strbvs	r6, [ip, #-355]!	; 0xfffffe9d
     fc0:	5f00745f 	svcpl	0x0000745f
     fc4:	65647473 	strbvs	r7, [r4, #-1139]!	; 0xfffffb8d
     fc8:	77007272 	smlsdxvc	r0, r2, r2, r7
     fcc:	5f746e69 	svcpl	0x00746e69
     fd0:	5f5f0074 	svcpl	0x005f0074
     fd4:	74696e69 	strbtvc	r6, [r9], #-3689	; 0xfffff197
     fd8:	7272615f 	rsbsvc	r6, r2, #-1073741801	; 0xc0000017
     fdc:	735f7961 	cmpvc	pc, #1589248	; 0x184000
     fe0:	74726174 	ldrbtvc	r6, [r2], #-372	; 0xfffffe8c
     fe4:	7a697300 	bvc	1a5dbec <_Min_Stack_Size+0x1a5d7ec>
     fe8:	00745f65 	rsbseq	r5, r4, r5, ror #30
     fec:	696c5f5f 	stmdbvs	ip!, {r0, r1, r2, r3, r4, r6, r8, r9, sl, fp, ip, lr}^
     ff0:	695f6362 	ldmdbvs	pc, {r1, r5, r6, r8, r9, sp, lr}^	; <UNPREDICTABLE>
     ff4:	5f74696e 	svcpl	0x0074696e
     ff8:	61727261 	cmnvs	r2, r1, ror #4
     ffc:	622f0079 	eorvs	r0, pc, #121	; 0x79
    1000:	646c6975 	strbtvs	r6, [ip], #-2421	; 0xfffff68b
    1004:	77656e2f 	strbvc	r6, [r5, -pc, lsr #28]!
    1008:	2d62696c 			; <UNDEFINED> instruction: 0x2d62696c
    100c:	7667476b 	strbtvc	r4, [r7], -fp, ror #14
    1010:	6e2f4577 	mcrvs	5, 1, r4, cr15, cr7, {3}
    1014:	696c7765 	stmdbvs	ip!, {r0, r2, r5, r6, r8, r9, sl, ip, sp, lr}^
    1018:	2e332d62 	cdpcs	13, 3, cr2, cr3, cr2, {3}
    101c:	2f302e33 	svccs	0x00302e33
    1020:	6c697562 	cfstr64vs	mvdx7, [r9], #-392	; 0xfffffe78
    1024:	616e5f64 	cmnvs	lr, r4, ror #30
    1028:	612f6f6e 			; <UNDEFINED> instruction: 0x612f6f6e
    102c:	6e2d6d72 	mcrvs	13, 1, r6, cr13, cr2, {3}
    1030:	2d656e6f 	stclcs	14, cr6, [r5, #-444]!	; 0xfffffe44
    1034:	69626165 	stmdbvs	r2!, {r0, r2, r5, r6, r8, sp, lr}^
    1038:	7568742f 	strbvc	r7, [r8, #-1071]!	; 0xfffffbd1
    103c:	762f626d 	strtvc	r6, [pc], -sp, ror #4
    1040:	2f6d2d37 	svccs	0x006d2d37
    1044:	70666f6e 	rsbvc	r6, r6, lr, ror #30
    1048:	77656e2f 	strbvc	r6, [r5, -pc, lsr #28]!
    104c:	2f62696c 	svccs	0x0062696c
    1050:	6362696c 	cmnvs	r2, #108, 18	; 0x1b0000
    1054:	73696d2f 	cmnvc	r9, #3008	; 0xbc0
    1058:	5f5f0063 	svcpl	0x005f0063
    105c:	69657270 	stmdbvs	r5!, {r4, r5, r6, r9, ip, sp, lr}^
    1060:	5f74696e 	svcpl	0x0074696e
    1064:	61727261 	cmnvs	r2, r1, ror #4
    1068:	74735f79 	ldrbtvc	r5, [r3], #-3961	; 0xfffff087
    106c:	00747261 	rsbseq	r7, r4, r1, ror #4
    1070:	20554e47 	subscs	r4, r5, r7, asr #28
    1074:	20373143 	eorscs	r3, r7, r3, asr #2
    1078:	2e332e38 	mrccs	14, 1, r2, cr3, cr8, {1}
    107c:	30322031 	eorscc	r2, r2, r1, lsr r0
    1080:	37303931 			; <UNDEFINED> instruction: 0x37303931
    1084:	28203330 	stmdacs	r0!, {r4, r5, r8, r9, ip, sp}
    1088:	656c6572 	strbvs	r6, [ip, #-1394]!	; 0xfffffa8e
    108c:	29657361 	stmdbcs	r5!, {r0, r5, r6, r8, r9, ip, sp, lr}^
    1090:	63675b20 	cmnvs	r7, #32, 22	; 0x8000
    1094:	2d382d63 	ldccs	13, cr2, [r8, #-396]!	; 0xfffffe74
    1098:	6e617262 	cdpvs	2, 6, cr7, cr1, cr2, {3}
    109c:	72206863 	eorvc	r6, r0, #6488064	; 0x630000
    10a0:	73697665 	cmnvc	r9, #105906176	; 0x6500000
    10a4:	206e6f69 	rsbcs	r6, lr, r9, ror #30
    10a8:	30333732 	eorscc	r3, r3, r2, lsr r7
    10ac:	205d3732 	subscs	r3, sp, r2, lsr r7
    10b0:	6c666d2d 	stclvs	13, cr6, [r6], #-180	; 0xffffff4c
    10b4:	2d74616f 	ldfcse	f6, [r4, #-444]!	; 0xfffffe44
    10b8:	3d696261 	sfmcc	f6, 2, [r9, #-388]!	; 0xfffffe7c
    10bc:	74666f73 	strbtvc	r6, [r6], #-3955	; 0xfffff08d
    10c0:	746d2d20 	strbtvc	r2, [sp], #-3360	; 0xfffff2e0
    10c4:	626d7568 	rsbvs	r7, sp, #104, 10	; 0x1a000000
    10c8:	666d2d20 	strbtvs	r2, [sp], -r0, lsr #26
    10cc:	74616f6c 	strbtvc	r6, [r1], #-3948	; 0xfffff094
    10d0:	6962612d 	stmdbvs	r2!, {r0, r2, r3, r5, r8, sp, lr}^
    10d4:	666f733d 			; <UNDEFINED> instruction: 0x666f733d
    10d8:	6d2d2074 	stcvs	0, cr2, [sp, #-464]!	; 0xfffffe30
    10dc:	68637261 	stmdavs	r3!, {r0, r5, r6, r9, ip, sp, lr}^
    10e0:	6d72613d 	ldfvse	f6, [r2, #-244]!	; 0xffffff0c
    10e4:	6d2d3776 	stcvs	7, cr3, [sp, #-472]!	; 0xfffffe28
    10e8:	20672d20 	rsbcs	r2, r7, r0, lsr #26
    10ec:	20324f2d 	eorscs	r4, r2, sp, lsr #30
    10f0:	6f6e662d 	svcvs	0x006e662d
    10f4:	6975622d 	ldmdbvs	r5!, {r0, r2, r3, r5, r9, sp, lr}^
    10f8:	6e69746c 	cdpvs	4, 6, cr7, cr9, cr12, {3}
    10fc:	705f5f00 	subsvc	r5, pc, r0, lsl #30
    1100:	6e696572 	mcrvs	5, 3, r6, cr9, cr2, {3}
    1104:	615f7469 	cmpvs	pc, r9, ror #8
    1108:	79617272 	stmdbvc	r1!, {r1, r4, r5, r6, r9, ip, sp, lr}^
    110c:	646e655f 	strbtvs	r6, [lr], #-1375	; 0xfffffaa1
    1110:	695f5f00 	ldmdbvs	pc, {r8, r9, sl, fp, ip, lr}^	; <UNPREDICTABLE>
    1114:	5f74696e 	svcpl	0x0074696e
    1118:	61727261 	cmnvs	r2, r1, ror #4
    111c:	6e655f79 	mcrvs	15, 3, r5, cr5, cr9, {3}
    1120:	2e2e0064 	cdpcs	0, 2, cr0, cr14, cr4, {3}
    1124:	2f2e2e2f 	svccs	0x002e2e2f
    1128:	2e2f2e2e 	cdpcs	14, 2, cr2, cr15, cr14, {1}
    112c:	2e2e2f2e 	cdpcs	15, 2, cr2, cr14, cr14, {1}
    1130:	2f2e2e2f 	svccs	0x002e2e2f
    1134:	2e2f2e2e 	cdpcs	14, 2, cr2, cr15, cr14, {1}
    1138:	656e2f2e 	strbvs	r2, [lr, #-3886]!	; 0xfffff0d2
    113c:	62696c77 	rsbvs	r6, r9, #30464	; 0x7700
    1140:	62696c2f 	rsbvs	r6, r9, #12032	; 0x2f00
    1144:	696d2f63 	stmdbvs	sp!, {r0, r1, r5, r6, r8, r9, sl, fp, sp}^
    1148:	692f6373 	stmdbvs	pc!, {r0, r1, r4, r5, r6, r8, r9, sp, lr}	; <UNPREDICTABLE>
    114c:	2e74696e 	vsubcs.f16	s13, s8, s29	; <UNPREDICTABLE>
    1150:	2e2e0063 	cdpcs	0, 2, cr0, cr14, cr3, {3}
    1154:	2f2e2e2f 	svccs	0x002e2e2f
    1158:	2e2f2e2e 	cdpcs	14, 2, cr2, cr15, cr14, {1}
    115c:	2e2e2f2e 	cdpcs	15, 2, cr2, cr14, cr14, {1}
    1160:	2f2e2e2f 	svccs	0x002e2e2f
    1164:	2e2f2e2e 	cdpcs	14, 2, cr2, cr15, cr14, {1}
    1168:	2e2e2f2e 	cdpcs	15, 2, cr2, cr14, cr14, {1}
    116c:	77656e2f 	strbvc	r6, [r5, -pc, lsr #28]!
    1170:	2f62696c 	svccs	0x0062696c
    1174:	6362696c 	cmnvs	r2, #108, 18	; 0x1b0000
    1178:	63616d2f 	cmnvs	r1, #3008	; 0xbc0
    117c:	656e6968 	strbvs	r6, [lr, #-2408]!	; 0xfffff698
    1180:	6d72612f 	ldfvse	f6, [r2, #-188]!	; 0xffffff44
    1184:	6d656d2f 	stclvs	13, cr6, [r5, #-188]!	; 0xffffff44
    1188:	2d797063 	ldclcs	0, cr7, [r9, #-396]!	; 0xfffffe74
    118c:	766d7261 	strbtvc	r7, [sp], -r1, ror #4
    1190:	532e6d37 			; <UNDEFINED> instruction: 0x532e6d37
    1194:	75622f00 	strbvc	r2, [r2, #-3840]!	; 0xfffff100
    1198:	2f646c69 	svccs	0x00646c69
    119c:	6c77656e 	cfldr64vs	mvdx6, [r7], #-440	; 0xfffffe48
    11a0:	6b2d6269 	blvs	b59b4c <_Min_Stack_Size+0xb5974c>
    11a4:	77766747 	ldrbvc	r6, [r6, -r7, asr #14]!
    11a8:	656e2f45 	strbvs	r2, [lr, #-3909]!	; 0xfffff0bb
    11ac:	62696c77 	rsbvs	r6, r9, #30464	; 0x7700
    11b0:	332e332d 			; <UNDEFINED> instruction: 0x332e332d
    11b4:	622f302e 	eorvs	r3, pc, #46	; 0x2e
    11b8:	646c6975 	strbtvs	r6, [ip], #-2421	; 0xfffff68b
    11bc:	6e616e5f 	mcrvs	14, 3, r6, cr1, cr15, {2}
    11c0:	72612f6f 	rsbvc	r2, r1, #444	; 0x1bc
    11c4:	6f6e2d6d 	svcvs	0x006e2d6d
    11c8:	652d656e 	strvs	r6, [sp, #-1390]!	; 0xfffffa92
    11cc:	2f696261 	svccs	0x00696261
    11d0:	6d756874 	ldclvs	8, cr6, [r5, #-464]!	; 0xfffffe30
    11d4:	37762f62 	ldrbcc	r2, [r6, -r2, ror #30]!
    11d8:	6e2f6d2d 	cdpvs	13, 2, cr6, cr15, cr13, {1}
    11dc:	2f70666f 	svccs	0x0070666f
    11e0:	6c77656e 	cfldr64vs	mvdx6, [r7], #-440	; 0xfffffe48
    11e4:	6c2f6269 	sfmvs	f6, 4, [pc], #-420	; 1048 <_Min_Stack_Size+0xc48>
    11e8:	2f636269 	svccs	0x00636269
    11ec:	6863616d 	stmdavs	r3!, {r0, r2, r3, r5, r6, r8, sp, lr}^
    11f0:	2f656e69 	svccs	0x00656e69
    11f4:	006d7261 	rsbeq	r7, sp, r1, ror #4
    11f8:	20554e47 	subscs	r4, r5, r7, asr #28
    11fc:	32205341 	eorcc	r5, r0, #67108865	; 0x4000001
    1200:	2e32332e 	cdpcs	3, 3, cr3, cr2, cr14, {1}
    1204:	Address 0x0000000000001204 is out of bounds.


Disassembly of section .comment:

00000000 <.comment>:
   0:	3a434347 	bcc	10d0d24 <_Min_Stack_Size+0x10d0924>
   4:	35312820 	ldrcc	r2, [r1, #-2080]!	; 0xfffff7e0
   8:	322d383a 	eorcc	r3, sp, #3801088	; 0x3a0000
   c:	2d393130 	ldfcss	f3, [r9, #-192]!	; 0xffffff40
  10:	312d3371 			; <UNDEFINED> instruction: 0x312d3371
  14:	2e382029 	cdpcs	0, 3, cr2, cr8, cr9, {1}
  18:	20312e33 	eorscs	r2, r1, r3, lsr lr
  1c:	39313032 	ldmdbcc	r1!, {r1, r4, r5, ip, sp}
  20:	33303730 	teqcc	r0, #48, 14	; 0xc00000
  24:	65722820 	ldrbvs	r2, [r2, #-2080]!	; 0xfffff7e0
  28:	7361656c 	cmnvc	r1, #108, 10	; 0x1b000000
  2c:	5b202965 	blpl	80a5c8 <_Min_Stack_Size+0x80a1c8>
  30:	2d636367 	stclcs	3, cr6, [r3, #-412]!	; 0xfffffe64
  34:	72622d38 	rsbvc	r2, r2, #56, 26	; 0xe00
  38:	68636e61 	stmdavs	r3!, {r0, r5, r6, r9, sl, fp, sp, lr}^
  3c:	76657220 	strbtvc	r7, [r5], -r0, lsr #4
  40:	6f697369 	svcvs	0x00697369
  44:	3732206e 	ldrcc	r2, [r2, -lr, rrx]!
  48:	37323033 			; <UNDEFINED> instruction: 0x37323033
  4c:	Address 0x000000000000004c is out of bounds.


Disassembly of section .debug_frame:

00000000 <.debug_frame>:
   0:	0000000c 	andeq	r0, r0, ip
   4:	ffffffff 			; <UNDEFINED> instruction: 0xffffffff
   8:	7c020001 	stcvc	0, cr0, [r2], {1}
   c:	000d0c0e 	andeq	r0, sp, lr, lsl #24
  10:	0000000c 	andeq	r0, r0, ip
  14:	00000000 	andeq	r0, r0, r0
  18:	08000150 	stmdaeq	r0, {r4, r6, r8}
  1c:	00000098 	muleq	r0, r8, r0
  20:	0000000c 	andeq	r0, r0, ip
  24:	00000000 	andeq	r0, r0, r0
  28:	080001e8 	stmdaeq	r0, {r3, r5, r6, r7, r8}
  2c:	00000124 	andeq	r0, r0, r4, lsr #2
  30:	0000000c 	andeq	r0, r0, ip
  34:	00000000 	andeq	r0, r0, r0
  38:	0800030c 	stmdaeq	r0, {r2, r3, r8, r9}
  3c:	00000048 	andeq	r0, r0, r8, asr #32
  40:	0000000c 	andeq	r0, r0, ip
  44:	00000000 	andeq	r0, r0, r0
  48:	08000354 	stmdaeq	r0, {r2, r4, r6, r8, r9}
  4c:	00000002 	andeq	r0, r0, r2
  50:	0000000c 	andeq	r0, r0, ip
  54:	00000000 	andeq	r0, r0, r0
  58:	08000356 	stmdaeq	r0, {r1, r2, r4, r6, r8, r9}
  5c:	00000002 	andeq	r0, r0, r2
  60:	0000000c 	andeq	r0, r0, ip
  64:	00000000 	andeq	r0, r0, r0
  68:	08000358 	stmdaeq	r0, {r3, r4, r6, r8, r9}
  6c:	0000000c 	andeq	r0, r0, ip
  70:	00000014 	andeq	r0, r0, r4, lsl r0
  74:	00000000 	andeq	r0, r0, r0
  78:	08000d58 	stmdaeq	r0, {r3, r4, r6, r8, sl, fp}
  7c:	00000084 	andeq	r0, r0, r4, lsl #1
  80:	84080e41 	strhi	r0, [r8], #-3649	; 0xfffff1bf
  84:	00018e02 	andeq	r8, r1, r2, lsl #28
  88:	0000000c 	andeq	r0, r0, ip
  8c:	ffffffff 			; <UNDEFINED> instruction: 0xffffffff
  90:	7c020001 	stcvc	0, cr0, [r2], {1}
  94:	000d0c0e 	andeq	r0, sp, lr, lsl #24
  98:	0000000c 	andeq	r0, r0, ip
  9c:	00000088 	andeq	r0, r0, r8, lsl #1
  a0:	08000364 	stmdaeq	r0, {r2, r5, r6, r8, r9}
  a4:	00000002 	andeq	r0, r0, r2
  a8:	0000000c 	andeq	r0, r0, ip
  ac:	00000088 	andeq	r0, r0, r8, lsl #1
  b0:	08000366 	stmdaeq	r0, {r1, r2, r5, r6, r8, r9}
  b4:	00000002 	andeq	r0, r0, r2
  b8:	0000000c 	andeq	r0, r0, ip
  bc:	00000088 	andeq	r0, r0, r8, lsl #1
  c0:	08000368 	stmdaeq	r0, {r3, r5, r6, r8, r9}
  c4:	00000002 	andeq	r0, r0, r2
  c8:	0000000c 	andeq	r0, r0, ip
  cc:	00000088 	andeq	r0, r0, r8, lsl #1
  d0:	0800036a 	stmdaeq	r0, {r1, r3, r5, r6, r8, r9}
  d4:	00000004 	andeq	r0, r0, r4
  d8:	0000000c 	andeq	r0, r0, ip
  dc:	00000088 	andeq	r0, r0, r8, lsl #1
  e0:	0800036e 	stmdaeq	r0, {r1, r2, r3, r5, r6, r8, r9}
  e4:	00000004 	andeq	r0, r0, r4
  e8:	0000000c 	andeq	r0, r0, ip
  ec:	00000088 	andeq	r0, r0, r8, lsl #1
  f0:	08000372 	stmdaeq	r0, {r1, r4, r5, r6, r8, r9}
  f4:	0000006e 	andeq	r0, r0, lr, rrx
  f8:	0000001c 	andeq	r0, r0, ip, lsl r0
  fc:	00000088 	andeq	r0, r0, r8, lsl #1
 100:	080003e0 	stmdaeq	r0, {r5, r6, r7, r8, r9}
 104:	0000010c 	andeq	r0, r0, ip, lsl #2
 108:	84140e41 	ldrhi	r0, [r4], #-3649	; 0xfffff1bf
 10c:	86048505 	strhi	r8, [r4], -r5, lsl #10
 110:	8e028703 	cdphi	7, 0, cr8, cr2, cr3, {0}
 114:	00000001 	andeq	r0, r0, r1
 118:	0000001c 	andeq	r0, r0, ip, lsl r0
 11c:	00000088 	andeq	r0, r0, r8, lsl #1
 120:	080004ec 	stmdaeq	r0, {r2, r3, r5, r6, r7, sl}
 124:	0000014c 	andeq	r0, r0, ip, asr #2
 128:	84140e41 	ldrhi	r0, [r4], #-3649	; 0xfffff1bf
 12c:	86048505 	strhi	r8, [r4], -r5, lsl #10
 130:	8e028703 	cdphi	7, 0, cr8, cr2, cr3, {0}
 134:	00000001 	andeq	r0, r0, r1
 138:	00000018 	andeq	r0, r0, r8, lsl r0
 13c:	00000088 	andeq	r0, r0, r8, lsl #1
 140:	08000638 	stmdaeq	r0, {r3, r4, r5, r9, sl}
 144:	00000128 	andeq	r0, r0, r8, lsr #2
 148:	83100e41 	tsthi	r0, #1040	; 0x410
 14c:	85038404 	strhi	r8, [r3, #-1028]	; 0xfffffbfc
 150:	00018e02 	andeq	r8, r1, r2, lsl #28
 154:	0000001c 	andeq	r0, r0, ip, lsl r0
 158:	00000088 	andeq	r0, r0, r8, lsl #1
 15c:	08000760 	stmdaeq	r0, {r5, r6, r8, r9, sl}
 160:	00000054 	andeq	r0, r0, r4, asr r0
 164:	84140e41 	ldrhi	r0, [r4], #-3649	; 0xfffff1bf
 168:	86048505 	strhi	r8, [r4], -r5, lsl #10
 16c:	8e028703 	cdphi	7, 0, cr8, cr2, cr3, {0}
 170:	00000001 	andeq	r0, r0, r1
 174:	0000001c 	andeq	r0, r0, ip, lsl r0
 178:	00000088 	andeq	r0, r0, r8, lsl #1
 17c:	080007b4 	stmdaeq	r0, {r2, r4, r5, r7, r8, r9, sl}
 180:	0000005c 	andeq	r0, r0, ip, asr r0
 184:	83180e41 	tsthi	r8, #1040	; 0x410
 188:	85058406 	strhi	r8, [r5, #-1030]	; 0xfffffbfa
 18c:	87038604 	strhi	r8, [r3, -r4, lsl #12]
 190:	00018e02 	andeq	r8, r1, r2, lsl #28
 194:	00000018 	andeq	r0, r0, r8, lsl r0
 198:	00000088 	andeq	r0, r0, r8, lsl #1
 19c:	08000810 	stmdaeq	r0, {r4, fp}
 1a0:	0000005a 	andeq	r0, r0, sl, asr r0
 1a4:	840c0e41 	strhi	r0, [ip], #-3649	; 0xfffff1bf
 1a8:	8e028503 	cfsh32hi	mvfx8, mvfx2, #3
 1ac:	00000001 	andeq	r0, r0, r1
 1b0:	00000020 	andeq	r0, r0, r0, lsr #32
 1b4:	00000088 	andeq	r0, r0, r8, lsl #1
 1b8:	0800086a 	stmdaeq	r0, {r1, r3, r5, r6, fp}
 1bc:	0000011a 	andeq	r0, r0, sl, lsl r1
 1c0:	84180e41 	ldrhi	r0, [r8], #-3649	; 0xfffff1bf
 1c4:	86038504 	strhi	r8, [r3], -r4, lsl #10
 1c8:	02018e02 	andeq	r8, r1, #2, 28
 1cc:	100e0a46 	andne	r0, lr, r6, asr #20
 1d0:	00000b41 	andeq	r0, r0, r1, asr #22
 1d4:	0000000c 	andeq	r0, r0, ip
 1d8:	ffffffff 			; <UNDEFINED> instruction: 0xffffffff
 1dc:	7c020001 	stcvc	0, cr0, [r2], {1}
 1e0:	000d0c0e 	andeq	r0, sp, lr, lsl #24
 1e4:	00000020 	andeq	r0, r0, r0, lsr #32
 1e8:	000001d4 	ldrdeq	r0, [r0], -r4
 1ec:	08000984 	stmdaeq	r0, {r2, r7, r8, fp}
 1f0:	00000050 	andeq	r0, r0, r0, asr r0
 1f4:	840c0e41 	strhi	r0, [ip], #-3649	; 0xfffff1bf
 1f8:	8e028503 	cfsh32hi	mvfx8, mvfx2, #3
 1fc:	500e4201 	andpl	r4, lr, r1, lsl #4
 200:	0c0e0a58 			; <UNDEFINED> instruction: 0x0c0e0a58
 204:	00000b41 	andeq	r0, r0, r1, asr #22
 208:	0000000c 	andeq	r0, r0, ip
 20c:	000001d4 	ldrdeq	r0, [r0], -r4
 210:	080009d4 	stmdaeq	r0, {r2, r4, r6, r7, r8, fp}
 214:	0000007c 	andeq	r0, r0, ip, ror r0
 218:	0000000c 	andeq	r0, r0, ip
 21c:	000001d4 	ldrdeq	r0, [r0], -r4
 220:	08000a50 	stmdaeq	r0, {r4, r6, r9, fp}
 224:	00000004 	andeq	r0, r0, r4
 228:	00000014 	andeq	r0, r0, r4, lsl r0
 22c:	000001d4 	ldrdeq	r0, [r0], -r4
 230:	08000a54 	stmdaeq	r0, {r2, r4, r6, r9, fp}
 234:	0000002c 	andeq	r0, r0, ip, lsr #32
 238:	84080e41 	strhi	r0, [r8], #-3649	; 0xfffff1bf
 23c:	00018e02 	andeq	r8, r1, r2, lsl #28
 240:	0000001c 	andeq	r0, r0, ip, lsl r0
 244:	000001d4 	ldrdeq	r0, [r0], -r4
 248:	08000a80 	stmdaeq	r0, {r7, r9, fp}
 24c:	00000024 	andeq	r0, r0, r4, lsr #32
 250:	84080e41 	strhi	r0, [r8], #-3649	; 0xfffff1bf
 254:	43018e02 	movwmi	r8, #7682	; 0x1e02
 258:	4a04880e 	bmi	122298 <_Min_Stack_Size+0x121e98>
 25c:	0000080e 	andeq	r0, r0, lr, lsl #16
 260:	00000028 	andeq	r0, r0, r8, lsr #32
 264:	000001d4 	ldrdeq	r0, [r0], -r4
 268:	08000aa4 	stmdaeq	r0, {r2, r5, r7, r9, fp}
 26c:	00000084 	andeq	r0, r0, r4, lsl #1
 270:	841c0e42 	ldrhi	r0, [ip], #-3650	; 0xfffff1be
 274:	86068507 	strhi	r8, [r6], -r7, lsl #10
 278:	88048705 	stmdahi	r4, {r0, r2, r8, r9, sl, pc}
 27c:	8e028903 	vmlahi.f16	s16, s4, s6	; <UNPREDICTABLE>
 280:	a00e4e01 	andge	r4, lr, r1, lsl #28
 284:	0e0a5701 	cdpeq	7, 0, cr5, cr10, cr1, {0}
 288:	000b421c 	andeq	r4, fp, ip, lsl r2
 28c:	0000000c 	andeq	r0, r0, ip
 290:	000001d4 	ldrdeq	r0, [r0], -r4
 294:	08000b28 	stmdaeq	r0, {r3, r5, r8, r9, fp}
 298:	00000034 	andeq	r0, r0, r4, lsr r0
 29c:	00000014 	andeq	r0, r0, r4, lsl r0
 2a0:	000001d4 	ldrdeq	r0, [r0], -r4
 2a4:	08000b5c 	stmdaeq	r0, {r2, r3, r4, r6, r8, r9, fp}
 2a8:	0000005c 	andeq	r0, r0, ip, asr r0
 2ac:	83080e42 	movwhi	r0, #36418	; 0x8e42
 2b0:	00018e02 	andeq	r8, r1, r2, lsl #28
 2b4:	0000000c 	andeq	r0, r0, ip
 2b8:	000001d4 	ldrdeq	r0, [r0], -r4
 2bc:	08000bb8 	stmdaeq	r0, {r3, r4, r5, r7, r8, r9, fp}
 2c0:	00000020 	andeq	r0, r0, r0, lsr #32
 2c4:	0000000c 	andeq	r0, r0, ip
 2c8:	ffffffff 			; <UNDEFINED> instruction: 0xffffffff
 2cc:	7c020001 	stcvc	0, cr0, [r2], {1}
 2d0:	000d0c0e 	andeq	r0, sp, lr, lsl #24
 2d4:	00000018 	andeq	r0, r0, r8, lsl r0
 2d8:	000002c4 	andeq	r0, r0, r4, asr #5
 2dc:	08000bd8 	stmdaeq	r0, {r3, r4, r6, r7, r8, r9, fp}
 2e0:	00000048 	andeq	r0, r0, r8, asr #32
 2e4:	84100e41 	ldrhi	r0, [r0], #-3649	; 0xfffff1bf
 2e8:	86038504 	strhi	r8, [r3], -r4, lsl #10
 2ec:	00018e02 	andeq	r8, r1, r2, lsl #28
